ARM GAS  C:\Users\alexport\AppData\Local\Temp\ccMcN4Gf.s 			page 1


   1              		.syntax unified
   2              		.cpu cortex-m0
   3              		.fpu softvfp
   4              		.eabi_attribute 20, 1
   5              		.eabi_attribute 21, 1
   6              		.eabi_attribute 23, 3
   7              		.eabi_attribute 24, 1
   8              		.eabi_attribute 25, 1
   9              		.eabi_attribute 26, 1
  10              		.eabi_attribute 30, 6
  11              		.eabi_attribute 34, 0
  12              		.eabi_attribute 18, 4
  13              		.thumb
  14              		.syntax unified
  15              		.file	"blue.c"
  16              		.text
  17              	.Ltext0:
  18              		.cfi_sections	.debug_frame
  19              		.global	cyBle_initVar
  20              		.bss
  21              		.type	cyBle_initVar, %object
  22              		.size	cyBle_initVar, 1
  23              	cyBle_initVar:
  24 0000 00       		.space	1
  25              		.global	cyBle_stackMemoryRam
  26              		.section	.noinit,"aw",%progbits
  27              		.align	3
  28              		.type	cyBle_stackMemoryRam, %object
  29              		.size	cyBle_stackMemoryRam, 2872
  30              	cyBle_stackMemoryRam:
  31 0000 00000000 		.space	2872
  31      00000000 
  31      00000000 
  31      00000000 
  31      00000000 
  32              		.global	cyBle_discoveryParam
  33              		.data
  34              		.align	2
  35              		.type	cyBle_discoveryParam, %object
  36              		.size	cyBle_discoveryParam, 16
  37              	cyBle_discoveryParam:
  38 0000 2000     		.short	32
  39 0002 3000     		.short	48
  40 0004 00       		.byte	0
  41 0005 00       		.byte	0
  42 0006 00       		.byte	0
  43 0007 00       		.byte	0
  44 0008 00       		.byte	0
  45 0009 00       		.byte	0
  46 000a 50       		.byte	80
  47 000b A0       		.byte	-96
  48 000c 00       		.byte	0
  49 000d 07       		.byte	7
  50 000e 00       		.byte	0
  51 000f 00       		.space	1
  52              		.global	cyBle_discoveryData
  53              		.align	2
ARM GAS  C:\Users\alexport\AppData\Local\Temp\ccMcN4Gf.s 			page 2


  54              		.type	cyBle_discoveryData, %object
  55              		.size	cyBle_discoveryData, 32
  56              	cyBle_discoveryData:
  57 0010 02       		.byte	2
  58 0011 01       		.byte	1
  59 0012 06       		.byte	6
  60 0013 13       		.byte	19
  61 0014 09       		.byte	9
  62 0015 41       		.byte	65
  63 0016 4C       		.byte	76
  64 0017 45       		.byte	69
  65 0018 58       		.byte	88
  66 0019 5F       		.byte	95
  67 001a 50       		.byte	80
  68 001b 4F       		.byte	79
  69 001c 52       		.byte	82
  70 001d 54       		.byte	84
  71 001e 20       		.byte	32
  72 001f 30       		.byte	48
  73 0020 31       		.byte	49
  74 0021 32       		.byte	50
  75 0022 33       		.byte	51
  76 0023 34       		.byte	52
  77 0024 35       		.byte	53
  78 0025 36       		.byte	54
  79 0026 37       		.byte	55
  80 0027 03       		.byte	3
  81 0028 02       		.byte	2
  82 0029 2C       		.byte	44
  83 002a B8       		.byte	-72
  84 002b 00       		.byte	0
  85 002c 00       		.byte	0
  86 002d 00       		.byte	0
  87 002e 00       		.byte	0
  88 002f 1B       		.byte	27
  89              		.global	cyBle_scanRspData
  90              		.bss
  91 0001 000000   		.align	2
  92              		.type	cyBle_scanRspData, %object
  93              		.size	cyBle_scanRspData, 32
  94              	cyBle_scanRspData:
  95 0004 00000000 		.space	32
  95      00000000 
  95      00000000 
  95      00000000 
  95      00000000 
  96              		.global	cyBle_discoveryModeInfo
  97              		.data
  98              		.align	2
  99              		.type	cyBle_discoveryModeInfo, %object
 100              		.size	cyBle_discoveryModeInfo, 20
 101              	cyBle_discoveryModeInfo:
 102 0030 02       		.byte	2
 103 0031 000000   		.space	3
 104 0034 00000000 		.word	cyBle_discoveryParam
 105 0038 00000000 		.word	cyBle_discoveryData
 106 003c 00000000 		.word	cyBle_scanRspData
ARM GAS  C:\Users\alexport\AppData\Local\Temp\ccMcN4Gf.s 			page 3


 107 0040 0000     		.short	0
 108 0042 0000     		.space	2
 109              		.comm	cyBle_peerBonding,1,1
 110              		.comm	cyBle_pendingFlashWrite,1,1
 111              		.bss
 112              	cyBle_pendingFlashClearCccdHandle:
 113 0024 00       		.space	1
 114              		.comm	CyBle_ApplCallback,4,4
 115              		.global	cyBle_deviceAddress
 116              		.data
 117              		.align	2
 118              		.type	cyBle_deviceAddress, %object
 119              		.size	cyBle_deviceAddress, 7
 120              	cyBle_deviceAddress:
 121 0044 00       		.byte	0
 122 0045 00       		.byte	0
 123 0046 00       		.byte	0
 124 0047 50       		.byte	80
 125 0048 A0       		.byte	-96
 126 0049 00       		.byte	0
 127 004a 00       		.byte	0
 128              		.global	cyBle_sflashDeviceAddress
 129 004b 00       		.align	2
 130              		.type	cyBle_sflashDeviceAddress, %object
 131              		.size	cyBle_sflashDeviceAddress, 4
 132              	cyBle_sflashDeviceAddress:
 133 004c 00F4FF0F 		.word	268432384
 134              		.section	.text.CyBle_Init,"ax",%progbits
 135              		.align	2
 136              		.global	CyBle_Init
 137              		.code	16
 138              		.thumb_func
 139              		.type	CyBle_Init, %function
 140              	CyBle_Init:
 141              	.LFB2:
 142              		.file 1 "Generated_Source\\PSoC4\\blue.c"
   1:Generated_Source\PSoC4/blue.c **** /***************************************************************************//**
   2:Generated_Source\PSoC4/blue.c **** * \file CYBLE.c
   3:Generated_Source\PSoC4/blue.c **** * \version 3.40
   4:Generated_Source\PSoC4/blue.c **** * 
   5:Generated_Source\PSoC4/blue.c **** * \brief
   6:Generated_Source\PSoC4/blue.c **** *  This file contains the source code for the Common APIs of the BLE Component.
   7:Generated_Source\PSoC4/blue.c **** * 
   8:Generated_Source\PSoC4/blue.c **** ********************************************************************************
   9:Generated_Source\PSoC4/blue.c **** * \copyright
  10:Generated_Source\PSoC4/blue.c **** * Copyright 2014-2016, Cypress Semiconductor Corporation.  All rights reserved.
  11:Generated_Source\PSoC4/blue.c **** * You may use this file only in accordance with the license, terms, conditions,
  12:Generated_Source\PSoC4/blue.c **** * disclaimers, and limitations in the end user license agreement accompanying
  13:Generated_Source\PSoC4/blue.c **** * the software package with which this file was provided.
  14:Generated_Source\PSoC4/blue.c **** *******************************************************************************/
  15:Generated_Source\PSoC4/blue.c **** 
  16:Generated_Source\PSoC4/blue.c **** #include "blue_eventHandler.h"
  17:Generated_Source\PSoC4/blue.c **** #include "blue_HAL_PVT.h"
  18:Generated_Source\PSoC4/blue.c **** #include <stdlib.h>
  19:Generated_Source\PSoC4/blue.c **** 
  20:Generated_Source\PSoC4/blue.c **** 
  21:Generated_Source\PSoC4/blue.c **** /***************************************
ARM GAS  C:\Users\alexport\AppData\Local\Temp\ccMcN4Gf.s 			page 4


  22:Generated_Source\PSoC4/blue.c **** * Function Prototypes
  23:Generated_Source\PSoC4/blue.c **** ***************************************/
  24:Generated_Source\PSoC4/blue.c **** 
  25:Generated_Source\PSoC4/blue.c **** #if(CYBLE_GATT_ROLE_SERVER)
  26:Generated_Source\PSoC4/blue.c ****     #if(CYBLE_GAP_ROLE_PERIPHERAL)
  27:Generated_Source\PSoC4/blue.c ****         static void CyBle_ChangeAdLocalName(const char8 name[], uint8 dest);
  28:Generated_Source\PSoC4/blue.c ****     #endif /* (CYBLE_GAP_ROLE_PERIPHERAL) */
  29:Generated_Source\PSoC4/blue.c **** #endif /* (CYBLE_GATT_ROLE_SERVER) */
  30:Generated_Source\PSoC4/blue.c ****     
  31:Generated_Source\PSoC4/blue.c **** 
  32:Generated_Source\PSoC4/blue.c **** /***************************************
  33:Generated_Source\PSoC4/blue.c **** * Global Variables
  34:Generated_Source\PSoC4/blue.c **** ***************************************/
  35:Generated_Source\PSoC4/blue.c **** 
  36:Generated_Source\PSoC4/blue.c **** /* Indicates whether the BLE has been initialized. The variable is initialized to
  37:Generated_Source\PSoC4/blue.c ****    0 and set to 1 the first time CyBle_Start() is called. This allows the component
  38:Generated_Source\PSoC4/blue.c ****    to restart without reinitialization after the first call to the CyBle_Start() 
  39:Generated_Source\PSoC4/blue.c ****    routine. If reinitialization of the component is required, the variable should 
  40:Generated_Source\PSoC4/blue.c ****    be set to 0 before the CyBle_Start() routine is called. Alternatively, the BLE
  41:Generated_Source\PSoC4/blue.c ****    can be reinitialized by calling the CyBle_Init() function.
  42:Generated_Source\PSoC4/blue.c **** */
  43:Generated_Source\PSoC4/blue.c **** uint8  cyBle_initVar = 0u;
  44:Generated_Source\PSoC4/blue.c **** 
  45:Generated_Source\PSoC4/blue.c **** /* Allocate RAM memory for stack. This buffer could be reused by application when 
  46:Generated_Source\PSoC4/blue.c ****    BLE component is stopped. For export mode buffer is allocated in heap.
  47:Generated_Source\PSoC4/blue.c **** */
  48:Generated_Source\PSoC4/blue.c **** #if(CYBLE_SHARING_MODE_EXPORT)
  49:Generated_Source\PSoC4/blue.c ****     
  50:Generated_Source\PSoC4/blue.c **** uint8 *cyBle_stackMemoryRam = NULL;
  51:Generated_Source\PSoC4/blue.c **** 
  52:Generated_Source\PSoC4/blue.c **** #else
  53:Generated_Source\PSoC4/blue.c **** 
  54:Generated_Source\PSoC4/blue.c **** CYBLE_CYALIGNED_BEGIN CY_NOINIT uint8 cyBle_stackMemoryRam[CYBLE_STACK_RAM_SIZE] CYBLE_CYALIGNED_EN
  55:Generated_Source\PSoC4/blue.c **** 
  56:Generated_Source\PSoC4/blue.c **** #endif  /* CYBLE_SHARING_MODE_EXPORT */
  57:Generated_Source\PSoC4/blue.c **** 
  58:Generated_Source\PSoC4/blue.c **** #if(CYBLE_GAP_ROLE_PERIPHERAL || CYBLE_GAP_ROLE_BROADCASTER)
  59:Generated_Source\PSoC4/blue.c **** 
  60:Generated_Source\PSoC4/blue.c **** CYBLE_GAPP_DISC_PARAM_T cyBle_discoveryParam =
  61:Generated_Source\PSoC4/blue.c **** {
  62:Generated_Source\PSoC4/blue.c ****     0x0020u,    /* uint16 advertising_interval_min */
  63:Generated_Source\PSoC4/blue.c ****     0x0030u,    /* uint16 advertising_interval_max */
  64:Generated_Source\PSoC4/blue.c ****     CYBLE_GAPP_CONNECTABLE_UNDIRECTED_ADV, /* uint8 advertising_type */
  65:Generated_Source\PSoC4/blue.c ****     0x00u,      /* uint8 own_addr_type */
  66:Generated_Source\PSoC4/blue.c ****     0x00u,      /* uint8 direct_addr_type */
  67:Generated_Source\PSoC4/blue.c ****     {0x00u, 0x00u, 0x00u, 0x50u, 0xA0u, 0x00u}, /* uint8* direct_addr */
  68:Generated_Source\PSoC4/blue.c ****     0x07u,      /* uint8 advertising_channel_map */
  69:Generated_Source\PSoC4/blue.c ****     0x00u,      /* uint8 advertising_filter_policy */
  70:Generated_Source\PSoC4/blue.c **** };
  71:Generated_Source\PSoC4/blue.c **** 
  72:Generated_Source\PSoC4/blue.c **** CYBLE_GAPP_DISC_DATA_T cyBle_discoveryData =
  73:Generated_Source\PSoC4/blue.c **** {
  74:Generated_Source\PSoC4/blue.c ****     { 0x02u, 0x01u, 0x06u, 0x13u, 0x09u, 0x41u, 0x4Cu,
  75:Generated_Source\PSoC4/blue.c ****     0x45u, 0x58u, 0x5Fu, 0x50u, 0x4Fu, 0x52u, 0x54u, 0x20u,
  76:Generated_Source\PSoC4/blue.c ****     0x30u, 0x31u, 0x32u, 0x33u, 0x34u, 0x35u, 0x36u, 0x37u,
  77:Generated_Source\PSoC4/blue.c ****     0x03u, 0x02u, 0x2Cu, 0xB8u, 0x00u, 0x00u, 0x00u, 0x00u }, /* uint8 advertising_data[CYBLE_MAX_A
  78:Generated_Source\PSoC4/blue.c ****     0x1Bu,      /* uint8 adv_data_length */
ARM GAS  C:\Users\alexport\AppData\Local\Temp\ccMcN4Gf.s 			page 5


  79:Generated_Source\PSoC4/blue.c **** };
  80:Generated_Source\PSoC4/blue.c **** 
  81:Generated_Source\PSoC4/blue.c **** CYBLE_GAPP_SCAN_RSP_DATA_T cyBle_scanRspData =
  82:Generated_Source\PSoC4/blue.c **** {
  83:Generated_Source\PSoC4/blue.c ****     { 0x00u, 0x00u, 0x00u, 0x00u, 0x00u, 0x00u, 0x00u,
  84:Generated_Source\PSoC4/blue.c ****     0x00u, 0x00u, 0x00u, 0x00u, 0x00u, 0x00u, 0x00u, 0x00u,
  85:Generated_Source\PSoC4/blue.c ****     0x00u, 0x00u, 0x00u, 0x00u, 0x00u, 0x00u, 0x00u, 0x00u,
  86:Generated_Source\PSoC4/blue.c ****     0x00u, 0x00u, 0x00u, 0x00u, 0x00u, 0x00u, 0x00u, 0x00u }, /* uint8 scan_rsp_data[CYBLE_MAX_SCAN
  87:Generated_Source\PSoC4/blue.c ****     0x00u,      /* uint8 scan_rsp_data_length */
  88:Generated_Source\PSoC4/blue.c **** };
  89:Generated_Source\PSoC4/blue.c **** 
  90:Generated_Source\PSoC4/blue.c **** /* This variable of type CYBLE_GAPP_DISC_MODE_INFO_T is present only when 
  91:Generated_Source\PSoC4/blue.c ****    the BLE component is configured for Peripheral GAP role or Central and 
  92:Generated_Source\PSoC4/blue.c ****    Peripheral GAP role. It contains the Advertisement settings and also the 
  93:Generated_Source\PSoC4/blue.c ****    Advertisement and Scan response data parameters entered in the customizer.
  94:Generated_Source\PSoC4/blue.c ****    This variable can be used by advanced users to change Advertisement settings,
  95:Generated_Source\PSoC4/blue.c ****    Advertisement or Scan response data in runtime. 
  96:Generated_Source\PSoC4/blue.c **** */
  97:Generated_Source\PSoC4/blue.c **** CYBLE_GAPP_DISC_MODE_INFO_T cyBle_discoveryModeInfo =
  98:Generated_Source\PSoC4/blue.c **** {
  99:Generated_Source\PSoC4/blue.c ****     0x02u,      /* uint8 discMode */
 100:Generated_Source\PSoC4/blue.c ****     &cyBle_discoveryParam,
 101:Generated_Source\PSoC4/blue.c ****     &cyBle_discoveryData,
 102:Generated_Source\PSoC4/blue.c ****     &cyBle_scanRspData,
 103:Generated_Source\PSoC4/blue.c ****     0x0000u,    /* uint16 advTo */
 104:Generated_Source\PSoC4/blue.c **** };
 105:Generated_Source\PSoC4/blue.c **** 
 106:Generated_Source\PSoC4/blue.c **** 
 107:Generated_Source\PSoC4/blue.c **** #endif /* CYBLE_GAP_ROLE_PERIPHERAL || CYBLE_GAP_ROLE_BROADCASTER */
 108:Generated_Source\PSoC4/blue.c **** 
 109:Generated_Source\PSoC4/blue.c **** #if(CYBLE_GAP_ROLE_CENTRAL)
 110:Generated_Source\PSoC4/blue.c ****     
 111:Generated_Source\PSoC4/blue.c **** CYBLE_GAPC_CONN_PARAM_T cyBle_connectionParameters;
 112:Generated_Source\PSoC4/blue.c **** 
 113:Generated_Source\PSoC4/blue.c **** /* Connecting timeout is set to 30 seconds in CyBle_Init function. 
 114:Generated_Source\PSoC4/blue.c ****    Not zero value starts timer in CyBle_GapcConnectDevice() API fucntion.
 115:Generated_Source\PSoC4/blue.c **** */
 116:Generated_Source\PSoC4/blue.c **** uint16 cyBle_connectingTimeout;
 117:Generated_Source\PSoC4/blue.c ****     
 118:Generated_Source\PSoC4/blue.c **** #endif /* CYBLE_GAP_ROLE_CENTRAL */
 119:Generated_Source\PSoC4/blue.c **** 
 120:Generated_Source\PSoC4/blue.c **** #if(CYBLE_GAP_ROLE_CENTRAL || CYBLE_GAP_ROLE_OBSERVER)
 121:Generated_Source\PSoC4/blue.c ****     
 122:Generated_Source\PSoC4/blue.c **** 
 123:Generated_Source\PSoC4/blue.c ****     
 124:Generated_Source\PSoC4/blue.c **** #endif /* CYBLE_GAP_ROLE_CENTRAL || CYBLE_GAP_ROLE_OBSERVER */
 125:Generated_Source\PSoC4/blue.c **** 
 126:Generated_Source\PSoC4/blue.c **** #if((CYBLE_GAP_ROLE_PERIPHERAL || CYBLE_GAP_ROLE_CENTRAL) && (CYBLE_BONDING_REQUIREMENT == CYBLE_BO
 127:Generated_Source\PSoC4/blue.c **** 
 128:Generated_Source\PSoC4/blue.c **** uint8 cyBle_peerBonding;
 129:Generated_Source\PSoC4/blue.c **** uint8 cyBle_pendingFlashWrite;
 130:Generated_Source\PSoC4/blue.c ****     
 131:Generated_Source\PSoC4/blue.c **** #if(CYBLE_GATT_DB_CCCD_COUNT != 0u)
 132:Generated_Source\PSoC4/blue.c ****     static uint8 cyBle_pendingFlashClearCccdHandle;
 133:Generated_Source\PSoC4/blue.c **** #endif /* CYBLE_GATT_DB_CCCD_COUNT != 0u */
 134:Generated_Source\PSoC4/blue.c ****     
 135:Generated_Source\PSoC4/blue.c **** #endif  /* (CYBLE_BONDING_REQUIREMENT == CYBLE_BONDING_YES) */
ARM GAS  C:\Users\alexport\AppData\Local\Temp\ccMcN4Gf.s 			page 6


 136:Generated_Source\PSoC4/blue.c **** 
 137:Generated_Source\PSoC4/blue.c **** CYBLE_CALLBACK_T CyBle_ApplCallback;
 138:Generated_Source\PSoC4/blue.c **** CYBLE_GAP_BD_ADDR_T cyBle_deviceAddress = {{0x00u, 0x00u, 0x00u, 0x50u, 0xA0u, 0x00u}, 0x00u };
 139:Generated_Source\PSoC4/blue.c **** CYBLE_GAP_BD_ADDR_T * cyBle_sflashDeviceAddress = CYBLE_SFLASH_DEVICE_ADDRESS_PTR;
 140:Generated_Source\PSoC4/blue.c **** 
 141:Generated_Source\PSoC4/blue.c **** 
 142:Generated_Source\PSoC4/blue.c **** /******************************************************************************
 143:Generated_Source\PSoC4/blue.c **** * Function Name: CyBle_Init
 144:Generated_Source\PSoC4/blue.c **** ***************************************************************************//**
 145:Generated_Source\PSoC4/blue.c **** *
 146:Generated_Source\PSoC4/blue.c **** *   Initializes the component with the parameters set in the customizer.
 147:Generated_Source\PSoC4/blue.c **** * 
 148:Generated_Source\PSoC4/blue.c **** *  \return
 149:Generated_Source\PSoC4/blue.c **** *   None
 150:Generated_Source\PSoC4/blue.c **** * 
 151:Generated_Source\PSoC4/blue.c **** ******************************************************************************/
 152:Generated_Source\PSoC4/blue.c **** void CyBle_Init(void)
 153:Generated_Source\PSoC4/blue.c **** {
 143              		.loc 1 153 0
 144              		.cfi_startproc
 145              		@ args = 0, pretend = 0, frame = 0
 146              		@ frame_needed = 1, uses_anonymous_args = 0
 147 0000 80B5     		push	{r7, lr}
 148              		.cfi_def_cfa_offset 8
 149              		.cfi_offset 7, -8
 150              		.cfi_offset 14, -4
 151 0002 00AF     		add	r7, sp, #0
 152              		.cfi_def_cfa_register 7
 154:Generated_Source\PSoC4/blue.c ****     cyBle_eventHandlerFlag = 0u;
 153              		.loc 1 154 0
 154 0004 094B     		ldr	r3, .L2
 155 0006 0022     		movs	r2, #0
 156 0008 1A70     		strb	r2, [r3]
 155:Generated_Source\PSoC4/blue.c ****     cyBle_busyStatus = CYBLE_STACK_STATE_FREE;
 157              		.loc 1 155 0
 158 000a 094B     		ldr	r3, .L2+4
 159 000c 0022     		movs	r2, #0
 160 000e 1A70     		strb	r2, [r3]
 156:Generated_Source\PSoC4/blue.c **** 
 157:Generated_Source\PSoC4/blue.c ****     #if(CYBLE_GAP_ROLE_PERIPHERAL || CYBLE_GAP_ROLE_BROADCASTER) 
 158:Generated_Source\PSoC4/blue.c ****         cyBle_advertisingIntervalType = CYBLE_ADVERTISING_FAST; 
 161              		.loc 1 158 0
 162 0010 084B     		ldr	r3, .L2+8
 163 0012 0022     		movs	r2, #0
 164 0014 1A70     		strb	r2, [r3]
 159:Generated_Source\PSoC4/blue.c ****     #endif /* (CYBLE_GAP_ROLE_PERIPHERAL || CYBLE_GAP_ROLE_BROADCASTER)  */
 160:Generated_Source\PSoC4/blue.c ****     #if(CYBLE_GAP_ROLE_CENTRAL || CYBLE_GAP_ROLE_OBSERVER)
 161:Generated_Source\PSoC4/blue.c ****         cyBle_scanningIntervalType = CYBLE_SCANNING_FAST; 
 162:Generated_Source\PSoC4/blue.c ****     #endif /* (CYBLE_GAP_ROLE_CENTRAL || CYBLE_GAP_ROLE_OBSERVER) */
 163:Generated_Source\PSoC4/blue.c ****         
 164:Generated_Source\PSoC4/blue.c ****     /* Init default connection parameters. 
 165:Generated_Source\PSoC4/blue.c ****        Application may change it before initiating a connection */
 166:Generated_Source\PSoC4/blue.c ****     #if(CYBLE_GAP_ROLE_CENTRAL)
 167:Generated_Source\PSoC4/blue.c ****         cyBle_connectionParameters.scanIntv = cyBle_discoveryInfo.scanIntv;
 168:Generated_Source\PSoC4/blue.c ****         cyBle_connectionParameters.scanWindow = cyBle_discoveryInfo.scanWindow;
 169:Generated_Source\PSoC4/blue.c ****         cyBle_connectionParameters.ownAddrType = cyBle_discoveryInfo.ownAddrType;
 170:Generated_Source\PSoC4/blue.c ****         cyBle_connectionParameters.initiatorFilterPolicy = cyBle_discoveryInfo.scanFilterPolicy;
ARM GAS  C:\Users\alexport\AppData\Local\Temp\ccMcN4Gf.s 			page 7


 171:Generated_Source\PSoC4/blue.c ****         cyBle_connectionParameters.connIntvMin = CYBLE_GAPC_CONNECTION_INTERVAL_MIN;
 172:Generated_Source\PSoC4/blue.c ****         cyBle_connectionParameters.connIntvMax = CYBLE_GAPC_CONNECTION_INTERVAL_MAX;
 173:Generated_Source\PSoC4/blue.c ****         cyBle_connectionParameters.connLatency = CYBLE_GAPC_CONNECTION_SLAVE_LATENCY;
 174:Generated_Source\PSoC4/blue.c ****         cyBle_connectionParameters.supervisionTO = CYBLE_GAPC_CONNECTION_TIME_OUT;
 175:Generated_Source\PSoC4/blue.c ****         cyBle_connectionParameters.minCeLength = 0x0000u;
 176:Generated_Source\PSoC4/blue.c ****         cyBle_connectionParameters.maxCeLength = 0xFFFFu;
 177:Generated_Source\PSoC4/blue.c ****         
 178:Generated_Source\PSoC4/blue.c ****         cyBle_connectingTimeout = CYBLE_GAPC_CONNECTING_TIMEOUT;
 179:Generated_Source\PSoC4/blue.c ****     #endif /* CYBLE_GAP_ROLE_CENTRAL */
 180:Generated_Source\PSoC4/blue.c **** 
 181:Generated_Source\PSoC4/blue.c ****     CyBle_ServiceInit();
 165              		.loc 1 181 0
 166 0016 FFF7FEFF 		bl	CyBle_ServiceInit
 182:Generated_Source\PSoC4/blue.c **** 
 183:Generated_Source\PSoC4/blue.c ****     #if((CYBLE_GAP_ROLE_PERIPHERAL || CYBLE_GAP_ROLE_CENTRAL) && (CYBLE_BONDING_REQUIREMENT == CYBL
 184:Generated_Source\PSoC4/blue.c ****         cyBle_pendingFlashWrite = 0u;
 167              		.loc 1 184 0
 168 001a 074B     		ldr	r3, .L2+12
 169 001c 0022     		movs	r2, #0
 170 001e 1A70     		strb	r2, [r3]
 185:Generated_Source\PSoC4/blue.c ****         cyBle_peerBonding = CYBLE_GAP_BONDING_NONE;
 171              		.loc 1 185 0
 172 0020 064B     		ldr	r3, .L2+16
 173 0022 0022     		movs	r2, #0
 174 0024 1A70     		strb	r2, [r3]
 186:Generated_Source\PSoC4/blue.c ****     #endif  /* (CYBLE_BONDING_REQUIREMENT == CYBLE_BONDING_YES) */
 187:Generated_Source\PSoC4/blue.c **** 
 188:Generated_Source\PSoC4/blue.c **** }
 175              		.loc 1 188 0
 176 0026 C046     		nop
 177 0028 BD46     		mov	sp, r7
 178              		@ sp needed
 179 002a 80BD     		pop	{r7, pc}
 180              	.L3:
 181              		.align	2
 182              	.L2:
 183 002c 00000000 		.word	cyBle_eventHandlerFlag
 184 0030 00000000 		.word	cyBle_busyStatus
 185 0034 00000000 		.word	cyBle_advertisingIntervalType
 186 0038 00000000 		.word	cyBle_pendingFlashWrite
 187 003c 00000000 		.word	cyBle_peerBonding
 188              		.cfi_endproc
 189              	.LFE2:
 190              		.size	CyBle_Init, .-CyBle_Init
 191              		.section	.text.CyBle_ServiceInit,"ax",%progbits
 192              		.align	2
 193              		.global	CyBle_ServiceInit
 194              		.code	16
 195              		.thumb_func
 196              		.type	CyBle_ServiceInit, %function
 197              	CyBle_ServiceInit:
 198              	.LFB3:
 189:Generated_Source\PSoC4/blue.c **** 
 190:Generated_Source\PSoC4/blue.c **** 
 191:Generated_Source\PSoC4/blue.c **** /******************************************************************************
 192:Generated_Source\PSoC4/blue.c **** * Function Name: CyBle_ServiceInit
 193:Generated_Source\PSoC4/blue.c **** ***************************************************************************//**
ARM GAS  C:\Users\alexport\AppData\Local\Temp\ccMcN4Gf.s 			page 8


 194:Generated_Source\PSoC4/blue.c **** * 
 195:Generated_Source\PSoC4/blue.c **** *  Initializes all included services.
 196:Generated_Source\PSoC4/blue.c **** * 
 197:Generated_Source\PSoC4/blue.c **** * \return
 198:Generated_Source\PSoC4/blue.c **** *  None
 199:Generated_Source\PSoC4/blue.c **** * 
 200:Generated_Source\PSoC4/blue.c **** ******************************************************************************/
 201:Generated_Source\PSoC4/blue.c **** void CyBle_ServiceInit(void)
 202:Generated_Source\PSoC4/blue.c **** {
 199              		.loc 1 202 0
 200              		.cfi_startproc
 201              		@ args = 0, pretend = 0, frame = 0
 202              		@ frame_needed = 1, uses_anonymous_args = 0
 203 0000 80B5     		push	{r7, lr}
 204              		.cfi_def_cfa_offset 8
 205              		.cfi_offset 7, -8
 206              		.cfi_offset 14, -4
 207 0002 00AF     		add	r7, sp, #0
 208              		.cfi_def_cfa_register 7
 203:Generated_Source\PSoC4/blue.c ****     #if(CYBLE_GATT_ROLE_CLIENT)
 204:Generated_Source\PSoC4/blue.c ****         /* Check service range before clearing to support partial discovery */
 205:Generated_Source\PSoC4/blue.c ****         if(cyBle_serverInfo[CYBLE_SRVI_GAP].range.startHandle == CYBLE_GATT_INVALID_ATTR_HANDLE_VAL
 206:Generated_Source\PSoC4/blue.c ****         {
 207:Generated_Source\PSoC4/blue.c ****             (void)memset(&cyBle_gapc, 0, sizeof(cyBle_gapc));
 208:Generated_Source\PSoC4/blue.c ****         }
 209:Generated_Source\PSoC4/blue.c ****         if(cyBle_serverInfo[CYBLE_SRVI_GATT].range.startHandle == CYBLE_GATT_INVALID_ATTR_HANDLE_VA
 210:Generated_Source\PSoC4/blue.c ****         {
 211:Generated_Source\PSoC4/blue.c ****             (void)memset(&cyBle_gattc, 0, sizeof(cyBle_gattc));
 212:Generated_Source\PSoC4/blue.c ****         }
 213:Generated_Source\PSoC4/blue.c ****     #endif /* CYBLE_GATT_ROLE_CLIENT */
 214:Generated_Source\PSoC4/blue.c **** 
 215:Generated_Source\PSoC4/blue.c ****    	#ifdef CYBLE_AIOS
 216:Generated_Source\PSoC4/blue.c ****         CyBle_AiosInit();
 217:Generated_Source\PSoC4/blue.c ****     #endif /* CYBLE_AIOS */
 218:Generated_Source\PSoC4/blue.c **** 
 219:Generated_Source\PSoC4/blue.c **** 	#ifdef CYBLE_ANCS
 220:Generated_Source\PSoC4/blue.c ****         CyBle_AncsInit();
 221:Generated_Source\PSoC4/blue.c ****     #endif /* CYBLE_ANCS */
 222:Generated_Source\PSoC4/blue.c **** 	
 223:Generated_Source\PSoC4/blue.c ****     #ifdef CYBLE_ANS
 224:Generated_Source\PSoC4/blue.c ****         CyBle_AnsInit();
 225:Generated_Source\PSoC4/blue.c ****     #endif /* CYBLE_ANS */
 226:Generated_Source\PSoC4/blue.c ****     
 227:Generated_Source\PSoC4/blue.c ****     #ifdef CYBLE_BAS
 228:Generated_Source\PSoC4/blue.c ****         CyBle_BasInit();
 229:Generated_Source\PSoC4/blue.c ****     #endif /* CYBLE_BAS */
 230:Generated_Source\PSoC4/blue.c ****     
 231:Generated_Source\PSoC4/blue.c ****     #ifdef CYBLE_BCS
 232:Generated_Source\PSoC4/blue.c ****         CyBle_BcsInit();
 233:Generated_Source\PSoC4/blue.c ****     #endif /* CYBLE_BCS */
 234:Generated_Source\PSoC4/blue.c **** 
 235:Generated_Source\PSoC4/blue.c ****     #ifdef CYBLE_BLS
 236:Generated_Source\PSoC4/blue.c ****         CyBle_BlsInit();
 237:Generated_Source\PSoC4/blue.c ****     #endif /* CYBLE_BLS */
 238:Generated_Source\PSoC4/blue.c ****     
 239:Generated_Source\PSoC4/blue.c ****     #ifdef CYBLE_BMS
 240:Generated_Source\PSoC4/blue.c ****         CyBle_BmsInit();
ARM GAS  C:\Users\alexport\AppData\Local\Temp\ccMcN4Gf.s 			page 9


 241:Generated_Source\PSoC4/blue.c ****     #endif /* CYBLE_BMS */
 242:Generated_Source\PSoC4/blue.c ****     
 243:Generated_Source\PSoC4/blue.c ****     #ifdef CYBLE_CGMS
 244:Generated_Source\PSoC4/blue.c ****         CyBle_CgmsInit();
 245:Generated_Source\PSoC4/blue.c ****     #endif /* CYBLE_CGMS */
 246:Generated_Source\PSoC4/blue.c **** 
 247:Generated_Source\PSoC4/blue.c ****     #ifdef CYBLE_CPS
 248:Generated_Source\PSoC4/blue.c ****         CyBle_CpsInit();
 249:Generated_Source\PSoC4/blue.c ****     #endif /* CYBLE_CPS */
 250:Generated_Source\PSoC4/blue.c **** 
 251:Generated_Source\PSoC4/blue.c ****     #ifdef CYBLE_CSCS
 252:Generated_Source\PSoC4/blue.c ****         CyBle_CscsInit();
 253:Generated_Source\PSoC4/blue.c ****     #endif /* CYBLE_CSCS */
 254:Generated_Source\PSoC4/blue.c ****     
 255:Generated_Source\PSoC4/blue.c ****     #ifdef CYBLE_CTS
 256:Generated_Source\PSoC4/blue.c ****         CyBle_CtsInit();
 257:Generated_Source\PSoC4/blue.c ****     #endif /* CYBLE_CTS */
 258:Generated_Source\PSoC4/blue.c **** 
 259:Generated_Source\PSoC4/blue.c ****     #ifdef CYBLE_CUSTOM
 260:Generated_Source\PSoC4/blue.c ****         CyBle_CustomInit();
 209              		.loc 1 260 0
 210 0004 FFF7FEFF 		bl	CyBle_CustomInit
 261:Generated_Source\PSoC4/blue.c ****     #endif /* CYBLE_CUSTOM */
 262:Generated_Source\PSoC4/blue.c **** 
 263:Generated_Source\PSoC4/blue.c ****     #ifdef CYBLE_DIS
 264:Generated_Source\PSoC4/blue.c ****         CyBle_DisInit();
 211              		.loc 1 264 0
 212 0008 FFF7FEFF 		bl	CyBle_DisInit
 265:Generated_Source\PSoC4/blue.c ****     #endif /* CYBLE_DIS */
 266:Generated_Source\PSoC4/blue.c **** 
 267:Generated_Source\PSoC4/blue.c ****     #ifdef CYBLE_ESS
 268:Generated_Source\PSoC4/blue.c ****         CyBle_EssInit();
 269:Generated_Source\PSoC4/blue.c ****     #endif /* CYBLE_ESS */
 270:Generated_Source\PSoC4/blue.c ****     
 271:Generated_Source\PSoC4/blue.c ****     #ifdef CYBLE_GLS
 272:Generated_Source\PSoC4/blue.c ****         CyBle_GlsInit();
 273:Generated_Source\PSoC4/blue.c ****     #endif /* CYBLE_GLS */
 274:Generated_Source\PSoC4/blue.c ****     
 275:Generated_Source\PSoC4/blue.c ****     #ifdef CYBLE_HIDS
 276:Generated_Source\PSoC4/blue.c ****         CyBle_HidsInit();
 277:Generated_Source\PSoC4/blue.c ****     #endif /* CYBLE_HIDS */
 278:Generated_Source\PSoC4/blue.c **** 
 279:Generated_Source\PSoC4/blue.c ****     #ifdef CYBLE_HPS
 280:Generated_Source\PSoC4/blue.c ****         CyBle_HpsInit();
 281:Generated_Source\PSoC4/blue.c ****     #endif /* CYBLE_HPS */
 282:Generated_Source\PSoC4/blue.c **** 
 283:Generated_Source\PSoC4/blue.c ****     #ifdef CYBLE_HRS
 284:Generated_Source\PSoC4/blue.c ****         CyBle_HrsInit();
 285:Generated_Source\PSoC4/blue.c ****     #endif /* CYBLE_HRS */
 286:Generated_Source\PSoC4/blue.c ****     
 287:Generated_Source\PSoC4/blue.c ****     #ifdef CYBLE_HTS
 288:Generated_Source\PSoC4/blue.c ****         CyBle_HtsInit();
 289:Generated_Source\PSoC4/blue.c ****     #endif /* CYBLE_RSCS */
 290:Generated_Source\PSoC4/blue.c **** 
 291:Generated_Source\PSoC4/blue.c ****     #ifdef CYBLE_IAS
 292:Generated_Source\PSoC4/blue.c ****         CyBle_IasInit();
 293:Generated_Source\PSoC4/blue.c ****     #endif /* CYBLE_IAS */
ARM GAS  C:\Users\alexport\AppData\Local\Temp\ccMcN4Gf.s 			page 10


 294:Generated_Source\PSoC4/blue.c **** 
 295:Generated_Source\PSoC4/blue.c ****     #ifdef CYBLE_IPS
 296:Generated_Source\PSoC4/blue.c ****         CyBle_IpsInit();
 297:Generated_Source\PSoC4/blue.c ****     #endif /* CYBLE_IPS */
 298:Generated_Source\PSoC4/blue.c ****     
 299:Generated_Source\PSoC4/blue.c ****     #ifdef CYBLE_LLS
 300:Generated_Source\PSoC4/blue.c ****         CyBle_LlsInit();
 301:Generated_Source\PSoC4/blue.c ****     #endif /* CYBLE_LLS */
 302:Generated_Source\PSoC4/blue.c **** 
 303:Generated_Source\PSoC4/blue.c ****     #ifdef CYBLE_LNS
 304:Generated_Source\PSoC4/blue.c ****         CyBle_LnsInit();
 305:Generated_Source\PSoC4/blue.c ****     #endif /* CYBLE_LNS */
 306:Generated_Source\PSoC4/blue.c ****     
 307:Generated_Source\PSoC4/blue.c ****     #ifdef CYBLE_NDCS
 308:Generated_Source\PSoC4/blue.c ****         CyBle_NdcsInit();
 309:Generated_Source\PSoC4/blue.c ****     #endif /* CYBLE_NDCS */
 310:Generated_Source\PSoC4/blue.c ****     
 311:Generated_Source\PSoC4/blue.c ****     #ifdef CYBLE_PASS
 312:Generated_Source\PSoC4/blue.c ****         CyBle_PassInit();
 313:Generated_Source\PSoC4/blue.c ****     #endif /* CYBLE_PASS */
 314:Generated_Source\PSoC4/blue.c ****     
 315:Generated_Source\PSoC4/blue.c ****     #ifdef CYBLE_PLXS
 316:Generated_Source\PSoC4/blue.c ****         CyBle_PlxsInit();
 317:Generated_Source\PSoC4/blue.c ****     #endif /* CYBLE_PLXS */
 318:Generated_Source\PSoC4/blue.c ****     
 319:Generated_Source\PSoC4/blue.c ****     #ifdef CYBLE_RSCS
 320:Generated_Source\PSoC4/blue.c ****         CyBle_RscsInit();
 321:Generated_Source\PSoC4/blue.c ****     #endif /* CYBLE_RSCS */
 322:Generated_Source\PSoC4/blue.c **** 
 323:Generated_Source\PSoC4/blue.c ****     #ifdef CYBLE_RTUS
 324:Generated_Source\PSoC4/blue.c ****         CyBle_RtusInit();
 325:Generated_Source\PSoC4/blue.c ****     #endif /* CYBLE_RTUS */
 326:Generated_Source\PSoC4/blue.c **** 
 327:Generated_Source\PSoC4/blue.c ****     #ifdef CYBLE_SCPS
 328:Generated_Source\PSoC4/blue.c ****         CyBle_ScpsInit();
 329:Generated_Source\PSoC4/blue.c ****     #endif /* CYBLE_SCPS */
 330:Generated_Source\PSoC4/blue.c ****     
 331:Generated_Source\PSoC4/blue.c ****     #ifdef CYBLE_TPS
 332:Generated_Source\PSoC4/blue.c ****         CyBle_TpsInit();
 333:Generated_Source\PSoC4/blue.c ****     #endif /* CYBLE_TPS */
 334:Generated_Source\PSoC4/blue.c ****     
 335:Generated_Source\PSoC4/blue.c ****     #ifdef CYBLE_UDS
 336:Generated_Source\PSoC4/blue.c ****         CyBle_UdsInit();
 337:Generated_Source\PSoC4/blue.c ****     #endif /* CYBLE_UDS */
 338:Generated_Source\PSoC4/blue.c **** 
 339:Generated_Source\PSoC4/blue.c ****     #ifdef CYBLE_WPTS
 340:Generated_Source\PSoC4/blue.c ****         CyBle_WptsInit();
 341:Generated_Source\PSoC4/blue.c ****     #endif /* CYBLE_WPTS */
 342:Generated_Source\PSoC4/blue.c **** 
 343:Generated_Source\PSoC4/blue.c ****     #ifdef CYBLE_WSS
 344:Generated_Source\PSoC4/blue.c ****         CyBle_WssInit();
 345:Generated_Source\PSoC4/blue.c ****     #endif /* CYBLE_WSS */
 346:Generated_Source\PSoC4/blue.c **** }
 213              		.loc 1 346 0
 214 000c C046     		nop
 215 000e BD46     		mov	sp, r7
 216              		@ sp needed
ARM GAS  C:\Users\alexport\AppData\Local\Temp\ccMcN4Gf.s 			page 11


 217 0010 80BD     		pop	{r7, pc}
 218              		.cfi_endproc
 219              	.LFE3:
 220              		.size	CyBle_ServiceInit, .-CyBle_ServiceInit
 221 0012 C046     		.section	.rodata
 222              		.align	2
 223              	.LC0:
 224 0000 2400     		.short	36
 225 0002 03       		.byte	3
 226 0003 00       		.space	1
 227 0004 3000     		.short	48
 228 0006 01       		.byte	1
 229 0007 00       		.space	1
 230 0008 2800     		.short	40
 231 000a 02       		.byte	2
 232 000b 00       		.space	1
 233 000c 2400     		.short	36
 234 000e 01       		.byte	1
 235 000f 00       		.space	1
 236 0010 2400     		.short	36
 237 0012 01       		.byte	1
 238 0013 00       		.space	1
 239              		.section	.text.CyBle_Start,"ax",%progbits
 240              		.align	2
 241              		.global	CyBle_Start
 242              		.code	16
 243              		.thumb_func
 244              		.type	CyBle_Start, %function
 245              	CyBle_Start:
 246              	.LFB4:
 347:Generated_Source\PSoC4/blue.c **** 
 348:Generated_Source\PSoC4/blue.c **** 
 349:Generated_Source\PSoC4/blue.c **** /******************************************************************************
 350:Generated_Source\PSoC4/blue.c **** * Function Name: CyBle_Start
 351:Generated_Source\PSoC4/blue.c **** ***************************************************************************//**
 352:Generated_Source\PSoC4/blue.c **** * 
 353:Generated_Source\PSoC4/blue.c **** *  This function initializes the BLE Stack, which consists of the BLE Stack 
 354:Generated_Source\PSoC4/blue.c **** *  Manager, BLE Controller, and BLE Host modules. It takes care of initializing
 355:Generated_Source\PSoC4/blue.c **** *  the Profile layer, schedulers, Timer and other platform related
 356:Generated_Source\PSoC4/blue.c **** *  resources required for the BLE component. It also registers the callback 
 357:Generated_Source\PSoC4/blue.c **** *  function for BLE events that will be registered in the BLE stack.
 358:Generated_Source\PSoC4/blue.c **** * 
 359:Generated_Source\PSoC4/blue.c **** *  Note that this function does not reset the BLE Stack.
 360:Generated_Source\PSoC4/blue.c **** * 
 361:Generated_Source\PSoC4/blue.c **** *  For HCI-Mode of operation, this function will not initialize the BLE Host 
 362:Generated_Source\PSoC4/blue.c **** *  module.
 363:Generated_Source\PSoC4/blue.c **** * 
 364:Generated_Source\PSoC4/blue.c **** *  Calling this function results in the generation of CYBLE_EVT_STACK_ON event
 365:Generated_Source\PSoC4/blue.c **** *  on successful initialization of the BLE Stack.
 366:Generated_Source\PSoC4/blue.c **** * 
 367:Generated_Source\PSoC4/blue.c **** *  \param callbackFunc: Event callback function to receive events from BLE stack.
 368:Generated_Source\PSoC4/blue.c **** *   CYBLE_CALLBACK_T is a function pointer type.
 369:Generated_Source\PSoC4/blue.c **** * 
 370:Generated_Source\PSoC4/blue.c **** * \return
 371:Generated_Source\PSoC4/blue.c **** *  CYBLE_API_RESULT_T : Return value indicates if the function succeeded or 
 372:Generated_Source\PSoC4/blue.c **** *  failed. Following are the possible error codes.
 373:Generated_Source\PSoC4/blue.c **** * 
ARM GAS  C:\Users\alexport\AppData\Local\Temp\ccMcN4Gf.s 			page 12


 374:Generated_Source\PSoC4/blue.c **** *   <table>
 375:Generated_Source\PSoC4/blue.c **** *  	  <tr>
 376:Generated_Source\PSoC4/blue.c **** *       <th>Error codes</th>
 377:Generated_Source\PSoC4/blue.c **** *       <th>Description</th>
 378:Generated_Source\PSoC4/blue.c **** *     </tr>
 379:Generated_Source\PSoC4/blue.c **** *     <tr>
 380:Generated_Source\PSoC4/blue.c **** *       <td>CYBLE_ERROR_OK</td>
 381:Generated_Source\PSoC4/blue.c **** *       <td>On successful operation.</td>
 382:Generated_Source\PSoC4/blue.c **** *     </tr>
 383:Generated_Source\PSoC4/blue.c **** *     <tr>
 384:Generated_Source\PSoC4/blue.c **** *       <td>CYBLE_ERROR_INVALID_PARAMETER</td>
 385:Generated_Source\PSoC4/blue.c **** *       <td>On passing a NULL pointer to the function. 
 386:Generated_Source\PSoC4/blue.c **** *		</td>
 387:Generated_Source\PSoC4/blue.c **** *     </tr>
 388:Generated_Source\PSoC4/blue.c **** *     <tr>
 389:Generated_Source\PSoC4/blue.c **** *       <td>CYBLE_ERROR_REPEATED_ATTEMPTS</td>
 390:Generated_Source\PSoC4/blue.c **** *       <td>On invoking this function more than once without calling CyBle_Shutdown() 
 391:Generated_Source\PSoC4/blue.c **** *           function between calls to this function.</td>
 392:Generated_Source\PSoC4/blue.c **** *     </tr>
 393:Generated_Source\PSoC4/blue.c **** *     <tr>
 394:Generated_Source\PSoC4/blue.c **** *       <td>CYBLE_ERROR_MEMORY_ALLOCATION_FAILED</td>
 395:Generated_Source\PSoC4/blue.c **** *       <td>There is insufficient memory available.</td>
 396:Generated_Source\PSoC4/blue.c **** *     </tr>
 397:Generated_Source\PSoC4/blue.c **** *   </table>
 398:Generated_Source\PSoC4/blue.c **** * 
 399:Generated_Source\PSoC4/blue.c **** *  \globalvars
 400:Generated_Source\PSoC4/blue.c **** *   The CyBle_initVar variable is used to indicate initial
 401:Generated_Source\PSoC4/blue.c **** *   configuration of this component. The variable is initialized to zero (0u)
 402:Generated_Source\PSoC4/blue.c **** *   and set to one (1u) the first time CyBle_Start() is called. This
 403:Generated_Source\PSoC4/blue.c **** *   allows for component initialization without re-initialization in all
 404:Generated_Source\PSoC4/blue.c **** *   subsequent calls to the CyBle_Start() routine.
 405:Generated_Source\PSoC4/blue.c **** * 
 406:Generated_Source\PSoC4/blue.c **** ******************************************************************************/
 407:Generated_Source\PSoC4/blue.c **** CYBLE_API_RESULT_T CyBle_Start(CYBLE_CALLBACK_T callbackFunc)
 408:Generated_Source\PSoC4/blue.c **** {
 247              		.loc 1 408 0
 248              		.cfi_startproc
 249              		@ args = 0, pretend = 0, frame = 64
 250              		@ frame_needed = 1, uses_anonymous_args = 0
 251 0000 B0B5     		push	{r4, r5, r7, lr}
 252              		.cfi_def_cfa_offset 16
 253              		.cfi_offset 4, -16
 254              		.cfi_offset 5, -12
 255              		.cfi_offset 7, -8
 256              		.cfi_offset 14, -4
 257 0002 94B0     		sub	sp, sp, #80
 258              		.cfi_def_cfa_offset 96
 259 0004 04AF     		add	r7, sp, #16
 260              		.cfi_def_cfa 7, 80
 261 0006 7860     		str	r0, [r7, #4]
 409:Generated_Source\PSoC4/blue.c ****     CYBLE_API_RESULT_T apiResult = CYBLE_ERROR_OK;
 262              		.loc 1 409 0
 263 0008 3E23     		movs	r3, #62
 264 000a FB18     		adds	r3, r7, r3
 265 000c 0022     		movs	r2, #0
 266 000e 1A80     		strh	r2, [r3]
 410:Generated_Source\PSoC4/blue.c ****     
ARM GAS  C:\Users\alexport\AppData\Local\Temp\ccMcN4Gf.s 			page 13


 411:Generated_Source\PSoC4/blue.c ****     #if(CYBLE_MODE_PROFILE)
 412:Generated_Source\PSoC4/blue.c ****     
 413:Generated_Source\PSoC4/blue.c ****     CYBLE_STK_APP_DATA_BUFF_T cyBle_stackDataBuff[CYBLE_STACK_APP_MIN_POOL] = 
 267              		.loc 1 413 0
 268 0010 2823     		movs	r3, #40
 269 0012 FA18     		adds	r2, r7, r3
 270 0014 3D4B     		ldr	r3, .L12
 271 0016 1000     		movs	r0, r2
 272 0018 1900     		movs	r1, r3
 273 001a 1423     		movs	r3, #20
 274 001c 1A00     		movs	r2, r3
 275 001e FFF7FEFF 		bl	memcpy
 414:Generated_Source\PSoC4/blue.c ****     {
 415:Generated_Source\PSoC4/blue.c ****         {CYBLE_GATT_MTU_PLUS_L2CAP_MEM_EXT, CYBLE_GATT_MTU_BUFF_COUNT + CYBLE_GATT_MAX_ATTR_BUFF_CO
 416:Generated_Source\PSoC4/blue.c ****         {CYBLE_L2CAP_PSM_PLUS_L2CAP_MEM_EXT, CYBLE_L2CAP_PSM_COUNT},
 417:Generated_Source\PSoC4/blue.c ****         {CYBLE_L2CAP_CBFC_PLUS_L2CAP_MEM_EXT, 2u * CYBLE_L2CAP_LOGICAL_CHANNEL_COUNT},
 418:Generated_Source\PSoC4/blue.c ****         {CYBLE_L2CAP_MTU_PLUS_L2CAP_MEM_EXT, CYBLE_L2CAP_LOGICAL_CHANNEL_COUNT},
 419:Generated_Source\PSoC4/blue.c ****         {CYBLE_L2CAP_MPS_PLUS_L2CAP_MEM_EXT, CYBLE_L2CAP_LOGICAL_CHANNEL_COUNT * (CYBLE_L2CAP_MTU_M
 420:Generated_Source\PSoC4/blue.c ****     }; 
 421:Generated_Source\PSoC4/blue.c **** 
 422:Generated_Source\PSoC4/blue.c ****     #endif /* CYBLE_MODE_PROFILE */
 423:Generated_Source\PSoC4/blue.c ****     
 424:Generated_Source\PSoC4/blue.c ****     /* If not initialized then initialize all the required hardware and software */
 425:Generated_Source\PSoC4/blue.c ****     if(cyBle_initVar == 0u)
 276              		.loc 1 425 0
 277 0022 3B4B     		ldr	r3, .L12+4
 278 0024 1B78     		ldrb	r3, [r3]
 279 0026 002B     		cmp	r3, #0
 280 0028 04D1     		bne	.L6
 426:Generated_Source\PSoC4/blue.c ****     {
 427:Generated_Source\PSoC4/blue.c ****         CyBle_Init();
 281              		.loc 1 427 0
 282 002a FFF7FEFF 		bl	CyBle_Init
 428:Generated_Source\PSoC4/blue.c ****         cyBle_initVar = 1u;
 283              		.loc 1 428 0
 284 002e 384B     		ldr	r3, .L12+4
 285 0030 0122     		movs	r2, #1
 286 0032 1A70     		strb	r2, [r3]
 287              	.L6:
 429:Generated_Source\PSoC4/blue.c ****     }
 430:Generated_Source\PSoC4/blue.c ****     
 431:Generated_Source\PSoC4/blue.c ****     if(callbackFunc != NULL)
 288              		.loc 1 431 0
 289 0034 7B68     		ldr	r3, [r7, #4]
 290 0036 002B     		cmp	r3, #0
 291 0038 5CD0     		beq	.L7
 432:Generated_Source\PSoC4/blue.c ****     {
 433:Generated_Source\PSoC4/blue.c ****         CyBle_ApplCallback = callbackFunc;
 292              		.loc 1 433 0
 293 003a 364B     		ldr	r3, .L12+8
 294 003c 7A68     		ldr	r2, [r7, #4]
 295 003e 1A60     		str	r2, [r3]
 434:Generated_Source\PSoC4/blue.c ****         
 435:Generated_Source\PSoC4/blue.c ****     #if(CYBLE_SHARING_MODE_EXPORT)
 436:Generated_Source\PSoC4/blue.c ****         if(cyBle_stackMemoryRam == NULL)
 437:Generated_Source\PSoC4/blue.c ****         {
 438:Generated_Source\PSoC4/blue.c ****             cyBle_stackMemoryRam = (uint8 *)malloc(CYBLE_STACK_RAM_SIZE);
ARM GAS  C:\Users\alexport\AppData\Local\Temp\ccMcN4Gf.s 			page 14


 439:Generated_Source\PSoC4/blue.c ****             if(cyBle_stackMemoryRam == NULL)
 440:Generated_Source\PSoC4/blue.c ****             {
 441:Generated_Source\PSoC4/blue.c ****                 apiResult = CYBLE_ERROR_MEMORY_ALLOCATION_FAILED;
 442:Generated_Source\PSoC4/blue.c ****             }
 443:Generated_Source\PSoC4/blue.c ****         }
 444:Generated_Source\PSoC4/blue.c ****     #endif /* CYBLE_SHARING_MODE_EXPORT */
 445:Generated_Source\PSoC4/blue.c ****         if(apiResult == CYBLE_ERROR_OK)
 296              		.loc 1 445 0
 297 0040 3E23     		movs	r3, #62
 298 0042 FB18     		adds	r3, r7, r3
 299 0044 1B88     		ldrh	r3, [r3]
 300 0046 002B     		cmp	r3, #0
 301 0048 29D1     		bne	.L8
 302              	.LBB2:
 446:Generated_Source\PSoC4/blue.c ****         {
 447:Generated_Source\PSoC4/blue.c ****             CYBLE_DLE_CONFIG_PARAM_T dleConfigParams;
 448:Generated_Source\PSoC4/blue.c ****             CYBLE_PRIVACY_1_2_CONFIG_PARAM_T privacyConfigParams;
 449:Generated_Source\PSoC4/blue.c ****             CYBLE_STACK_CONFIG_PARAM_T stackConfig;
 450:Generated_Source\PSoC4/blue.c ****             uint16 featureHeapReq;
 451:Generated_Source\PSoC4/blue.c ****             
 452:Generated_Source\PSoC4/blue.c ****             stackConfig.privacyConfig = &privacyConfigParams;
 303              		.loc 1 452 0
 304 004a 1023     		movs	r3, #16
 305 004c FB18     		adds	r3, r7, r3
 306 004e 1C22     		movs	r2, #28
 307 0050 BA18     		adds	r2, r7, r2
 308 0052 5A60     		str	r2, [r3, #4]
 453:Generated_Source\PSoC4/blue.c ****             stackConfig.dleConfig = &dleConfigParams;
 309              		.loc 1 453 0
 310 0054 1023     		movs	r3, #16
 311 0056 FB18     		adds	r3, r7, r3
 312 0058 2022     		movs	r2, #32
 313 005a BA18     		adds	r2, r7, r2
 314 005c 1A60     		str	r2, [r3]
 454:Generated_Source\PSoC4/blue.c ****             
 455:Generated_Source\PSoC4/blue.c ****             /* Configure default BLE 4.1 features and enabled 4.2 features */
 456:Generated_Source\PSoC4/blue.c ****             stackConfig.feature_mask = CYBLE_DLE_FEATURE | CYBLE_LL_PRIVACY_FEATURE | 
 315              		.loc 1 456 0
 316 005e 1023     		movs	r3, #16
 317 0060 FB18     		adds	r3, r7, r3
 318 0062 0022     		movs	r2, #0
 319 0064 1A81     		strh	r2, [r3, #8]
 457:Generated_Source\PSoC4/blue.c ****                                        CYBLE_SECURE_CONN_FEATURE;
 458:Generated_Source\PSoC4/blue.c **** 
 459:Generated_Source\PSoC4/blue.c ****             /* Configure DLE */
 460:Generated_Source\PSoC4/blue.c ****             dleConfigParams.dleMaxTxCapability = CYBLE_LL_MAX_TX_PAYLOAD_SIZE;
 320              		.loc 1 460 0
 321 0066 2023     		movs	r3, #32
 322 0068 FB18     		adds	r3, r7, r3
 323 006a 1B22     		movs	r2, #27
 324 006c 1A80     		strh	r2, [r3]
 461:Generated_Source\PSoC4/blue.c ****             dleConfigParams.dleMaxRxCapability = CYBLE_LL_MAX_RX_PAYLOAD_SIZE;
 325              		.loc 1 461 0
 326 006e 2023     		movs	r3, #32
 327 0070 FB18     		adds	r3, r7, r3
 328 0072 1B22     		movs	r2, #27
 329 0074 5A80     		strh	r2, [r3, #2]
ARM GAS  C:\Users\alexport\AppData\Local\Temp\ccMcN4Gf.s 			page 15


 462:Generated_Source\PSoC4/blue.c ****             dleConfigParams.dleNumTxBuffer = CYBLE_LL_DEFAULT_NUM_ACL_TX_PACKETS;
 330              		.loc 1 462 0
 331 0076 2023     		movs	r3, #32
 332 0078 FB18     		adds	r3, r7, r3
 333 007a 0422     		movs	r2, #4
 334 007c 1A71     		strb	r2, [r3, #4]
 463:Generated_Source\PSoC4/blue.c ****         #if(CYBLE_DLE_FEATURE_ENABLED)
 464:Generated_Source\PSoC4/blue.c ****             CyBle_EnableDleFeature();              /* Enable DLE code in stack */
 465:Generated_Source\PSoC4/blue.c ****         #endif /* CYBLE_DLE_FEATURE_ENABLED */
 466:Generated_Source\PSoC4/blue.c ****         
 467:Generated_Source\PSoC4/blue.c ****             /* Configure LL Privacy */
 468:Generated_Source\PSoC4/blue.c ****             privacyConfigParams.resolvingListSize = CYBLE_MAX_RESOLVABLE_DEVICES;
 335              		.loc 1 468 0
 336 007e 1C23     		movs	r3, #28
 337 0080 FB18     		adds	r3, r7, r3
 338 0082 0822     		movs	r2, #8
 339 0084 1A70     		strb	r2, [r3]
 469:Generated_Source\PSoC4/blue.c ****         #if(CYBLE_LL_PRIVACY_FEATURE_ENABLED)
 470:Generated_Source\PSoC4/blue.c ****             CyBle_EnablePrivacyFeature();          /* Enable LL Privacy code in stack */
 471:Generated_Source\PSoC4/blue.c ****         #endif /* CYBLE_LL_PRIVACY_FEATURE_ENABLED */
 472:Generated_Source\PSoC4/blue.c **** 
 473:Generated_Source\PSoC4/blue.c ****             apiResult = CyBle_StackSetFeatureConfig(&stackConfig, &featureHeapReq);
 340              		.loc 1 473 0
 341 0086 3E23     		movs	r3, #62
 342 0088 FC18     		adds	r4, r7, r3
 343 008a 0E23     		movs	r3, #14
 344 008c FA18     		adds	r2, r7, r3
 345 008e 1023     		movs	r3, #16
 346 0090 FB18     		adds	r3, r7, r3
 347 0092 1100     		movs	r1, r2
 348 0094 1800     		movs	r0, r3
 349 0096 FFF7FEFF 		bl	CyBle_StackSetFeatureConfig
 350 009a 0300     		movs	r3, r0
 351 009c 2380     		strh	r3, [r4]
 352              	.L8:
 353              	.LBE2:
 474:Generated_Source\PSoC4/blue.c ****             }
 475:Generated_Source\PSoC4/blue.c ****     
 476:Generated_Source\PSoC4/blue.c ****         if(apiResult == CYBLE_ERROR_OK)
 354              		.loc 1 476 0
 355 009e 3E23     		movs	r3, #62
 356 00a0 FB18     		adds	r3, r7, r3
 357 00a2 1B88     		ldrh	r3, [r3]
 358 00a4 002B     		cmp	r3, #0
 359 00a6 29D1     		bne	.L10
 477:Generated_Source\PSoC4/blue.c ****         {
 478:Generated_Source\PSoC4/blue.c ****         
 479:Generated_Source\PSoC4/blue.c ****         #if(CYBLE_MODE_PROFILE)
 480:Generated_Source\PSoC4/blue.c ****             #if(CYBLE_BONDING_REQUIREMENT == CYBLE_BONDING_YES)
 481:Generated_Source\PSoC4/blue.c ****                 apiResult = CyBle_StackInit(&CyBle_EventHandler, cyBle_stackMemoryRam, 
 360              		.loc 1 481 0
 361 00a8 3E23     		movs	r3, #62
 362 00aa FC18     		adds	r4, r7, r3
 363 00ac 2823     		movs	r3, #40
 364 00ae FD18     		adds	r5, r7, r3
 365 00b0 AE23     		movs	r3, #174
 366 00b2 1A01     		lsls	r2, r3, #4
ARM GAS  C:\Users\alexport\AppData\Local\Temp\ccMcN4Gf.s 			page 16


 367 00b4 1849     		ldr	r1, .L12+12
 368 00b6 1948     		ldr	r0, .L12+16
 369 00b8 194B     		ldr	r3, .L12+20
 370 00ba 0293     		str	r3, [sp, #8]
 371 00bc 194B     		ldr	r3, .L12+24
 372 00be 0193     		str	r3, [sp, #4]
 373 00c0 0523     		movs	r3, #5
 374 00c2 0093     		str	r3, [sp]
 375 00c4 2B00     		movs	r3, r5
 376 00c6 FFF7FEFF 		bl	CyBle_StackInit
 377 00ca 0300     		movs	r3, r0
 378 00cc 2380     		strh	r3, [r4]
 482:Generated_Source\PSoC4/blue.c ****                     CYBLE_STACK_RAM_SIZE - CYBLE_GATT_PREPARE_WRITE_BUFF_LEN, cyBle_stackDataBuff, 
 483:Generated_Source\PSoC4/blue.c ****                     CYBLE_STACK_APP_MIN_POOL, cyBle_flashStorage.stackFlashptr, CYBLE_STACK_FLASH_S
 484:Generated_Source\PSoC4/blue.c ****             #else
 485:Generated_Source\PSoC4/blue.c ****                 apiResult = CyBle_StackInit(&CyBle_EventHandler, cyBle_stackMemoryRam, 
 486:Generated_Source\PSoC4/blue.c ****                     CYBLE_STACK_RAM_SIZE - CYBLE_GATT_PREPARE_WRITE_BUFF_LEN, cyBle_stackDataBuff, 
 487:Generated_Source\PSoC4/blue.c ****                     CYBLE_STACK_APP_MIN_POOL, NULL, 0u);
 488:Generated_Source\PSoC4/blue.c ****             #endif  /* CYBLE_BONDING_REQUIREMENT == CYBLE_BONDING_YES */
 489:Generated_Source\PSoC4/blue.c ****         #else /* HCI mode */
 490:Generated_Source\PSoC4/blue.c ****             /* The following will perform preparation to use HCI over UART or over
 491:Generated_Source\PSoC4/blue.c ****                software. But the following fucntions will not initialize the HCI
 492:Generated_Source\PSoC4/blue.c ****                Transport. This will be done as part of Stack initialization, so
 493:Generated_Source\PSoC4/blue.c ****                the functions should be called prior CyBle_StackInit().
 494:Generated_Source\PSoC4/blue.c ****             */
 495:Generated_Source\PSoC4/blue.c ****             #if (CYBLE_HCI_TYPE == CYBLE_HCI_OVER_UART)
 496:Generated_Source\PSoC4/blue.c ****                 CyBle_HciUartTransportEnable();
 497:Generated_Source\PSoC4/blue.c ****             #else
 498:Generated_Source\PSoC4/blue.c ****                 CyBle_HciSoftTransportEnable();
 499:Generated_Source\PSoC4/blue.c ****             #endif /* (CYBLE_HCI_TYPE == CYBLE_HCI_OVER_UART) */
 500:Generated_Source\PSoC4/blue.c ****             /* This will initialize BLE stack for HCI mode operation */
 501:Generated_Source\PSoC4/blue.c ****             apiResult = CyBle_StackInit(&CyBle_EventHandler, cyBle_stackMemoryRam, CYBLE_STACK_RAM_
 502:Generated_Source\PSoC4/blue.c ****                 NULL, 0u, NULL, 0u);
 503:Generated_Source\PSoC4/blue.c ****         #endif /* CYBLE_MODE_PROFILE */
 504:Generated_Source\PSoC4/blue.c **** 
 505:Generated_Source\PSoC4/blue.c ****             if(apiResult == CYBLE_ERROR_OK)
 379              		.loc 1 505 0
 380 00ce 3E23     		movs	r3, #62
 381 00d0 FB18     		adds	r3, r7, r3
 382 00d2 1B88     		ldrh	r3, [r3]
 383 00d4 002B     		cmp	r3, #0
 384 00d6 11D1     		bne	.L10
 506:Generated_Source\PSoC4/blue.c ****             {
 507:Generated_Source\PSoC4/blue.c ****                 CyBle_SetState(CYBLE_STATE_INITIALIZING);
 385              		.loc 1 507 0
 386 00d8 134B     		ldr	r3, .L12+28
 387 00da 0122     		movs	r2, #1
 388 00dc 1A70     		strb	r2, [r3]
 508:Generated_Source\PSoC4/blue.c ****                 
 509:Generated_Source\PSoC4/blue.c ****             #if (CYBLE_GATT_ROLE_CLIENT)
 510:Generated_Source\PSoC4/blue.c ****                 CyBle_SetClientState(CYBLE_CLIENT_STATE_DISCONNECTED);
 511:Generated_Source\PSoC4/blue.c ****             #endif /* CYBLE_GATT_ROLE_CLIENT */
 512:Generated_Source\PSoC4/blue.c ****                 
 513:Generated_Source\PSoC4/blue.c ****             #if(CYBLE_GATT_ROLE_SERVER)
 514:Generated_Source\PSoC4/blue.c ****                 apiResult = CyBle_GattsDbRegister(cyBle_gattDB, CYBLE_GATT_DB_INDEX_COUNT, CYBLE_GA
 389              		.loc 1 514 0
 390 00de 3E23     		movs	r3, #62
ARM GAS  C:\Users\alexport\AppData\Local\Temp\ccMcN4Gf.s 			page 17


 391 00e0 FC18     		adds	r4, r7, r3
 392 00e2 124B     		ldr	r3, .L12+32
 393 00e4 2822     		movs	r2, #40
 394 00e6 DA21     		movs	r1, #218
 395 00e8 1800     		movs	r0, r3
 396 00ea FFF7FEFF 		bl	CyBle_GattsDbRegister
 397 00ee 0300     		movs	r3, r0
 398 00f0 2380     		strh	r3, [r4]
 399 00f2 03E0     		b	.L10
 400              	.L7:
 515:Generated_Source\PSoC4/blue.c ****             #endif /* CYBLE_GATT_ROLE_SERVER */
 516:Generated_Source\PSoC4/blue.c ****             }
 517:Generated_Source\PSoC4/blue.c ****         }
 518:Generated_Source\PSoC4/blue.c ****     }
 519:Generated_Source\PSoC4/blue.c ****     else
 520:Generated_Source\PSoC4/blue.c ****     {
 521:Generated_Source\PSoC4/blue.c ****         apiResult = CYBLE_ERROR_INVALID_PARAMETER;
 401              		.loc 1 521 0
 402 00f4 3E23     		movs	r3, #62
 403 00f6 FB18     		adds	r3, r7, r3
 404 00f8 0122     		movs	r2, #1
 405 00fa 1A80     		strh	r2, [r3]
 406              	.L10:
 522:Generated_Source\PSoC4/blue.c ****     }
 523:Generated_Source\PSoC4/blue.c **** 
 524:Generated_Source\PSoC4/blue.c ****     return (apiResult);
 407              		.loc 1 524 0
 408 00fc 3E23     		movs	r3, #62
 409 00fe FB18     		adds	r3, r7, r3
 410 0100 1B88     		ldrh	r3, [r3]
 525:Generated_Source\PSoC4/blue.c **** }
 411              		.loc 1 525 0
 412 0102 1800     		movs	r0, r3
 413 0104 BD46     		mov	sp, r7
 414 0106 10B0     		add	sp, sp, #64
 415              		@ sp needed
 416 0108 B0BD     		pop	{r4, r5, r7, pc}
 417              	.L13:
 418 010a C046     		.align	2
 419              	.L12:
 420 010c 00000000 		.word	.LC0
 421 0110 00000000 		.word	cyBle_initVar
 422 0114 00000000 		.word	CyBle_ApplCallback
 423 0118 00000000 		.word	cyBle_stackMemoryRam
 424 011c 00000000 		.word	CyBle_EventHandler
 425 0120 79020000 		.word	633
 426 0124 00000000 		.word	cyBle_flashStorage
 427 0128 00000000 		.word	cyBle_state
 428 012c 00000000 		.word	cyBle_gattDB
 429              		.cfi_endproc
 430              	.LFE4:
 431              		.size	CyBle_Start, .-CyBle_Start
 432              		.section	.text.CyBle_Stop,"ax",%progbits
 433              		.align	2
 434              		.global	CyBle_Stop
 435              		.code	16
 436              		.thumb_func
ARM GAS  C:\Users\alexport\AppData\Local\Temp\ccMcN4Gf.s 			page 18


 437              		.type	CyBle_Stop, %function
 438              	CyBle_Stop:
 439              	.LFB5:
 526:Generated_Source\PSoC4/blue.c **** 
 527:Generated_Source\PSoC4/blue.c **** 
 528:Generated_Source\PSoC4/blue.c **** /******************************************************************************
 529:Generated_Source\PSoC4/blue.c **** * Function Name: CyBle_Stop
 530:Generated_Source\PSoC4/blue.c **** ***************************************************************************//**
 531:Generated_Source\PSoC4/blue.c **** * 
 532:Generated_Source\PSoC4/blue.c **** *  This function stops any ongoing operation in the BLE Stack and forces the 
 533:Generated_Source\PSoC4/blue.c **** *  BLE Stack to shut down. The only function that can be called after calling
 534:Generated_Source\PSoC4/blue.c **** *  this function is CyBle_Start(). 
 535:Generated_Source\PSoC4/blue.c **** * 
 536:Generated_Source\PSoC4/blue.c **** * \return
 537:Generated_Source\PSoC4/blue.c **** *  None
 538:Generated_Source\PSoC4/blue.c **** * 
 539:Generated_Source\PSoC4/blue.c **** ******************************************************************************/
 540:Generated_Source\PSoC4/blue.c **** void CyBle_Stop(void)
 541:Generated_Source\PSoC4/blue.c **** {
 440              		.loc 1 541 0
 441              		.cfi_startproc
 442              		@ args = 0, pretend = 0, frame = 0
 443              		@ frame_needed = 1, uses_anonymous_args = 0
 444 0000 80B5     		push	{r7, lr}
 445              		.cfi_def_cfa_offset 8
 446              		.cfi_offset 7, -8
 447              		.cfi_offset 14, -4
 448 0002 00AF     		add	r7, sp, #0
 449              		.cfi_def_cfa_register 7
 542:Generated_Source\PSoC4/blue.c ****     CyBle_Shutdown();                         /* Stop all ongoing activities */
 450              		.loc 1 542 0
 451 0004 FFF7FEFF 		bl	CyBle_Shutdown
 543:Generated_Source\PSoC4/blue.c ****     CyBle_SetState(CYBLE_STATE_STOPPED);
 452              		.loc 1 543 0
 453 0008 024B     		ldr	r3, .L15
 454 000a 0022     		movs	r2, #0
 455 000c 1A70     		strb	r2, [r3]
 544:Generated_Source\PSoC4/blue.c ****     #if(CYBLE_SHARING_MODE_EXPORT)
 545:Generated_Source\PSoC4/blue.c ****         if(cyBle_stackMemoryRam != NULL)
 546:Generated_Source\PSoC4/blue.c ****         {
 547:Generated_Source\PSoC4/blue.c ****             free(cyBle_stackMemoryRam);
 548:Generated_Source\PSoC4/blue.c ****         }
 549:Generated_Source\PSoC4/blue.c ****     #endif /* CYBLE_SHARING_MODE_EXPORT */
 550:Generated_Source\PSoC4/blue.c **** }
 456              		.loc 1 550 0
 457 000e C046     		nop
 458 0010 BD46     		mov	sp, r7
 459              		@ sp needed
 460 0012 80BD     		pop	{r7, pc}
 461              	.L16:
 462              		.align	2
 463              	.L15:
 464 0014 00000000 		.word	cyBle_state
 465              		.cfi_endproc
 466              	.LFE5:
 467              		.size	CyBle_Stop, .-CyBle_Stop
 468              		.section	.text.CyBle_StoreBondingData,"ax",%progbits
ARM GAS  C:\Users\alexport\AppData\Local\Temp\ccMcN4Gf.s 			page 19


 469              		.align	2
 470              		.global	CyBle_StoreBondingData
 471              		.code	16
 472              		.thumb_func
 473              		.type	CyBle_StoreBondingData, %function
 474              	CyBle_StoreBondingData:
 475              	.LFB6:
 551:Generated_Source\PSoC4/blue.c **** 
 552:Generated_Source\PSoC4/blue.c **** 
 553:Generated_Source\PSoC4/blue.c **** #if((CYBLE_GAP_ROLE_PERIPHERAL || CYBLE_GAP_ROLE_CENTRAL) && (CYBLE_BONDING_REQUIREMENT == CYBLE_BO
 554:Generated_Source\PSoC4/blue.c **** 
 555:Generated_Source\PSoC4/blue.c ****     
 556:Generated_Source\PSoC4/blue.c **** /******************************************************************************
 557:Generated_Source\PSoC4/blue.c **** * Function Name: CyBle_StoreBondingData
 558:Generated_Source\PSoC4/blue.c **** ***************************************************************************//**
 559:Generated_Source\PSoC4/blue.c **** * 
 560:Generated_Source\PSoC4/blue.c **** *  This function writes the new bonding data from RAM to the dedicated Flash 
 561:Generated_Source\PSoC4/blue.c **** *  location as defined by the component. It performs data comparing between RAM
 562:Generated_Source\PSoC4/blue.c **** *  and Flash before writing to Flash. If there is no change between RAM and Flash
 563:Generated_Source\PSoC4/blue.c **** *  data, then no write is performed. It writes only one flash row in one call.
 564:Generated_Source\PSoC4/blue.c **** *  Application should keep calling this function till it return CYBLE_ERROR_OK. 
 565:Generated_Source\PSoC4/blue.c **** *  This function is available only when Bonding requirement is selected in
 566:Generated_Source\PSoC4/blue.c **** *  Security settings.    
 567:Generated_Source\PSoC4/blue.c **** * 
 568:Generated_Source\PSoC4/blue.c **** *  \param isForceWrite:  If value is set to 0, then stack will check if flash write 
 569:Generated_Source\PSoC4/blue.c **** *                 is permissible. 
 570:Generated_Source\PSoC4/blue.c **** *  
 571:Generated_Source\PSoC4/blue.c **** * \return
 572:Generated_Source\PSoC4/blue.c **** *  Return value is of type CYBLE_API_RESULT_T.
 573:Generated_Source\PSoC4/blue.c **** *
 574:Generated_Source\PSoC4/blue.c **** *   Errors codes                         | Description
 575:Generated_Source\PSoC4/blue.c **** *   ----------------------------------   | ------------------------------------
 576:Generated_Source\PSoC4/blue.c **** *   CYBLE_ERROR_OK                       | On successful operation
 577:Generated_Source\PSoC4/blue.c **** *   CYBLE_ERROR_FLASH_WRITE_NOT_PERMITED | Flash Write is not complete
 578:Generated_Source\PSoC4/blue.c **** *   CYBLE_ERROR_INVALID_PARAMETER        | Invalid input parameter  
 579:Generated_Source\PSoC4/blue.c **** *   CYBLE_ERROR_FLASH_WRITE              | Error in flash Write	
 580:Generated_Source\PSoC4/blue.c ****     
 581:Generated_Source\PSoC4/blue.c **** *  \sideeffect
 582:Generated_Source\PSoC4/blue.c **** *   For BLE devices with 128K of Flash memory this function will automatically 
 583:Generated_Source\PSoC4/blue.c **** *   modify the clock settings for the device.
 584:Generated_Source\PSoC4/blue.c **** *   Writing to flash requires changes to be done to the IMO (set to 48 MHz)
 585:Generated_Source\PSoC4/blue.c **** *   and HFCLK (source set to IMO) settings. The configuration is restored before
 586:Generated_Source\PSoC4/blue.c **** *   returning. This will impact the operation of most of the hardware in the
 587:Generated_Source\PSoC4/blue.c **** *   device.
 588:Generated_Source\PSoC4/blue.c **** * 
 589:Generated_Source\PSoC4/blue.c **** *  \globalvars
 590:Generated_Source\PSoC4/blue.c **** *   The cyBle_pendingFlashWrite variable is used to detect status
 591:Generated_Source\PSoC4/blue.c **** *   of pending write to flash operation for stack data and CCCD.
 592:Generated_Source\PSoC4/blue.c **** *   This function automatically clears pending bits after write operation 
 593:Generated_Source\PSoC4/blue.c **** *   complete.
 594:Generated_Source\PSoC4/blue.c **** *     
 595:Generated_Source\PSoC4/blue.c **** ******************************************************************************/
 596:Generated_Source\PSoC4/blue.c **** CYBLE_API_RESULT_T CyBle_StoreBondingData(uint8 isForceWrite)
 597:Generated_Source\PSoC4/blue.c **** {
 476              		.loc 1 597 0
 477              		.cfi_startproc
 478              		@ args = 0, pretend = 0, frame = 360
ARM GAS  C:\Users\alexport\AppData\Local\Temp\ccMcN4Gf.s 			page 20


 479              		@ frame_needed = 1, uses_anonymous_args = 0
 480 0000 B0B5     		push	{r4, r5, r7, lr}
 481              		.cfi_def_cfa_offset 16
 482              		.cfi_offset 4, -16
 483              		.cfi_offset 5, -12
 484              		.cfi_offset 7, -8
 485              		.cfi_offset 14, -4
 486 0002 DAB0     		sub	sp, sp, #360
 487              		.cfi_def_cfa_offset 376
 488 0004 00AF     		add	r7, sp, #0
 489              		.cfi_def_cfa_register 7
 490 0006 0200     		movs	r2, r0
 491 0008 7D4B     		ldr	r3, .L27
 492 000a B421     		movs	r1, #180
 493 000c 4900     		lsls	r1, r1, #1
 494 000e 8C46     		mov	ip, r1
 495 0010 BC44     		add	ip, ip, r7
 496 0012 6344     		add	r3, r3, ip
 497 0014 1A70     		strb	r2, [r3]
 598:Generated_Source\PSoC4/blue.c ****     CYBLE_API_RESULT_T apiResult = CYBLE_ERROR_OK;
 498              		.loc 1 598 0
 499 0016 B323     		movs	r3, #179
 500 0018 5B00     		lsls	r3, r3, #1
 501 001a FB18     		adds	r3, r7, r3
 502 001c 0022     		movs	r2, #0
 503 001e 1A80     		strh	r2, [r3]
 599:Generated_Source\PSoC4/blue.c ****     
 600:Generated_Source\PSoC4/blue.c ****     /* Store Stack data */
 601:Generated_Source\PSoC4/blue.c ****     if((cyBle_pendingFlashWrite & CYBLE_PENDING_STACK_FLASH_WRITE_BIT) != 0u)
 504              		.loc 1 601 0
 505 0020 784B     		ldr	r3, .L27+4
 506 0022 1B78     		ldrb	r3, [r3]
 507 0024 1A00     		movs	r2, r3
 508 0026 0123     		movs	r3, #1
 509 0028 1340     		ands	r3, r2
 510 002a 26D0     		beq	.L18
 602:Generated_Source\PSoC4/blue.c ****     {
 603:Generated_Source\PSoC4/blue.c ****         apiResult = CyBle_StoreStackData(isForceWrite);
 511              		.loc 1 603 0
 512 002c B323     		movs	r3, #179
 513 002e 5B00     		lsls	r3, r3, #1
 514 0030 FC18     		adds	r4, r7, r3
 515 0032 734B     		ldr	r3, .L27
 516 0034 B422     		movs	r2, #180
 517 0036 5200     		lsls	r2, r2, #1
 518 0038 9446     		mov	ip, r2
 519 003a BC44     		add	ip, ip, r7
 520 003c 6344     		add	r3, r3, ip
 521 003e 1B78     		ldrb	r3, [r3]
 522 0040 1800     		movs	r0, r3
 523 0042 FFF7FEFF 		bl	CyBle_StoreStackData
 524 0046 0300     		movs	r3, r0
 525 0048 2380     		strh	r3, [r4]
 604:Generated_Source\PSoC4/blue.c ****         if(apiResult == CYBLE_ERROR_OK)
 526              		.loc 1 604 0
 527 004a B323     		movs	r3, #179
 528 004c 5B00     		lsls	r3, r3, #1
ARM GAS  C:\Users\alexport\AppData\Local\Temp\ccMcN4Gf.s 			page 21


 529 004e FB18     		adds	r3, r7, r3
 530 0050 1B88     		ldrh	r3, [r3]
 531 0052 002B     		cmp	r3, #0
 532 0054 11D1     		bne	.L18
 605:Generated_Source\PSoC4/blue.c ****         {
 606:Generated_Source\PSoC4/blue.c ****             cyBle_pendingFlashWrite &= (uint8)~CYBLE_PENDING_STACK_FLASH_WRITE_BIT;
 533              		.loc 1 606 0
 534 0056 6B4B     		ldr	r3, .L27+4
 535 0058 1B78     		ldrb	r3, [r3]
 536 005a 0122     		movs	r2, #1
 537 005c 9343     		bics	r3, r2
 538 005e DAB2     		uxtb	r2, r3
 539 0060 684B     		ldr	r3, .L27+4
 540 0062 1A70     		strb	r2, [r3]
 607:Generated_Source\PSoC4/blue.c ****             /* Change apiResult if there are more pending data to store */
 608:Generated_Source\PSoC4/blue.c ****             if((cyBle_pendingFlashWrite & CYBLE_PENDING_CCCD_FLASH_WRITE_BIT) != 0u)
 541              		.loc 1 608 0
 542 0064 674B     		ldr	r3, .L27+4
 543 0066 1B78     		ldrb	r3, [r3]
 544 0068 1A00     		movs	r2, r3
 545 006a 0223     		movs	r3, #2
 546 006c 1340     		ands	r3, r2
 547 006e 04D0     		beq	.L18
 609:Generated_Source\PSoC4/blue.c ****             {
 610:Generated_Source\PSoC4/blue.c ****                 apiResult = CYBLE_ERROR_FLASH_WRITE_NOT_PERMITED;
 548              		.loc 1 610 0
 549 0070 B323     		movs	r3, #179
 550 0072 5B00     		lsls	r3, r3, #1
 551 0074 FB18     		adds	r3, r7, r3
 552 0076 2822     		movs	r2, #40
 553 0078 1A80     		strh	r2, [r3]
 554              	.L18:
 611:Generated_Source\PSoC4/blue.c ****             }
 612:Generated_Source\PSoC4/blue.c ****         }
 613:Generated_Source\PSoC4/blue.c ****     }
 614:Generated_Source\PSoC4/blue.c **** #if(CYBLE_GATT_DB_CCCD_COUNT != 0u)
 615:Generated_Source\PSoC4/blue.c ****     /* Store CCCD values */
 616:Generated_Source\PSoC4/blue.c ****     if( ((apiResult == CYBLE_ERROR_OK) || (isForceWrite != 0u)) && 
 555              		.loc 1 616 0
 556 007a B323     		movs	r3, #179
 557 007c 5B00     		lsls	r3, r3, #1
 558 007e FB18     		adds	r3, r7, r3
 559 0080 1B88     		ldrh	r3, [r3]
 560 0082 002B     		cmp	r3, #0
 561 0084 08D0     		beq	.L19
 562              		.loc 1 616 0 is_stmt 0 discriminator 2
 563 0086 5E4B     		ldr	r3, .L27
 564 0088 B422     		movs	r2, #180
 565 008a 5200     		lsls	r2, r2, #1
 566 008c 9446     		mov	ip, r2
 567 008e BC44     		add	ip, ip, r7
 568 0090 6344     		add	r3, r3, ip
 569 0092 1B78     		ldrb	r3, [r3]
 570 0094 002B     		cmp	r3, #0
 571 0096 31D0     		beq	.L20
 572              	.L19:
 617:Generated_Source\PSoC4/blue.c ****         ((cyBle_pendingFlashWrite & CYBLE_PENDING_CCCD_FLASH_WRITE_BIT) != 0u) &&
ARM GAS  C:\Users\alexport\AppData\Local\Temp\ccMcN4Gf.s 			page 22


 573              		.loc 1 617 0 is_stmt 1 discriminator 3
 574 0098 5A4B     		ldr	r3, .L27+4
 575 009a 1B78     		ldrb	r3, [r3]
 576 009c 1A00     		movs	r2, r3
 577 009e 0223     		movs	r3, #2
 578 00a0 1340     		ands	r3, r2
 616:Generated_Source\PSoC4/blue.c ****         ((cyBle_pendingFlashWrite & CYBLE_PENDING_CCCD_FLASH_WRITE_BIT) != 0u) &&
 579              		.loc 1 616 0 discriminator 3
 580 00a2 2BD0     		beq	.L20
 618:Generated_Source\PSoC4/blue.c ****         (cyBle_connHandle.bdHandle <= CYBLE_GAP_MAX_BONDED_DEVICE))
 581              		.loc 1 618 0
 582 00a4 584B     		ldr	r3, .L27+8
 583 00a6 1B78     		ldrb	r3, [r3]
 617:Generated_Source\PSoC4/blue.c ****         ((cyBle_pendingFlashWrite & CYBLE_PENDING_CCCD_FLASH_WRITE_BIT) != 0u) &&
 584              		.loc 1 617 0
 585 00a8 042B     		cmp	r3, #4
 586 00aa 27D8     		bhi	.L20
 619:Generated_Source\PSoC4/blue.c ****     {
 620:Generated_Source\PSoC4/blue.c ****         apiResult = CyBle_StoreAppData(cyBle_attValuesCCCD, cyBle_flashStorage.attValuesCCCDFlashMe
 621:Generated_Source\PSoC4/blue.c ****                         cyBle_connHandle.bdHandle], CYBLE_GATT_DB_CCCD_COUNT, isForceWrite);
 587              		.loc 1 621 0
 588 00ac 564B     		ldr	r3, .L27+8
 589 00ae 1B78     		ldrb	r3, [r3]
 620:Generated_Source\PSoC4/blue.c ****                         cyBle_connHandle.bdHandle], CYBLE_GATT_DB_CCCD_COUNT, isForceWrite);
 590              		.loc 1 620 0
 591 00b0 1A00     		movs	r2, r3
 592 00b2 4623     		movs	r3, #70
 593 00b4 5343     		muls	r3, r2
 594 00b6 9E22     		movs	r2, #158
 595 00b8 9200     		lsls	r2, r2, #2
 596 00ba 9A18     		adds	r2, r3, r2
 597 00bc 534B     		ldr	r3, .L27+12
 598 00be D318     		adds	r3, r2, r3
 599 00c0 591C     		adds	r1, r3, #1
 600 00c2 B323     		movs	r3, #179
 601 00c4 5B00     		lsls	r3, r3, #1
 602 00c6 FC18     		adds	r4, r7, r3
 603 00c8 4D4B     		ldr	r3, .L27
 604 00ca B422     		movs	r2, #180
 605 00cc 5200     		lsls	r2, r2, #1
 606 00ce 9446     		mov	ip, r2
 607 00d0 BC44     		add	ip, ip, r7
 608 00d2 6344     		add	r3, r3, ip
 609 00d4 1B78     		ldrb	r3, [r3]
 610 00d6 4E48     		ldr	r0, .L27+16
 611 00d8 4622     		movs	r2, #70
 612 00da FFF7FEFF 		bl	CyBle_StoreAppData
 613 00de 0300     		movs	r3, r0
 614 00e0 2380     		strh	r3, [r4]
 622:Generated_Source\PSoC4/blue.c ****         if(apiResult == CYBLE_ERROR_OK)
 615              		.loc 1 622 0
 616 00e2 B323     		movs	r3, #179
 617 00e4 5B00     		lsls	r3, r3, #1
 618 00e6 FB18     		adds	r3, r7, r3
 619 00e8 1B88     		ldrh	r3, [r3]
 620 00ea 002B     		cmp	r3, #0
 621 00ec 06D1     		bne	.L20
ARM GAS  C:\Users\alexport\AppData\Local\Temp\ccMcN4Gf.s 			page 23


 623:Generated_Source\PSoC4/blue.c ****         {
 624:Generated_Source\PSoC4/blue.c ****             cyBle_pendingFlashWrite &= (uint8)~CYBLE_PENDING_CCCD_FLASH_WRITE_BIT;
 622              		.loc 1 624 0
 623 00ee 454B     		ldr	r3, .L27+4
 624 00f0 1B78     		ldrb	r3, [r3]
 625 00f2 0222     		movs	r2, #2
 626 00f4 9343     		bics	r3, r2
 627 00f6 DAB2     		uxtb	r2, r3
 628 00f8 424B     		ldr	r3, .L27+4
 629 00fa 1A70     		strb	r2, [r3]
 630              	.L20:
 625:Generated_Source\PSoC4/blue.c ****         }
 626:Generated_Source\PSoC4/blue.c ****     }
 627:Generated_Source\PSoC4/blue.c ****     /* Clear requested CCCD values */
 628:Generated_Source\PSoC4/blue.c ****     if( ((apiResult == CYBLE_ERROR_OK) || (isForceWrite != 0u)) && 
 631              		.loc 1 628 0
 632 00fc B323     		movs	r3, #179
 633 00fe 5B00     		lsls	r3, r3, #1
 634 0100 FB18     		adds	r3, r7, r3
 635 0102 1B88     		ldrh	r3, [r3]
 636 0104 002B     		cmp	r3, #0
 637 0106 08D0     		beq	.L21
 638              		.loc 1 628 0 is_stmt 0 discriminator 2
 639 0108 3D4B     		ldr	r3, .L27
 640 010a B422     		movs	r2, #180
 641 010c 5200     		lsls	r2, r2, #1
 642 010e 9446     		mov	ip, r2
 643 0110 BC44     		add	ip, ip, r7
 644 0112 6344     		add	r3, r3, ip
 645 0114 1B78     		ldrb	r3, [r3]
 646 0116 002B     		cmp	r3, #0
 647 0118 6AD0     		beq	.L22
 648              	.L21:
 629:Generated_Source\PSoC4/blue.c ****         ((cyBle_pendingFlashWrite & CYBLE_PENDING_CCCD_FLASH_CLEAR_MASK) != 0u) )
 649              		.loc 1 629 0 is_stmt 1 discriminator 3
 650 011a 3A4B     		ldr	r3, .L27+4
 651 011c 1B78     		ldrb	r3, [r3]
 652 011e 1A00     		movs	r2, r3
 653 0120 0C23     		movs	r3, #12
 654 0122 1340     		ands	r3, r2
 628:Generated_Source\PSoC4/blue.c ****         ((cyBle_pendingFlashWrite & CYBLE_PENDING_CCCD_FLASH_CLEAR_MASK) != 0u) )
 655              		.loc 1 628 0 discriminator 3
 656 0124 64D0     		beq	.L22
 630:Generated_Source\PSoC4/blue.c ****     {
 631:Generated_Source\PSoC4/blue.c ****         if((cyBle_pendingFlashWrite & CYBLE_PENDING_CCCD_FLASH_CLEAR_ALL_BIT) != 0u)
 657              		.loc 1 631 0
 658 0126 374B     		ldr	r3, .L27+4
 659 0128 1B78     		ldrb	r3, [r3]
 660 012a 1A00     		movs	r2, r3
 661 012c 0823     		movs	r3, #8
 662 012e 1340     		ands	r3, r2
 663 0130 29D0     		beq	.L23
 664              	.LBB3:
 632:Generated_Source\PSoC4/blue.c ****         {
 633:Generated_Source\PSoC4/blue.c ****             /* Remove cccd values for all bonded devices */
 634:Generated_Source\PSoC4/blue.c ****             uint8 defaultValuesCCCD[CYBLE_GAP_MAX_BONDED_DEVICE + 1u][CYBLE_GATT_DB_CCCD_COUNT];
 635:Generated_Source\PSoC4/blue.c ****             
ARM GAS  C:\Users\alexport\AppData\Local\Temp\ccMcN4Gf.s 			page 24


 636:Generated_Source\PSoC4/blue.c ****             (void)memset(defaultValuesCCCD, 0, sizeof(defaultValuesCCCD));
 665              		.loc 1 636 0
 666 0132 AF23     		movs	r3, #175
 667 0134 5A00     		lsls	r2, r3, #1
 668 0136 0823     		movs	r3, #8
 669 0138 FB18     		adds	r3, r7, r3
 670 013a 0021     		movs	r1, #0
 671 013c 1800     		movs	r0, r3
 672 013e FFF7FEFF 		bl	memset
 637:Generated_Source\PSoC4/blue.c **** 
 638:Generated_Source\PSoC4/blue.c ****             apiResult = CyBle_StoreAppData((uint8 *)defaultValuesCCCD, 
 673              		.loc 1 638 0
 674 0142 B323     		movs	r3, #179
 675 0144 5B00     		lsls	r3, r3, #1
 676 0146 FC18     		adds	r4, r7, r3
 677 0148 2D4B     		ldr	r3, .L27
 678 014a B422     		movs	r2, #180
 679 014c 5200     		lsls	r2, r2, #1
 680 014e 9446     		mov	ip, r2
 681 0150 BC44     		add	ip, ip, r7
 682 0152 6344     		add	r3, r3, ip
 683 0154 1D78     		ldrb	r5, [r3]
 684 0156 AF23     		movs	r3, #175
 685 0158 5A00     		lsls	r2, r3, #1
 686 015a 2E49     		ldr	r1, .L27+20
 687 015c 0823     		movs	r3, #8
 688 015e F818     		adds	r0, r7, r3
 689 0160 2B00     		movs	r3, r5
 690 0162 FFF7FEFF 		bl	CyBle_StoreAppData
 691 0166 0300     		movs	r3, r0
 692 0168 2380     		strh	r3, [r4]
 639:Generated_Source\PSoC4/blue.c ****                 (const uint8 *)cyBle_flashStorage.attValuesCCCDFlashMemory, sizeof(defaultValuesCCC
 640:Generated_Source\PSoC4/blue.c ****             if(apiResult == CYBLE_ERROR_OK)
 693              		.loc 1 640 0
 694 016a B323     		movs	r3, #179
 695 016c 5B00     		lsls	r3, r3, #1
 696 016e FB18     		adds	r3, r7, r3
 697 0170 1B88     		ldrh	r3, [r3]
 698 0172 002B     		cmp	r3, #0
 699 0174 3CD1     		bne	.L22
 641:Generated_Source\PSoC4/blue.c ****             {
 642:Generated_Source\PSoC4/blue.c ****                 cyBle_pendingFlashWrite &= (uint8)~CYBLE_PENDING_CCCD_FLASH_CLEAR_ALL_BIT;
 700              		.loc 1 642 0
 701 0176 234B     		ldr	r3, .L27+4
 702 0178 1B78     		ldrb	r3, [r3]
 703 017a 0822     		movs	r2, #8
 704 017c 9343     		bics	r3, r2
 705 017e DAB2     		uxtb	r2, r3
 706 0180 204B     		ldr	r3, .L27+4
 707 0182 1A70     		strb	r2, [r3]
 708 0184 34E0     		b	.L22
 709              	.L23:
 710              	.LBE3:
 711              	.LBB4:
 643:Generated_Source\PSoC4/blue.c ****             }
 644:Generated_Source\PSoC4/blue.c ****         }
 645:Generated_Source\PSoC4/blue.c ****         else /* Remove cccd values for particular device */
ARM GAS  C:\Users\alexport\AppData\Local\Temp\ccMcN4Gf.s 			page 25


 646:Generated_Source\PSoC4/blue.c ****         {
 647:Generated_Source\PSoC4/blue.c ****             uint8 defaultValuesCCCD[CYBLE_GATT_DB_CCCD_COUNT] = {0u};
 712              		.loc 1 647 0
 713 0186 244B     		ldr	r3, .L27+24
 714 0188 B422     		movs	r2, #180
 715 018a 5200     		lsls	r2, r2, #1
 716 018c 9446     		mov	ip, r2
 717 018e BC44     		add	ip, ip, r7
 718 0190 6344     		add	r3, r3, ip
 719 0192 1800     		movs	r0, r3
 720 0194 4623     		movs	r3, #70
 721 0196 1A00     		movs	r2, r3
 722 0198 0021     		movs	r1, #0
 723 019a FFF7FEFF 		bl	memset
 648:Generated_Source\PSoC4/blue.c ****             
 649:Generated_Source\PSoC4/blue.c ****             apiResult = CyBle_StoreAppData(defaultValuesCCCD, cyBle_flashStorage.attValuesCCCDFlash
 724              		.loc 1 649 0
 725 019e 1F4B     		ldr	r3, .L27+28
 726 01a0 1B78     		ldrb	r3, [r3]
 727 01a2 1A00     		movs	r2, r3
 728 01a4 4623     		movs	r3, #70
 729 01a6 5343     		muls	r3, r2
 730 01a8 9E22     		movs	r2, #158
 731 01aa 9200     		lsls	r2, r2, #2
 732 01ac 9A18     		adds	r2, r3, r2
 733 01ae 174B     		ldr	r3, .L27+12
 734 01b0 D318     		adds	r3, r2, r3
 735 01b2 591C     		adds	r1, r3, #1
 736 01b4 B323     		movs	r3, #179
 737 01b6 5B00     		lsls	r3, r3, #1
 738 01b8 FC18     		adds	r4, r7, r3
 739 01ba 114B     		ldr	r3, .L27
 740 01bc B422     		movs	r2, #180
 741 01be 5200     		lsls	r2, r2, #1
 742 01c0 9446     		mov	ip, r2
 743 01c2 BC44     		add	ip, ip, r7
 744 01c4 6344     		add	r3, r3, ip
 745 01c6 1B78     		ldrb	r3, [r3]
 746 01c8 0822     		movs	r2, #8
 747 01ca B818     		adds	r0, r7, r2
 748 01cc 4622     		movs	r2, #70
 749 01ce FFF7FEFF 		bl	CyBle_StoreAppData
 750 01d2 0300     		movs	r3, r0
 751 01d4 2380     		strh	r3, [r4]
 650:Generated_Source\PSoC4/blue.c ****                                     cyBle_pendingFlashClearCccdHandle], CYBLE_GATT_DB_CCCD_COUNT, i
 651:Generated_Source\PSoC4/blue.c ****             if(apiResult == CYBLE_ERROR_OK)
 752              		.loc 1 651 0
 753 01d6 B323     		movs	r3, #179
 754 01d8 5B00     		lsls	r3, r3, #1
 755 01da FB18     		adds	r3, r7, r3
 756 01dc 1B88     		ldrh	r3, [r3]
 757 01de 002B     		cmp	r3, #0
 758 01e0 06D1     		bne	.L22
 652:Generated_Source\PSoC4/blue.c ****             {
 653:Generated_Source\PSoC4/blue.c ****                 cyBle_pendingFlashWrite &= (uint8)~CYBLE_PENDING_CCCD_FLASH_CLEAR_BIT;
 759              		.loc 1 653 0
 760 01e2 084B     		ldr	r3, .L27+4
ARM GAS  C:\Users\alexport\AppData\Local\Temp\ccMcN4Gf.s 			page 26


 761 01e4 1B78     		ldrb	r3, [r3]
 762 01e6 0422     		movs	r2, #4
 763 01e8 9343     		bics	r3, r2
 764 01ea DAB2     		uxtb	r2, r3
 765 01ec 054B     		ldr	r3, .L27+4
 766 01ee 1A70     		strb	r2, [r3]
 767              	.L22:
 768              	.LBE4:
 654:Generated_Source\PSoC4/blue.c ****             }
 655:Generated_Source\PSoC4/blue.c ****         }
 656:Generated_Source\PSoC4/blue.c ****     }
 657:Generated_Source\PSoC4/blue.c **** #endif /* CYBLE_GATT_DB_CCCD_COUNT != 0u */
 658:Generated_Source\PSoC4/blue.c ****     return(apiResult);
 769              		.loc 1 658 0
 770 01f0 B323     		movs	r3, #179
 771 01f2 5B00     		lsls	r3, r3, #1
 772 01f4 FB18     		adds	r3, r7, r3
 773 01f6 1B88     		ldrh	r3, [r3]
 659:Generated_Source\PSoC4/blue.c **** }
 774              		.loc 1 659 0
 775 01f8 1800     		movs	r0, r3
 776 01fa BD46     		mov	sp, r7
 777 01fc 5AB0     		add	sp, sp, #360
 778              		@ sp needed
 779 01fe B0BD     		pop	{r4, r5, r7, pc}
 780              	.L28:
 781              		.align	2
 782              	.L27:
 783 0200 9FFEFFFF 		.word	-353
 784 0204 00000000 		.word	cyBle_pendingFlashWrite
 785 0208 00000000 		.word	cyBle_connHandle
 786 020c 00000000 		.word	cyBle_flashStorage
 787 0210 00000000 		.word	cyBle_attValuesCCCD
 788 0214 79020000 		.word	cyBle_flashStorage+633
 789 0218 A0FEFFFF 		.word	-352
 790 021c 24000000 		.word	cyBle_pendingFlashClearCccdHandle
 791              		.cfi_endproc
 792              	.LFE6:
 793              		.size	CyBle_StoreBondingData, .-CyBle_StoreBondingData
 794              		.section	.text.CyBle_GapRemoveBondedDevice,"ax",%progbits
 795              		.align	2
 796              		.global	CyBle_GapRemoveBondedDevice
 797              		.code	16
 798              		.thumb_func
 799              		.type	CyBle_GapRemoveBondedDevice, %function
 800              	CyBle_GapRemoveBondedDevice:
 801              	.LFB7:
 660:Generated_Source\PSoC4/blue.c **** 
 661:Generated_Source\PSoC4/blue.c **** 
 662:Generated_Source\PSoC4/blue.c **** /******************************************************************************
 663:Generated_Source\PSoC4/blue.c **** * Function Name: CyBle_GapRemoveBondedDevice
 664:Generated_Source\PSoC4/blue.c **** ***************************************************************************//**
 665:Generated_Source\PSoC4/blue.c **** * 
 666:Generated_Source\PSoC4/blue.c **** *  This function marks the device untrusted. It removes the bonding information
 667:Generated_Source\PSoC4/blue.c **** *  of the device including CCCD values. This function removes device from the
 668:Generated_Source\PSoC4/blue.c **** *  white list also when autopopulate white list with bonded devices option is
 669:Generated_Source\PSoC4/blue.c **** *  enabled.
ARM GAS  C:\Users\alexport\AppData\Local\Temp\ccMcN4Gf.s 			page 27


 670:Generated_Source\PSoC4/blue.c **** * 
 671:Generated_Source\PSoC4/blue.c **** *  This function is available only when Bonding requirement is selected in
 672:Generated_Source\PSoC4/blue.c **** *  Security settings.    
 673:Generated_Source\PSoC4/blue.c **** *
 674:Generated_Source\PSoC4/blue.c **** *  \param bdAddr: Pointer to peer device address, of type CYBLE_GAP_BD_ADDR_T.
 675:Generated_Source\PSoC4/blue.c **** *                 If device address is set to 0, then all devices shall be
 676:Generated_Source\PSoC4/blue.c **** *                 removed from trusted list and white list.
 677:Generated_Source\PSoC4/blue.c **** *
 678:Generated_Source\PSoC4/blue.c **** * \return
 679:Generated_Source\PSoC4/blue.c **** *  CYBLE_API_RESULT_T : Return value indicates if the function succeeded or
 680:Generated_Source\PSoC4/blue.c **** *  failed. Following are the possible error codes.
 681:Generated_Source\PSoC4/blue.c **** *
 682:Generated_Source\PSoC4/blue.c **** *   Errors codes                     | Description
 683:Generated_Source\PSoC4/blue.c **** *   ---------------------------------| ------------------------------------
 684:Generated_Source\PSoC4/blue.c **** *   CYBLE_ERROR_OK                   | On successful operation.
 685:Generated_Source\PSoC4/blue.c **** *   CYBLE_ERROR_INVALID_PARAMETER    | On specifying NULL as input parameter for 'bdAddr'.
 686:Generated_Source\PSoC4/blue.c **** *   CYBLE_ERROR_INVALID_OPERATION    | Whitelist is already in use or there is pending write to fla
 687:Generated_Source\PSoC4/blue.c **** *   CYBLE_ERROR_NO_DEVICE_ENTITY     | Device does not exist in the bond list.
 688:Generated_Source\PSoC4/blue.c **** *
 689:Generated_Source\PSoC4/blue.c **** *  \globalvars
 690:Generated_Source\PSoC4/blue.c **** *   The bdHandle is set in cyBle_pendingFlashWrite variable to indicate that
 691:Generated_Source\PSoC4/blue.c **** *   data should be stored to flash by CyBle_StoreBondingData() afterwards. 
 692:Generated_Source\PSoC4/blue.c **** *     
 693:Generated_Source\PSoC4/blue.c **** ******************************************************************************/
 694:Generated_Source\PSoC4/blue.c **** CYBLE_API_RESULT_T CyBle_GapRemoveBondedDevice(CYBLE_GAP_BD_ADDR_T* bdAddr)
 695:Generated_Source\PSoC4/blue.c **** {
 802              		.loc 1 695 0
 803              		.cfi_startproc
 804              		@ args = 0, pretend = 0, frame = 24
 805              		@ frame_needed = 1, uses_anonymous_args = 0
 806 0000 90B5     		push	{r4, r7, lr}
 807              		.cfi_def_cfa_offset 12
 808              		.cfi_offset 4, -12
 809              		.cfi_offset 7, -8
 810              		.cfi_offset 14, -4
 811 0002 87B0     		sub	sp, sp, #28
 812              		.cfi_def_cfa_offset 40
 813 0004 00AF     		add	r7, sp, #0
 814              		.cfi_def_cfa_register 7
 815 0006 7860     		str	r0, [r7, #4]
 696:Generated_Source\PSoC4/blue.c ****     CYBLE_API_RESULT_T apiResult = CYBLE_ERROR_OK;
 816              		.loc 1 696 0
 817 0008 1623     		movs	r3, #22
 818 000a FB18     		adds	r3, r7, r3
 819 000c 0022     		movs	r2, #0
 820 000e 1A80     		strh	r2, [r3]
 697:Generated_Source\PSoC4/blue.c ****     
 698:Generated_Source\PSoC4/blue.c ****     if(cyBle_pendingFlashWrite == 0u)
 821              		.loc 1 698 0
 822 0010 284B     		ldr	r3, .L36
 823 0012 1B78     		ldrb	r3, [r3]
 824 0014 002B     		cmp	r3, #0
 825 0016 42D1     		bne	.L30
 826              	.LBB5:
 699:Generated_Source\PSoC4/blue.c ****     {
 700:Generated_Source\PSoC4/blue.c ****         
 701:Generated_Source\PSoC4/blue.c ****     #if(CYBLE_GATT_DB_CCCD_COUNT != 0u)
ARM GAS  C:\Users\alexport\AppData\Local\Temp\ccMcN4Gf.s 			page 28


 702:Generated_Source\PSoC4/blue.c ****         /* Request to clear CCCD values which will be done by CyBle_StoreBondingData() */
 703:Generated_Source\PSoC4/blue.c ****         uint8 bDevHandle;
 704:Generated_Source\PSoC4/blue.c ****         CYBLE_GAP_BD_ADDR_T invalidBdAddr = {{0u,0u,0u,0u,0u,0u}, 0u};
 827              		.loc 1 704 0
 828 0018 0C23     		movs	r3, #12
 829 001a FB18     		adds	r3, r7, r3
 830 001c 1800     		movs	r0, r3
 831 001e 0723     		movs	r3, #7
 832 0020 1A00     		movs	r2, r3
 833 0022 0021     		movs	r1, #0
 834 0024 FFF7FEFF 		bl	memset
 705:Generated_Source\PSoC4/blue.c **** 
 706:Generated_Source\PSoC4/blue.c ****         if(memcmp(((uint8 *) &(bdAddr->bdAddr)), ((uint8 *) &(invalidBdAddr.bdAddr)), CYBLE_GAP_BD_
 835              		.loc 1 706 0
 836 0028 7B68     		ldr	r3, [r7, #4]
 837 002a 0C22     		movs	r2, #12
 838 002c B918     		adds	r1, r7, r2
 839 002e 0622     		movs	r2, #6
 840 0030 1800     		movs	r0, r3
 841 0032 FFF7FEFF 		bl	memcmp
 842 0036 031E     		subs	r3, r0, #0
 843 0038 07D1     		bne	.L31
 707:Generated_Source\PSoC4/blue.c **** 	    {
 708:Generated_Source\PSoC4/blue.c ****             /* Request to remove all bonded devices by CyBle_StoreBondingData() */
 709:Generated_Source\PSoC4/blue.c ****             cyBle_pendingFlashWrite |= CYBLE_PENDING_CCCD_FLASH_CLEAR_ALL_BIT;
 844              		.loc 1 709 0
 845 003a 1E4B     		ldr	r3, .L36
 846 003c 1B78     		ldrb	r3, [r3]
 847 003e 0822     		movs	r2, #8
 848 0040 1343     		orrs	r3, r2
 849 0042 DAB2     		uxtb	r2, r3
 850 0044 1B4B     		ldr	r3, .L36
 851 0046 1A70     		strb	r2, [r3]
 852 0048 1BE0     		b	.L32
 853              	.L31:
 710:Generated_Source\PSoC4/blue.c ****         }
 711:Generated_Source\PSoC4/blue.c ****         else
 712:Generated_Source\PSoC4/blue.c ****         {
 713:Generated_Source\PSoC4/blue.c ****             /* Get the BD handle from Address */
 714:Generated_Source\PSoC4/blue.c ****             apiResult = CyBle_GapGetPeerBdHandle(&bDevHandle, bdAddr);
 854              		.loc 1 714 0
 855 004a 1623     		movs	r3, #22
 856 004c FC18     		adds	r4, r7, r3
 857 004e 7A68     		ldr	r2, [r7, #4]
 858 0050 1523     		movs	r3, #21
 859 0052 FB18     		adds	r3, r7, r3
 860 0054 1100     		movs	r1, r2
 861 0056 1800     		movs	r0, r3
 862 0058 FFF7FEFF 		bl	CyBle_GapGetPeerBdHandle
 863 005c 0300     		movs	r3, r0
 864 005e 2380     		strh	r3, [r4]
 715:Generated_Source\PSoC4/blue.c ****             if(apiResult == CYBLE_ERROR_OK)
 865              		.loc 1 715 0
 866 0060 1623     		movs	r3, #22
 867 0062 FB18     		adds	r3, r7, r3
 868 0064 1B88     		ldrh	r3, [r3]
 869 0066 002B     		cmp	r3, #0
ARM GAS  C:\Users\alexport\AppData\Local\Temp\ccMcN4Gf.s 			page 29


 870 0068 0BD1     		bne	.L32
 716:Generated_Source\PSoC4/blue.c ****             {
 717:Generated_Source\PSoC4/blue.c ****                 /* Store BD handle to clear cccd values by CyBle_StoreBondingData() */
 718:Generated_Source\PSoC4/blue.c ****                 cyBle_pendingFlashWrite |= CYBLE_PENDING_CCCD_FLASH_CLEAR_BIT;
 871              		.loc 1 718 0
 872 006a 124B     		ldr	r3, .L36
 873 006c 1B78     		ldrb	r3, [r3]
 874 006e 0422     		movs	r2, #4
 875 0070 1343     		orrs	r3, r2
 876 0072 DAB2     		uxtb	r2, r3
 877 0074 0F4B     		ldr	r3, .L36
 878 0076 1A70     		strb	r2, [r3]
 719:Generated_Source\PSoC4/blue.c ****                 cyBle_pendingFlashClearCccdHandle = bDevHandle;
 879              		.loc 1 719 0
 880 0078 1523     		movs	r3, #21
 881 007a FB18     		adds	r3, r7, r3
 882 007c 1A78     		ldrb	r2, [r3]
 883 007e 0E4B     		ldr	r3, .L36+4
 884 0080 1A70     		strb	r2, [r3]
 885              	.L32:
 720:Generated_Source\PSoC4/blue.c ****             }
 721:Generated_Source\PSoC4/blue.c ****         }
 722:Generated_Source\PSoC4/blue.c ****     #endif /* CYBLE_GATT_DB_CCCD_COUNT != 0u */
 723:Generated_Source\PSoC4/blue.c ****         if(apiResult == CYBLE_ERROR_OK)
 886              		.loc 1 723 0
 887 0082 1623     		movs	r3, #22
 888 0084 FB18     		adds	r3, r7, r3
 889 0086 1B88     		ldrh	r3, [r3]
 890 0088 002B     		cmp	r3, #0
 891 008a 0CD1     		bne	.L34
 724:Generated_Source\PSoC4/blue.c ****         {
 725:Generated_Source\PSoC4/blue.c ****             apiResult = CyBle_GapRemoveDeviceFromWhiteList(bdAddr);
 892              		.loc 1 725 0
 893 008c 1623     		movs	r3, #22
 894 008e FC18     		adds	r4, r7, r3
 895 0090 7B68     		ldr	r3, [r7, #4]
 896 0092 1800     		movs	r0, r3
 897 0094 FFF7FEFF 		bl	CyBle_GapRemoveDeviceFromWhiteList
 898 0098 0300     		movs	r3, r0
 899 009a 2380     		strh	r3, [r4]
 900 009c 03E0     		b	.L34
 901              	.L30:
 902              	.LBE5:
 726:Generated_Source\PSoC4/blue.c ****         }
 727:Generated_Source\PSoC4/blue.c ****     }
 728:Generated_Source\PSoC4/blue.c ****     else
 729:Generated_Source\PSoC4/blue.c ****     {
 730:Generated_Source\PSoC4/blue.c ****         apiResult = CYBLE_ERROR_INVALID_OPERATION;
 903              		.loc 1 730 0
 904 009e 1623     		movs	r3, #22
 905 00a0 FB18     		adds	r3, r7, r3
 906 00a2 0222     		movs	r2, #2
 907 00a4 1A80     		strh	r2, [r3]
 908              	.L34:
 731:Generated_Source\PSoC4/blue.c ****     }
 732:Generated_Source\PSoC4/blue.c ****     
 733:Generated_Source\PSoC4/blue.c ****     return(apiResult);
ARM GAS  C:\Users\alexport\AppData\Local\Temp\ccMcN4Gf.s 			page 30


 909              		.loc 1 733 0
 910 00a6 1623     		movs	r3, #22
 911 00a8 FB18     		adds	r3, r7, r3
 912 00aa 1B88     		ldrh	r3, [r3]
 734:Generated_Source\PSoC4/blue.c **** }
 913              		.loc 1 734 0
 914 00ac 1800     		movs	r0, r3
 915 00ae BD46     		mov	sp, r7
 916 00b0 07B0     		add	sp, sp, #28
 917              		@ sp needed
 918 00b2 90BD     		pop	{r4, r7, pc}
 919              	.L37:
 920              		.align	2
 921              	.L36:
 922 00b4 00000000 		.word	cyBle_pendingFlashWrite
 923 00b8 24000000 		.word	cyBle_pendingFlashClearCccdHandle
 924              		.cfi_endproc
 925              	.LFE7:
 926              		.size	CyBle_GapRemoveBondedDevice, .-CyBle_GapRemoveBondedDevice
 927              		.section	.text.CyBle_GappStartAdvertisement,"ax",%progbits
 928              		.align	2
 929              		.global	CyBle_GappStartAdvertisement
 930              		.code	16
 931              		.thumb_func
 932              		.type	CyBle_GappStartAdvertisement, %function
 933              	CyBle_GappStartAdvertisement:
 934              	.LFB8:
 735:Generated_Source\PSoC4/blue.c **** 
 736:Generated_Source\PSoC4/blue.c **** 
 737:Generated_Source\PSoC4/blue.c **** #endif /* (CYBLE_GAP_ROLE_PERIPHERAL || CYBLE_GAP_ROLE_CENTRAL) && (CYBLE_BONDING_REQUIREMENT == CY
 738:Generated_Source\PSoC4/blue.c **** 
 739:Generated_Source\PSoC4/blue.c **** 
 740:Generated_Source\PSoC4/blue.c **** #if(CYBLE_GAP_ROLE_PERIPHERAL || CYBLE_GAP_ROLE_BROADCASTER)
 741:Generated_Source\PSoC4/blue.c **** 
 742:Generated_Source\PSoC4/blue.c ****     /******************************************************************************
 743:Generated_Source\PSoC4/blue.c ****     *  Function Name: CyBle_GappStartAdvertisement
 744:Generated_Source\PSoC4/blue.c ****     ***************************************************************************//**
 745:Generated_Source\PSoC4/blue.c ****     *     
 746:Generated_Source\PSoC4/blue.c ****     *  This function is used to start the advertisement using the advertisement data 
 747:Generated_Source\PSoC4/blue.c ****     *  set in the component customizer's GUI. After invoking this function, the 
 748:Generated_Source\PSoC4/blue.c ****     *  device will be available for connection by the devices configured for GAP 
 749:Generated_Source\PSoC4/blue.c ****     *  central role. It is only included if the device is configured for GAP 
 750:Generated_Source\PSoC4/blue.c ****     *  Peripheral or GAP Peripheral + Central role.
 751:Generated_Source\PSoC4/blue.c ****     *  
 752:Generated_Source\PSoC4/blue.c ****     *  On start of advertisement, GAP Peripheral receives the
 753:Generated_Source\PSoC4/blue.c ****     *  CYBLE_EVT_GAPP_ADVERTISEMENT_START_STOP event. The following events are 
 754:Generated_Source\PSoC4/blue.c ****     *  possible on invoking this function:
 755:Generated_Source\PSoC4/blue.c ****     *  
 756:Generated_Source\PSoC4/blue.c ****     *  * CYBLE_EVT_GAP_DEVICE_CONNECTED - If the device connects to a GAP Central and 
 757:Generated_Source\PSoC4/blue.c ****     *    Link Layer Privacy is disabled in component customizer.
 758:Generated_Source\PSoC4/blue.c ****     *  * CYBLE_EVT_GAP_ENHANCE_CONN_COMPLETE - If the device connects to a GAP Central and 
 759:Generated_Source\PSoC4/blue.c ****     *    Link Layer Privacy is enabled in component customizer.
 760:Generated_Source\PSoC4/blue.c ****     *  * CYBLE_EVT_TIMEOUT: If no device in GAP Central mode connects to this 
 761:Generated_Source\PSoC4/blue.c ****     *                       device within the specified timeout limit. Stack 
 762:Generated_Source\PSoC4/blue.c ****     *                       automatically initiate stop advertising when Slow 
 763:Generated_Source\PSoC4/blue.c ****     *                       advertising was initiated, or starts Slow advertising
 764:Generated_Source\PSoC4/blue.c ****     *                       after Fast advertising timeout occur.
ARM GAS  C:\Users\alexport\AppData\Local\Temp\ccMcN4Gf.s 			page 31


 765:Generated_Source\PSoC4/blue.c ****     *  * CYBLE_EVT_GAPP_ADVERTISEMENT_START_STOP: If device started or stopped
 766:Generated_Source\PSoC4/blue.c ****     *                                               advertising. Use CyBle_GetState()
 767:Generated_Source\PSoC4/blue.c ****     *                                               to determine the state. Sequential 
 768:Generated_Source\PSoC4/blue.c ****     *                                               advertising could be started when
 769:Generated_Source\PSoC4/blue.c ****     *                                               CYBLE_STATE_DISCONNECTED state is
 770:Generated_Source\PSoC4/blue.c ****     *                                               returned.
 771:Generated_Source\PSoC4/blue.c ****     * 
 772:Generated_Source\PSoC4/blue.c ****     *  \param advertisingIntervalType: Fast or slow advertising interval with timings
 773:Generated_Source\PSoC4/blue.c ****     *                                 entered in Advertising settings section of the
 774:Generated_Source\PSoC4/blue.c ****     *                                 customizer.
 775:Generated_Source\PSoC4/blue.c ****     *  * CYBLE_ADVERTISING_FAST   0x00u
 776:Generated_Source\PSoC4/blue.c ****     *  * CYBLE_ADVERTISING_SLOW   0x01u
 777:Generated_Source\PSoC4/blue.c ****     *  * CYBLE_ADVERTISING_CUSTOM 0x02u
 778:Generated_Source\PSoC4/blue.c ****     * 
 779:Generated_Source\PSoC4/blue.c ****     * \return
 780:Generated_Source\PSoC4/blue.c ****     *  CYBLE_API_RESULT_T : Return value indicates if the function succeeded or
 781:Generated_Source\PSoC4/blue.c ****     *  failed. Following are the possible error codes.
 782:Generated_Source\PSoC4/blue.c ****     * 
 783:Generated_Source\PSoC4/blue.c ****     *   Errors codes                      |  Description
 784:Generated_Source\PSoC4/blue.c ****     *   --------------------------------- |  --------------------------------
 785:Generated_Source\PSoC4/blue.c ****     *   CYBLE_ERROR_OK                    |  On successful operation.
 786:Generated_Source\PSoC4/blue.c ****     *   CYBLE_ERROR_INVALID_PARAMETER     |  On passing an invalid parameter.
 787:Generated_Source\PSoC4/blue.c ****     *   CYBLE_ERROR_INVALID_STATE         |  On calling this function not in Disconnected state.
 788:Generated_Source\PSoC4/blue.c ****     *
 789:Generated_Source\PSoC4/blue.c ****     * 
 790:Generated_Source\PSoC4/blue.c ****     *******************************************************************************/
 791:Generated_Source\PSoC4/blue.c ****     CYBLE_API_RESULT_T CyBle_GappStartAdvertisement(uint8 advertisingIntervalType)
 792:Generated_Source\PSoC4/blue.c ****     {
 935              		.loc 1 792 0
 936              		.cfi_startproc
 937              		@ args = 0, pretend = 0, frame = 16
 938              		@ frame_needed = 1, uses_anonymous_args = 0
 939 0000 90B5     		push	{r4, r7, lr}
 940              		.cfi_def_cfa_offset 12
 941              		.cfi_offset 4, -12
 942              		.cfi_offset 7, -8
 943              		.cfi_offset 14, -4
 944 0002 85B0     		sub	sp, sp, #20
 945              		.cfi_def_cfa_offset 32
 946 0004 00AF     		add	r7, sp, #0
 947              		.cfi_def_cfa_register 7
 948 0006 0200     		movs	r2, r0
 949 0008 FB1D     		adds	r3, r7, #7
 950 000a 1A70     		strb	r2, [r3]
 793:Generated_Source\PSoC4/blue.c ****         CYBLE_API_RESULT_T apiResult;
 794:Generated_Source\PSoC4/blue.c ****         
 795:Generated_Source\PSoC4/blue.c ****         if(advertisingIntervalType > CYBLE_ADVERTISING_CUSTOM)
 951              		.loc 1 795 0
 952 000c FB1D     		adds	r3, r7, #7
 953 000e 1B78     		ldrb	r3, [r3]
 954 0010 022B     		cmp	r3, #2
 955 0012 04D9     		bls	.L39
 796:Generated_Source\PSoC4/blue.c ****         {
 797:Generated_Source\PSoC4/blue.c ****             apiResult = CYBLE_ERROR_INVALID_PARAMETER;
 956              		.loc 1 797 0
 957 0014 0E23     		movs	r3, #14
 958 0016 FB18     		adds	r3, r7, r3
ARM GAS  C:\Users\alexport\AppData\Local\Temp\ccMcN4Gf.s 			page 32


 959 0018 0122     		movs	r2, #1
 960 001a 1A80     		strh	r2, [r3]
 961 001c 4AE0     		b	.L40
 962              	.L39:
 798:Generated_Source\PSoC4/blue.c ****         }
 799:Generated_Source\PSoC4/blue.c ****         else if((CYBLE_STATE_DISCONNECTED == CyBle_GetState()) && ((cyBle_eventHandlerFlag & CYBLE_
 963              		.loc 1 799 0
 964 001e 294B     		ldr	r3, .L46
 965 0020 1B78     		ldrb	r3, [r3]
 966 0022 042B     		cmp	r3, #4
 967 0024 41D1     		bne	.L41
 968              		.loc 1 799 0 is_stmt 0 discriminator 1
 969 0026 284B     		ldr	r3, .L46+4
 970 0028 1B78     		ldrb	r3, [r3]
 971 002a DBB2     		uxtb	r3, r3
 972 002c 1A00     		movs	r2, r3
 973 002e 0423     		movs	r3, #4
 974 0030 1340     		ands	r3, r2
 975 0032 3AD1     		bne	.L41
 800:Generated_Source\PSoC4/blue.c ****         {   
 801:Generated_Source\PSoC4/blue.c ****             if(advertisingIntervalType == CYBLE_ADVERTISING_FAST)
 976              		.loc 1 801 0 is_stmt 1
 977 0034 FB1D     		adds	r3, r7, #7
 978 0036 1B78     		ldrb	r3, [r3]
 979 0038 002B     		cmp	r3, #0
 980 003a 0BD1     		bne	.L42
 802:Generated_Source\PSoC4/blue.c ****             {
 803:Generated_Source\PSoC4/blue.c ****                 cyBle_discoveryModeInfo.advTo = CYBLE_FAST_ADV_TIMEOUT;
 981              		.loc 1 803 0
 982 003c 234B     		ldr	r3, .L46+8
 983 003e 0022     		movs	r2, #0
 984 0040 1A82     		strh	r2, [r3, #16]
 804:Generated_Source\PSoC4/blue.c ****                 cyBle_discoveryModeInfo.advParam->advIntvMin = CYBLE_FAST_ADV_INT_MIN;
 985              		.loc 1 804 0
 986 0042 224B     		ldr	r3, .L46+8
 987 0044 5B68     		ldr	r3, [r3, #4]
 988 0046 2022     		movs	r2, #32
 989 0048 1A80     		strh	r2, [r3]
 805:Generated_Source\PSoC4/blue.c ****                 cyBle_discoveryModeInfo.advParam->advIntvMax = CYBLE_FAST_ADV_INT_MAX;
 990              		.loc 1 805 0
 991 004a 204B     		ldr	r3, .L46+8
 992 004c 5B68     		ldr	r3, [r3, #4]
 993 004e 3022     		movs	r2, #48
 994 0050 5A80     		strh	r2, [r3, #2]
 995 0052 10E0     		b	.L43
 996              	.L42:
 806:Generated_Source\PSoC4/blue.c ****             }
 807:Generated_Source\PSoC4/blue.c ****             else if(advertisingIntervalType == CYBLE_ADVERTISING_SLOW)
 997              		.loc 1 807 0
 998 0054 FB1D     		adds	r3, r7, #7
 999 0056 1B78     		ldrb	r3, [r3]
 1000 0058 012B     		cmp	r3, #1
 1001 005a 0CD1     		bne	.L43
 808:Generated_Source\PSoC4/blue.c ****             {
 809:Generated_Source\PSoC4/blue.c ****                 cyBle_discoveryModeInfo.advTo = CYBLE_SLOW_ADV_TIMEOUT;
 1002              		.loc 1 809 0
 1003 005c 1B4B     		ldr	r3, .L46+8
ARM GAS  C:\Users\alexport\AppData\Local\Temp\ccMcN4Gf.s 			page 33


 1004 005e 9622     		movs	r2, #150
 1005 0060 1A82     		strh	r2, [r3, #16]
 810:Generated_Source\PSoC4/blue.c ****                 cyBle_discoveryModeInfo.advParam->advIntvMin = CYBLE_SLOW_ADV_INT_MIN;
 1006              		.loc 1 810 0
 1007 0062 1A4B     		ldr	r3, .L46+8
 1008 0064 5B68     		ldr	r3, [r3, #4]
 1009 0066 C822     		movs	r2, #200
 1010 0068 D200     		lsls	r2, r2, #3
 1011 006a 1A80     		strh	r2, [r3]
 811:Generated_Source\PSoC4/blue.c ****                 cyBle_discoveryModeInfo.advParam->advIntvMax = CYBLE_SLOW_ADV_INT_MAX;
 1012              		.loc 1 811 0
 1013 006c 174B     		ldr	r3, .L46+8
 1014 006e 5B68     		ldr	r3, [r3, #4]
 1015 0070 8022     		movs	r2, #128
 1016 0072 D201     		lsls	r2, r2, #7
 1017 0074 5A80     		strh	r2, [r3, #2]
 1018              	.L43:
 812:Generated_Source\PSoC4/blue.c ****             }       
 813:Generated_Source\PSoC4/blue.c ****             else /* Do not update advertising intervals */
 814:Generated_Source\PSoC4/blue.c ****             {
 815:Generated_Source\PSoC4/blue.c ****             }
 816:Generated_Source\PSoC4/blue.c ****             cyBle_advertisingIntervalType = advertisingIntervalType;
 1019              		.loc 1 816 0
 1020 0076 164B     		ldr	r3, .L46+12
 1021 0078 FA1D     		adds	r2, r7, #7
 1022 007a 1278     		ldrb	r2, [r2]
 1023 007c 1A70     		strb	r2, [r3]
 817:Generated_Source\PSoC4/blue.c ****             apiResult = CyBle_GappEnterDiscoveryMode(&cyBle_discoveryModeInfo);
 1024              		.loc 1 817 0
 1025 007e 0E23     		movs	r3, #14
 1026 0080 FC18     		adds	r4, r7, r3
 1027 0082 124B     		ldr	r3, .L46+8
 1028 0084 1800     		movs	r0, r3
 1029 0086 FFF7FEFF 		bl	CyBle_GappEnterDiscoveryMode
 1030 008a 0300     		movs	r3, r0
 1031 008c 2380     		strh	r3, [r4]
 818:Generated_Source\PSoC4/blue.c ****         
 819:Generated_Source\PSoC4/blue.c ****             if(apiResult == CYBLE_ERROR_OK)
 1032              		.loc 1 819 0
 1033 008e 0E23     		movs	r3, #14
 1034 0090 FB18     		adds	r3, r7, r3
 1035 0092 1B88     		ldrh	r3, [r3]
 1036 0094 002B     		cmp	r3, #0
 1037 0096 0DD1     		bne	.L40
 820:Generated_Source\PSoC4/blue.c ****             {
 821:Generated_Source\PSoC4/blue.c ****                 cyBle_eventHandlerFlag |= CYBLE_START_FLAG;
 1038              		.loc 1 821 0
 1039 0098 0B4B     		ldr	r3, .L46+4
 1040 009a 1B78     		ldrb	r3, [r3]
 1041 009c DBB2     		uxtb	r3, r3
 1042 009e 0422     		movs	r2, #4
 1043 00a0 1343     		orrs	r3, r2
 1044 00a2 DAB2     		uxtb	r2, r3
 1045 00a4 084B     		ldr	r3, .L46+4
 1046 00a6 1A70     		strb	r2, [r3]
 819:Generated_Source\PSoC4/blue.c ****             {
 1047              		.loc 1 819 0
ARM GAS  C:\Users\alexport\AppData\Local\Temp\ccMcN4Gf.s 			page 34


 1048 00a8 04E0     		b	.L40
 1049              	.L41:
 822:Generated_Source\PSoC4/blue.c ****             }
 823:Generated_Source\PSoC4/blue.c ****         }
 824:Generated_Source\PSoC4/blue.c ****         else
 825:Generated_Source\PSoC4/blue.c ****         {
 826:Generated_Source\PSoC4/blue.c ****             apiResult = CYBLE_ERROR_INVALID_STATE;
 1050              		.loc 1 826 0
 1051 00aa 0E23     		movs	r3, #14
 1052 00ac FB18     		adds	r3, r7, r3
 1053 00ae 0422     		movs	r2, #4
 1054 00b0 FF32     		adds	r2, r2, #255
 1055 00b2 1A80     		strh	r2, [r3]
 1056              	.L40:
 827:Generated_Source\PSoC4/blue.c ****         }
 828:Generated_Source\PSoC4/blue.c **** 
 829:Generated_Source\PSoC4/blue.c ****         return (apiResult);
 1057              		.loc 1 829 0
 1058 00b4 0E23     		movs	r3, #14
 1059 00b6 FB18     		adds	r3, r7, r3
 1060 00b8 1B88     		ldrh	r3, [r3]
 830:Generated_Source\PSoC4/blue.c ****     }
 1061              		.loc 1 830 0
 1062 00ba 1800     		movs	r0, r3
 1063 00bc BD46     		mov	sp, r7
 1064 00be 05B0     		add	sp, sp, #20
 1065              		@ sp needed
 1066 00c0 90BD     		pop	{r4, r7, pc}
 1067              	.L47:
 1068 00c2 C046     		.align	2
 1069              	.L46:
 1070 00c4 00000000 		.word	cyBle_state
 1071 00c8 00000000 		.word	cyBle_eventHandlerFlag
 1072 00cc 00000000 		.word	cyBle_discoveryModeInfo
 1073 00d0 00000000 		.word	cyBle_advertisingIntervalType
 1074              		.cfi_endproc
 1075              	.LFE8:
 1076              		.size	CyBle_GappStartAdvertisement, .-CyBle_GappStartAdvertisement
 1077              		.section	.text.CyBle_GappStopAdvertisement,"ax",%progbits
 1078              		.align	2
 1079              		.global	CyBle_GappStopAdvertisement
 1080              		.code	16
 1081              		.thumb_func
 1082              		.type	CyBle_GappStopAdvertisement, %function
 1083              	CyBle_GappStopAdvertisement:
 1084              	.LFB9:
 831:Generated_Source\PSoC4/blue.c **** 
 832:Generated_Source\PSoC4/blue.c ****     
 833:Generated_Source\PSoC4/blue.c ****     /******************************************************************************
 834:Generated_Source\PSoC4/blue.c ****     * Function Name: CyBle_GappStopAdvertisement
 835:Generated_Source\PSoC4/blue.c ****     ***************************************************************************//**
 836:Generated_Source\PSoC4/blue.c ****     * 
 837:Generated_Source\PSoC4/blue.c ****     *   This function can be used to exit from discovery mode. After the execution 
 838:Generated_Source\PSoC4/blue.c ****     *   of this function, there will no longer be any advertisements. On stopping 
 839:Generated_Source\PSoC4/blue.c ****     *   advertising, GAP Peripheral receives CYBLE_EVT_GAPP_ADVERTISEMENT_START_STOP
 840:Generated_Source\PSoC4/blue.c ****     *   event. It is expected that the application layer tracks the function call 
 841:Generated_Source\PSoC4/blue.c ****     *   performed before occurrence of this event as this event can occur on making 
ARM GAS  C:\Users\alexport\AppData\Local\Temp\ccMcN4Gf.s 			page 35


 842:Generated_Source\PSoC4/blue.c ****     *   a call to Cy_BleGappStartAdvertisement(), CyBle_GappEnterDiscoveryMode(), 
 843:Generated_Source\PSoC4/blue.c ****     *   or CyBle_GappStartAdvertisement() functions as well.
 844:Generated_Source\PSoC4/blue.c ****     *   
 845:Generated_Source\PSoC4/blue.c ****     *   The following event occurs on invoking this function:
 846:Generated_Source\PSoC4/blue.c ****     *   * CYBLE_EVT_GAPP_ADVERTISEMENT_START_STOP
 847:Generated_Source\PSoC4/blue.c ****     * 
 848:Generated_Source\PSoC4/blue.c ****     *  \return
 849:Generated_Source\PSoC4/blue.c ****     *   None
 850:Generated_Source\PSoC4/blue.c ****     * 
 851:Generated_Source\PSoC4/blue.c ****     *******************************************************************************/
 852:Generated_Source\PSoC4/blue.c ****     void CyBle_GappStopAdvertisement(void)
 853:Generated_Source\PSoC4/blue.c ****     {
 1085              		.loc 1 853 0
 1086              		.cfi_startproc
 1087              		@ args = 0, pretend = 0, frame = 0
 1088              		@ frame_needed = 1, uses_anonymous_args = 0
 1089 0000 80B5     		push	{r7, lr}
 1090              		.cfi_def_cfa_offset 8
 1091              		.cfi_offset 7, -8
 1092              		.cfi_offset 14, -4
 1093 0002 00AF     		add	r7, sp, #0
 1094              		.cfi_def_cfa_register 7
 854:Generated_Source\PSoC4/blue.c ****         CyBle_GappExitDiscoveryMode();
 1095              		.loc 1 854 0
 1096 0004 FFF7FEFF 		bl	CyBle_GappExitDiscoveryMode
 855:Generated_Source\PSoC4/blue.c ****         cyBle_eventHandlerFlag |= CYBLE_STOP_FLAG;
 1097              		.loc 1 855 0
 1098 0008 054B     		ldr	r3, .L49
 1099 000a 1B78     		ldrb	r3, [r3]
 1100 000c DBB2     		uxtb	r3, r3
 1101 000e 0822     		movs	r2, #8
 1102 0010 1343     		orrs	r3, r2
 1103 0012 DAB2     		uxtb	r2, r3
 1104 0014 024B     		ldr	r3, .L49
 1105 0016 1A70     		strb	r2, [r3]
 856:Generated_Source\PSoC4/blue.c ****     }
 1106              		.loc 1 856 0
 1107 0018 C046     		nop
 1108 001a BD46     		mov	sp, r7
 1109              		@ sp needed
 1110 001c 80BD     		pop	{r7, pc}
 1111              	.L50:
 1112 001e C046     		.align	2
 1113              	.L49:
 1114 0020 00000000 		.word	cyBle_eventHandlerFlag
 1115              		.cfi_endproc
 1116              	.LFE9:
 1117              		.size	CyBle_GappStopAdvertisement, .-CyBle_GappStopAdvertisement
 1118              		.section	.text.CyBle_ChangeAdDeviceAddress,"ax",%progbits
 1119              		.align	2
 1120              		.global	CyBle_ChangeAdDeviceAddress
 1121              		.code	16
 1122              		.thumb_func
 1123              		.type	CyBle_ChangeAdDeviceAddress, %function
 1124              	CyBle_ChangeAdDeviceAddress:
 1125              	.LFB10:
 857:Generated_Source\PSoC4/blue.c ****     
ARM GAS  C:\Users\alexport\AppData\Local\Temp\ccMcN4Gf.s 			page 36


 858:Generated_Source\PSoC4/blue.c ****     
 859:Generated_Source\PSoC4/blue.c ****     /******************************************************************************
 860:Generated_Source\PSoC4/blue.c ****     * Function Name: CyBle_ChangeAdDeviceAddress
 861:Generated_Source\PSoC4/blue.c ****     ***************************************************************************//**
 862:Generated_Source\PSoC4/blue.c ****     * 
 863:Generated_Source\PSoC4/blue.c ****     *  This function is used to set the Bluetooth device address into the 
 864:Generated_Source\PSoC4/blue.c ****     *  advertisement or scan response data structure.
 865:Generated_Source\PSoC4/blue.c ****     * 
 866:Generated_Source\PSoC4/blue.c ****     *  \param bdAddr: Bluetooth Device address. The variable is of type CYBLE_GAP_BD_ADDR_T
 867:Generated_Source\PSoC4/blue.c ****     *  \param dest: 0 - selects advertisement structure, not zero value selects scan 
 868:Generated_Source\PSoC4/blue.c ****     *               response structure.
 869:Generated_Source\PSoC4/blue.c ****     * 
 870:Generated_Source\PSoC4/blue.c ****     * \return
 871:Generated_Source\PSoC4/blue.c ****     *  None
 872:Generated_Source\PSoC4/blue.c ****     *  
 873:Generated_Source\PSoC4/blue.c ****     *******************************************************************************/
 874:Generated_Source\PSoC4/blue.c ****     void CyBle_ChangeAdDeviceAddress(const CYBLE_GAP_BD_ADDR_T* bdAddr, uint8 dest)
 875:Generated_Source\PSoC4/blue.c ****     {
 1126              		.loc 1 875 0
 1127              		.cfi_startproc
 1128              		@ args = 0, pretend = 0, frame = 16
 1129              		@ frame_needed = 1, uses_anonymous_args = 0
 1130 0000 80B5     		push	{r7, lr}
 1131              		.cfi_def_cfa_offset 8
 1132              		.cfi_offset 7, -8
 1133              		.cfi_offset 14, -4
 1134 0002 84B0     		sub	sp, sp, #16
 1135              		.cfi_def_cfa_offset 24
 1136 0004 00AF     		add	r7, sp, #0
 1137              		.cfi_def_cfa_register 7
 1138 0006 7860     		str	r0, [r7, #4]
 1139 0008 0A00     		movs	r2, r1
 1140 000a FB1C     		adds	r3, r7, #3
 1141 000c 1A70     		strb	r2, [r3]
 876:Generated_Source\PSoC4/blue.c ****         uint8 i;
 877:Generated_Source\PSoC4/blue.c ****         uint8 *destBuffer = NULL;
 1142              		.loc 1 877 0
 1143 000e 0023     		movs	r3, #0
 1144 0010 BB60     		str	r3, [r7, #8]
 878:Generated_Source\PSoC4/blue.c ****         
 879:Generated_Source\PSoC4/blue.c ****         if(dest == 0u)      /* Destination - advertising structure */
 880:Generated_Source\PSoC4/blue.c ****         {
 881:Generated_Source\PSoC4/blue.c ****             #ifdef CYBLE_ADV_PKT_INDEX_BLUETOOTH_DEVICE_ADDRESS
 882:Generated_Source\PSoC4/blue.c ****                 destBuffer = &cyBle_discoveryData.advData[CYBLE_ADV_PKT_INDEX_BLUETOOTH_DEVICE_ADDR
 883:Generated_Source\PSoC4/blue.c ****             #endif /* CYBLE_ADV_PKT_INDEX_BLUETOOTH_DEVICE_ADDRESS */
 884:Generated_Source\PSoC4/blue.c ****         }
 885:Generated_Source\PSoC4/blue.c ****         else                /* Destination - scan response structure */
 886:Generated_Source\PSoC4/blue.c ****         {
 887:Generated_Source\PSoC4/blue.c ****             #ifdef CYBLE_SCN_PKT_INDEX_BLUETOOTH_DEVICE_ADDRESS
 888:Generated_Source\PSoC4/blue.c ****                 destBuffer = &cyBle_scanRspData.scanRspData[CYBLE_SCN_PKT_INDEX_BLUETOOTH_DEVICE_AD
 889:Generated_Source\PSoC4/blue.c ****             #endif /* CYBLE_SCN_PKT_INDEX_BLUETOOTH_DEVICE_ADDRESS */    
 890:Generated_Source\PSoC4/blue.c ****         }
 891:Generated_Source\PSoC4/blue.c ****         
 892:Generated_Source\PSoC4/blue.c ****         if(destBuffer != NULL)
 1145              		.loc 1 892 0
 1146 0012 BB68     		ldr	r3, [r7, #8]
 1147 0014 002B     		cmp	r3, #0
ARM GAS  C:\Users\alexport\AppData\Local\Temp\ccMcN4Gf.s 			page 37


 1148 0016 20D0     		beq	.L55
 893:Generated_Source\PSoC4/blue.c ****         {
 894:Generated_Source\PSoC4/blue.c ****             /* Update Device Address type */
 895:Generated_Source\PSoC4/blue.c ****             destBuffer[0u] = bdAddr->type;
 1149              		.loc 1 895 0
 1150 0018 7B68     		ldr	r3, [r7, #4]
 1151 001a 9A79     		ldrb	r2, [r3, #6]
 1152 001c BB68     		ldr	r3, [r7, #8]
 1153 001e 1A70     		strb	r2, [r3]
 896:Generated_Source\PSoC4/blue.c ****             
 897:Generated_Source\PSoC4/blue.c ****             for(i = 0u; i < CYBLE_GAP_BD_ADDR_SIZE; i++)
 1154              		.loc 1 897 0
 1155 0020 0F23     		movs	r3, #15
 1156 0022 FB18     		adds	r3, r7, r3
 1157 0024 0022     		movs	r2, #0
 1158 0026 1A70     		strb	r2, [r3]
 1159 0028 12E0     		b	.L53
 1160              	.L54:
 898:Generated_Source\PSoC4/blue.c ****             {
 899:Generated_Source\PSoC4/blue.c ****                 destBuffer[i + 1u] = bdAddr->bdAddr[i];
 1161              		.loc 1 899 0 discriminator 3
 1162 002a 0F23     		movs	r3, #15
 1163 002c FB18     		adds	r3, r7, r3
 1164 002e 1B78     		ldrb	r3, [r3]
 1165 0030 0133     		adds	r3, r3, #1
 1166 0032 BA68     		ldr	r2, [r7, #8]
 1167 0034 D318     		adds	r3, r2, r3
 1168 0036 0F22     		movs	r2, #15
 1169 0038 BA18     		adds	r2, r7, r2
 1170 003a 1278     		ldrb	r2, [r2]
 1171 003c 7968     		ldr	r1, [r7, #4]
 1172 003e 8A5C     		ldrb	r2, [r1, r2]
 1173 0040 1A70     		strb	r2, [r3]
 897:Generated_Source\PSoC4/blue.c ****             {
 1174              		.loc 1 897 0 discriminator 3
 1175 0042 0F23     		movs	r3, #15
 1176 0044 FB18     		adds	r3, r7, r3
 1177 0046 1A78     		ldrb	r2, [r3]
 1178 0048 0F23     		movs	r3, #15
 1179 004a FB18     		adds	r3, r7, r3
 1180 004c 0132     		adds	r2, r2, #1
 1181 004e 1A70     		strb	r2, [r3]
 1182              	.L53:
 897:Generated_Source\PSoC4/blue.c ****             {
 1183              		.loc 1 897 0 is_stmt 0 discriminator 1
 1184 0050 0F23     		movs	r3, #15
 1185 0052 FB18     		adds	r3, r7, r3
 1186 0054 1B78     		ldrb	r3, [r3]
 1187 0056 052B     		cmp	r3, #5
 1188 0058 E7D9     		bls	.L54
 1189              	.L55:
 900:Generated_Source\PSoC4/blue.c ****             }
 901:Generated_Source\PSoC4/blue.c ****         }
 902:Generated_Source\PSoC4/blue.c ****     }
 1190              		.loc 1 902 0 is_stmt 1
 1191 005a C046     		nop
 1192 005c BD46     		mov	sp, r7
ARM GAS  C:\Users\alexport\AppData\Local\Temp\ccMcN4Gf.s 			page 38


 1193 005e 04B0     		add	sp, sp, #16
 1194              		@ sp needed
 1195 0060 80BD     		pop	{r7, pc}
 1196              		.cfi_endproc
 1197              	.LFE10:
 1198              		.size	CyBle_ChangeAdDeviceAddress, .-CyBle_ChangeAdDeviceAddress
 1199 0062 C046     		.section	.text.CyBle_ChangeAdLocalName,"ax",%progbits
 1200              		.align	2
 1201              		.code	16
 1202              		.thumb_func
 1203              		.type	CyBle_ChangeAdLocalName, %function
 1204              	CyBle_ChangeAdLocalName:
 1205              	.LFB11:
 903:Generated_Source\PSoC4/blue.c ****   
 904:Generated_Source\PSoC4/blue.c **** #endif /* CYBLE_GAP_ROLE_PERIPHERAL || CYBLE_GAP_ROLE_BROADCASTER */
 905:Generated_Source\PSoC4/blue.c **** 
 906:Generated_Source\PSoC4/blue.c **** 
 907:Generated_Source\PSoC4/blue.c **** #if(CYBLE_GAP_ROLE_CENTRAL || CYBLE_GAP_ROLE_OBSERVER)
 908:Generated_Source\PSoC4/blue.c **** 
 909:Generated_Source\PSoC4/blue.c ****     /******************************************************************************
 910:Generated_Source\PSoC4/blue.c ****     * Function Name: CyBle_GapcStartScan
 911:Generated_Source\PSoC4/blue.c ****     ***************************************************************************//**
 912:Generated_Source\PSoC4/blue.c ****     * 
 913:Generated_Source\PSoC4/blue.c ****     *   This function is used for discovering GAP peripheral devices that are 
 914:Generated_Source\PSoC4/blue.c ****     *   available for connection. It performs the scanning routine using the 
 915:Generated_Source\PSoC4/blue.c ****     *   parameters entered in the component's customizer.
 916:Generated_Source\PSoC4/blue.c ****     *   
 917:Generated_Source\PSoC4/blue.c ****     *   As soon as the discovery operation starts, CYBLE_EVT_GAPC_SCAN_START_STOP 
 918:Generated_Source\PSoC4/blue.c ****     *   event is generated. The CYBLE_EVT_GAPC_SCAN_PROGRESS_RESULT event is 
 919:Generated_Source\PSoC4/blue.c ****     *   generated when a GAP peripheral device is located. There are three discovery
 920:Generated_Source\PSoC4/blue.c ****     *   procedures can be selected in the customizer's GUI:
 921:Generated_Source\PSoC4/blue.c ****     *   
 922:Generated_Source\PSoC4/blue.c ****     *   * Observation procedure: A device performing the observer role receives only
 923:Generated_Source\PSoC4/blue.c ****     *                            advertisement data from devices irrespective of 
 924:Generated_Source\PSoC4/blue.c ****     *                            their discoverable mode settings. Advertisement 
 925:Generated_Source\PSoC4/blue.c ****     *                            data received is provided by the event,      
 926:Generated_Source\PSoC4/blue.c ****     *                            CYBLE_EVT_GAPC_SCAN_PROGRESS_RESULT. This procedure
 927:Generated_Source\PSoC4/blue.c ****     *                            requires the scanType sub parameter to be passive
 928:Generated_Source\PSoC4/blue.c ****     *                            scanning. 
 929:Generated_Source\PSoC4/blue.c ****     *   
 930:Generated_Source\PSoC4/blue.c ****     *   * Limited Discovery procedure: A device performing the limited discovery
 931:Generated_Source\PSoC4/blue.c ****     *                                  procedure receives advertisement data and 
 932:Generated_Source\PSoC4/blue.c ****     *                                  scan# response data from devices in the 
 933:Generated_Source\PSoC4/blue.c ****     *                                  limited discoverable mode only. Received data
 934:Generated_Source\PSoC4/blue.c ****     *                                  is provided by the event, 
 935:Generated_Source\PSoC4/blue.c ****     *                                  CYBLE_EVT_GAPC_SCAN_PROGRESS_RESULT. This 
 936:Generated_Source\PSoC4/blue.c ****     *                                  procedure requires the scanType sub-parameter 
 937:Generated_Source\PSoC4/blue.c ****     *                                  to be active scanning.
 938:Generated_Source\PSoC4/blue.c ****     *   
 939:Generated_Source\PSoC4/blue.c ****     *   * General Discovery procedure: A device performing the general discovery 
 940:Generated_Source\PSoC4/blue.c ****     *                                  procedure receives the advertisement data and
 941:Generated_Source\PSoC4/blue.c ****     *                                  scan response data from devices in both 
 942:Generated_Source\PSoC4/blue.c ****     *                                  limited discoverable mode and the general 
 943:Generated_Source\PSoC4/blue.c ****     *                                  discoverable mode. Received data is provided
 944:Generated_Source\PSoC4/blue.c ****     *                                  by the event,
 945:Generated_Source\PSoC4/blue.c ****     *                                  CYBLE_EVT_GAPC_SCAN_PROGRESS_RESULT. This 
 946:Generated_Source\PSoC4/blue.c ****     *                                  procedure requires the scanType sub-parameter
ARM GAS  C:\Users\alexport\AppData\Local\Temp\ccMcN4Gf.s 			page 39


 947:Generated_Source\PSoC4/blue.c ****     *                                  to be active scanning.
 948:Generated_Source\PSoC4/blue.c ****     *   
 949:Generated_Source\PSoC4/blue.c ****     *   Every Advertisement / Scan response packet received results in a new event, 
 950:Generated_Source\PSoC4/blue.c ****     *   CYBLE_EVT_GAPC_SCAN_PROGRESS_RESULT.
 951:Generated_Source\PSoC4/blue.c ****     *   If 'scanTo' sub-parameter is a non-zero value, then upon commencement of 
 952:Generated_Source\PSoC4/blue.c ****     *   discovery procedure and elapsed time = 'scanTo', CYBLE_EVT_TIMEOUT event
 953:Generated_Source\PSoC4/blue.c ****     *   is generated with the event parameter indicating CYBLE_GAP_SCAN_TO.
 954:Generated_Source\PSoC4/blue.c ****     *   Possible generated events are:
 955:Generated_Source\PSoC4/blue.c ****     *   * CYBLE_EVT_GAPC_SCAN_START_STOP: If a device started or stopped scanning. 
 956:Generated_Source\PSoC4/blue.c ****     *                                     Use CyBle_GetState() to determine the 
 957:Generated_Source\PSoC4/blue.c ****     *                                     state. Sequential scanning could be 
 958:Generated_Source\PSoC4/blue.c ****     *                                     started when CYBLE_STATE_DISCONNECTED 
 959:Generated_Source\PSoC4/blue.c ****     *                                     state is returned. 
 960:Generated_Source\PSoC4/blue.c ****     *   * CYBLE_EVT_GAPC_SCAN_PROGRESS_RESULT 
 961:Generated_Source\PSoC4/blue.c ****     *   * CYBLE_EVT_TIMEOUT (CYBLE_GAP_SCAN_TO)
 962:Generated_Source\PSoC4/blue.c ****     * 
 963:Generated_Source\PSoC4/blue.c ****     *   \param scanningIntervalType:  Fast or slow scanning interval with
 964:Generated_Source\PSoC4/blue.c ****     *       timings entered in Scan settings section of the customizer.
 965:Generated_Source\PSoC4/blue.c ****     * 	  * CYBLE_SCANNING_FAST   0x00u
 966:Generated_Source\PSoC4/blue.c ****     * 	  * CYBLE_SCANNING_SLOW   0x01u
 967:Generated_Source\PSoC4/blue.c ****     * 	  * CYBLE_SCANNING_CUSTOM 0x02u
 968:Generated_Source\PSoC4/blue.c ****     * 
 969:Generated_Source\PSoC4/blue.c ****     * \return
 970:Generated_Source\PSoC4/blue.c ****     *  CYBLE_API_RESULT_T : Return value indicates if the function succeeded or
 971:Generated_Source\PSoC4/blue.c ****     *  failed. Following are the possible error codes.
 972:Generated_Source\PSoC4/blue.c ****     *
 973:Generated_Source\PSoC4/blue.c ****     *   Errors codes                       | Description
 974:Generated_Source\PSoC4/blue.c ****     *   ---------------------------------- | -----------------------------------
 975:Generated_Source\PSoC4/blue.c ****     *   CYBLE_ERROR_OK                     | On successful operation.
 976:Generated_Source\PSoC4/blue.c ****     *   CYBLE_ERROR_STACK_INTERNAL         | An error occurred in the BLE stack.
 977:Generated_Source\PSoC4/blue.c ****     *   CYBLE_ERROR_INVALID_PARAMETER      | On passing an invalid parameter.
 978:Generated_Source\PSoC4/blue.c ****     *  
 979:Generated_Source\PSoC4/blue.c ****     *******************************************************************************/
 980:Generated_Source\PSoC4/blue.c ****     CYBLE_API_RESULT_T CyBle_GapcStartScan(uint8 scanningIntervalType)
 981:Generated_Source\PSoC4/blue.c ****     {
 982:Generated_Source\PSoC4/blue.c ****         CYBLE_API_RESULT_T apiResult;
 983:Generated_Source\PSoC4/blue.c **** 
 984:Generated_Source\PSoC4/blue.c ****         if(scanningIntervalType > CYBLE_SCANNING_CUSTOM)
 985:Generated_Source\PSoC4/blue.c ****         {
 986:Generated_Source\PSoC4/blue.c ****             apiResult = CYBLE_ERROR_INVALID_PARAMETER;
 987:Generated_Source\PSoC4/blue.c ****         }
 988:Generated_Source\PSoC4/blue.c ****         else
 989:Generated_Source\PSoC4/blue.c ****         {
 990:Generated_Source\PSoC4/blue.c ****             if(scanningIntervalType == CYBLE_SCANNING_FAST)
 991:Generated_Source\PSoC4/blue.c ****             {
 992:Generated_Source\PSoC4/blue.c ****                 cyBle_discoveryInfo.scanTo = CYBLE_FAST_SCAN_TIMEOUT;
 993:Generated_Source\PSoC4/blue.c ****                 cyBle_discoveryInfo.scanIntv = CYBLE_FAST_SCAN_INTERVAL;
 994:Generated_Source\PSoC4/blue.c ****                 cyBle_discoveryInfo.scanWindow = CYBLE_FAST_SCAN_WINDOW;
 995:Generated_Source\PSoC4/blue.c ****             }
 996:Generated_Source\PSoC4/blue.c ****             else if(scanningIntervalType == CYBLE_SCANNING_SLOW)
 997:Generated_Source\PSoC4/blue.c ****             {
 998:Generated_Source\PSoC4/blue.c ****                 cyBle_discoveryInfo.scanTo = CYBLE_SLOW_SCAN_TIMEOUT;
 999:Generated_Source\PSoC4/blue.c ****                 cyBle_discoveryInfo.scanIntv = CYBLE_SLOW_SCAN_INTERVAL;
1000:Generated_Source\PSoC4/blue.c ****                 cyBle_discoveryInfo.scanWindow = CYBLE_SLOW_SCAN_WINDOW;
1001:Generated_Source\PSoC4/blue.c ****             }       
1002:Generated_Source\PSoC4/blue.c ****             else /* Do not update scanning intervals */
1003:Generated_Source\PSoC4/blue.c ****             {
ARM GAS  C:\Users\alexport\AppData\Local\Temp\ccMcN4Gf.s 			page 40


1004:Generated_Source\PSoC4/blue.c ****             }
1005:Generated_Source\PSoC4/blue.c ****             
1006:Generated_Source\PSoC4/blue.c ****             cyBle_scanningIntervalType = scanningIntervalType;
1007:Generated_Source\PSoC4/blue.c ****             apiResult = CyBle_GapcStartDiscovery(&cyBle_discoveryInfo);
1008:Generated_Source\PSoC4/blue.c ****         
1009:Generated_Source\PSoC4/blue.c ****             if(apiResult == CYBLE_ERROR_OK)
1010:Generated_Source\PSoC4/blue.c ****             {
1011:Generated_Source\PSoC4/blue.c ****                 cyBle_eventHandlerFlag |= CYBLE_START_FLAG;
1012:Generated_Source\PSoC4/blue.c ****             }
1013:Generated_Source\PSoC4/blue.c ****         }
1014:Generated_Source\PSoC4/blue.c ****        
1015:Generated_Source\PSoC4/blue.c ****         return (apiResult);
1016:Generated_Source\PSoC4/blue.c ****     }
1017:Generated_Source\PSoC4/blue.c ****     
1018:Generated_Source\PSoC4/blue.c ****     
1019:Generated_Source\PSoC4/blue.c ****     /******************************************************************************
1020:Generated_Source\PSoC4/blue.c ****     * Function Name: CyBle_GapcStopScan
1021:Generated_Source\PSoC4/blue.c ****     ***************************************************************************//**
1022:Generated_Source\PSoC4/blue.c ****     * 
1023:Generated_Source\PSoC4/blue.c ****     *   This function used to stop the discovery of devices. On stopping discovery
1024:Generated_Source\PSoC4/blue.c ****     *   operation, CYBLE_EVT_GAPC_SCAN_START_STOP event is generated. Application
1025:Generated_Source\PSoC4/blue.c ****     *   layer needs to keep track of the function call made before receiving this
1026:Generated_Source\PSoC4/blue.c ****     *   event to associate this event with either the start or stop discovery
1027:Generated_Source\PSoC4/blue.c ****     *   function.
1028:Generated_Source\PSoC4/blue.c ****     * 
1029:Generated_Source\PSoC4/blue.c ****     *   Possible events generated are:
1030:Generated_Source\PSoC4/blue.c ****     *    * CYBLE_EVT_GAPC_SCAN_START_STOP
1031:Generated_Source\PSoC4/blue.c ****     * 
1032:Generated_Source\PSoC4/blue.c ****     *  \return
1033:Generated_Source\PSoC4/blue.c ****     *   None
1034:Generated_Source\PSoC4/blue.c ****     * 
1035:Generated_Source\PSoC4/blue.c ****     *******************************************************************************/
1036:Generated_Source\PSoC4/blue.c ****     void CyBle_GapcStopScan(void)
1037:Generated_Source\PSoC4/blue.c ****     {
1038:Generated_Source\PSoC4/blue.c ****         CyBle_GapcStopDiscovery();
1039:Generated_Source\PSoC4/blue.c ****         
1040:Generated_Source\PSoC4/blue.c ****         cyBle_eventHandlerFlag |= CYBLE_STOP_FLAG;
1041:Generated_Source\PSoC4/blue.c ****     }
1042:Generated_Source\PSoC4/blue.c **** 
1043:Generated_Source\PSoC4/blue.c ****     
1044:Generated_Source\PSoC4/blue.c **** #endif /* CYBLE_GAP_ROLE_CENTRAL || CYBLE_GAP_ROLE_OBSERVER */
1045:Generated_Source\PSoC4/blue.c **** 
1046:Generated_Source\PSoC4/blue.c **** 
1047:Generated_Source\PSoC4/blue.c **** #if(CYBLE_GAP_ROLE_CENTRAL)
1048:Generated_Source\PSoC4/blue.c **** 
1049:Generated_Source\PSoC4/blue.c ****     /******************************************************************************
1050:Generated_Source\PSoC4/blue.c ****     * Function Name: CyBle_GapcConnectDevice
1051:Generated_Source\PSoC4/blue.c ****     ***************************************************************************//**
1052:Generated_Source\PSoC4/blue.c ****     * 
1053:Generated_Source\PSoC4/blue.c ****     *  This function is used to send a connection request to the remote device with
1054:Generated_Source\PSoC4/blue.c ****     *  the connection parameters set in the component customizer. This function needs
1055:Generated_Source\PSoC4/blue.c ****     *  to be called only once after the target device is discovered by 
1056:Generated_Source\PSoC4/blue.c ****     *  CyBle_GapcStartScan() and further scanning has stopped. Scanning is 
1057:Generated_Source\PSoC4/blue.c ****     *  successfully stopped on invoking CyBle_GapcStopScan() and then receiving the
1058:Generated_Source\PSoC4/blue.c ****     *  event CYBLE_EVT_GAPC_SCAN_START_STOP with sub-parameter 'success' = 0x01u.
1059:Generated_Source\PSoC4/blue.c ****     *  
1060:Generated_Source\PSoC4/blue.c ****     *  On successful connection, the following events are generated at the GAP 
ARM GAS  C:\Users\alexport\AppData\Local\Temp\ccMcN4Gf.s 			page 41


1061:Generated_Source\PSoC4/blue.c ****     *  Central device (as well as the GAP Peripheral device), in the following order.
1062:Generated_Source\PSoC4/blue.c ****     *  * CYBLE_EVT_GATT_CONNECT_IND
1063:Generated_Source\PSoC4/blue.c ****     *  * CYBLE_EVT_GAP_DEVICE_CONNECTED - If the device connects to a GAP Central and 
1064:Generated_Source\PSoC4/blue.c ****     *    Link Layer Privacy is disabled in component customizer.
1065:Generated_Source\PSoC4/blue.c ****     *  * CYBLE_EVT_GAP_ENHANCE_CONN_COMPLETE - If the device connects to a GAP Central and 
1066:Generated_Source\PSoC4/blue.c ****     *    Link Layer Privacy is enabled in component customizer.
1067:Generated_Source\PSoC4/blue.c ****     *  * CYBLE_EVT_GAP_DEVICE_CONNECTED
1068:Generated_Source\PSoC4/blue.c ****     *  
1069:Generated_Source\PSoC4/blue.c ****     *  A procedure is considered to have timed out if a connection response packet is 
1070:Generated_Source\PSoC4/blue.c ****     *  not received within time set by cyBle_connectingTimeout global variable
1071:Generated_Source\PSoC4/blue.c ****     *  (30 seconds by default). CYBLE_EVT_TIMEOUT event with CYBLE_GENERIC_TO parameter
1072:Generated_Source\PSoC4/blue.c ****     *  will indicate about connection procedure timeout. Connection will automatically
1073:Generated_Source\PSoC4/blue.c ****     *  be canceled and state will be changed to CYBLE_STATE_DISCONNECTED.
1074:Generated_Source\PSoC4/blue.c ****     * 
1075:Generated_Source\PSoC4/blue.c ****     *  \param address: The device address of the remote device to connect to. 
1076:Generated_Source\PSoC4/blue.c ****     *  
1077:Generated_Source\PSoC4/blue.c ****     * \return
1078:Generated_Source\PSoC4/blue.c ****     *  CYBLE_API_RESULT_T : Return value indicates if the function succeeded or 
1079:Generated_Source\PSoC4/blue.c ****     *  failed. Following are the possible error codes.
1080:Generated_Source\PSoC4/blue.c ****     *
1081:Generated_Source\PSoC4/blue.c ****     *   Errors codes                       | Description
1082:Generated_Source\PSoC4/blue.c ****     *   ------------                       | -----------
1083:Generated_Source\PSoC4/blue.c ****     *   CYBLE_ERROR_OK                     | On successful operation.
1084:Generated_Source\PSoC4/blue.c ****     *   CYBLE_ERROR_STACK_INTERNAL         | On error occurred in the BLE stack.
1085:Generated_Source\PSoC4/blue.c ****     *   CYBLE_ERROR_INVALID_PARAMETER      | On passing an invalid parameter.
1086:Generated_Source\PSoC4/blue.c ****     *   CYBLE_ERROR_INVALID_STATE          | On calling this function not in Disconnected state.
1087:Generated_Source\PSoC4/blue.c ****     *  
1088:Generated_Source\PSoC4/blue.c ****     ******************************************************************************/
1089:Generated_Source\PSoC4/blue.c ****     CYBLE_API_RESULT_T CyBle_GapcConnectDevice(const CYBLE_GAP_BD_ADDR_T * address)
1090:Generated_Source\PSoC4/blue.c ****     {
1091:Generated_Source\PSoC4/blue.c ****         CYBLE_API_RESULT_T apiResult;
1092:Generated_Source\PSoC4/blue.c ****         uint8 i;
1093:Generated_Source\PSoC4/blue.c **** 
1094:Generated_Source\PSoC4/blue.c ****         if(CyBle_GetState() != CYBLE_STATE_DISCONNECTED)
1095:Generated_Source\PSoC4/blue.c ****         {
1096:Generated_Source\PSoC4/blue.c ****             apiResult = CYBLE_ERROR_INVALID_STATE;
1097:Generated_Source\PSoC4/blue.c ****         }
1098:Generated_Source\PSoC4/blue.c ****         else if(address == NULL)
1099:Generated_Source\PSoC4/blue.c ****         {
1100:Generated_Source\PSoC4/blue.c ****             apiResult = CYBLE_ERROR_INVALID_PARAMETER;
1101:Generated_Source\PSoC4/blue.c ****         }
1102:Generated_Source\PSoC4/blue.c ****         else
1103:Generated_Source\PSoC4/blue.c ****         {
1104:Generated_Source\PSoC4/blue.c ****             for(i = 0u; i < CYBLE_GAP_BD_ADDR_SIZE; i++)
1105:Generated_Source\PSoC4/blue.c ****             {
1106:Generated_Source\PSoC4/blue.c ****                 cyBle_connectionParameters.peerBdAddr[i] = address->bdAddr[i];
1107:Generated_Source\PSoC4/blue.c ****             }
1108:Generated_Source\PSoC4/blue.c ****             cyBle_connectionParameters.peerAddrType = address -> type;
1109:Generated_Source\PSoC4/blue.c ****             apiResult = CyBle_GapcInitConnection(&cyBle_connectionParameters);
1110:Generated_Source\PSoC4/blue.c ****             
1111:Generated_Source\PSoC4/blue.c ****             if(apiResult == CYBLE_ERROR_OK)
1112:Generated_Source\PSoC4/blue.c ****             {
1113:Generated_Source\PSoC4/blue.c ****                 CyBle_SetState(CYBLE_STATE_CONNECTING);
1114:Generated_Source\PSoC4/blue.c ****                 if(cyBle_connectingTimeout != 0u)
1115:Generated_Source\PSoC4/blue.c ****                 {
1116:Generated_Source\PSoC4/blue.c ****                     (void)CyBle_StartTimer(cyBle_connectingTimeout);
1117:Generated_Source\PSoC4/blue.c ****                 }
ARM GAS  C:\Users\alexport\AppData\Local\Temp\ccMcN4Gf.s 			page 42


1118:Generated_Source\PSoC4/blue.c ****             }
1119:Generated_Source\PSoC4/blue.c ****         }
1120:Generated_Source\PSoC4/blue.c ****         return (apiResult);
1121:Generated_Source\PSoC4/blue.c ****     }
1122:Generated_Source\PSoC4/blue.c ****     
1123:Generated_Source\PSoC4/blue.c **** 
1124:Generated_Source\PSoC4/blue.c ****     /******************************************************************************
1125:Generated_Source\PSoC4/blue.c ****     * Function Name: CyBle_GapcCancelDeviceConnection
1126:Generated_Source\PSoC4/blue.c ****     ***************************************************************************//**
1127:Generated_Source\PSoC4/blue.c ****     * 
1128:Generated_Source\PSoC4/blue.c ****     *  This function cancels a previously initiated connection with the remote 
1129:Generated_Source\PSoC4/blue.c ****     *  device. It is a blocking function. No event is generated on calling this 
1130:Generated_Source\PSoC4/blue.c ****     *  function. If the devices are already connected then this function should not
1131:Generated_Source\PSoC4/blue.c ****     *  be used. If you intend to disconnect from an existing connection, the function
1132:Generated_Source\PSoC4/blue.c ****     *  CyBle_GapDisconnect() should be used.
1133:Generated_Source\PSoC4/blue.c ****     * 
1134:Generated_Source\PSoC4/blue.c ****     * \return
1135:Generated_Source\PSoC4/blue.c ****     *  CYBLE_API_RESULT_T : Return value indicates if the function succeeded or 
1136:Generated_Source\PSoC4/blue.c ****     *  failed. Following are the possible error codes.
1137:Generated_Source\PSoC4/blue.c ****     *
1138:Generated_Source\PSoC4/blue.c ****     *   Errors codes                       | Description
1139:Generated_Source\PSoC4/blue.c ****     *   ---------------------------------- | --------------------------------------
1140:Generated_Source\PSoC4/blue.c ****     *   CYBLE_ERROR_OK                     | On successful operation.
1141:Generated_Source\PSoC4/blue.c ****     *   CYBLE_ERROR_STACK_INTERNAL         | An error occurred in the BLE stack.
1142:Generated_Source\PSoC4/blue.c ****     *   CYBLE_ERROR_INVALID_STATE          | On calling this function not in Connecting state.
1143:Generated_Source\PSoC4/blue.c ****     *  
1144:Generated_Source\PSoC4/blue.c ****     *******************************************************************************/
1145:Generated_Source\PSoC4/blue.c ****     CYBLE_API_RESULT_T CyBle_GapcCancelDeviceConnection(void)
1146:Generated_Source\PSoC4/blue.c ****     {
1147:Generated_Source\PSoC4/blue.c ****         CYBLE_API_RESULT_T apiResult;
1148:Generated_Source\PSoC4/blue.c ****         
1149:Generated_Source\PSoC4/blue.c ****         if(CyBle_GetState() != CYBLE_STATE_CONNECTING)
1150:Generated_Source\PSoC4/blue.c ****         {
1151:Generated_Source\PSoC4/blue.c ****             apiResult = CYBLE_ERROR_INVALID_STATE;
1152:Generated_Source\PSoC4/blue.c ****         }
1153:Generated_Source\PSoC4/blue.c ****         else 
1154:Generated_Source\PSoC4/blue.c ****         {
1155:Generated_Source\PSoC4/blue.c ****             apiResult = CyBle_GapcCancelConnection();
1156:Generated_Source\PSoC4/blue.c ****             
1157:Generated_Source\PSoC4/blue.c ****             if(cyBle_connectingTimeout != 0u)
1158:Generated_Source\PSoC4/blue.c ****             {
1159:Generated_Source\PSoC4/blue.c ****                 (void)CyBle_StopTimer();
1160:Generated_Source\PSoC4/blue.c ****             }
1161:Generated_Source\PSoC4/blue.c **** 
1162:Generated_Source\PSoC4/blue.c ****             if(apiResult == CYBLE_ERROR_OK)
1163:Generated_Source\PSoC4/blue.c ****             {
1164:Generated_Source\PSoC4/blue.c ****                 CyBle_SetState(CYBLE_STATE_DISCONNECTED);
1165:Generated_Source\PSoC4/blue.c ****             }
1166:Generated_Source\PSoC4/blue.c ****         }
1167:Generated_Source\PSoC4/blue.c ****         return (apiResult);
1168:Generated_Source\PSoC4/blue.c ****     }    
1169:Generated_Source\PSoC4/blue.c **** 
1170:Generated_Source\PSoC4/blue.c ****     
1171:Generated_Source\PSoC4/blue.c **** #endif /* CYBLE_GAP_ROLE_CENTRAL */
1172:Generated_Source\PSoC4/blue.c **** 
1173:Generated_Source\PSoC4/blue.c **** 
1174:Generated_Source\PSoC4/blue.c **** #if(CYBLE_GATT_ROLE_SERVER)
ARM GAS  C:\Users\alexport\AppData\Local\Temp\ccMcN4Gf.s 			page 43


1175:Generated_Source\PSoC4/blue.c **** 
1176:Generated_Source\PSoC4/blue.c **** #if(CYBLE_GAP_ROLE_PERIPHERAL)
1177:Generated_Source\PSoC4/blue.c **** 
1178:Generated_Source\PSoC4/blue.c ****         /******************************************************************************
1179:Generated_Source\PSoC4/blue.c ****         * Function Name: CyBle_ChangeAdLocalName
1180:Generated_Source\PSoC4/blue.c ****         ***************************************************************************//**
1181:Generated_Source\PSoC4/blue.c ****         *  This function is used to set the local device name in the advertisement or 
1182:Generated_Source\PSoC4/blue.c ****         *  scan response data structure.
1183:Generated_Source\PSoC4/blue.c ****         * 
1184:Generated_Source\PSoC4/blue.c ****         *  \param name: The local device name string to be set in advertisement data 
1185:Generated_Source\PSoC4/blue.c ****         *            structure.
1186:Generated_Source\PSoC4/blue.c ****         *  \param dest: 0 - advertisement structure, not zero value selects scan response
1187:Generated_Source\PSoC4/blue.c ****         *              structure.
1188:Generated_Source\PSoC4/blue.c ****         * 
1189:Generated_Source\PSoC4/blue.c ****         * \return
1190:Generated_Source\PSoC4/blue.c ****         *  None
1191:Generated_Source\PSoC4/blue.c ****         *  
1192:Generated_Source\PSoC4/blue.c ****         *******************************************************************************/
1193:Generated_Source\PSoC4/blue.c ****         static void CyBle_ChangeAdLocalName(const char8 name[], uint8 dest)
1194:Generated_Source\PSoC4/blue.c ****         {
 1206              		.loc 1 1194 0
 1207              		.cfi_startproc
 1208              		@ args = 0, pretend = 0, frame = 24
 1209              		@ frame_needed = 1, uses_anonymous_args = 0
 1210 0000 80B5     		push	{r7, lr}
 1211              		.cfi_def_cfa_offset 8
 1212              		.cfi_offset 7, -8
 1213              		.cfi_offset 14, -4
 1214 0002 86B0     		sub	sp, sp, #24
 1215              		.cfi_def_cfa_offset 32
 1216 0004 00AF     		add	r7, sp, #0
 1217              		.cfi_def_cfa_register 7
 1218 0006 7860     		str	r0, [r7, #4]
 1219 0008 0A00     		movs	r2, r1
 1220 000a FB1C     		adds	r3, r7, #3
 1221 000c 1A70     		strb	r2, [r3]
1195:Generated_Source\PSoC4/blue.c ****             uint8 i;
1196:Generated_Source\PSoC4/blue.c ****             uint8 flag = 0u;
 1222              		.loc 1 1196 0
 1223 000e 1623     		movs	r3, #22
 1224 0010 FB18     		adds	r3, r7, r3
 1225 0012 0022     		movs	r2, #0
 1226 0014 1A70     		strb	r2, [r3]
1197:Generated_Source\PSoC4/blue.c ****             uint8 adLength = 0u;
 1227              		.loc 1 1197 0
 1228 0016 1523     		movs	r3, #21
 1229 0018 FB18     		adds	r3, r7, r3
 1230 001a 0022     		movs	r2, #0
 1231 001c 1A70     		strb	r2, [r3]
1198:Generated_Source\PSoC4/blue.c ****             uint8 byteCounter = 0u;
 1232              		.loc 1 1198 0
 1233 001e 1423     		movs	r3, #20
 1234 0020 FB18     		adds	r3, r7, r3
 1235 0022 0022     		movs	r2, #0
 1236 0024 1A70     		strb	r2, [r3]
1199:Generated_Source\PSoC4/blue.c ****             uint8 *destBuffer;
1200:Generated_Source\PSoC4/blue.c ****             uint8 maxLength;
ARM GAS  C:\Users\alexport\AppData\Local\Temp\ccMcN4Gf.s 			page 44


1201:Generated_Source\PSoC4/blue.c ****             
1202:Generated_Source\PSoC4/blue.c ****             if(dest == 0u)      /* Destination - advertising structure */
 1237              		.loc 1 1202 0
 1238 0026 FB1C     		adds	r3, r7, #3
 1239 0028 1B78     		ldrb	r3, [r3]
 1240 002a 002B     		cmp	r3, #0
 1241 002c 07D1     		bne	.L57
1203:Generated_Source\PSoC4/blue.c ****             {
1204:Generated_Source\PSoC4/blue.c ****                 destBuffer = cyBle_discoveryData.advData;
 1242              		.loc 1 1204 0
 1243 002e 5C4B     		ldr	r3, .L74
 1244 0030 3B61     		str	r3, [r7, #16]
1205:Generated_Source\PSoC4/blue.c ****                 maxLength = cyBle_discoveryData.advDataLen;
 1245              		.loc 1 1205 0
 1246 0032 0F23     		movs	r3, #15
 1247 0034 FB18     		adds	r3, r7, r3
 1248 0036 5A4A     		ldr	r2, .L74
 1249 0038 D27F     		ldrb	r2, [r2, #31]
 1250 003a 1A70     		strb	r2, [r3]
 1251 003c 3BE0     		b	.L59
 1252              	.L57:
1206:Generated_Source\PSoC4/blue.c ****             }
1207:Generated_Source\PSoC4/blue.c ****             else                /* Destination - scan response structure */
1208:Generated_Source\PSoC4/blue.c ****             {
1209:Generated_Source\PSoC4/blue.c ****                 destBuffer = cyBle_scanRspData.scanRspData;
 1253              		.loc 1 1209 0
 1254 003e 594B     		ldr	r3, .L74+4
 1255 0040 3B61     		str	r3, [r7, #16]
1210:Generated_Source\PSoC4/blue.c ****                 maxLength = cyBle_scanRspData.scanRspDataLen;
 1256              		.loc 1 1210 0
 1257 0042 0F23     		movs	r3, #15
 1258 0044 FB18     		adds	r3, r7, r3
 1259 0046 574A     		ldr	r2, .L74+4
 1260 0048 D27F     		ldrb	r2, [r2, #31]
 1261 004a 1A70     		strb	r2, [r3]
1211:Generated_Source\PSoC4/blue.c ****             }
1212:Generated_Source\PSoC4/blue.c ****             
1213:Generated_Source\PSoC4/blue.c ****             while((byteCounter < maxLength) && (flag == 0u))
 1262              		.loc 1 1213 0
 1263 004c 33E0     		b	.L59
 1264              	.L65:
1214:Generated_Source\PSoC4/blue.c ****             {
1215:Generated_Source\PSoC4/blue.c ****                 adLength = destBuffer[byteCounter];
 1265              		.loc 1 1215 0
 1266 004e 1423     		movs	r3, #20
 1267 0050 FB18     		adds	r3, r7, r3
 1268 0052 1B78     		ldrb	r3, [r3]
 1269 0054 3A69     		ldr	r2, [r7, #16]
 1270 0056 D218     		adds	r2, r2, r3
 1271 0058 1523     		movs	r3, #21
 1272 005a FB18     		adds	r3, r7, r3
 1273 005c 1278     		ldrb	r2, [r2]
 1274 005e 1A70     		strb	r2, [r3]
1216:Generated_Source\PSoC4/blue.c ****                 
1217:Generated_Source\PSoC4/blue.c ****                 if(0u != adLength)
 1275              		.loc 1 1217 0
 1276 0060 1523     		movs	r3, #21
ARM GAS  C:\Users\alexport\AppData\Local\Temp\ccMcN4Gf.s 			page 45


 1277 0062 FB18     		adds	r3, r7, r3
 1278 0064 1B78     		ldrb	r3, [r3]
 1279 0066 002B     		cmp	r3, #0
 1280 0068 33D0     		beq	.L72
1218:Generated_Source\PSoC4/blue.c ****                 {
1219:Generated_Source\PSoC4/blue.c ****                     /* Increment byte counter so it can point to AD type */
1220:Generated_Source\PSoC4/blue.c ****                     byteCounter++;
 1281              		.loc 1 1220 0
 1282 006a 1423     		movs	r3, #20
 1283 006c FB18     		adds	r3, r7, r3
 1284 006e 1A78     		ldrb	r2, [r3]
 1285 0070 1423     		movs	r3, #20
 1286 0072 FB18     		adds	r3, r7, r3
 1287 0074 0132     		adds	r2, r2, #1
 1288 0076 1A70     		strb	r2, [r3]
1221:Generated_Source\PSoC4/blue.c ****                     
1222:Generated_Source\PSoC4/blue.c ****                     if((destBuffer[byteCounter] == CYBLE_SHORT_LOCAL_NAME) || 
 1289              		.loc 1 1222 0
 1290 0078 1423     		movs	r3, #20
 1291 007a FB18     		adds	r3, r7, r3
 1292 007c 1B78     		ldrb	r3, [r3]
 1293 007e 3A69     		ldr	r2, [r7, #16]
 1294 0080 D318     		adds	r3, r2, r3
 1295 0082 1B78     		ldrb	r3, [r3]
 1296 0084 082B     		cmp	r3, #8
 1297 0086 07D0     		beq	.L61
1223:Generated_Source\PSoC4/blue.c ****                        (destBuffer[byteCounter] == CYBLE_COMPLETE_LOCAL_NAME))
 1298              		.loc 1 1223 0 discriminator 1
 1299 0088 1423     		movs	r3, #20
 1300 008a FB18     		adds	r3, r7, r3
 1301 008c 1B78     		ldrb	r3, [r3]
 1302 008e 3A69     		ldr	r2, [r7, #16]
 1303 0090 D318     		adds	r3, r2, r3
 1304 0092 1B78     		ldrb	r3, [r3]
1222:Generated_Source\PSoC4/blue.c ****                        (destBuffer[byteCounter] == CYBLE_COMPLETE_LOCAL_NAME))
 1305              		.loc 1 1222 0 discriminator 1
 1306 0094 092B     		cmp	r3, #9
 1307 0096 04D1     		bne	.L62
 1308              	.L61:
1224:Generated_Source\PSoC4/blue.c ****                     {
1225:Generated_Source\PSoC4/blue.c ****                         /* Start of the Local Name AD type was fount. Set flag and exit the loop. *
1226:Generated_Source\PSoC4/blue.c ****                         flag = 1u;
 1309              		.loc 1 1226 0
 1310 0098 1623     		movs	r3, #22
 1311 009a FB18     		adds	r3, r7, r3
 1312 009c 0122     		movs	r2, #1
 1313 009e 1A70     		strb	r2, [r3]
 1314 00a0 09E0     		b	.L59
 1315              	.L62:
1227:Generated_Source\PSoC4/blue.c ****                     }
1228:Generated_Source\PSoC4/blue.c ****                     else
1229:Generated_Source\PSoC4/blue.c ****                     {
1230:Generated_Source\PSoC4/blue.c ****                         byteCounter += adLength;
 1316              		.loc 1 1230 0
 1317 00a2 1423     		movs	r3, #20
 1318 00a4 FB18     		adds	r3, r7, r3
 1319 00a6 1422     		movs	r2, #20
ARM GAS  C:\Users\alexport\AppData\Local\Temp\ccMcN4Gf.s 			page 46


 1320 00a8 B918     		adds	r1, r7, r2
 1321 00aa 1522     		movs	r2, #21
 1322 00ac BA18     		adds	r2, r7, r2
 1323 00ae 0978     		ldrb	r1, [r1]
 1324 00b0 1278     		ldrb	r2, [r2]
 1325 00b2 8A18     		adds	r2, r1, r2
 1326 00b4 1A70     		strb	r2, [r3]
 1327              	.L59:
1213:Generated_Source\PSoC4/blue.c ****             {
 1328              		.loc 1 1213 0
 1329 00b6 1423     		movs	r3, #20
 1330 00b8 FA18     		adds	r2, r7, r3
 1331 00ba 0F23     		movs	r3, #15
 1332 00bc FB18     		adds	r3, r7, r3
 1333 00be 1278     		ldrb	r2, [r2]
 1334 00c0 1B78     		ldrb	r3, [r3]
 1335 00c2 9A42     		cmp	r2, r3
 1336 00c4 06D2     		bcs	.L64
1213:Generated_Source\PSoC4/blue.c ****             {
 1337              		.loc 1 1213 0 is_stmt 0 discriminator 1
 1338 00c6 1623     		movs	r3, #22
 1339 00c8 FB18     		adds	r3, r7, r3
 1340 00ca 1B78     		ldrb	r3, [r3]
 1341 00cc 002B     		cmp	r3, #0
 1342 00ce BED0     		beq	.L65
 1343 00d0 00E0     		b	.L64
 1344              	.L72:
1231:Generated_Source\PSoC4/blue.c ****                     }
1232:Generated_Source\PSoC4/blue.c ****                 }
1233:Generated_Source\PSoC4/blue.c ****                 else
1234:Generated_Source\PSoC4/blue.c ****                 {
1235:Generated_Source\PSoC4/blue.c ****                     /* The end of advertisement data structure was encountered though exit the loop
1236:Generated_Source\PSoC4/blue.c ****                     break;
 1345              		.loc 1 1236 0 is_stmt 1
 1346 00d2 C046     		nop
 1347              	.L64:
1237:Generated_Source\PSoC4/blue.c ****                 }
1238:Generated_Source\PSoC4/blue.c ****             }
1239:Generated_Source\PSoC4/blue.c ****             
1240:Generated_Source\PSoC4/blue.c ****             if(0u != flag)
 1348              		.loc 1 1240 0
 1349 00d4 1623     		movs	r3, #22
 1350 00d6 FB18     		adds	r3, r7, r3
 1351 00d8 1B78     		ldrb	r3, [r3]
 1352 00da 002B     		cmp	r3, #0
 1353 00dc 5BD0     		beq	.L73
1241:Generated_Source\PSoC4/blue.c ****             {
1242:Generated_Source\PSoC4/blue.c ****                 /* Reuse "adLength" to hold location of the last character of local name in 
1243:Generated_Source\PSoC4/blue.c ****                    AD structure. */
1244:Generated_Source\PSoC4/blue.c ****                 adLength += byteCounter;
 1354              		.loc 1 1244 0
 1355 00de 1523     		movs	r3, #21
 1356 00e0 FB18     		adds	r3, r7, r3
 1357 00e2 1522     		movs	r2, #21
 1358 00e4 B918     		adds	r1, r7, r2
 1359 00e6 1422     		movs	r2, #20
 1360 00e8 BA18     		adds	r2, r7, r2
ARM GAS  C:\Users\alexport\AppData\Local\Temp\ccMcN4Gf.s 			page 47


 1361 00ea 0978     		ldrb	r1, [r1]
 1362 00ec 1278     		ldrb	r2, [r2]
 1363 00ee 8A18     		adds	r2, r1, r2
 1364 00f0 1A70     		strb	r2, [r3]
1245:Generated_Source\PSoC4/blue.c ****                 
1246:Generated_Source\PSoC4/blue.c ****                 /* Increment byte counter to point to start of the local Name string */
1247:Generated_Source\PSoC4/blue.c ****                 byteCounter++;
 1365              		.loc 1 1247 0
 1366 00f2 1423     		movs	r3, #20
 1367 00f4 FB18     		adds	r3, r7, r3
 1368 00f6 1A78     		ldrb	r2, [r3]
 1369 00f8 1423     		movs	r3, #20
 1370 00fa FB18     		adds	r3, r7, r3
 1371 00fc 0132     		adds	r2, r2, #1
 1372 00fe 1A70     		strb	r2, [r3]
1248:Generated_Source\PSoC4/blue.c ****                 
1249:Generated_Source\PSoC4/blue.c ****                 for(i = byteCounter; ((i < (adLength)) && (CYBLE_NULL_CHARCTER != name[i - byteCoun
 1373              		.loc 1 1249 0
 1374 0100 1723     		movs	r3, #23
 1375 0102 FB18     		adds	r3, r7, r3
 1376 0104 1422     		movs	r2, #20
 1377 0106 BA18     		adds	r2, r7, r2
 1378 0108 1278     		ldrb	r2, [r2]
 1379 010a 1A70     		strb	r2, [r3]
 1380 010c 17E0     		b	.L67
 1381              	.L69:
1250:Generated_Source\PSoC4/blue.c ****                 {
1251:Generated_Source\PSoC4/blue.c ****                     destBuffer[i] = (uint8)name[i - byteCounter];
 1382              		.loc 1 1251 0 discriminator 4
 1383 010e 1723     		movs	r3, #23
 1384 0110 FB18     		adds	r3, r7, r3
 1385 0112 1B78     		ldrb	r3, [r3]
 1386 0114 3A69     		ldr	r2, [r7, #16]
 1387 0116 D318     		adds	r3, r2, r3
 1388 0118 1722     		movs	r2, #23
 1389 011a BA18     		adds	r2, r7, r2
 1390 011c 1178     		ldrb	r1, [r2]
 1391 011e 1422     		movs	r2, #20
 1392 0120 BA18     		adds	r2, r7, r2
 1393 0122 1278     		ldrb	r2, [r2]
 1394 0124 8A1A     		subs	r2, r1, r2
 1395 0126 1100     		movs	r1, r2
 1396 0128 7A68     		ldr	r2, [r7, #4]
 1397 012a 5218     		adds	r2, r2, r1
 1398 012c 1278     		ldrb	r2, [r2]
 1399 012e 1A70     		strb	r2, [r3]
1249:Generated_Source\PSoC4/blue.c ****                 {
 1400              		.loc 1 1249 0 discriminator 4
 1401 0130 1723     		movs	r3, #23
 1402 0132 FB18     		adds	r3, r7, r3
 1403 0134 1A78     		ldrb	r2, [r3]
 1404 0136 1723     		movs	r3, #23
 1405 0138 FB18     		adds	r3, r7, r3
 1406 013a 0132     		adds	r2, r2, #1
 1407 013c 1A70     		strb	r2, [r3]
 1408              	.L67:
1249:Generated_Source\PSoC4/blue.c ****                 {
ARM GAS  C:\Users\alexport\AppData\Local\Temp\ccMcN4Gf.s 			page 48


 1409              		.loc 1 1249 0 is_stmt 0 discriminator 1
 1410 013e 1723     		movs	r3, #23
 1411 0140 FA18     		adds	r2, r7, r3
 1412 0142 1523     		movs	r3, #21
 1413 0144 FB18     		adds	r3, r7, r3
 1414 0146 1278     		ldrb	r2, [r2]
 1415 0148 1B78     		ldrb	r3, [r3]
 1416 014a 9A42     		cmp	r2, r3
 1417 014c 1BD2     		bcs	.L70
1249:Generated_Source\PSoC4/blue.c ****                 {
 1418              		.loc 1 1249 0 discriminator 3
 1419 014e 1723     		movs	r3, #23
 1420 0150 FB18     		adds	r3, r7, r3
 1421 0152 1A78     		ldrb	r2, [r3]
 1422 0154 1423     		movs	r3, #20
 1423 0156 FB18     		adds	r3, r7, r3
 1424 0158 1B78     		ldrb	r3, [r3]
 1425 015a D31A     		subs	r3, r2, r3
 1426 015c 1A00     		movs	r2, r3
 1427 015e 7B68     		ldr	r3, [r7, #4]
 1428 0160 9B18     		adds	r3, r3, r2
 1429 0162 1B78     		ldrb	r3, [r3]
 1430 0164 002B     		cmp	r3, #0
 1431 0166 D2D1     		bne	.L69
1252:Generated_Source\PSoC4/blue.c ****                 }
1253:Generated_Source\PSoC4/blue.c ****                 
1254:Generated_Source\PSoC4/blue.c ****                 /* This loop handles the case when new local name is shorted than old one.
1255:Generated_Source\PSoC4/blue.c ****                    In this case all remaining characters should be null characters. */
1256:Generated_Source\PSoC4/blue.c ****                 while(adLength > i)
 1432              		.loc 1 1256 0 is_stmt 1
 1433 0168 0DE0     		b	.L70
 1434              	.L71:
1257:Generated_Source\PSoC4/blue.c ****                 {
1258:Generated_Source\PSoC4/blue.c ****                     /* Terminate string */
1259:Generated_Source\PSoC4/blue.c ****                     destBuffer[i] = (uint8)CYBLE_NULL_CHARCTER;
 1435              		.loc 1 1259 0
 1436 016a 1723     		movs	r3, #23
 1437 016c FB18     		adds	r3, r7, r3
 1438 016e 1B78     		ldrb	r3, [r3]
 1439 0170 3A69     		ldr	r2, [r7, #16]
 1440 0172 D318     		adds	r3, r2, r3
 1441 0174 0022     		movs	r2, #0
 1442 0176 1A70     		strb	r2, [r3]
1260:Generated_Source\PSoC4/blue.c ****                     i++;
 1443              		.loc 1 1260 0
 1444 0178 1723     		movs	r3, #23
 1445 017a FB18     		adds	r3, r7, r3
 1446 017c 1A78     		ldrb	r2, [r3]
 1447 017e 1723     		movs	r3, #23
 1448 0180 FB18     		adds	r3, r7, r3
 1449 0182 0132     		adds	r2, r2, #1
 1450 0184 1A70     		strb	r2, [r3]
 1451              	.L70:
1256:Generated_Source\PSoC4/blue.c ****                 {
 1452              		.loc 1 1256 0
 1453 0186 1523     		movs	r3, #21
 1454 0188 FA18     		adds	r2, r7, r3
ARM GAS  C:\Users\alexport\AppData\Local\Temp\ccMcN4Gf.s 			page 49


 1455 018a 1723     		movs	r3, #23
 1456 018c FB18     		adds	r3, r7, r3
 1457 018e 1278     		ldrb	r2, [r2]
 1458 0190 1B78     		ldrb	r3, [r3]
 1459 0192 9A42     		cmp	r2, r3
 1460 0194 E9D8     		bhi	.L71
 1461              	.L73:
1261:Generated_Source\PSoC4/blue.c ****                 }
1262:Generated_Source\PSoC4/blue.c ****             }
1263:Generated_Source\PSoC4/blue.c ****         }
 1462              		.loc 1 1263 0
 1463 0196 C046     		nop
 1464 0198 BD46     		mov	sp, r7
 1465 019a 06B0     		add	sp, sp, #24
 1466              		@ sp needed
 1467 019c 80BD     		pop	{r7, pc}
 1468              	.L75:
 1469 019e C046     		.align	2
 1470              	.L74:
 1471 01a0 00000000 		.word	cyBle_discoveryData
 1472 01a4 00000000 		.word	cyBle_scanRspData
 1473              		.cfi_endproc
 1474              	.LFE11:
 1475              		.size	CyBle_ChangeAdLocalName, .-CyBle_ChangeAdLocalName
 1476              		.section	.text.CyBle_GapSetLocalName,"ax",%progbits
 1477              		.align	2
 1478              		.global	CyBle_GapSetLocalName
 1479              		.code	16
 1480              		.thumb_func
 1481              		.type	CyBle_GapSetLocalName, %function
 1482              	CyBle_GapSetLocalName:
 1483              	.LFB12:
1264:Generated_Source\PSoC4/blue.c ****         
1265:Generated_Source\PSoC4/blue.c **** #endif /* (CYBLE_GAP_ROLE_PERIPHERAL) */  
1266:Generated_Source\PSoC4/blue.c ****     
1267:Generated_Source\PSoC4/blue.c ****     
1268:Generated_Source\PSoC4/blue.c ****     /******************************************************************************
1269:Generated_Source\PSoC4/blue.c ****     * Function Name: CyBle_GapSetLocalName
1270:Generated_Source\PSoC4/blue.c ****     ***************************************************************************//**
1271:Generated_Source\PSoC4/blue.c ****     *  This function is used to set the local device name - a Characteristic of the 
1272:Generated_Source\PSoC4/blue.c ****     *  GAP Service. If the characteristic length entered in the component customizer
1273:Generated_Source\PSoC4/blue.c ****     *  is shorter than the string specified by the "name" parameter, the local device
1274:Generated_Source\PSoC4/blue.c ****     *  name will be cut to the length specified in the customizer.
1275:Generated_Source\PSoC4/blue.c ****     * 
1276:Generated_Source\PSoC4/blue.c ****     *  \param name: The local device name string. The name string to be written as
1277:Generated_Source\PSoC4/blue.c ****     *              the local device name. It represents a UTF-8 encoded User
1278:Generated_Source\PSoC4/blue.c ****     *              Friendly Descriptive Name for the device. The length of the local
1279:Generated_Source\PSoC4/blue.c ****     *              device string is entered into the component customizer and it can
1280:Generated_Source\PSoC4/blue.c ****     *              be set to a value from 0 to 248 bytes. If the name contained in
1281:Generated_Source\PSoC4/blue.c ****     *              the parameter is shorter than the length from the customizer, the
1282:Generated_Source\PSoC4/blue.c ****     *              end of the name is indicated by a NULL octet (0x00).
1283:Generated_Source\PSoC4/blue.c ****     * 
1284:Generated_Source\PSoC4/blue.c ****     * \return
1285:Generated_Source\PSoC4/blue.c ****     *  CYBLE_API_RESULT_T : Return value indicates if the function succeeded or 
1286:Generated_Source\PSoC4/blue.c ****     *  failed. Following are the possible error codes.
1287:Generated_Source\PSoC4/blue.c ****     *
1288:Generated_Source\PSoC4/blue.c ****     *   Errors codes                       | Description
ARM GAS  C:\Users\alexport\AppData\Local\Temp\ccMcN4Gf.s 			page 50


1289:Generated_Source\PSoC4/blue.c ****     *   ------------                       | -----------
1290:Generated_Source\PSoC4/blue.c ****     *   CYBLE_ERROR_OK                     | Function completed successfully.
1291:Generated_Source\PSoC4/blue.c ****     *   CYBLE_ERROR_INVALID_PARAMETER      | On specifying NULL as input parameter
1292:Generated_Source\PSoC4/blue.c ****     *  
1293:Generated_Source\PSoC4/blue.c ****     *******************************************************************************/
1294:Generated_Source\PSoC4/blue.c ****     CYBLE_API_RESULT_T CyBle_GapSetLocalName(const char8 name[])
1295:Generated_Source\PSoC4/blue.c ****     {
 1484              		.loc 1 1295 0
 1485              		.cfi_startproc
 1486              		@ args = 0, pretend = 0, frame = 24
 1487              		@ frame_needed = 1, uses_anonymous_args = 0
 1488 0000 80B5     		push	{r7, lr}
 1489              		.cfi_def_cfa_offset 8
 1490              		.cfi_offset 7, -8
 1491              		.cfi_offset 14, -4
 1492 0002 86B0     		sub	sp, sp, #24
 1493              		.cfi_def_cfa_offset 32
 1494 0004 00AF     		add	r7, sp, #0
 1495              		.cfi_def_cfa_register 7
 1496 0006 7860     		str	r0, [r7, #4]
1296:Generated_Source\PSoC4/blue.c ****         CYBLE_API_RESULT_T apiResult = CYBLE_ERROR_OK;
 1497              		.loc 1 1296 0
 1498 0008 1623     		movs	r3, #22
 1499 000a FB18     		adds	r3, r7, r3
 1500 000c 0022     		movs	r2, #0
 1501 000e 1A80     		strh	r2, [r3]
1297:Generated_Source\PSoC4/blue.c ****         uint8 i;
1298:Generated_Source\PSoC4/blue.c ****         char8 *ptr;
1299:Generated_Source\PSoC4/blue.c ****         uint8 charLen;
1300:Generated_Source\PSoC4/blue.c **** 
1301:Generated_Source\PSoC4/blue.c ****         if(NULL != name)
 1502              		.loc 1 1301 0
 1503 0010 7B68     		ldr	r3, [r7, #4]
 1504 0012 002B     		cmp	r3, #0
 1505 0014 5CD0     		beq	.L77
1302:Generated_Source\PSoC4/blue.c ****         {
1303:Generated_Source\PSoC4/blue.c ****             /* Get the pointer to the Device Name characteristic  */
1304:Generated_Source\PSoC4/blue.c ****             ptr = (char8 *) CYBLE_GATT_DB_ATTR_GET_ATTR_GEN_PTR(cyBle_gaps.deviceNameCharHandle);
 1506              		.loc 1 1304 0
 1507 0016 344B     		ldr	r3, .L84
 1508 0018 5B88     		ldrh	r3, [r3, #2]
 1509 001a 5A1E     		subs	r2, r3, #1
 1510 001c 3349     		ldr	r1, .L84+4
 1511 001e 1300     		movs	r3, r2
 1512 0020 9B00     		lsls	r3, r3, #2
 1513 0022 9B18     		adds	r3, r3, r2
 1514 0024 9B00     		lsls	r3, r3, #2
 1515 0026 CB18     		adds	r3, r1, r3
 1516 0028 1033     		adds	r3, r3, #16
 1517 002a 1B68     		ldr	r3, [r3]
 1518 002c 5B68     		ldr	r3, [r3, #4]
 1519 002e 3B61     		str	r3, [r7, #16]
1305:Generated_Source\PSoC4/blue.c **** 
1306:Generated_Source\PSoC4/blue.c ****             /* First need to get the maximum length of the characteristic data in the GATT
1307:Generated_Source\PSoC4/blue.c ****                 database to make sure there is enough place for the data. The length
1308:Generated_Source\PSoC4/blue.c ****                 can't be longer than 248, so only the LSB of 16 bit of length is to
1309:Generated_Source\PSoC4/blue.c ****                 be used. */
ARM GAS  C:\Users\alexport\AppData\Local\Temp\ccMcN4Gf.s 			page 51


1310:Generated_Source\PSoC4/blue.c ****             charLen = (uint8)CYBLE_GATT_DB_ATTR_GET_ATTR_GEN_MAX_LEN(cyBle_gaps.deviceNameCharHandl
 1520              		.loc 1 1310 0
 1521 0030 2D4B     		ldr	r3, .L84
 1522 0032 5B88     		ldrh	r3, [r3, #2]
 1523 0034 5A1E     		subs	r2, r3, #1
 1524 0036 2D49     		ldr	r1, .L84+4
 1525 0038 1300     		movs	r3, r2
 1526 003a 9B00     		lsls	r3, r3, #2
 1527 003c 9B18     		adds	r3, r3, r2
 1528 003e 9B00     		lsls	r3, r3, #2
 1529 0040 CB18     		adds	r3, r1, r3
 1530 0042 0C33     		adds	r3, r3, #12
 1531 0044 1A88     		ldrh	r2, [r3]
 1532 0046 0F23     		movs	r3, #15
 1533 0048 FB18     		adds	r3, r7, r3
 1534 004a 1A70     		strb	r2, [r3]
1311:Generated_Source\PSoC4/blue.c **** 
1312:Generated_Source\PSoC4/blue.c ****             /* Copy name into characteristic */
1313:Generated_Source\PSoC4/blue.c ****             for(i = 0u; ((i < charLen) && (CYBLE_NULL_CHARCTER != name[i])); i++)
 1535              		.loc 1 1313 0
 1536 004c 1523     		movs	r3, #21
 1537 004e FB18     		adds	r3, r7, r3
 1538 0050 0022     		movs	r2, #0
 1539 0052 1A70     		strb	r2, [r3]
 1540 0054 12E0     		b	.L78
 1541              	.L80:
1314:Generated_Source\PSoC4/blue.c ****             {
1315:Generated_Source\PSoC4/blue.c ****                 ptr[i] = name[i];
 1542              		.loc 1 1315 0 discriminator 4
 1543 0056 1523     		movs	r3, #21
 1544 0058 FB18     		adds	r3, r7, r3
 1545 005a 1B78     		ldrb	r3, [r3]
 1546 005c 3A69     		ldr	r2, [r7, #16]
 1547 005e D318     		adds	r3, r2, r3
 1548 0060 1522     		movs	r2, #21
 1549 0062 BA18     		adds	r2, r7, r2
 1550 0064 1278     		ldrb	r2, [r2]
 1551 0066 7968     		ldr	r1, [r7, #4]
 1552 0068 8A18     		adds	r2, r1, r2
 1553 006a 1278     		ldrb	r2, [r2]
 1554 006c 1A70     		strb	r2, [r3]
1313:Generated_Source\PSoC4/blue.c ****             {
 1555              		.loc 1 1313 0 discriminator 4
 1556 006e 1523     		movs	r3, #21
 1557 0070 FB18     		adds	r3, r7, r3
 1558 0072 1A78     		ldrb	r2, [r3]
 1559 0074 1523     		movs	r3, #21
 1560 0076 FB18     		adds	r3, r7, r3
 1561 0078 0132     		adds	r2, r2, #1
 1562 007a 1A70     		strb	r2, [r3]
 1563              	.L78:
1313:Generated_Source\PSoC4/blue.c ****             {
 1564              		.loc 1 1313 0 is_stmt 0 discriminator 1
 1565 007c 1523     		movs	r3, #21
 1566 007e FA18     		adds	r2, r7, r3
 1567 0080 0F23     		movs	r3, #15
 1568 0082 FB18     		adds	r3, r7, r3
ARM GAS  C:\Users\alexport\AppData\Local\Temp\ccMcN4Gf.s 			page 52


 1569 0084 1278     		ldrb	r2, [r2]
 1570 0086 1B78     		ldrb	r3, [r3]
 1571 0088 9A42     		cmp	r2, r3
 1572 008a 07D2     		bcs	.L79
1313:Generated_Source\PSoC4/blue.c ****             {
 1573              		.loc 1 1313 0 discriminator 3
 1574 008c 1523     		movs	r3, #21
 1575 008e FB18     		adds	r3, r7, r3
 1576 0090 1B78     		ldrb	r3, [r3]
 1577 0092 7A68     		ldr	r2, [r7, #4]
 1578 0094 D318     		adds	r3, r2, r3
 1579 0096 1B78     		ldrb	r3, [r3]
 1580 0098 002B     		cmp	r3, #0
 1581 009a DCD1     		bne	.L80
 1582              	.L79:
1316:Generated_Source\PSoC4/blue.c ****             }
1317:Generated_Source\PSoC4/blue.c **** 
1318:Generated_Source\PSoC4/blue.c ****             if(i < charLen)
 1583              		.loc 1 1318 0 is_stmt 1
 1584 009c 1523     		movs	r3, #21
 1585 009e FA18     		adds	r2, r7, r3
 1586 00a0 0F23     		movs	r3, #15
 1587 00a2 FB18     		adds	r3, r7, r3
 1588 00a4 1278     		ldrb	r2, [r2]
 1589 00a6 1B78     		ldrb	r3, [r3]
 1590 00a8 9A42     		cmp	r2, r3
 1591 00aa 06D2     		bcs	.L81
1319:Generated_Source\PSoC4/blue.c ****             {
1320:Generated_Source\PSoC4/blue.c ****                 /* Terminate string */
1321:Generated_Source\PSoC4/blue.c ****                 ptr[i] = CYBLE_NULL_CHARCTER;
 1592              		.loc 1 1321 0
 1593 00ac 1523     		movs	r3, #21
 1594 00ae FB18     		adds	r3, r7, r3
 1595 00b0 1B78     		ldrb	r3, [r3]
 1596 00b2 3A69     		ldr	r2, [r7, #16]
 1597 00b4 D318     		adds	r3, r2, r3
 1598 00b6 0022     		movs	r2, #0
 1599 00b8 1A70     		strb	r2, [r3]
 1600              	.L81:
1322:Generated_Source\PSoC4/blue.c ****             }
1323:Generated_Source\PSoC4/blue.c ****             
1324:Generated_Source\PSoC4/blue.c ****             /* Set new actual length */
1325:Generated_Source\PSoC4/blue.c ****             
1326:Generated_Source\PSoC4/blue.c ****             /* Update device name in advertising and scan response structure */
1327:Generated_Source\PSoC4/blue.c ****             #if(CYBLE_GAP_ROLE_PERIPHERAL)
1328:Generated_Source\PSoC4/blue.c ****                 CyBle_ChangeAdLocalName(name, 0u);
 1601              		.loc 1 1328 0
 1602 00ba 7B68     		ldr	r3, [r7, #4]
 1603 00bc 0021     		movs	r1, #0
 1604 00be 1800     		movs	r0, r3
 1605 00c0 FFF7FEFF 		bl	CyBle_ChangeAdLocalName
1329:Generated_Source\PSoC4/blue.c ****                 CyBle_ChangeAdLocalName(name, 1u);
 1606              		.loc 1 1329 0
 1607 00c4 7B68     		ldr	r3, [r7, #4]
 1608 00c6 0121     		movs	r1, #1
 1609 00c8 1800     		movs	r0, r3
 1610 00ca FFF7FEFF 		bl	CyBle_ChangeAdLocalName
ARM GAS  C:\Users\alexport\AppData\Local\Temp\ccMcN4Gf.s 			page 53


 1611 00ce 03E0     		b	.L82
 1612              	.L77:
1330:Generated_Source\PSoC4/blue.c ****             #endif /* (CYBLE_GAP_ROLE_PERIPHERAL) */
1331:Generated_Source\PSoC4/blue.c ****         }
1332:Generated_Source\PSoC4/blue.c ****         else
1333:Generated_Source\PSoC4/blue.c ****         {
1334:Generated_Source\PSoC4/blue.c ****             apiResult = CYBLE_ERROR_INVALID_PARAMETER;
 1613              		.loc 1 1334 0
 1614 00d0 1623     		movs	r3, #22
 1615 00d2 FB18     		adds	r3, r7, r3
 1616 00d4 0122     		movs	r2, #1
 1617 00d6 1A80     		strh	r2, [r3]
 1618              	.L82:
1335:Generated_Source\PSoC4/blue.c ****         }
1336:Generated_Source\PSoC4/blue.c ****         
1337:Generated_Source\PSoC4/blue.c ****         return(apiResult);
 1619              		.loc 1 1337 0
 1620 00d8 1623     		movs	r3, #22
 1621 00da FB18     		adds	r3, r7, r3
 1622 00dc 1B88     		ldrh	r3, [r3]
1338:Generated_Source\PSoC4/blue.c ****     }
 1623              		.loc 1 1338 0
 1624 00de 1800     		movs	r0, r3
 1625 00e0 BD46     		mov	sp, r7
 1626 00e2 06B0     		add	sp, sp, #24
 1627              		@ sp needed
 1628 00e4 80BD     		pop	{r7, pc}
 1629              	.L85:
 1630 00e6 C046     		.align	2
 1631              	.L84:
 1632 00e8 00000000 		.word	cyBle_gaps
 1633 00ec 00000000 		.word	cyBle_gattDB
 1634              		.cfi_endproc
 1635              	.LFE12:
 1636              		.size	CyBle_GapSetLocalName, .-CyBle_GapSetLocalName
 1637              		.section	.text.CyBle_GapGetLocalName,"ax",%progbits
 1638              		.align	2
 1639              		.global	CyBle_GapGetLocalName
 1640              		.code	16
 1641              		.thumb_func
 1642              		.type	CyBle_GapGetLocalName, %function
 1643              	CyBle_GapGetLocalName:
 1644              	.LFB13:
1339:Generated_Source\PSoC4/blue.c **** 
1340:Generated_Source\PSoC4/blue.c **** 
1341:Generated_Source\PSoC4/blue.c ****     /******************************************************************************
1342:Generated_Source\PSoC4/blue.c ****     * Function Name: CyBle_GapGetLocalName
1343:Generated_Source\PSoC4/blue.c ****     ***************************************************************************//**
1344:Generated_Source\PSoC4/blue.c ****     *  
1345:Generated_Source\PSoC4/blue.c ****     *  This function is used to read the local device name - a Characteristic of the 
1346:Generated_Source\PSoC4/blue.c ****     *  GAP Service.
1347:Generated_Source\PSoC4/blue.c ****     * 
1348:Generated_Source\PSoC4/blue.c ****     * \param name: The local device name string. Used to read the local name to the
1349:Generated_Source\PSoC4/blue.c ****     *             given string array. It represents a UTF-8 encoded User Friendly 
1350:Generated_Source\PSoC4/blue.c ****     *             Descriptive Name for the device. The length of the local device
1351:Generated_Source\PSoC4/blue.c ****     *             string is entered into the component customizer and it can be set
1352:Generated_Source\PSoC4/blue.c ****     *             to a value from 0 to 248 bytes. If the name contained in the
ARM GAS  C:\Users\alexport\AppData\Local\Temp\ccMcN4Gf.s 			page 54


1353:Generated_Source\PSoC4/blue.c ****     *             parameter is shorter than the length from the customizer, the end
1354:Generated_Source\PSoC4/blue.c ****     *             of the name is indicated by a NULL octet (0x00).
1355:Generated_Source\PSoC4/blue.c ****     * 
1356:Generated_Source\PSoC4/blue.c ****     * \return
1357:Generated_Source\PSoC4/blue.c ****     *  CYBLE_API_RESULT_T : Return value indicates if the function succeeded or 
1358:Generated_Source\PSoC4/blue.c ****     *  failed. Following are the possible error codes.
1359:Generated_Source\PSoC4/blue.c ****     *
1360:Generated_Source\PSoC4/blue.c ****     *   Errors codes                       | Description
1361:Generated_Source\PSoC4/blue.c ****     *   ------------                       | -----------
1362:Generated_Source\PSoC4/blue.c ****     *   CYBLE_ERROR_OK                     | Function completed successfully.
1363:Generated_Source\PSoC4/blue.c ****     *   CYBLE_ERROR_INVALID_PARAMETER      | On specifying NULL as input parameter
1364:Generated_Source\PSoC4/blue.c ****     *
1365:Generated_Source\PSoC4/blue.c ****     *******************************************************************************/
1366:Generated_Source\PSoC4/blue.c ****     CYBLE_API_RESULT_T CyBle_GapGetLocalName(char8 name[])
1367:Generated_Source\PSoC4/blue.c ****     {
 1645              		.loc 1 1367 0
 1646              		.cfi_startproc
 1647              		@ args = 0, pretend = 0, frame = 24
 1648              		@ frame_needed = 1, uses_anonymous_args = 0
 1649 0000 80B5     		push	{r7, lr}
 1650              		.cfi_def_cfa_offset 8
 1651              		.cfi_offset 7, -8
 1652              		.cfi_offset 14, -4
 1653 0002 86B0     		sub	sp, sp, #24
 1654              		.cfi_def_cfa_offset 32
 1655 0004 00AF     		add	r7, sp, #0
 1656              		.cfi_def_cfa_register 7
 1657 0006 7860     		str	r0, [r7, #4]
1368:Generated_Source\PSoC4/blue.c ****         CYBLE_API_RESULT_T apiResult = CYBLE_ERROR_OK;
 1658              		.loc 1 1368 0
 1659 0008 1623     		movs	r3, #22
 1660 000a FB18     		adds	r3, r7, r3
 1661 000c 0022     		movs	r2, #0
 1662 000e 1A80     		strh	r2, [r3]
1369:Generated_Source\PSoC4/blue.c ****         uint8 charLen;
1370:Generated_Source\PSoC4/blue.c ****         uint8 i;
1371:Generated_Source\PSoC4/blue.c ****         char8 *ptr;
1372:Generated_Source\PSoC4/blue.c **** 
1373:Generated_Source\PSoC4/blue.c ****         if(NULL != name)
 1663              		.loc 1 1373 0
 1664 0010 7B68     		ldr	r3, [r7, #4]
 1665 0012 002B     		cmp	r3, #0
 1666 0014 4BD0     		beq	.L87
1374:Generated_Source\PSoC4/blue.c ****         {
1375:Generated_Source\PSoC4/blue.c ****             /* Get the pointer to the Device Name characteristic  */
1376:Generated_Source\PSoC4/blue.c ****             ptr = (char8 *) CYBLE_GATT_DB_ATTR_GET_ATTR_GEN_PTR(cyBle_gaps.deviceNameCharHandle);
 1667              		.loc 1 1376 0
 1668 0016 2B4B     		ldr	r3, .L93
 1669 0018 5B88     		ldrh	r3, [r3, #2]
 1670 001a 5A1E     		subs	r2, r3, #1
 1671 001c 2A49     		ldr	r1, .L93+4
 1672 001e 1300     		movs	r3, r2
 1673 0020 9B00     		lsls	r3, r3, #2
 1674 0022 9B18     		adds	r3, r3, r2
 1675 0024 9B00     		lsls	r3, r3, #2
 1676 0026 CB18     		adds	r3, r1, r3
 1677 0028 1033     		adds	r3, r3, #16
ARM GAS  C:\Users\alexport\AppData\Local\Temp\ccMcN4Gf.s 			page 55


 1678 002a 1B68     		ldr	r3, [r3]
 1679 002c 5B68     		ldr	r3, [r3, #4]
 1680 002e 3B61     		str	r3, [r7, #16]
1377:Generated_Source\PSoC4/blue.c **** 
1378:Generated_Source\PSoC4/blue.c ****             /* First need to get the length of the characteristic data in the GATT
1379:Generated_Source\PSoC4/blue.c ****                 database to make sure there is enough place for the data. The length
1380:Generated_Source\PSoC4/blue.c ****                 can't be longer than 248, so only the LSB of 16 bit of length is to
1381:Generated_Source\PSoC4/blue.c ****                 be used. */
1382:Generated_Source\PSoC4/blue.c ****             charLen = (uint8)CYBLE_GATT_DB_ATTR_GET_ATTR_GEN_LEN(cyBle_gaps.deviceNameCharHandle);
 1681              		.loc 1 1382 0
 1682 0030 244B     		ldr	r3, .L93
 1683 0032 5B88     		ldrh	r3, [r3, #2]
 1684 0034 5A1E     		subs	r2, r3, #1
 1685 0036 2449     		ldr	r1, .L93+4
 1686 0038 1300     		movs	r3, r2
 1687 003a 9B00     		lsls	r3, r3, #2
 1688 003c 9B18     		adds	r3, r3, r2
 1689 003e 9B00     		lsls	r3, r3, #2
 1690 0040 CB18     		adds	r3, r1, r3
 1691 0042 1033     		adds	r3, r3, #16
 1692 0044 1B68     		ldr	r3, [r3]
 1693 0046 1A88     		ldrh	r2, [r3]
 1694 0048 0F23     		movs	r3, #15
 1695 004a FB18     		adds	r3, r7, r3
 1696 004c 1A70     		strb	r2, [r3]
1383:Generated_Source\PSoC4/blue.c **** 
1384:Generated_Source\PSoC4/blue.c ****             /* Copy name from characteristic */
1385:Generated_Source\PSoC4/blue.c ****             for(i = 0u; ((i < charLen) && (CYBLE_NULL_CHARCTER != ptr[i])); i++)
 1697              		.loc 1 1385 0
 1698 004e 1523     		movs	r3, #21
 1699 0050 FB18     		adds	r3, r7, r3
 1700 0052 0022     		movs	r2, #0
 1701 0054 1A70     		strb	r2, [r3]
 1702 0056 12E0     		b	.L88
 1703              	.L90:
1386:Generated_Source\PSoC4/blue.c ****             {
1387:Generated_Source\PSoC4/blue.c ****                 name[i] = ptr[i];
 1704              		.loc 1 1387 0 discriminator 4
 1705 0058 1523     		movs	r3, #21
 1706 005a FB18     		adds	r3, r7, r3
 1707 005c 1B78     		ldrb	r3, [r3]
 1708 005e 7A68     		ldr	r2, [r7, #4]
 1709 0060 D318     		adds	r3, r2, r3
 1710 0062 1522     		movs	r2, #21
 1711 0064 BA18     		adds	r2, r7, r2
 1712 0066 1278     		ldrb	r2, [r2]
 1713 0068 3969     		ldr	r1, [r7, #16]
 1714 006a 8A18     		adds	r2, r1, r2
 1715 006c 1278     		ldrb	r2, [r2]
 1716 006e 1A70     		strb	r2, [r3]
1385:Generated_Source\PSoC4/blue.c ****             {
 1717              		.loc 1 1385 0 discriminator 4
 1718 0070 1523     		movs	r3, #21
 1719 0072 FB18     		adds	r3, r7, r3
 1720 0074 1A78     		ldrb	r2, [r3]
 1721 0076 1523     		movs	r3, #21
 1722 0078 FB18     		adds	r3, r7, r3
ARM GAS  C:\Users\alexport\AppData\Local\Temp\ccMcN4Gf.s 			page 56


 1723 007a 0132     		adds	r2, r2, #1
 1724 007c 1A70     		strb	r2, [r3]
 1725              	.L88:
1385:Generated_Source\PSoC4/blue.c ****             {
 1726              		.loc 1 1385 0 is_stmt 0 discriminator 1
 1727 007e 1523     		movs	r3, #21
 1728 0080 FA18     		adds	r2, r7, r3
 1729 0082 0F23     		movs	r3, #15
 1730 0084 FB18     		adds	r3, r7, r3
 1731 0086 1278     		ldrb	r2, [r2]
 1732 0088 1B78     		ldrb	r3, [r3]
 1733 008a 9A42     		cmp	r2, r3
 1734 008c 07D2     		bcs	.L89
1385:Generated_Source\PSoC4/blue.c ****             {
 1735              		.loc 1 1385 0 discriminator 3
 1736 008e 1523     		movs	r3, #21
 1737 0090 FB18     		adds	r3, r7, r3
 1738 0092 1B78     		ldrb	r3, [r3]
 1739 0094 3A69     		ldr	r2, [r7, #16]
 1740 0096 D318     		adds	r3, r2, r3
 1741 0098 1B78     		ldrb	r3, [r3]
 1742 009a 002B     		cmp	r3, #0
 1743 009c DCD1     		bne	.L90
 1744              	.L89:
1388:Generated_Source\PSoC4/blue.c ****             }
1389:Generated_Source\PSoC4/blue.c **** 
1390:Generated_Source\PSoC4/blue.c ****             /* Terminate string */
1391:Generated_Source\PSoC4/blue.c ****             name[i] = CYBLE_NULL_CHARCTER;
 1745              		.loc 1 1391 0 is_stmt 1
 1746 009e 1523     		movs	r3, #21
 1747 00a0 FB18     		adds	r3, r7, r3
 1748 00a2 1B78     		ldrb	r3, [r3]
 1749 00a4 7A68     		ldr	r2, [r7, #4]
 1750 00a6 D318     		adds	r3, r2, r3
 1751 00a8 0022     		movs	r2, #0
 1752 00aa 1A70     		strb	r2, [r3]
 1753 00ac 03E0     		b	.L91
 1754              	.L87:
1392:Generated_Source\PSoC4/blue.c ****         }
1393:Generated_Source\PSoC4/blue.c ****         else
1394:Generated_Source\PSoC4/blue.c ****         {
1395:Generated_Source\PSoC4/blue.c ****             apiResult = CYBLE_ERROR_INVALID_PARAMETER;
 1755              		.loc 1 1395 0
 1756 00ae 1623     		movs	r3, #22
 1757 00b0 FB18     		adds	r3, r7, r3
 1758 00b2 0122     		movs	r2, #1
 1759 00b4 1A80     		strh	r2, [r3]
 1760              	.L91:
1396:Generated_Source\PSoC4/blue.c ****         }
1397:Generated_Source\PSoC4/blue.c ****         
1398:Generated_Source\PSoC4/blue.c ****         return(apiResult);
 1761              		.loc 1 1398 0
 1762 00b6 1623     		movs	r3, #22
 1763 00b8 FB18     		adds	r3, r7, r3
 1764 00ba 1B88     		ldrh	r3, [r3]
1399:Generated_Source\PSoC4/blue.c ****     }
 1765              		.loc 1 1399 0
ARM GAS  C:\Users\alexport\AppData\Local\Temp\ccMcN4Gf.s 			page 57


 1766 00bc 1800     		movs	r0, r3
 1767 00be BD46     		mov	sp, r7
 1768 00c0 06B0     		add	sp, sp, #24
 1769              		@ sp needed
 1770 00c2 80BD     		pop	{r7, pc}
 1771              	.L94:
 1772              		.align	2
 1773              	.L93:
 1774 00c4 00000000 		.word	cyBle_gaps
 1775 00c8 00000000 		.word	cyBle_gattDB
 1776              		.cfi_endproc
 1777              	.LFE13:
 1778              		.size	CyBle_GapGetLocalName, .-CyBle_GapGetLocalName
 1779              		.section	.text.CyBle_Get16ByPtr,"ax",%progbits
 1780              		.align	2
 1781              		.global	CyBle_Get16ByPtr
 1782              		.code	16
 1783              		.thumb_func
 1784              		.type	CyBle_Get16ByPtr, %function
 1785              	CyBle_Get16ByPtr:
 1786              	.LFB14:
1400:Generated_Source\PSoC4/blue.c **** 
1401:Generated_Source\PSoC4/blue.c **** #endif /* (CYBLE_GATT_ROLE_SERVER) */
1402:Generated_Source\PSoC4/blue.c **** 
1403:Generated_Source\PSoC4/blue.c **** 
1404:Generated_Source\PSoC4/blue.c **** /******************************************************************************
1405:Generated_Source\PSoC4/blue.c **** * Function Name: CyBle_Get16ByPtr
1406:Generated_Source\PSoC4/blue.c **** ***************************************************************************//**
1407:Generated_Source\PSoC4/blue.c **** * 
1408:Generated_Source\PSoC4/blue.c **** *  Returns the two-bytes value by using a pointer to the LSB.
1409:Generated_Source\PSoC4/blue.c **** * 
1410:Generated_Source\PSoC4/blue.c **** *  \param ptr: Pointer to the LSB of two-bytes data (little endian).
1411:Generated_Source\PSoC4/blue.c **** * 
1412:Generated_Source\PSoC4/blue.c **** *  \return
1413:Generated_Source\PSoC4/blue.c **** *  uint16: Two-bytes data.
1414:Generated_Source\PSoC4/blue.c **** * 
1415:Generated_Source\PSoC4/blue.c **** ******************************************************************************/
1416:Generated_Source\PSoC4/blue.c **** uint16 CyBle_Get16ByPtr(const uint8 ptr[])
1417:Generated_Source\PSoC4/blue.c **** {
 1787              		.loc 1 1417 0
 1788              		.cfi_startproc
 1789              		@ args = 0, pretend = 0, frame = 8
 1790              		@ frame_needed = 1, uses_anonymous_args = 0
 1791 0000 80B5     		push	{r7, lr}
 1792              		.cfi_def_cfa_offset 8
 1793              		.cfi_offset 7, -8
 1794              		.cfi_offset 14, -4
 1795 0002 82B0     		sub	sp, sp, #8
 1796              		.cfi_def_cfa_offset 16
 1797 0004 00AF     		add	r7, sp, #0
 1798              		.cfi_def_cfa_register 7
 1799 0006 7860     		str	r0, [r7, #4]
1418:Generated_Source\PSoC4/blue.c ****     return ((uint16) ptr[0u] | ((uint16) (((uint16) ptr[1u]) << 8u)));
 1800              		.loc 1 1418 0
 1801 0008 7B68     		ldr	r3, [r7, #4]
 1802 000a 1B78     		ldrb	r3, [r3]
 1803 000c 9AB2     		uxth	r2, r3
ARM GAS  C:\Users\alexport\AppData\Local\Temp\ccMcN4Gf.s 			page 58


 1804 000e 7B68     		ldr	r3, [r7, #4]
 1805 0010 0133     		adds	r3, r3, #1
 1806 0012 1B78     		ldrb	r3, [r3]
 1807 0014 9BB2     		uxth	r3, r3
 1808 0016 1B02     		lsls	r3, r3, #8
 1809 0018 9BB2     		uxth	r3, r3
 1810 001a 1343     		orrs	r3, r2
 1811 001c 9BB2     		uxth	r3, r3
1419:Generated_Source\PSoC4/blue.c **** }
 1812              		.loc 1 1419 0
 1813 001e 1800     		movs	r0, r3
 1814 0020 BD46     		mov	sp, r7
 1815 0022 02B0     		add	sp, sp, #8
 1816              		@ sp needed
 1817 0024 80BD     		pop	{r7, pc}
 1818              		.cfi_endproc
 1819              	.LFE14:
 1820              		.size	CyBle_Get16ByPtr, .-CyBle_Get16ByPtr
 1821 0026 C046     		.section	.text.CyBle_Set16ByPtr,"ax",%progbits
 1822              		.align	2
 1823              		.global	CyBle_Set16ByPtr
 1824              		.code	16
 1825              		.thumb_func
 1826              		.type	CyBle_Set16ByPtr, %function
 1827              	CyBle_Set16ByPtr:
 1828              	.LFB15:
1420:Generated_Source\PSoC4/blue.c **** 
1421:Generated_Source\PSoC4/blue.c **** 
1422:Generated_Source\PSoC4/blue.c **** /******************************************************************************
1423:Generated_Source\PSoC4/blue.c **** * Function Name: CyBle_Set16ByPtr
1424:Generated_Source\PSoC4/blue.c **** ***************************************************************************//**
1425:Generated_Source\PSoC4/blue.c **** * 
1426:Generated_Source\PSoC4/blue.c **** *  Sets the two-bytes value by using a pointer to the LSB.
1427:Generated_Source\PSoC4/blue.c **** * 
1428:Generated_Source\PSoC4/blue.c **** *  \param ptr:    Pointer to the LSB of two-bytes data (little endian).
1429:Generated_Source\PSoC4/blue.c **** *  \param value:  Two-bytes data to be written.
1430:Generated_Source\PSoC4/blue.c **** * 
1431:Generated_Source\PSoC4/blue.c **** *  \return
1432:Generated_Source\PSoC4/blue.c **** *  None
1433:Generated_Source\PSoC4/blue.c **** * 
1434:Generated_Source\PSoC4/blue.c **** ******************************************************************************/
1435:Generated_Source\PSoC4/blue.c **** void CyBle_Set16ByPtr(uint8 ptr[], uint16 value)
1436:Generated_Source\PSoC4/blue.c **** {
 1829              		.loc 1 1436 0
 1830              		.cfi_startproc
 1831              		@ args = 0, pretend = 0, frame = 8
 1832              		@ frame_needed = 1, uses_anonymous_args = 0
 1833 0000 80B5     		push	{r7, lr}
 1834              		.cfi_def_cfa_offset 8
 1835              		.cfi_offset 7, -8
 1836              		.cfi_offset 14, -4
 1837 0002 82B0     		sub	sp, sp, #8
 1838              		.cfi_def_cfa_offset 16
 1839 0004 00AF     		add	r7, sp, #0
 1840              		.cfi_def_cfa_register 7
 1841 0006 7860     		str	r0, [r7, #4]
 1842 0008 0A00     		movs	r2, r1
ARM GAS  C:\Users\alexport\AppData\Local\Temp\ccMcN4Gf.s 			page 59


 1843 000a BB1C     		adds	r3, r7, #2
 1844 000c 1A80     		strh	r2, [r3]
1437:Generated_Source\PSoC4/blue.c ****     ptr[0u] = (uint8) value;
 1845              		.loc 1 1437 0
 1846 000e BB1C     		adds	r3, r7, #2
 1847 0010 1B88     		ldrh	r3, [r3]
 1848 0012 DAB2     		uxtb	r2, r3
 1849 0014 7B68     		ldr	r3, [r7, #4]
 1850 0016 1A70     		strb	r2, [r3]
1438:Generated_Source\PSoC4/blue.c ****     ptr[1u] = (uint8) (value >> 8u);
 1851              		.loc 1 1438 0
 1852 0018 7B68     		ldr	r3, [r7, #4]
 1853 001a 0133     		adds	r3, r3, #1
 1854 001c BA1C     		adds	r2, r7, #2
 1855 001e 1288     		ldrh	r2, [r2]
 1856 0020 120A     		lsrs	r2, r2, #8
 1857 0022 92B2     		uxth	r2, r2
 1858 0024 D2B2     		uxtb	r2, r2
 1859 0026 1A70     		strb	r2, [r3]
1439:Generated_Source\PSoC4/blue.c **** }
 1860              		.loc 1 1439 0
 1861 0028 C046     		nop
 1862 002a BD46     		mov	sp, r7
 1863 002c 02B0     		add	sp, sp, #8
 1864              		@ sp needed
 1865 002e 80BD     		pop	{r7, pc}
 1866              		.cfi_endproc
 1867              	.LFE15:
 1868              		.size	CyBle_Set16ByPtr, .-CyBle_Set16ByPtr
 1869              		.text
 1870              	.Letext0:
 1871              		.file 2 "Generated_Source\\PSoC4\\cytypes.h"
 1872              		.file 3 "Generated_Source\\PSoC4\\blue_Stack.h"
 1873              		.file 4 "Generated_Source\\PSoC4\\blue_StackGap.h"
 1874              		.file 5 "Generated_Source\\PSoC4\\blue_StackGatt.h"
 1875              		.file 6 "Generated_Source\\PSoC4\\blue_StackGattDb.h"
 1876              		.file 7 "Generated_Source\\PSoC4\\blue.h"
 1877              		.file 8 "Generated_Source\\PSoC4\\blue_gatt.h"
 1878              		.file 9 "Generated_Source\\PSoC4\\blue_dis.h"
 1879              		.file 10 "Generated_Source\\PSoC4\\blue_eventHandler.h"