ARM GAS  C:\Users\alexport\AppData\Local\Temp\ccf6k4ea.s 			page 1


   1              		.syntax unified
   2              		.cpu cortex-m0
   3              		.fpu softvfp
   4              		.eabi_attribute 20, 1
   5              		.eabi_attribute 21, 1
   6              		.eabi_attribute 23, 3
   7              		.eabi_attribute 24, 1
   8              		.eabi_attribute 25, 1
   9              		.eabi_attribute 26, 1
  10              		.eabi_attribute 30, 6
  11              		.eabi_attribute 34, 0
  12              		.eabi_attribute 18, 4
  13              		.thumb
  14              		.syntax unified
  15              		.file	"blue_1.c"
  16              		.text
  17              	.Ltext0:
  18              		.cfi_sections	.debug_frame
  19              		.global	cyBle_initVar
  20              		.bss
  21              		.type	cyBle_initVar, %object
  22              		.size	cyBle_initVar, 1
  23              	cyBle_initVar:
  24 0000 00       		.space	1
  25              		.global	cyBle_stackMemoryRam
  26              		.section	.noinit,"aw",%progbits
  27              		.align	3
  28              		.type	cyBle_stackMemoryRam, %object
  29              		.size	cyBle_stackMemoryRam, 2840
  30              	cyBle_stackMemoryRam:
  31 0000 00000000 		.space	2840
  31      00000000 
  31      00000000 
  31      00000000 
  31      00000000 
  32              		.global	cyBle_discoveryParam
  33              		.data
  34              		.align	2
  35              		.type	cyBle_discoveryParam, %object
  36              		.size	cyBle_discoveryParam, 16
  37              	cyBle_discoveryParam:
  38 0000 2000     		.short	32
  39 0002 3000     		.short	48
  40 0004 00       		.byte	0
  41 0005 00       		.byte	0
  42 0006 00       		.byte	0
  43 0007 00       		.byte	0
  44 0008 00       		.byte	0
  45 0009 00       		.byte	0
  46 000a 50       		.byte	80
  47 000b A0       		.byte	-96
  48 000c 00       		.byte	0
  49 000d 07       		.byte	7
  50 000e 00       		.byte	0
  51 000f 00       		.space	1
  52              		.global	cyBle_discoveryData
  53              		.align	2
ARM GAS  C:\Users\alexport\AppData\Local\Temp\ccf6k4ea.s 			page 2


  54              		.type	cyBle_discoveryData, %object
  55              		.size	cyBle_discoveryData, 32
  56              	cyBle_discoveryData:
  57 0010 02       		.byte	2
  58 0011 01       		.byte	1
  59 0012 06       		.byte	6
  60 0013 16       		.byte	22
  61 0014 09       		.byte	9
  62 0015 4C       		.byte	76
  63 0016 41       		.byte	65
  64 0017 4E       		.byte	78
  65 0018 43       		.byte	67
  66 0019 45       		.byte	69
  67 001a 20       		.byte	32
  68 001b 54       		.byte	84
  69 001c 4F       		.byte	79
  70 001d 55       		.byte	85
  71 001e 50       		.byte	80
  72 001f 53       		.byte	83
  73 0020 20       		.byte	32
  74 0021 32       		.byte	50
  75 0022 33       		.byte	51
  76 0023 34       		.byte	52
  77 0024 35       		.byte	53
  78 0025 36       		.byte	54
  79 0026 37       		.byte	55
  80 0027 38       		.byte	56
  81 0028 39       		.byte	57
  82 0029 30       		.byte	48
  83 002a 03       		.byte	3
  84 002b 02       		.byte	2
  85 002c 2C       		.byte	44
  86 002d B8       		.byte	-72
  87 002e 00       		.byte	0
  88 002f 1E       		.byte	30
  89              		.global	cyBle_scanRspData
  90              		.bss
  91 0001 000000   		.align	2
  92              		.type	cyBle_scanRspData, %object
  93              		.size	cyBle_scanRspData, 32
  94              	cyBle_scanRspData:
  95 0004 00000000 		.space	32
  95      00000000 
  95      00000000 
  95      00000000 
  95      00000000 
  96              		.global	cyBle_discoveryModeInfo
  97              		.data
  98              		.align	2
  99              		.type	cyBle_discoveryModeInfo, %object
 100              		.size	cyBle_discoveryModeInfo, 20
 101              	cyBle_discoveryModeInfo:
 102 0030 02       		.byte	2
 103 0031 000000   		.space	3
 104 0034 00000000 		.word	cyBle_discoveryParam
 105 0038 00000000 		.word	cyBle_discoveryData
 106 003c 00000000 		.word	cyBle_scanRspData
ARM GAS  C:\Users\alexport\AppData\Local\Temp\ccf6k4ea.s 			page 3


 107 0040 0000     		.short	0
 108 0042 0000     		.space	2
 109              		.comm	cyBle_peerBonding,1,1
 110              		.comm	cyBle_pendingFlashWrite,1,1
 111              		.bss
 112              	cyBle_pendingFlashClearCccdHandle:
 113 0024 00       		.space	1
 114              		.comm	CyBle_ApplCallback,4,4
 115              		.global	cyBle_deviceAddress
 116              		.data
 117              		.align	2
 118              		.type	cyBle_deviceAddress, %object
 119              		.size	cyBle_deviceAddress, 7
 120              	cyBle_deviceAddress:
 121 0044 00       		.byte	0
 122 0045 00       		.byte	0
 123 0046 00       		.byte	0
 124 0047 50       		.byte	80
 125 0048 A0       		.byte	-96
 126 0049 00       		.byte	0
 127 004a 00       		.byte	0
 128              		.global	cyBle_sflashDeviceAddress
 129 004b 00       		.align	2
 130              		.type	cyBle_sflashDeviceAddress, %object
 131              		.size	cyBle_sflashDeviceAddress, 4
 132              	cyBle_sflashDeviceAddress:
 133 004c 00F4FF0F 		.word	268432384
 134              		.section	.text.CyBle_Init,"ax",%progbits
 135              		.align	2
 136              		.global	CyBle_Init
 137              		.code	16
 138              		.thumb_func
 139              		.type	CyBle_Init, %function
 140              	CyBle_Init:
 141              	.LFB2:
 142              		.file 1 "Generated_Source\\PSoC4\\blue_1.c"
   1:Generated_Source\PSoC4/blue_1.c **** /***************************************************************************//**
   2:Generated_Source\PSoC4/blue_1.c **** * \file CYBLE.c
   3:Generated_Source\PSoC4/blue_1.c **** * \version 3.40
   4:Generated_Source\PSoC4/blue_1.c **** * 
   5:Generated_Source\PSoC4/blue_1.c **** * \brief
   6:Generated_Source\PSoC4/blue_1.c **** *  This file contains the source code for the Common APIs of the BLE Component.
   7:Generated_Source\PSoC4/blue_1.c **** * 
   8:Generated_Source\PSoC4/blue_1.c **** ********************************************************************************
   9:Generated_Source\PSoC4/blue_1.c **** * \copyright
  10:Generated_Source\PSoC4/blue_1.c **** * Copyright 2014-2016, Cypress Semiconductor Corporation.  All rights reserved.
  11:Generated_Source\PSoC4/blue_1.c **** * You may use this file only in accordance with the license, terms, conditions,
  12:Generated_Source\PSoC4/blue_1.c **** * disclaimers, and limitations in the end user license agreement accompanying
  13:Generated_Source\PSoC4/blue_1.c **** * the software package with which this file was provided.
  14:Generated_Source\PSoC4/blue_1.c **** *******************************************************************************/
  15:Generated_Source\PSoC4/blue_1.c **** 
  16:Generated_Source\PSoC4/blue_1.c **** #include "blue_1_eventHandler.h"
  17:Generated_Source\PSoC4/blue_1.c **** #include "blue_1_HAL_PVT.h"
  18:Generated_Source\PSoC4/blue_1.c **** #include <stdlib.h>
  19:Generated_Source\PSoC4/blue_1.c **** 
  20:Generated_Source\PSoC4/blue_1.c **** 
  21:Generated_Source\PSoC4/blue_1.c **** /***************************************
ARM GAS  C:\Users\alexport\AppData\Local\Temp\ccf6k4ea.s 			page 4


  22:Generated_Source\PSoC4/blue_1.c **** * Function Prototypes
  23:Generated_Source\PSoC4/blue_1.c **** ***************************************/
  24:Generated_Source\PSoC4/blue_1.c **** 
  25:Generated_Source\PSoC4/blue_1.c **** #if(CYBLE_GATT_ROLE_SERVER)
  26:Generated_Source\PSoC4/blue_1.c ****     #if(CYBLE_GAP_ROLE_PERIPHERAL)
  27:Generated_Source\PSoC4/blue_1.c ****         static void CyBle_ChangeAdLocalName(const char8 name[], uint8 dest);
  28:Generated_Source\PSoC4/blue_1.c ****     #endif /* (CYBLE_GAP_ROLE_PERIPHERAL) */
  29:Generated_Source\PSoC4/blue_1.c **** #endif /* (CYBLE_GATT_ROLE_SERVER) */
  30:Generated_Source\PSoC4/blue_1.c ****     
  31:Generated_Source\PSoC4/blue_1.c **** 
  32:Generated_Source\PSoC4/blue_1.c **** /***************************************
  33:Generated_Source\PSoC4/blue_1.c **** * Global Variables
  34:Generated_Source\PSoC4/blue_1.c **** ***************************************/
  35:Generated_Source\PSoC4/blue_1.c **** 
  36:Generated_Source\PSoC4/blue_1.c **** /* Indicates whether the BLE has been initialized. The variable is initialized to
  37:Generated_Source\PSoC4/blue_1.c ****    0 and set to 1 the first time CyBle_Start() is called. This allows the component
  38:Generated_Source\PSoC4/blue_1.c ****    to restart without reinitialization after the first call to the CyBle_Start() 
  39:Generated_Source\PSoC4/blue_1.c ****    routine. If reinitialization of the component is required, the variable should 
  40:Generated_Source\PSoC4/blue_1.c ****    be set to 0 before the CyBle_Start() routine is called. Alternatively, the BLE
  41:Generated_Source\PSoC4/blue_1.c ****    can be reinitialized by calling the CyBle_Init() function.
  42:Generated_Source\PSoC4/blue_1.c **** */
  43:Generated_Source\PSoC4/blue_1.c **** uint8  cyBle_initVar = 0u;
  44:Generated_Source\PSoC4/blue_1.c **** 
  45:Generated_Source\PSoC4/blue_1.c **** /* Allocate RAM memory for stack. This buffer could be reused by application when 
  46:Generated_Source\PSoC4/blue_1.c ****    BLE component is stopped. For export mode buffer is allocated in heap.
  47:Generated_Source\PSoC4/blue_1.c **** */
  48:Generated_Source\PSoC4/blue_1.c **** #if(CYBLE_SHARING_MODE_EXPORT)
  49:Generated_Source\PSoC4/blue_1.c ****     
  50:Generated_Source\PSoC4/blue_1.c **** uint8 *cyBle_stackMemoryRam = NULL;
  51:Generated_Source\PSoC4/blue_1.c **** 
  52:Generated_Source\PSoC4/blue_1.c **** #else
  53:Generated_Source\PSoC4/blue_1.c **** 
  54:Generated_Source\PSoC4/blue_1.c **** CYBLE_CYALIGNED_BEGIN CY_NOINIT uint8 cyBle_stackMemoryRam[CYBLE_STACK_RAM_SIZE] CYBLE_CYALIGNED_EN
  55:Generated_Source\PSoC4/blue_1.c **** 
  56:Generated_Source\PSoC4/blue_1.c **** #endif  /* CYBLE_SHARING_MODE_EXPORT */
  57:Generated_Source\PSoC4/blue_1.c **** 
  58:Generated_Source\PSoC4/blue_1.c **** #if(CYBLE_GAP_ROLE_PERIPHERAL || CYBLE_GAP_ROLE_BROADCASTER)
  59:Generated_Source\PSoC4/blue_1.c **** 
  60:Generated_Source\PSoC4/blue_1.c **** CYBLE_GAPP_DISC_PARAM_T cyBle_discoveryParam =
  61:Generated_Source\PSoC4/blue_1.c **** {
  62:Generated_Source\PSoC4/blue_1.c ****     0x0020u,    /* uint16 advertising_interval_min */
  63:Generated_Source\PSoC4/blue_1.c ****     0x0030u,    /* uint16 advertising_interval_max */
  64:Generated_Source\PSoC4/blue_1.c ****     CYBLE_GAPP_CONNECTABLE_UNDIRECTED_ADV, /* uint8 advertising_type */
  65:Generated_Source\PSoC4/blue_1.c ****     0x00u,      /* uint8 own_addr_type */
  66:Generated_Source\PSoC4/blue_1.c ****     0x00u,      /* uint8 direct_addr_type */
  67:Generated_Source\PSoC4/blue_1.c ****     {0x00u, 0x00u, 0x00u, 0x50u, 0xA0u, 0x00u}, /* uint8* direct_addr */
  68:Generated_Source\PSoC4/blue_1.c ****     0x07u,      /* uint8 advertising_channel_map */
  69:Generated_Source\PSoC4/blue_1.c ****     0x00u,      /* uint8 advertising_filter_policy */
  70:Generated_Source\PSoC4/blue_1.c **** };
  71:Generated_Source\PSoC4/blue_1.c **** 
  72:Generated_Source\PSoC4/blue_1.c **** CYBLE_GAPP_DISC_DATA_T cyBle_discoveryData =
  73:Generated_Source\PSoC4/blue_1.c **** {
  74:Generated_Source\PSoC4/blue_1.c ****     { 0x02u, 0x01u, 0x06u, 0x16u, 0x09u, 0x4Cu, 0x41u,
  75:Generated_Source\PSoC4/blue_1.c ****     0x4Eu, 0x43u, 0x45u, 0x20u, 0x54u, 0x4Fu, 0x55u, 0x50u,
  76:Generated_Source\PSoC4/blue_1.c ****     0x53u, 0x20u, 0x32u, 0x33u, 0x34u, 0x35u, 0x36u, 0x37u,
  77:Generated_Source\PSoC4/blue_1.c ****     0x38u, 0x39u, 0x30u, 0x03u, 0x02u, 0x2Cu, 0xB8u, 0x00u }, /* uint8 advertising_data[CYBLE_MAX_A
  78:Generated_Source\PSoC4/blue_1.c ****     0x1Eu,      /* uint8 adv_data_length */
ARM GAS  C:\Users\alexport\AppData\Local\Temp\ccf6k4ea.s 			page 5


  79:Generated_Source\PSoC4/blue_1.c **** };
  80:Generated_Source\PSoC4/blue_1.c **** 
  81:Generated_Source\PSoC4/blue_1.c **** CYBLE_GAPP_SCAN_RSP_DATA_T cyBle_scanRspData =
  82:Generated_Source\PSoC4/blue_1.c **** {
  83:Generated_Source\PSoC4/blue_1.c ****     { 0x00u, 0x00u, 0x00u, 0x00u, 0x00u, 0x00u, 0x00u,
  84:Generated_Source\PSoC4/blue_1.c ****     0x00u, 0x00u, 0x00u, 0x00u, 0x00u, 0x00u, 0x00u, 0x00u,
  85:Generated_Source\PSoC4/blue_1.c ****     0x00u, 0x00u, 0x00u, 0x00u, 0x00u, 0x00u, 0x00u, 0x00u,
  86:Generated_Source\PSoC4/blue_1.c ****     0x00u, 0x00u, 0x00u, 0x00u, 0x00u, 0x00u, 0x00u, 0x00u }, /* uint8 scan_rsp_data[CYBLE_MAX_SCAN
  87:Generated_Source\PSoC4/blue_1.c ****     0x00u,      /* uint8 scan_rsp_data_length */
  88:Generated_Source\PSoC4/blue_1.c **** };
  89:Generated_Source\PSoC4/blue_1.c **** 
  90:Generated_Source\PSoC4/blue_1.c **** /* This variable of type CYBLE_GAPP_DISC_MODE_INFO_T is present only when 
  91:Generated_Source\PSoC4/blue_1.c ****    the BLE component is configured for Peripheral GAP role or Central and 
  92:Generated_Source\PSoC4/blue_1.c ****    Peripheral GAP role. It contains the Advertisement settings and also the 
  93:Generated_Source\PSoC4/blue_1.c ****    Advertisement and Scan response data parameters entered in the customizer.
  94:Generated_Source\PSoC4/blue_1.c ****    This variable can be used by advanced users to change Advertisement settings,
  95:Generated_Source\PSoC4/blue_1.c ****    Advertisement or Scan response data in runtime. 
  96:Generated_Source\PSoC4/blue_1.c **** */
  97:Generated_Source\PSoC4/blue_1.c **** CYBLE_GAPP_DISC_MODE_INFO_T cyBle_discoveryModeInfo =
  98:Generated_Source\PSoC4/blue_1.c **** {
  99:Generated_Source\PSoC4/blue_1.c ****     0x02u,      /* uint8 discMode */
 100:Generated_Source\PSoC4/blue_1.c ****     &cyBle_discoveryParam,
 101:Generated_Source\PSoC4/blue_1.c ****     &cyBle_discoveryData,
 102:Generated_Source\PSoC4/blue_1.c ****     &cyBle_scanRspData,
 103:Generated_Source\PSoC4/blue_1.c ****     0x0000u,    /* uint16 advTo */
 104:Generated_Source\PSoC4/blue_1.c **** };
 105:Generated_Source\PSoC4/blue_1.c **** 
 106:Generated_Source\PSoC4/blue_1.c **** 
 107:Generated_Source\PSoC4/blue_1.c **** #endif /* CYBLE_GAP_ROLE_PERIPHERAL || CYBLE_GAP_ROLE_BROADCASTER */
 108:Generated_Source\PSoC4/blue_1.c **** 
 109:Generated_Source\PSoC4/blue_1.c **** #if(CYBLE_GAP_ROLE_CENTRAL)
 110:Generated_Source\PSoC4/blue_1.c ****     
 111:Generated_Source\PSoC4/blue_1.c **** CYBLE_GAPC_CONN_PARAM_T cyBle_connectionParameters;
 112:Generated_Source\PSoC4/blue_1.c **** 
 113:Generated_Source\PSoC4/blue_1.c **** /* Connecting timeout is set to 30 seconds in CyBle_Init function. 
 114:Generated_Source\PSoC4/blue_1.c ****    Not zero value starts timer in CyBle_GapcConnectDevice() API fucntion.
 115:Generated_Source\PSoC4/blue_1.c **** */
 116:Generated_Source\PSoC4/blue_1.c **** uint16 cyBle_connectingTimeout;
 117:Generated_Source\PSoC4/blue_1.c ****     
 118:Generated_Source\PSoC4/blue_1.c **** #endif /* CYBLE_GAP_ROLE_CENTRAL */
 119:Generated_Source\PSoC4/blue_1.c **** 
 120:Generated_Source\PSoC4/blue_1.c **** #if(CYBLE_GAP_ROLE_CENTRAL || CYBLE_GAP_ROLE_OBSERVER)
 121:Generated_Source\PSoC4/blue_1.c ****     
 122:Generated_Source\PSoC4/blue_1.c **** 
 123:Generated_Source\PSoC4/blue_1.c ****     
 124:Generated_Source\PSoC4/blue_1.c **** #endif /* CYBLE_GAP_ROLE_CENTRAL || CYBLE_GAP_ROLE_OBSERVER */
 125:Generated_Source\PSoC4/blue_1.c **** 
 126:Generated_Source\PSoC4/blue_1.c **** #if((CYBLE_GAP_ROLE_PERIPHERAL || CYBLE_GAP_ROLE_CENTRAL) && (CYBLE_BONDING_REQUIREMENT == CYBLE_BO
 127:Generated_Source\PSoC4/blue_1.c **** 
 128:Generated_Source\PSoC4/blue_1.c **** uint8 cyBle_peerBonding;
 129:Generated_Source\PSoC4/blue_1.c **** uint8 cyBle_pendingFlashWrite;
 130:Generated_Source\PSoC4/blue_1.c ****     
 131:Generated_Source\PSoC4/blue_1.c **** #if(CYBLE_GATT_DB_CCCD_COUNT != 0u)
 132:Generated_Source\PSoC4/blue_1.c ****     static uint8 cyBle_pendingFlashClearCccdHandle;
 133:Generated_Source\PSoC4/blue_1.c **** #endif /* CYBLE_GATT_DB_CCCD_COUNT != 0u */
 134:Generated_Source\PSoC4/blue_1.c ****     
 135:Generated_Source\PSoC4/blue_1.c **** #endif  /* (CYBLE_BONDING_REQUIREMENT == CYBLE_BONDING_YES) */
ARM GAS  C:\Users\alexport\AppData\Local\Temp\ccf6k4ea.s 			page 6


 136:Generated_Source\PSoC4/blue_1.c **** 
 137:Generated_Source\PSoC4/blue_1.c **** CYBLE_CALLBACK_T CyBle_ApplCallback;
 138:Generated_Source\PSoC4/blue_1.c **** CYBLE_GAP_BD_ADDR_T cyBle_deviceAddress = {{0x00u, 0x00u, 0x00u, 0x50u, 0xA0u, 0x00u}, 0x00u };
 139:Generated_Source\PSoC4/blue_1.c **** CYBLE_GAP_BD_ADDR_T * cyBle_sflashDeviceAddress = CYBLE_SFLASH_DEVICE_ADDRESS_PTR;
 140:Generated_Source\PSoC4/blue_1.c **** 
 141:Generated_Source\PSoC4/blue_1.c **** 
 142:Generated_Source\PSoC4/blue_1.c **** /******************************************************************************
 143:Generated_Source\PSoC4/blue_1.c **** * Function Name: CyBle_Init
 144:Generated_Source\PSoC4/blue_1.c **** ***************************************************************************//**
 145:Generated_Source\PSoC4/blue_1.c **** *
 146:Generated_Source\PSoC4/blue_1.c **** *   Initializes the component with the parameters set in the customizer.
 147:Generated_Source\PSoC4/blue_1.c **** * 
 148:Generated_Source\PSoC4/blue_1.c **** *  \return
 149:Generated_Source\PSoC4/blue_1.c **** *   None
 150:Generated_Source\PSoC4/blue_1.c **** * 
 151:Generated_Source\PSoC4/blue_1.c **** ******************************************************************************/
 152:Generated_Source\PSoC4/blue_1.c **** void CyBle_Init(void)
 153:Generated_Source\PSoC4/blue_1.c **** {
 143              		.loc 1 153 0
 144              		.cfi_startproc
 145              		@ args = 0, pretend = 0, frame = 0
 146              		@ frame_needed = 1, uses_anonymous_args = 0
 147 0000 80B5     		push	{r7, lr}
 148              		.cfi_def_cfa_offset 8
 149              		.cfi_offset 7, -8
 150              		.cfi_offset 14, -4
 151 0002 00AF     		add	r7, sp, #0
 152              		.cfi_def_cfa_register 7
 154:Generated_Source\PSoC4/blue_1.c ****     cyBle_eventHandlerFlag = 0u;
 153              		.loc 1 154 0
 154 0004 094B     		ldr	r3, .L2
 155 0006 0022     		movs	r2, #0
 156 0008 1A70     		strb	r2, [r3]
 155:Generated_Source\PSoC4/blue_1.c ****     cyBle_busyStatus = CYBLE_STACK_STATE_FREE;
 157              		.loc 1 155 0
 158 000a 094B     		ldr	r3, .L2+4
 159 000c 0022     		movs	r2, #0
 160 000e 1A70     		strb	r2, [r3]
 156:Generated_Source\PSoC4/blue_1.c **** 
 157:Generated_Source\PSoC4/blue_1.c ****     #if(CYBLE_GAP_ROLE_PERIPHERAL || CYBLE_GAP_ROLE_BROADCASTER) 
 158:Generated_Source\PSoC4/blue_1.c ****         cyBle_advertisingIntervalType = CYBLE_ADVERTISING_FAST; 
 161              		.loc 1 158 0
 162 0010 084B     		ldr	r3, .L2+8
 163 0012 0022     		movs	r2, #0
 164 0014 1A70     		strb	r2, [r3]
 159:Generated_Source\PSoC4/blue_1.c ****     #endif /* (CYBLE_GAP_ROLE_PERIPHERAL || CYBLE_GAP_ROLE_BROADCASTER)  */
 160:Generated_Source\PSoC4/blue_1.c ****     #if(CYBLE_GAP_ROLE_CENTRAL || CYBLE_GAP_ROLE_OBSERVER)
 161:Generated_Source\PSoC4/blue_1.c ****         cyBle_scanningIntervalType = CYBLE_SCANNING_FAST; 
 162:Generated_Source\PSoC4/blue_1.c ****     #endif /* (CYBLE_GAP_ROLE_CENTRAL || CYBLE_GAP_ROLE_OBSERVER) */
 163:Generated_Source\PSoC4/blue_1.c ****         
 164:Generated_Source\PSoC4/blue_1.c ****     /* Init default connection parameters. 
 165:Generated_Source\PSoC4/blue_1.c ****        Application may change it before initiating a connection */
 166:Generated_Source\PSoC4/blue_1.c ****     #if(CYBLE_GAP_ROLE_CENTRAL)
 167:Generated_Source\PSoC4/blue_1.c ****         cyBle_connectionParameters.scanIntv = cyBle_discoveryInfo.scanIntv;
 168:Generated_Source\PSoC4/blue_1.c ****         cyBle_connectionParameters.scanWindow = cyBle_discoveryInfo.scanWindow;
 169:Generated_Source\PSoC4/blue_1.c ****         cyBle_connectionParameters.ownAddrType = cyBle_discoveryInfo.ownAddrType;
 170:Generated_Source\PSoC4/blue_1.c ****         cyBle_connectionParameters.initiatorFilterPolicy = cyBle_discoveryInfo.scanFilterPolicy;
ARM GAS  C:\Users\alexport\AppData\Local\Temp\ccf6k4ea.s 			page 7


 171:Generated_Source\PSoC4/blue_1.c ****         cyBle_connectionParameters.connIntvMin = CYBLE_GAPC_CONNECTION_INTERVAL_MIN;
 172:Generated_Source\PSoC4/blue_1.c ****         cyBle_connectionParameters.connIntvMax = CYBLE_GAPC_CONNECTION_INTERVAL_MAX;
 173:Generated_Source\PSoC4/blue_1.c ****         cyBle_connectionParameters.connLatency = CYBLE_GAPC_CONNECTION_SLAVE_LATENCY;
 174:Generated_Source\PSoC4/blue_1.c ****         cyBle_connectionParameters.supervisionTO = CYBLE_GAPC_CONNECTION_TIME_OUT;
 175:Generated_Source\PSoC4/blue_1.c ****         cyBle_connectionParameters.minCeLength = 0x0000u;
 176:Generated_Source\PSoC4/blue_1.c ****         cyBle_connectionParameters.maxCeLength = 0xFFFFu;
 177:Generated_Source\PSoC4/blue_1.c ****         
 178:Generated_Source\PSoC4/blue_1.c ****         cyBle_connectingTimeout = CYBLE_GAPC_CONNECTING_TIMEOUT;
 179:Generated_Source\PSoC4/blue_1.c ****     #endif /* CYBLE_GAP_ROLE_CENTRAL */
 180:Generated_Source\PSoC4/blue_1.c **** 
 181:Generated_Source\PSoC4/blue_1.c ****     CyBle_ServiceInit();
 165              		.loc 1 181 0
 166 0016 FFF7FEFF 		bl	CyBle_ServiceInit
 182:Generated_Source\PSoC4/blue_1.c **** 
 183:Generated_Source\PSoC4/blue_1.c ****     #if((CYBLE_GAP_ROLE_PERIPHERAL || CYBLE_GAP_ROLE_CENTRAL) && (CYBLE_BONDING_REQUIREMENT == CYBL
 184:Generated_Source\PSoC4/blue_1.c ****         cyBle_pendingFlashWrite = 0u;
 167              		.loc 1 184 0
 168 001a 074B     		ldr	r3, .L2+12
 169 001c 0022     		movs	r2, #0
 170 001e 1A70     		strb	r2, [r3]
 185:Generated_Source\PSoC4/blue_1.c ****         cyBle_peerBonding = CYBLE_GAP_BONDING_NONE;
 171              		.loc 1 185 0
 172 0020 064B     		ldr	r3, .L2+16
 173 0022 0022     		movs	r2, #0
 174 0024 1A70     		strb	r2, [r3]
 186:Generated_Source\PSoC4/blue_1.c ****     #endif  /* (CYBLE_BONDING_REQUIREMENT == CYBLE_BONDING_YES) */
 187:Generated_Source\PSoC4/blue_1.c **** 
 188:Generated_Source\PSoC4/blue_1.c **** }
 175              		.loc 1 188 0
 176 0026 C046     		nop
 177 0028 BD46     		mov	sp, r7
 178              		@ sp needed
 179 002a 80BD     		pop	{r7, pc}
 180              	.L3:
 181              		.align	2
 182              	.L2:
 183 002c 00000000 		.word	cyBle_eventHandlerFlag
 184 0030 00000000 		.word	cyBle_busyStatus
 185 0034 00000000 		.word	cyBle_advertisingIntervalType
 186 0038 00000000 		.word	cyBle_pendingFlashWrite
 187 003c 00000000 		.word	cyBle_peerBonding
 188              		.cfi_endproc
 189              	.LFE2:
 190              		.size	CyBle_Init, .-CyBle_Init
 191              		.section	.text.CyBle_ServiceInit,"ax",%progbits
 192              		.align	2
 193              		.global	CyBle_ServiceInit
 194              		.code	16
 195              		.thumb_func
 196              		.type	CyBle_ServiceInit, %function
 197              	CyBle_ServiceInit:
 198              	.LFB3:
 189:Generated_Source\PSoC4/blue_1.c **** 
 190:Generated_Source\PSoC4/blue_1.c **** 
 191:Generated_Source\PSoC4/blue_1.c **** /******************************************************************************
 192:Generated_Source\PSoC4/blue_1.c **** * Function Name: CyBle_ServiceInit
 193:Generated_Source\PSoC4/blue_1.c **** ***************************************************************************//**
ARM GAS  C:\Users\alexport\AppData\Local\Temp\ccf6k4ea.s 			page 8


 194:Generated_Source\PSoC4/blue_1.c **** * 
 195:Generated_Source\PSoC4/blue_1.c **** *  Initializes all included services.
 196:Generated_Source\PSoC4/blue_1.c **** * 
 197:Generated_Source\PSoC4/blue_1.c **** * \return
 198:Generated_Source\PSoC4/blue_1.c **** *  None
 199:Generated_Source\PSoC4/blue_1.c **** * 
 200:Generated_Source\PSoC4/blue_1.c **** ******************************************************************************/
 201:Generated_Source\PSoC4/blue_1.c **** void CyBle_ServiceInit(void)
 202:Generated_Source\PSoC4/blue_1.c **** {
 199              		.loc 1 202 0
 200              		.cfi_startproc
 201              		@ args = 0, pretend = 0, frame = 0
 202              		@ frame_needed = 1, uses_anonymous_args = 0
 203 0000 80B5     		push	{r7, lr}
 204              		.cfi_def_cfa_offset 8
 205              		.cfi_offset 7, -8
 206              		.cfi_offset 14, -4
 207 0002 00AF     		add	r7, sp, #0
 208              		.cfi_def_cfa_register 7
 203:Generated_Source\PSoC4/blue_1.c ****     #if(CYBLE_GATT_ROLE_CLIENT)
 204:Generated_Source\PSoC4/blue_1.c ****         /* Check service range before clearing to support partial discovery */
 205:Generated_Source\PSoC4/blue_1.c ****         if(cyBle_serverInfo[CYBLE_SRVI_GAP].range.startHandle == CYBLE_GATT_INVALID_ATTR_HANDLE_VAL
 206:Generated_Source\PSoC4/blue_1.c ****         {
 207:Generated_Source\PSoC4/blue_1.c ****             (void)memset(&cyBle_gapc, 0, sizeof(cyBle_gapc));
 208:Generated_Source\PSoC4/blue_1.c ****         }
 209:Generated_Source\PSoC4/blue_1.c ****         if(cyBle_serverInfo[CYBLE_SRVI_GATT].range.startHandle == CYBLE_GATT_INVALID_ATTR_HANDLE_VA
 210:Generated_Source\PSoC4/blue_1.c ****         {
 211:Generated_Source\PSoC4/blue_1.c ****             (void)memset(&cyBle_gattc, 0, sizeof(cyBle_gattc));
 212:Generated_Source\PSoC4/blue_1.c ****         }
 213:Generated_Source\PSoC4/blue_1.c ****     #endif /* CYBLE_GATT_ROLE_CLIENT */
 214:Generated_Source\PSoC4/blue_1.c **** 
 215:Generated_Source\PSoC4/blue_1.c ****    	#ifdef CYBLE_AIOS
 216:Generated_Source\PSoC4/blue_1.c ****         CyBle_AiosInit();
 217:Generated_Source\PSoC4/blue_1.c ****     #endif /* CYBLE_AIOS */
 218:Generated_Source\PSoC4/blue_1.c **** 
 219:Generated_Source\PSoC4/blue_1.c **** 	#ifdef CYBLE_ANCS
 220:Generated_Source\PSoC4/blue_1.c ****         CyBle_AncsInit();
 221:Generated_Source\PSoC4/blue_1.c ****     #endif /* CYBLE_ANCS */
 222:Generated_Source\PSoC4/blue_1.c **** 	
 223:Generated_Source\PSoC4/blue_1.c ****     #ifdef CYBLE_ANS
 224:Generated_Source\PSoC4/blue_1.c ****         CyBle_AnsInit();
 225:Generated_Source\PSoC4/blue_1.c ****     #endif /* CYBLE_ANS */
 226:Generated_Source\PSoC4/blue_1.c ****     
 227:Generated_Source\PSoC4/blue_1.c ****     #ifdef CYBLE_BAS
 228:Generated_Source\PSoC4/blue_1.c ****         CyBle_BasInit();
 229:Generated_Source\PSoC4/blue_1.c ****     #endif /* CYBLE_BAS */
 230:Generated_Source\PSoC4/blue_1.c ****     
 231:Generated_Source\PSoC4/blue_1.c ****     #ifdef CYBLE_BCS
 232:Generated_Source\PSoC4/blue_1.c ****         CyBle_BcsInit();
 233:Generated_Source\PSoC4/blue_1.c ****     #endif /* CYBLE_BCS */
 234:Generated_Source\PSoC4/blue_1.c **** 
 235:Generated_Source\PSoC4/blue_1.c ****     #ifdef CYBLE_BLS
 236:Generated_Source\PSoC4/blue_1.c ****         CyBle_BlsInit();
 237:Generated_Source\PSoC4/blue_1.c ****     #endif /* CYBLE_BLS */
 238:Generated_Source\PSoC4/blue_1.c ****     
 239:Generated_Source\PSoC4/blue_1.c ****     #ifdef CYBLE_BMS
 240:Generated_Source\PSoC4/blue_1.c ****         CyBle_BmsInit();
ARM GAS  C:\Users\alexport\AppData\Local\Temp\ccf6k4ea.s 			page 9


 241:Generated_Source\PSoC4/blue_1.c ****     #endif /* CYBLE_BMS */
 242:Generated_Source\PSoC4/blue_1.c ****     
 243:Generated_Source\PSoC4/blue_1.c ****     #ifdef CYBLE_CGMS
 244:Generated_Source\PSoC4/blue_1.c ****         CyBle_CgmsInit();
 245:Generated_Source\PSoC4/blue_1.c ****     #endif /* CYBLE_CGMS */
 246:Generated_Source\PSoC4/blue_1.c **** 
 247:Generated_Source\PSoC4/blue_1.c ****     #ifdef CYBLE_CPS
 248:Generated_Source\PSoC4/blue_1.c ****         CyBle_CpsInit();
 249:Generated_Source\PSoC4/blue_1.c ****     #endif /* CYBLE_CPS */
 250:Generated_Source\PSoC4/blue_1.c **** 
 251:Generated_Source\PSoC4/blue_1.c ****     #ifdef CYBLE_CSCS
 252:Generated_Source\PSoC4/blue_1.c ****         CyBle_CscsInit();
 253:Generated_Source\PSoC4/blue_1.c ****     #endif /* CYBLE_CSCS */
 254:Generated_Source\PSoC4/blue_1.c ****     
 255:Generated_Source\PSoC4/blue_1.c ****     #ifdef CYBLE_CTS
 256:Generated_Source\PSoC4/blue_1.c ****         CyBle_CtsInit();
 257:Generated_Source\PSoC4/blue_1.c ****     #endif /* CYBLE_CTS */
 258:Generated_Source\PSoC4/blue_1.c **** 
 259:Generated_Source\PSoC4/blue_1.c ****     #ifdef CYBLE_CUSTOM
 260:Generated_Source\PSoC4/blue_1.c ****         CyBle_CustomInit();
 209              		.loc 1 260 0
 210 0004 FFF7FEFF 		bl	CyBle_CustomInit
 261:Generated_Source\PSoC4/blue_1.c ****     #endif /* CYBLE_CUSTOM */
 262:Generated_Source\PSoC4/blue_1.c **** 
 263:Generated_Source\PSoC4/blue_1.c ****     #ifdef CYBLE_DIS
 264:Generated_Source\PSoC4/blue_1.c ****         CyBle_DisInit();
 211              		.loc 1 264 0
 212 0008 FFF7FEFF 		bl	CyBle_DisInit
 265:Generated_Source\PSoC4/blue_1.c ****     #endif /* CYBLE_DIS */
 266:Generated_Source\PSoC4/blue_1.c **** 
 267:Generated_Source\PSoC4/blue_1.c ****     #ifdef CYBLE_ESS
 268:Generated_Source\PSoC4/blue_1.c ****         CyBle_EssInit();
 269:Generated_Source\PSoC4/blue_1.c ****     #endif /* CYBLE_ESS */
 270:Generated_Source\PSoC4/blue_1.c ****     
 271:Generated_Source\PSoC4/blue_1.c ****     #ifdef CYBLE_GLS
 272:Generated_Source\PSoC4/blue_1.c ****         CyBle_GlsInit();
 273:Generated_Source\PSoC4/blue_1.c ****     #endif /* CYBLE_GLS */
 274:Generated_Source\PSoC4/blue_1.c ****     
 275:Generated_Source\PSoC4/blue_1.c ****     #ifdef CYBLE_HIDS
 276:Generated_Source\PSoC4/blue_1.c ****         CyBle_HidsInit();
 277:Generated_Source\PSoC4/blue_1.c ****     #endif /* CYBLE_HIDS */
 278:Generated_Source\PSoC4/blue_1.c **** 
 279:Generated_Source\PSoC4/blue_1.c ****     #ifdef CYBLE_HPS
 280:Generated_Source\PSoC4/blue_1.c ****         CyBle_HpsInit();
 281:Generated_Source\PSoC4/blue_1.c ****     #endif /* CYBLE_HPS */
 282:Generated_Source\PSoC4/blue_1.c **** 
 283:Generated_Source\PSoC4/blue_1.c ****     #ifdef CYBLE_HRS
 284:Generated_Source\PSoC4/blue_1.c ****         CyBle_HrsInit();
 285:Generated_Source\PSoC4/blue_1.c ****     #endif /* CYBLE_HRS */
 286:Generated_Source\PSoC4/blue_1.c ****     
 287:Generated_Source\PSoC4/blue_1.c ****     #ifdef CYBLE_HTS
 288:Generated_Source\PSoC4/blue_1.c ****         CyBle_HtsInit();
 289:Generated_Source\PSoC4/blue_1.c ****     #endif /* CYBLE_RSCS */
 290:Generated_Source\PSoC4/blue_1.c **** 
 291:Generated_Source\PSoC4/blue_1.c ****     #ifdef CYBLE_IAS
 292:Generated_Source\PSoC4/blue_1.c ****         CyBle_IasInit();
 293:Generated_Source\PSoC4/blue_1.c ****     #endif /* CYBLE_IAS */
ARM GAS  C:\Users\alexport\AppData\Local\Temp\ccf6k4ea.s 			page 10


 294:Generated_Source\PSoC4/blue_1.c **** 
 295:Generated_Source\PSoC4/blue_1.c ****     #ifdef CYBLE_IPS
 296:Generated_Source\PSoC4/blue_1.c ****         CyBle_IpsInit();
 297:Generated_Source\PSoC4/blue_1.c ****     #endif /* CYBLE_IPS */
 298:Generated_Source\PSoC4/blue_1.c ****     
 299:Generated_Source\PSoC4/blue_1.c ****     #ifdef CYBLE_LLS
 300:Generated_Source\PSoC4/blue_1.c ****         CyBle_LlsInit();
 301:Generated_Source\PSoC4/blue_1.c ****     #endif /* CYBLE_LLS */
 302:Generated_Source\PSoC4/blue_1.c **** 
 303:Generated_Source\PSoC4/blue_1.c ****     #ifdef CYBLE_LNS
 304:Generated_Source\PSoC4/blue_1.c ****         CyBle_LnsInit();
 305:Generated_Source\PSoC4/blue_1.c ****     #endif /* CYBLE_LNS */
 306:Generated_Source\PSoC4/blue_1.c ****     
 307:Generated_Source\PSoC4/blue_1.c ****     #ifdef CYBLE_NDCS
 308:Generated_Source\PSoC4/blue_1.c ****         CyBle_NdcsInit();
 309:Generated_Source\PSoC4/blue_1.c ****     #endif /* CYBLE_NDCS */
 310:Generated_Source\PSoC4/blue_1.c ****     
 311:Generated_Source\PSoC4/blue_1.c ****     #ifdef CYBLE_PASS
 312:Generated_Source\PSoC4/blue_1.c ****         CyBle_PassInit();
 313:Generated_Source\PSoC4/blue_1.c ****     #endif /* CYBLE_PASS */
 314:Generated_Source\PSoC4/blue_1.c ****     
 315:Generated_Source\PSoC4/blue_1.c ****     #ifdef CYBLE_PLXS
 316:Generated_Source\PSoC4/blue_1.c ****         CyBle_PlxsInit();
 317:Generated_Source\PSoC4/blue_1.c ****     #endif /* CYBLE_PLXS */
 318:Generated_Source\PSoC4/blue_1.c ****     
 319:Generated_Source\PSoC4/blue_1.c ****     #ifdef CYBLE_RSCS
 320:Generated_Source\PSoC4/blue_1.c ****         CyBle_RscsInit();
 321:Generated_Source\PSoC4/blue_1.c ****     #endif /* CYBLE_RSCS */
 322:Generated_Source\PSoC4/blue_1.c **** 
 323:Generated_Source\PSoC4/blue_1.c ****     #ifdef CYBLE_RTUS
 324:Generated_Source\PSoC4/blue_1.c ****         CyBle_RtusInit();
 325:Generated_Source\PSoC4/blue_1.c ****     #endif /* CYBLE_RTUS */
 326:Generated_Source\PSoC4/blue_1.c **** 
 327:Generated_Source\PSoC4/blue_1.c ****     #ifdef CYBLE_SCPS
 328:Generated_Source\PSoC4/blue_1.c ****         CyBle_ScpsInit();
 329:Generated_Source\PSoC4/blue_1.c ****     #endif /* CYBLE_SCPS */
 330:Generated_Source\PSoC4/blue_1.c ****     
 331:Generated_Source\PSoC4/blue_1.c ****     #ifdef CYBLE_TPS
 332:Generated_Source\PSoC4/blue_1.c ****         CyBle_TpsInit();
 333:Generated_Source\PSoC4/blue_1.c ****     #endif /* CYBLE_TPS */
 334:Generated_Source\PSoC4/blue_1.c ****     
 335:Generated_Source\PSoC4/blue_1.c ****     #ifdef CYBLE_UDS
 336:Generated_Source\PSoC4/blue_1.c ****         CyBle_UdsInit();
 337:Generated_Source\PSoC4/blue_1.c ****     #endif /* CYBLE_UDS */
 338:Generated_Source\PSoC4/blue_1.c **** 
 339:Generated_Source\PSoC4/blue_1.c ****     #ifdef CYBLE_WPTS
 340:Generated_Source\PSoC4/blue_1.c ****         CyBle_WptsInit();
 341:Generated_Source\PSoC4/blue_1.c ****     #endif /* CYBLE_WPTS */
 342:Generated_Source\PSoC4/blue_1.c **** 
 343:Generated_Source\PSoC4/blue_1.c ****     #ifdef CYBLE_WSS
 344:Generated_Source\PSoC4/blue_1.c ****         CyBle_WssInit();
 345:Generated_Source\PSoC4/blue_1.c ****     #endif /* CYBLE_WSS */
 346:Generated_Source\PSoC4/blue_1.c **** }
 213              		.loc 1 346 0
 214 000c C046     		nop
 215 000e BD46     		mov	sp, r7
 216              		@ sp needed
ARM GAS  C:\Users\alexport\AppData\Local\Temp\ccf6k4ea.s 			page 11


 217 0010 80BD     		pop	{r7, pc}
 218              		.cfi_endproc
 219              	.LFE3:
 220              		.size	CyBle_ServiceInit, .-CyBle_ServiceInit
 221 0012 C046     		.section	.rodata
 222              		.align	2
 223              	.LC0:
 224 0000 2400     		.short	36
 225 0002 03       		.byte	3
 226 0003 00       		.space	1
 227 0004 3000     		.short	48
 228 0006 01       		.byte	1
 229 0007 00       		.space	1
 230 0008 2800     		.short	40
 231 000a 02       		.byte	2
 232 000b 00       		.space	1
 233 000c 2400     		.short	36
 234 000e 01       		.byte	1
 235 000f 00       		.space	1
 236 0010 2400     		.short	36
 237 0012 01       		.byte	1
 238 0013 00       		.space	1
 239              		.section	.text.CyBle_Start,"ax",%progbits
 240              		.align	2
 241              		.global	CyBle_Start
 242              		.code	16
 243              		.thumb_func
 244              		.type	CyBle_Start, %function
 245              	CyBle_Start:
 246              	.LFB4:
 347:Generated_Source\PSoC4/blue_1.c **** 
 348:Generated_Source\PSoC4/blue_1.c **** 
 349:Generated_Source\PSoC4/blue_1.c **** /******************************************************************************
 350:Generated_Source\PSoC4/blue_1.c **** * Function Name: CyBle_Start
 351:Generated_Source\PSoC4/blue_1.c **** ***************************************************************************//**
 352:Generated_Source\PSoC4/blue_1.c **** * 
 353:Generated_Source\PSoC4/blue_1.c **** *  This function initializes the BLE Stack, which consists of the BLE Stack 
 354:Generated_Source\PSoC4/blue_1.c **** *  Manager, BLE Controller, and BLE Host modules. It takes care of initializing
 355:Generated_Source\PSoC4/blue_1.c **** *  the Profile layer, schedulers, Timer and other platform related
 356:Generated_Source\PSoC4/blue_1.c **** *  resources required for the BLE component. It also registers the callback 
 357:Generated_Source\PSoC4/blue_1.c **** *  function for BLE events that will be registered in the BLE stack.
 358:Generated_Source\PSoC4/blue_1.c **** * 
 359:Generated_Source\PSoC4/blue_1.c **** *  Note that this function does not reset the BLE Stack.
 360:Generated_Source\PSoC4/blue_1.c **** * 
 361:Generated_Source\PSoC4/blue_1.c **** *  For HCI-Mode of operation, this function will not initialize the BLE Host 
 362:Generated_Source\PSoC4/blue_1.c **** *  module.
 363:Generated_Source\PSoC4/blue_1.c **** * 
 364:Generated_Source\PSoC4/blue_1.c **** *  Calling this function results in the generation of CYBLE_EVT_STACK_ON event
 365:Generated_Source\PSoC4/blue_1.c **** *  on successful initialization of the BLE Stack.
 366:Generated_Source\PSoC4/blue_1.c **** * 
 367:Generated_Source\PSoC4/blue_1.c **** *  \param callbackFunc: Event callback function to receive events from BLE stack.
 368:Generated_Source\PSoC4/blue_1.c **** *   CYBLE_CALLBACK_T is a function pointer type.
 369:Generated_Source\PSoC4/blue_1.c **** * 
 370:Generated_Source\PSoC4/blue_1.c **** * \return
 371:Generated_Source\PSoC4/blue_1.c **** *  CYBLE_API_RESULT_T : Return value indicates if the function succeeded or 
 372:Generated_Source\PSoC4/blue_1.c **** *  failed. Following are the possible error codes.
 373:Generated_Source\PSoC4/blue_1.c **** * 
ARM GAS  C:\Users\alexport\AppData\Local\Temp\ccf6k4ea.s 			page 12


 374:Generated_Source\PSoC4/blue_1.c **** *   <table>
 375:Generated_Source\PSoC4/blue_1.c **** *  	  <tr>
 376:Generated_Source\PSoC4/blue_1.c **** *       <th>Error codes</th>
 377:Generated_Source\PSoC4/blue_1.c **** *       <th>Description</th>
 378:Generated_Source\PSoC4/blue_1.c **** *     </tr>
 379:Generated_Source\PSoC4/blue_1.c **** *     <tr>
 380:Generated_Source\PSoC4/blue_1.c **** *       <td>CYBLE_ERROR_OK</td>
 381:Generated_Source\PSoC4/blue_1.c **** *       <td>On successful operation.</td>
 382:Generated_Source\PSoC4/blue_1.c **** *     </tr>
 383:Generated_Source\PSoC4/blue_1.c **** *     <tr>
 384:Generated_Source\PSoC4/blue_1.c **** *       <td>CYBLE_ERROR_INVALID_PARAMETER</td>
 385:Generated_Source\PSoC4/blue_1.c **** *       <td>On passing a NULL pointer to the function. 
 386:Generated_Source\PSoC4/blue_1.c **** *		</td>
 387:Generated_Source\PSoC4/blue_1.c **** *     </tr>
 388:Generated_Source\PSoC4/blue_1.c **** *     <tr>
 389:Generated_Source\PSoC4/blue_1.c **** *       <td>CYBLE_ERROR_REPEATED_ATTEMPTS</td>
 390:Generated_Source\PSoC4/blue_1.c **** *       <td>On invoking this function more than once without calling CyBle_Shutdown() 
 391:Generated_Source\PSoC4/blue_1.c **** *           function between calls to this function.</td>
 392:Generated_Source\PSoC4/blue_1.c **** *     </tr>
 393:Generated_Source\PSoC4/blue_1.c **** *     <tr>
 394:Generated_Source\PSoC4/blue_1.c **** *       <td>CYBLE_ERROR_MEMORY_ALLOCATION_FAILED</td>
 395:Generated_Source\PSoC4/blue_1.c **** *       <td>There is insufficient memory available.</td>
 396:Generated_Source\PSoC4/blue_1.c **** *     </tr>
 397:Generated_Source\PSoC4/blue_1.c **** *   </table>
 398:Generated_Source\PSoC4/blue_1.c **** * 
 399:Generated_Source\PSoC4/blue_1.c **** *  \globalvars
 400:Generated_Source\PSoC4/blue_1.c **** *   The CyBle_initVar variable is used to indicate initial
 401:Generated_Source\PSoC4/blue_1.c **** *   configuration of this component. The variable is initialized to zero (0u)
 402:Generated_Source\PSoC4/blue_1.c **** *   and set to one (1u) the first time CyBle_Start() is called. This
 403:Generated_Source\PSoC4/blue_1.c **** *   allows for component initialization without re-initialization in all
 404:Generated_Source\PSoC4/blue_1.c **** *   subsequent calls to the CyBle_Start() routine.
 405:Generated_Source\PSoC4/blue_1.c **** * 
 406:Generated_Source\PSoC4/blue_1.c **** ******************************************************************************/
 407:Generated_Source\PSoC4/blue_1.c **** CYBLE_API_RESULT_T CyBle_Start(CYBLE_CALLBACK_T callbackFunc)
 408:Generated_Source\PSoC4/blue_1.c **** {
 247              		.loc 1 408 0
 248              		.cfi_startproc
 249              		@ args = 0, pretend = 0, frame = 64
 250              		@ frame_needed = 1, uses_anonymous_args = 0
 251 0000 B0B5     		push	{r4, r5, r7, lr}
 252              		.cfi_def_cfa_offset 16
 253              		.cfi_offset 4, -16
 254              		.cfi_offset 5, -12
 255              		.cfi_offset 7, -8
 256              		.cfi_offset 14, -4
 257 0002 94B0     		sub	sp, sp, #80
 258              		.cfi_def_cfa_offset 96
 259 0004 04AF     		add	r7, sp, #16
 260              		.cfi_def_cfa 7, 80
 261 0006 7860     		str	r0, [r7, #4]
 409:Generated_Source\PSoC4/blue_1.c ****     CYBLE_API_RESULT_T apiResult = CYBLE_ERROR_OK;
 262              		.loc 1 409 0
 263 0008 3E23     		movs	r3, #62
 264 000a FB18     		adds	r3, r7, r3
 265 000c 0022     		movs	r2, #0
 266 000e 1A80     		strh	r2, [r3]
 410:Generated_Source\PSoC4/blue_1.c ****     
ARM GAS  C:\Users\alexport\AppData\Local\Temp\ccf6k4ea.s 			page 13


 411:Generated_Source\PSoC4/blue_1.c ****     #if(CYBLE_MODE_PROFILE)
 412:Generated_Source\PSoC4/blue_1.c ****     
 413:Generated_Source\PSoC4/blue_1.c ****     CYBLE_STK_APP_DATA_BUFF_T cyBle_stackDataBuff[CYBLE_STACK_APP_MIN_POOL] = 
 267              		.loc 1 413 0
 268 0010 2823     		movs	r3, #40
 269 0012 FA18     		adds	r2, r7, r3
 270 0014 3D4B     		ldr	r3, .L12
 271 0016 1000     		movs	r0, r2
 272 0018 1900     		movs	r1, r3
 273 001a 1423     		movs	r3, #20
 274 001c 1A00     		movs	r2, r3
 275 001e FFF7FEFF 		bl	memcpy
 414:Generated_Source\PSoC4/blue_1.c ****     {
 415:Generated_Source\PSoC4/blue_1.c ****         {CYBLE_GATT_MTU_PLUS_L2CAP_MEM_EXT, CYBLE_GATT_MTU_BUFF_COUNT + CYBLE_GATT_MAX_ATTR_BUFF_CO
 416:Generated_Source\PSoC4/blue_1.c ****         {CYBLE_L2CAP_PSM_PLUS_L2CAP_MEM_EXT, CYBLE_L2CAP_PSM_COUNT},
 417:Generated_Source\PSoC4/blue_1.c ****         {CYBLE_L2CAP_CBFC_PLUS_L2CAP_MEM_EXT, 2u * CYBLE_L2CAP_LOGICAL_CHANNEL_COUNT},
 418:Generated_Source\PSoC4/blue_1.c ****         {CYBLE_L2CAP_MTU_PLUS_L2CAP_MEM_EXT, CYBLE_L2CAP_LOGICAL_CHANNEL_COUNT},
 419:Generated_Source\PSoC4/blue_1.c ****         {CYBLE_L2CAP_MPS_PLUS_L2CAP_MEM_EXT, CYBLE_L2CAP_LOGICAL_CHANNEL_COUNT * (CYBLE_L2CAP_MTU_M
 420:Generated_Source\PSoC4/blue_1.c ****     }; 
 421:Generated_Source\PSoC4/blue_1.c **** 
 422:Generated_Source\PSoC4/blue_1.c ****     #endif /* CYBLE_MODE_PROFILE */
 423:Generated_Source\PSoC4/blue_1.c ****     
 424:Generated_Source\PSoC4/blue_1.c ****     /* If not initialized then initialize all the required hardware and software */
 425:Generated_Source\PSoC4/blue_1.c ****     if(cyBle_initVar == 0u)
 276              		.loc 1 425 0
 277 0022 3B4B     		ldr	r3, .L12+4
 278 0024 1B78     		ldrb	r3, [r3]
 279 0026 002B     		cmp	r3, #0
 280 0028 04D1     		bne	.L6
 426:Generated_Source\PSoC4/blue_1.c ****     {
 427:Generated_Source\PSoC4/blue_1.c ****         CyBle_Init();
 281              		.loc 1 427 0
 282 002a FFF7FEFF 		bl	CyBle_Init
 428:Generated_Source\PSoC4/blue_1.c ****         cyBle_initVar = 1u;
 283              		.loc 1 428 0
 284 002e 384B     		ldr	r3, .L12+4
 285 0030 0122     		movs	r2, #1
 286 0032 1A70     		strb	r2, [r3]
 287              	.L6:
 429:Generated_Source\PSoC4/blue_1.c ****     }
 430:Generated_Source\PSoC4/blue_1.c ****     
 431:Generated_Source\PSoC4/blue_1.c ****     if(callbackFunc != NULL)
 288              		.loc 1 431 0
 289 0034 7B68     		ldr	r3, [r7, #4]
 290 0036 002B     		cmp	r3, #0
 291 0038 5CD0     		beq	.L7
 432:Generated_Source\PSoC4/blue_1.c ****     {
 433:Generated_Source\PSoC4/blue_1.c ****         CyBle_ApplCallback = callbackFunc;
 292              		.loc 1 433 0
 293 003a 364B     		ldr	r3, .L12+8
 294 003c 7A68     		ldr	r2, [r7, #4]
 295 003e 1A60     		str	r2, [r3]
 434:Generated_Source\PSoC4/blue_1.c ****         
 435:Generated_Source\PSoC4/blue_1.c ****     #if(CYBLE_SHARING_MODE_EXPORT)
 436:Generated_Source\PSoC4/blue_1.c ****         if(cyBle_stackMemoryRam == NULL)
 437:Generated_Source\PSoC4/blue_1.c ****         {
 438:Generated_Source\PSoC4/blue_1.c ****             cyBle_stackMemoryRam = (uint8 *)malloc(CYBLE_STACK_RAM_SIZE);
ARM GAS  C:\Users\alexport\AppData\Local\Temp\ccf6k4ea.s 			page 14


 439:Generated_Source\PSoC4/blue_1.c ****             if(cyBle_stackMemoryRam == NULL)
 440:Generated_Source\PSoC4/blue_1.c ****             {
 441:Generated_Source\PSoC4/blue_1.c ****                 apiResult = CYBLE_ERROR_MEMORY_ALLOCATION_FAILED;
 442:Generated_Source\PSoC4/blue_1.c ****             }
 443:Generated_Source\PSoC4/blue_1.c ****         }
 444:Generated_Source\PSoC4/blue_1.c ****     #endif /* CYBLE_SHARING_MODE_EXPORT */
 445:Generated_Source\PSoC4/blue_1.c ****         if(apiResult == CYBLE_ERROR_OK)
 296              		.loc 1 445 0
 297 0040 3E23     		movs	r3, #62
 298 0042 FB18     		adds	r3, r7, r3
 299 0044 1B88     		ldrh	r3, [r3]
 300 0046 002B     		cmp	r3, #0
 301 0048 29D1     		bne	.L8
 302              	.LBB2:
 446:Generated_Source\PSoC4/blue_1.c ****         {
 447:Generated_Source\PSoC4/blue_1.c ****             CYBLE_DLE_CONFIG_PARAM_T dleConfigParams;
 448:Generated_Source\PSoC4/blue_1.c ****             CYBLE_PRIVACY_1_2_CONFIG_PARAM_T privacyConfigParams;
 449:Generated_Source\PSoC4/blue_1.c ****             CYBLE_STACK_CONFIG_PARAM_T stackConfig;
 450:Generated_Source\PSoC4/blue_1.c ****             uint16 featureHeapReq;
 451:Generated_Source\PSoC4/blue_1.c ****             
 452:Generated_Source\PSoC4/blue_1.c ****             stackConfig.privacyConfig = &privacyConfigParams;
 303              		.loc 1 452 0
 304 004a 1023     		movs	r3, #16
 305 004c FB18     		adds	r3, r7, r3
 306 004e 1C22     		movs	r2, #28
 307 0050 BA18     		adds	r2, r7, r2
 308 0052 5A60     		str	r2, [r3, #4]
 453:Generated_Source\PSoC4/blue_1.c ****             stackConfig.dleConfig = &dleConfigParams;
 309              		.loc 1 453 0
 310 0054 1023     		movs	r3, #16
 311 0056 FB18     		adds	r3, r7, r3
 312 0058 2022     		movs	r2, #32
 313 005a BA18     		adds	r2, r7, r2
 314 005c 1A60     		str	r2, [r3]
 454:Generated_Source\PSoC4/blue_1.c ****             
 455:Generated_Source\PSoC4/blue_1.c ****             /* Configure default BLE 4.1 features and enabled 4.2 features */
 456:Generated_Source\PSoC4/blue_1.c ****             stackConfig.feature_mask = CYBLE_DLE_FEATURE | CYBLE_LL_PRIVACY_FEATURE | 
 315              		.loc 1 456 0
 316 005e 1023     		movs	r3, #16
 317 0060 FB18     		adds	r3, r7, r3
 318 0062 0022     		movs	r2, #0
 319 0064 1A81     		strh	r2, [r3, #8]
 457:Generated_Source\PSoC4/blue_1.c ****                                        CYBLE_SECURE_CONN_FEATURE;
 458:Generated_Source\PSoC4/blue_1.c **** 
 459:Generated_Source\PSoC4/blue_1.c ****             /* Configure DLE */
 460:Generated_Source\PSoC4/blue_1.c ****             dleConfigParams.dleMaxTxCapability = CYBLE_LL_MAX_TX_PAYLOAD_SIZE;
 320              		.loc 1 460 0
 321 0066 2023     		movs	r3, #32
 322 0068 FB18     		adds	r3, r7, r3
 323 006a 1B22     		movs	r2, #27
 324 006c 1A80     		strh	r2, [r3]
 461:Generated_Source\PSoC4/blue_1.c ****             dleConfigParams.dleMaxRxCapability = CYBLE_LL_MAX_RX_PAYLOAD_SIZE;
 325              		.loc 1 461 0
 326 006e 2023     		movs	r3, #32
 327 0070 FB18     		adds	r3, r7, r3
 328 0072 1B22     		movs	r2, #27
 329 0074 5A80     		strh	r2, [r3, #2]
ARM GAS  C:\Users\alexport\AppData\Local\Temp\ccf6k4ea.s 			page 15


 462:Generated_Source\PSoC4/blue_1.c ****             dleConfigParams.dleNumTxBuffer = CYBLE_LL_DEFAULT_NUM_ACL_TX_PACKETS;
 330              		.loc 1 462 0
 331 0076 2023     		movs	r3, #32
 332 0078 FB18     		adds	r3, r7, r3
 333 007a 0422     		movs	r2, #4
 334 007c 1A71     		strb	r2, [r3, #4]
 463:Generated_Source\PSoC4/blue_1.c ****         #if(CYBLE_DLE_FEATURE_ENABLED)
 464:Generated_Source\PSoC4/blue_1.c ****             CyBle_EnableDleFeature();              /* Enable DLE code in stack */
 465:Generated_Source\PSoC4/blue_1.c ****         #endif /* CYBLE_DLE_FEATURE_ENABLED */
 466:Generated_Source\PSoC4/blue_1.c ****         
 467:Generated_Source\PSoC4/blue_1.c ****             /* Configure LL Privacy */
 468:Generated_Source\PSoC4/blue_1.c ****             privacyConfigParams.resolvingListSize = CYBLE_MAX_RESOLVABLE_DEVICES;
 335              		.loc 1 468 0
 336 007e 1C23     		movs	r3, #28
 337 0080 FB18     		adds	r3, r7, r3
 338 0082 0822     		movs	r2, #8
 339 0084 1A70     		strb	r2, [r3]
 469:Generated_Source\PSoC4/blue_1.c ****         #if(CYBLE_LL_PRIVACY_FEATURE_ENABLED)
 470:Generated_Source\PSoC4/blue_1.c ****             CyBle_EnablePrivacyFeature();          /* Enable LL Privacy code in stack */
 471:Generated_Source\PSoC4/blue_1.c ****         #endif /* CYBLE_LL_PRIVACY_FEATURE_ENABLED */
 472:Generated_Source\PSoC4/blue_1.c **** 
 473:Generated_Source\PSoC4/blue_1.c ****             apiResult = CyBle_StackSetFeatureConfig(&stackConfig, &featureHeapReq);
 340              		.loc 1 473 0
 341 0086 3E23     		movs	r3, #62
 342 0088 FC18     		adds	r4, r7, r3
 343 008a 0E23     		movs	r3, #14
 344 008c FA18     		adds	r2, r7, r3
 345 008e 1023     		movs	r3, #16
 346 0090 FB18     		adds	r3, r7, r3
 347 0092 1100     		movs	r1, r2
 348 0094 1800     		movs	r0, r3
 349 0096 FFF7FEFF 		bl	CyBle_StackSetFeatureConfig
 350 009a 0300     		movs	r3, r0
 351 009c 2380     		strh	r3, [r4]
 352              	.L8:
 353              	.LBE2:
 474:Generated_Source\PSoC4/blue_1.c ****             }
 475:Generated_Source\PSoC4/blue_1.c ****     
 476:Generated_Source\PSoC4/blue_1.c ****         if(apiResult == CYBLE_ERROR_OK)
 354              		.loc 1 476 0
 355 009e 3E23     		movs	r3, #62
 356 00a0 FB18     		adds	r3, r7, r3
 357 00a2 1B88     		ldrh	r3, [r3]
 358 00a4 002B     		cmp	r3, #0
 359 00a6 29D1     		bne	.L10
 477:Generated_Source\PSoC4/blue_1.c ****         {
 478:Generated_Source\PSoC4/blue_1.c ****         
 479:Generated_Source\PSoC4/blue_1.c ****         #if(CYBLE_MODE_PROFILE)
 480:Generated_Source\PSoC4/blue_1.c ****             #if(CYBLE_BONDING_REQUIREMENT == CYBLE_BONDING_YES)
 481:Generated_Source\PSoC4/blue_1.c ****                 apiResult = CyBle_StackInit(&CyBle_EventHandler, cyBle_stackMemoryRam, 
 360              		.loc 1 481 0
 361 00a8 3E23     		movs	r3, #62
 362 00aa FC18     		adds	r4, r7, r3
 363 00ac 2823     		movs	r3, #40
 364 00ae FD18     		adds	r5, r7, r3
 365 00b0 AE23     		movs	r3, #174
 366 00b2 1A01     		lsls	r2, r3, #4
ARM GAS  C:\Users\alexport\AppData\Local\Temp\ccf6k4ea.s 			page 16


 367 00b4 1849     		ldr	r1, .L12+12
 368 00b6 1948     		ldr	r0, .L12+16
 369 00b8 194B     		ldr	r3, .L12+20
 370 00ba 0293     		str	r3, [sp, #8]
 371 00bc 194B     		ldr	r3, .L12+24
 372 00be 0193     		str	r3, [sp, #4]
 373 00c0 0523     		movs	r3, #5
 374 00c2 0093     		str	r3, [sp]
 375 00c4 2B00     		movs	r3, r5
 376 00c6 FFF7FEFF 		bl	CyBle_StackInit
 377 00ca 0300     		movs	r3, r0
 378 00cc 2380     		strh	r3, [r4]
 482:Generated_Source\PSoC4/blue_1.c ****                     CYBLE_STACK_RAM_SIZE - CYBLE_GATT_PREPARE_WRITE_BUFF_LEN, cyBle_stackDataBuff, 
 483:Generated_Source\PSoC4/blue_1.c ****                     CYBLE_STACK_APP_MIN_POOL, cyBle_flashStorage.stackFlashptr, CYBLE_STACK_FLASH_S
 484:Generated_Source\PSoC4/blue_1.c ****             #else
 485:Generated_Source\PSoC4/blue_1.c ****                 apiResult = CyBle_StackInit(&CyBle_EventHandler, cyBle_stackMemoryRam, 
 486:Generated_Source\PSoC4/blue_1.c ****                     CYBLE_STACK_RAM_SIZE - CYBLE_GATT_PREPARE_WRITE_BUFF_LEN, cyBle_stackDataBuff, 
 487:Generated_Source\PSoC4/blue_1.c ****                     CYBLE_STACK_APP_MIN_POOL, NULL, 0u);
 488:Generated_Source\PSoC4/blue_1.c ****             #endif  /* CYBLE_BONDING_REQUIREMENT == CYBLE_BONDING_YES */
 489:Generated_Source\PSoC4/blue_1.c ****         #else /* HCI mode */
 490:Generated_Source\PSoC4/blue_1.c ****             /* The following will perform preparation to use HCI over UART or over
 491:Generated_Source\PSoC4/blue_1.c ****                software. But the following fucntions will not initialize the HCI
 492:Generated_Source\PSoC4/blue_1.c ****                Transport. This will be done as part of Stack initialization, so
 493:Generated_Source\PSoC4/blue_1.c ****                the functions should be called prior CyBle_StackInit().
 494:Generated_Source\PSoC4/blue_1.c ****             */
 495:Generated_Source\PSoC4/blue_1.c ****             #if (CYBLE_HCI_TYPE == CYBLE_HCI_OVER_UART)
 496:Generated_Source\PSoC4/blue_1.c ****                 CyBle_HciUartTransportEnable();
 497:Generated_Source\PSoC4/blue_1.c ****             #else
 498:Generated_Source\PSoC4/blue_1.c ****                 CyBle_HciSoftTransportEnable();
 499:Generated_Source\PSoC4/blue_1.c ****             #endif /* (CYBLE_HCI_TYPE == CYBLE_HCI_OVER_UART) */
 500:Generated_Source\PSoC4/blue_1.c ****             /* This will initialize BLE stack for HCI mode operation */
 501:Generated_Source\PSoC4/blue_1.c ****             apiResult = CyBle_StackInit(&CyBle_EventHandler, cyBle_stackMemoryRam, CYBLE_STACK_RAM_
 502:Generated_Source\PSoC4/blue_1.c ****                 NULL, 0u, NULL, 0u);
 503:Generated_Source\PSoC4/blue_1.c ****         #endif /* CYBLE_MODE_PROFILE */
 504:Generated_Source\PSoC4/blue_1.c **** 
 505:Generated_Source\PSoC4/blue_1.c ****             if(apiResult == CYBLE_ERROR_OK)
 379              		.loc 1 505 0
 380 00ce 3E23     		movs	r3, #62
 381 00d0 FB18     		adds	r3, r7, r3
 382 00d2 1B88     		ldrh	r3, [r3]
 383 00d4 002B     		cmp	r3, #0
 384 00d6 11D1     		bne	.L10
 506:Generated_Source\PSoC4/blue_1.c ****             {
 507:Generated_Source\PSoC4/blue_1.c ****                 CyBle_SetState(CYBLE_STATE_INITIALIZING);
 385              		.loc 1 507 0
 386 00d8 134B     		ldr	r3, .L12+28
 387 00da 0122     		movs	r2, #1
 388 00dc 1A70     		strb	r2, [r3]
 508:Generated_Source\PSoC4/blue_1.c ****                 
 509:Generated_Source\PSoC4/blue_1.c ****             #if (CYBLE_GATT_ROLE_CLIENT)
 510:Generated_Source\PSoC4/blue_1.c ****                 CyBle_SetClientState(CYBLE_CLIENT_STATE_DISCONNECTED);
 511:Generated_Source\PSoC4/blue_1.c ****             #endif /* CYBLE_GATT_ROLE_CLIENT */
 512:Generated_Source\PSoC4/blue_1.c ****                 
 513:Generated_Source\PSoC4/blue_1.c ****             #if(CYBLE_GATT_ROLE_SERVER)
 514:Generated_Source\PSoC4/blue_1.c ****                 apiResult = CyBle_GattsDbRegister(cyBle_gattDB, CYBLE_GATT_DB_INDEX_COUNT, CYBLE_GA
 389              		.loc 1 514 0
 390 00de 3E23     		movs	r3, #62
ARM GAS  C:\Users\alexport\AppData\Local\Temp\ccf6k4ea.s 			page 17


 391 00e0 FC18     		adds	r4, r7, r3
 392 00e2 124B     		ldr	r3, .L12+32
 393 00e4 1522     		movs	r2, #21
 394 00e6 A621     		movs	r1, #166
 395 00e8 1800     		movs	r0, r3
 396 00ea FFF7FEFF 		bl	CyBle_GattsDbRegister
 397 00ee 0300     		movs	r3, r0
 398 00f0 2380     		strh	r3, [r4]
 399 00f2 03E0     		b	.L10
 400              	.L7:
 515:Generated_Source\PSoC4/blue_1.c ****             #endif /* CYBLE_GATT_ROLE_SERVER */
 516:Generated_Source\PSoC4/blue_1.c ****             }
 517:Generated_Source\PSoC4/blue_1.c ****         }
 518:Generated_Source\PSoC4/blue_1.c ****     }
 519:Generated_Source\PSoC4/blue_1.c ****     else
 520:Generated_Source\PSoC4/blue_1.c ****     {
 521:Generated_Source\PSoC4/blue_1.c ****         apiResult = CYBLE_ERROR_INVALID_PARAMETER;
 401              		.loc 1 521 0
 402 00f4 3E23     		movs	r3, #62
 403 00f6 FB18     		adds	r3, r7, r3
 404 00f8 0122     		movs	r2, #1
 405 00fa 1A80     		strh	r2, [r3]
 406              	.L10:
 522:Generated_Source\PSoC4/blue_1.c ****     }
 523:Generated_Source\PSoC4/blue_1.c **** 
 524:Generated_Source\PSoC4/blue_1.c ****     return (apiResult);
 407              		.loc 1 524 0
 408 00fc 3E23     		movs	r3, #62
 409 00fe FB18     		adds	r3, r7, r3
 410 0100 1B88     		ldrh	r3, [r3]
 525:Generated_Source\PSoC4/blue_1.c **** }
 411              		.loc 1 525 0
 412 0102 1800     		movs	r0, r3
 413 0104 BD46     		mov	sp, r7
 414 0106 10B0     		add	sp, sp, #64
 415              		@ sp needed
 416 0108 B0BD     		pop	{r4, r5, r7, pc}
 417              	.L13:
 418 010a C046     		.align	2
 419              	.L12:
 420 010c 00000000 		.word	.LC0
 421 0110 00000000 		.word	cyBle_initVar
 422 0114 00000000 		.word	CyBle_ApplCallback
 423 0118 00000000 		.word	cyBle_stackMemoryRam
 424 011c 00000000 		.word	CyBle_EventHandler
 425 0120 79020000 		.word	633
 426 0124 00000000 		.word	cyBle_flashStorage
 427 0128 00000000 		.word	cyBle_state
 428 012c 00000000 		.word	cyBle_gattDB
 429              		.cfi_endproc
 430              	.LFE4:
 431              		.size	CyBle_Start, .-CyBle_Start
 432              		.section	.text.CyBle_Stop,"ax",%progbits
 433              		.align	2
 434              		.global	CyBle_Stop
 435              		.code	16
 436              		.thumb_func
ARM GAS  C:\Users\alexport\AppData\Local\Temp\ccf6k4ea.s 			page 18


 437              		.type	CyBle_Stop, %function
 438              	CyBle_Stop:
 439              	.LFB5:
 526:Generated_Source\PSoC4/blue_1.c **** 
 527:Generated_Source\PSoC4/blue_1.c **** 
 528:Generated_Source\PSoC4/blue_1.c **** /******************************************************************************
 529:Generated_Source\PSoC4/blue_1.c **** * Function Name: CyBle_Stop
 530:Generated_Source\PSoC4/blue_1.c **** ***************************************************************************//**
 531:Generated_Source\PSoC4/blue_1.c **** * 
 532:Generated_Source\PSoC4/blue_1.c **** *  This function stops any ongoing operation in the BLE Stack and forces the 
 533:Generated_Source\PSoC4/blue_1.c **** *  BLE Stack to shut down. The only function that can be called after calling
 534:Generated_Source\PSoC4/blue_1.c **** *  this function is CyBle_Start(). 
 535:Generated_Source\PSoC4/blue_1.c **** * 
 536:Generated_Source\PSoC4/blue_1.c **** * \return
 537:Generated_Source\PSoC4/blue_1.c **** *  None
 538:Generated_Source\PSoC4/blue_1.c **** * 
 539:Generated_Source\PSoC4/blue_1.c **** ******************************************************************************/
 540:Generated_Source\PSoC4/blue_1.c **** void CyBle_Stop(void)
 541:Generated_Source\PSoC4/blue_1.c **** {
 440              		.loc 1 541 0
 441              		.cfi_startproc
 442              		@ args = 0, pretend = 0, frame = 0
 443              		@ frame_needed = 1, uses_anonymous_args = 0
 444 0000 80B5     		push	{r7, lr}
 445              		.cfi_def_cfa_offset 8
 446              		.cfi_offset 7, -8
 447              		.cfi_offset 14, -4
 448 0002 00AF     		add	r7, sp, #0
 449              		.cfi_def_cfa_register 7
 542:Generated_Source\PSoC4/blue_1.c ****     CyBle_Shutdown();                         /* Stop all ongoing activities */
 450              		.loc 1 542 0
 451 0004 FFF7FEFF 		bl	CyBle_Shutdown
 543:Generated_Source\PSoC4/blue_1.c ****     CyBle_SetState(CYBLE_STATE_STOPPED);
 452              		.loc 1 543 0
 453 0008 024B     		ldr	r3, .L15
 454 000a 0022     		movs	r2, #0
 455 000c 1A70     		strb	r2, [r3]
 544:Generated_Source\PSoC4/blue_1.c ****     #if(CYBLE_SHARING_MODE_EXPORT)
 545:Generated_Source\PSoC4/blue_1.c ****         if(cyBle_stackMemoryRam != NULL)
 546:Generated_Source\PSoC4/blue_1.c ****         {
 547:Generated_Source\PSoC4/blue_1.c ****             free(cyBle_stackMemoryRam);
 548:Generated_Source\PSoC4/blue_1.c ****         }
 549:Generated_Source\PSoC4/blue_1.c ****     #endif /* CYBLE_SHARING_MODE_EXPORT */
 550:Generated_Source\PSoC4/blue_1.c **** }
 456              		.loc 1 550 0
 457 000e C046     		nop
 458 0010 BD46     		mov	sp, r7
 459              		@ sp needed
 460 0012 80BD     		pop	{r7, pc}
 461              	.L16:
 462              		.align	2
 463              	.L15:
 464 0014 00000000 		.word	cyBle_state
 465              		.cfi_endproc
 466              	.LFE5:
 467              		.size	CyBle_Stop, .-CyBle_Stop
 468              		.section	.text.CyBle_StoreBondingData,"ax",%progbits
ARM GAS  C:\Users\alexport\AppData\Local\Temp\ccf6k4ea.s 			page 19


 469              		.align	2
 470              		.global	CyBle_StoreBondingData
 471              		.code	16
 472              		.thumb_func
 473              		.type	CyBle_StoreBondingData, %function
 474              	CyBle_StoreBondingData:
 475              	.LFB6:
 551:Generated_Source\PSoC4/blue_1.c **** 
 552:Generated_Source\PSoC4/blue_1.c **** 
 553:Generated_Source\PSoC4/blue_1.c **** #if((CYBLE_GAP_ROLE_PERIPHERAL || CYBLE_GAP_ROLE_CENTRAL) && (CYBLE_BONDING_REQUIREMENT == CYBLE_BO
 554:Generated_Source\PSoC4/blue_1.c **** 
 555:Generated_Source\PSoC4/blue_1.c ****     
 556:Generated_Source\PSoC4/blue_1.c **** /******************************************************************************
 557:Generated_Source\PSoC4/blue_1.c **** * Function Name: CyBle_StoreBondingData
 558:Generated_Source\PSoC4/blue_1.c **** ***************************************************************************//**
 559:Generated_Source\PSoC4/blue_1.c **** * 
 560:Generated_Source\PSoC4/blue_1.c **** *  This function writes the new bonding data from RAM to the dedicated Flash 
 561:Generated_Source\PSoC4/blue_1.c **** *  location as defined by the component. It performs data comparing between RAM
 562:Generated_Source\PSoC4/blue_1.c **** *  and Flash before writing to Flash. If there is no change between RAM and Flash
 563:Generated_Source\PSoC4/blue_1.c **** *  data, then no write is performed. It writes only one flash row in one call.
 564:Generated_Source\PSoC4/blue_1.c **** *  Application should keep calling this function till it return CYBLE_ERROR_OK. 
 565:Generated_Source\PSoC4/blue_1.c **** *  This function is available only when Bonding requirement is selected in
 566:Generated_Source\PSoC4/blue_1.c **** *  Security settings.    
 567:Generated_Source\PSoC4/blue_1.c **** * 
 568:Generated_Source\PSoC4/blue_1.c **** *  \param isForceWrite:  If value is set to 0, then stack will check if flash write 
 569:Generated_Source\PSoC4/blue_1.c **** *                 is permissible. 
 570:Generated_Source\PSoC4/blue_1.c **** *  
 571:Generated_Source\PSoC4/blue_1.c **** * \return
 572:Generated_Source\PSoC4/blue_1.c **** *  Return value is of type CYBLE_API_RESULT_T.
 573:Generated_Source\PSoC4/blue_1.c **** *
 574:Generated_Source\PSoC4/blue_1.c **** *   Errors codes                         | Description
 575:Generated_Source\PSoC4/blue_1.c **** *   ----------------------------------   | ------------------------------------
 576:Generated_Source\PSoC4/blue_1.c **** *   CYBLE_ERROR_OK                       | On successful operation
 577:Generated_Source\PSoC4/blue_1.c **** *   CYBLE_ERROR_FLASH_WRITE_NOT_PERMITED | Flash Write is not complete
 578:Generated_Source\PSoC4/blue_1.c **** *   CYBLE_ERROR_INVALID_PARAMETER        | Invalid input parameter  
 579:Generated_Source\PSoC4/blue_1.c **** *   CYBLE_ERROR_FLASH_WRITE              | Error in flash Write	
 580:Generated_Source\PSoC4/blue_1.c ****     
 581:Generated_Source\PSoC4/blue_1.c **** *  \sideeffect
 582:Generated_Source\PSoC4/blue_1.c **** *   For BLE devices with 128K of Flash memory this function will automatically 
 583:Generated_Source\PSoC4/blue_1.c **** *   modify the clock settings for the device.
 584:Generated_Source\PSoC4/blue_1.c **** *   Writing to flash requires changes to be done to the IMO (set to 48 MHz)
 585:Generated_Source\PSoC4/blue_1.c **** *   and HFCLK (source set to IMO) settings. The configuration is restored before
 586:Generated_Source\PSoC4/blue_1.c **** *   returning. This will impact the operation of most of the hardware in the
 587:Generated_Source\PSoC4/blue_1.c **** *   device.
 588:Generated_Source\PSoC4/blue_1.c **** * 
 589:Generated_Source\PSoC4/blue_1.c **** *  \globalvars
 590:Generated_Source\PSoC4/blue_1.c **** *   The cyBle_pendingFlashWrite variable is used to detect status
 591:Generated_Source\PSoC4/blue_1.c **** *   of pending write to flash operation for stack data and CCCD.
 592:Generated_Source\PSoC4/blue_1.c **** *   This function automatically clears pending bits after write operation 
 593:Generated_Source\PSoC4/blue_1.c **** *   complete.
 594:Generated_Source\PSoC4/blue_1.c **** *     
 595:Generated_Source\PSoC4/blue_1.c **** ******************************************************************************/
 596:Generated_Source\PSoC4/blue_1.c **** CYBLE_API_RESULT_T CyBle_StoreBondingData(uint8 isForceWrite)
 597:Generated_Source\PSoC4/blue_1.c **** {
 476              		.loc 1 597 0
 477              		.cfi_startproc
 478              		@ args = 0, pretend = 0, frame = 232
ARM GAS  C:\Users\alexport\AppData\Local\Temp\ccf6k4ea.s 			page 20


 479              		@ frame_needed = 1, uses_anonymous_args = 0
 480 0000 90B5     		push	{r4, r7, lr}
 481              		.cfi_def_cfa_offset 12
 482              		.cfi_offset 4, -12
 483              		.cfi_offset 7, -8
 484              		.cfi_offset 14, -4
 485 0002 BBB0     		sub	sp, sp, #236
 486              		.cfi_def_cfa_offset 248
 487 0004 00AF     		add	r7, sp, #0
 488              		.cfi_def_cfa_register 7
 489 0006 0200     		movs	r2, r0
 490 0008 FB1D     		adds	r3, r7, #7
 491 000a 1A70     		strb	r2, [r3]
 598:Generated_Source\PSoC4/blue_1.c ****     CYBLE_API_RESULT_T apiResult = CYBLE_ERROR_OK;
 492              		.loc 1 598 0
 493 000c E623     		movs	r3, #230
 494 000e FB18     		adds	r3, r7, r3
 495 0010 0022     		movs	r2, #0
 496 0012 1A80     		strh	r2, [r3]
 599:Generated_Source\PSoC4/blue_1.c ****     
 600:Generated_Source\PSoC4/blue_1.c ****     /* Store Stack data */
 601:Generated_Source\PSoC4/blue_1.c ****     if((cyBle_pendingFlashWrite & CYBLE_PENDING_STACK_FLASH_WRITE_BIT) != 0u)
 497              		.loc 1 601 0
 498 0014 5F4B     		ldr	r3, .L27
 499 0016 1B78     		ldrb	r3, [r3]
 500 0018 1A00     		movs	r2, r3
 501 001a 0123     		movs	r3, #1
 502 001c 1340     		ands	r3, r2
 503 001e 1ED0     		beq	.L18
 602:Generated_Source\PSoC4/blue_1.c ****     {
 603:Generated_Source\PSoC4/blue_1.c ****         apiResult = CyBle_StoreStackData(isForceWrite);
 504              		.loc 1 603 0
 505 0020 E623     		movs	r3, #230
 506 0022 FC18     		adds	r4, r7, r3
 507 0024 FB1D     		adds	r3, r7, #7
 508 0026 1B78     		ldrb	r3, [r3]
 509 0028 1800     		movs	r0, r3
 510 002a FFF7FEFF 		bl	CyBle_StoreStackData
 511 002e 0300     		movs	r3, r0
 512 0030 2380     		strh	r3, [r4]
 604:Generated_Source\PSoC4/blue_1.c ****         if(apiResult == CYBLE_ERROR_OK)
 513              		.loc 1 604 0
 514 0032 E623     		movs	r3, #230
 515 0034 FB18     		adds	r3, r7, r3
 516 0036 1B88     		ldrh	r3, [r3]
 517 0038 002B     		cmp	r3, #0
 518 003a 10D1     		bne	.L18
 605:Generated_Source\PSoC4/blue_1.c ****         {
 606:Generated_Source\PSoC4/blue_1.c ****             cyBle_pendingFlashWrite &= (uint8)~CYBLE_PENDING_STACK_FLASH_WRITE_BIT;
 519              		.loc 1 606 0
 520 003c 554B     		ldr	r3, .L27
 521 003e 1B78     		ldrb	r3, [r3]
 522 0040 0122     		movs	r2, #1
 523 0042 9343     		bics	r3, r2
 524 0044 DAB2     		uxtb	r2, r3
 525 0046 534B     		ldr	r3, .L27
 526 0048 1A70     		strb	r2, [r3]
ARM GAS  C:\Users\alexport\AppData\Local\Temp\ccf6k4ea.s 			page 21


 607:Generated_Source\PSoC4/blue_1.c ****             /* Change apiResult if there are more pending data to store */
 608:Generated_Source\PSoC4/blue_1.c ****             if((cyBle_pendingFlashWrite & CYBLE_PENDING_CCCD_FLASH_WRITE_BIT) != 0u)
 527              		.loc 1 608 0
 528 004a 524B     		ldr	r3, .L27
 529 004c 1B78     		ldrb	r3, [r3]
 530 004e 1A00     		movs	r2, r3
 531 0050 0223     		movs	r3, #2
 532 0052 1340     		ands	r3, r2
 533 0054 03D0     		beq	.L18
 609:Generated_Source\PSoC4/blue_1.c ****             {
 610:Generated_Source\PSoC4/blue_1.c ****                 apiResult = CYBLE_ERROR_FLASH_WRITE_NOT_PERMITED;
 534              		.loc 1 610 0
 535 0056 E623     		movs	r3, #230
 536 0058 FB18     		adds	r3, r7, r3
 537 005a 2822     		movs	r2, #40
 538 005c 1A80     		strh	r2, [r3]
 539              	.L18:
 611:Generated_Source\PSoC4/blue_1.c ****             }
 612:Generated_Source\PSoC4/blue_1.c ****         }
 613:Generated_Source\PSoC4/blue_1.c ****     }
 614:Generated_Source\PSoC4/blue_1.c **** #if(CYBLE_GATT_DB_CCCD_COUNT != 0u)
 615:Generated_Source\PSoC4/blue_1.c ****     /* Store CCCD values */
 616:Generated_Source\PSoC4/blue_1.c ****     if( ((apiResult == CYBLE_ERROR_OK) || (isForceWrite != 0u)) && 
 540              		.loc 1 616 0
 541 005e E623     		movs	r3, #230
 542 0060 FB18     		adds	r3, r7, r3
 543 0062 1B88     		ldrh	r3, [r3]
 544 0064 002B     		cmp	r3, #0
 545 0066 03D0     		beq	.L19
 546              		.loc 1 616 0 is_stmt 0 discriminator 2
 547 0068 FB1D     		adds	r3, r7, #7
 548 006a 1B78     		ldrb	r3, [r3]
 549 006c 002B     		cmp	r3, #0
 550 006e 2AD0     		beq	.L20
 551              	.L19:
 617:Generated_Source\PSoC4/blue_1.c ****         ((cyBle_pendingFlashWrite & CYBLE_PENDING_CCCD_FLASH_WRITE_BIT) != 0u) &&
 552              		.loc 1 617 0 is_stmt 1 discriminator 3
 553 0070 484B     		ldr	r3, .L27
 554 0072 1B78     		ldrb	r3, [r3]
 555 0074 1A00     		movs	r2, r3
 556 0076 0223     		movs	r3, #2
 557 0078 1340     		ands	r3, r2
 616:Generated_Source\PSoC4/blue_1.c ****         ((cyBle_pendingFlashWrite & CYBLE_PENDING_CCCD_FLASH_WRITE_BIT) != 0u) &&
 558              		.loc 1 616 0 discriminator 3
 559 007a 24D0     		beq	.L20
 618:Generated_Source\PSoC4/blue_1.c ****         (cyBle_connHandle.bdHandle <= CYBLE_GAP_MAX_BONDED_DEVICE))
 560              		.loc 1 618 0
 561 007c 464B     		ldr	r3, .L27+4
 562 007e 1B78     		ldrb	r3, [r3]
 617:Generated_Source\PSoC4/blue_1.c ****         ((cyBle_pendingFlashWrite & CYBLE_PENDING_CCCD_FLASH_WRITE_BIT) != 0u) &&
 563              		.loc 1 617 0
 564 0080 042B     		cmp	r3, #4
 565 0082 20D8     		bhi	.L20
 619:Generated_Source\PSoC4/blue_1.c ****     {
 620:Generated_Source\PSoC4/blue_1.c ****         apiResult = CyBle_StoreAppData(cyBle_attValuesCCCD, cyBle_flashStorage.attValuesCCCDFlashMe
 621:Generated_Source\PSoC4/blue_1.c ****                         cyBle_connHandle.bdHandle], CYBLE_GATT_DB_CCCD_COUNT, isForceWrite);
 566              		.loc 1 621 0
ARM GAS  C:\Users\alexport\AppData\Local\Temp\ccf6k4ea.s 			page 22


 567 0084 444B     		ldr	r3, .L27+4
 568 0086 1B78     		ldrb	r3, [r3]
 620:Generated_Source\PSoC4/blue_1.c ****                         cyBle_connHandle.bdHandle], CYBLE_GATT_DB_CCCD_COUNT, isForceWrite);
 569              		.loc 1 620 0
 570 0088 1A00     		movs	r2, r3
 571 008a 2C23     		movs	r3, #44
 572 008c 5343     		muls	r3, r2
 573 008e 9E22     		movs	r2, #158
 574 0090 9200     		lsls	r2, r2, #2
 575 0092 9A18     		adds	r2, r3, r2
 576 0094 414B     		ldr	r3, .L27+8
 577 0096 D318     		adds	r3, r2, r3
 578 0098 591C     		adds	r1, r3, #1
 579 009a E623     		movs	r3, #230
 580 009c FC18     		adds	r4, r7, r3
 581 009e FB1D     		adds	r3, r7, #7
 582 00a0 1B78     		ldrb	r3, [r3]
 583 00a2 3F48     		ldr	r0, .L27+12
 584 00a4 2C22     		movs	r2, #44
 585 00a6 FFF7FEFF 		bl	CyBle_StoreAppData
 586 00aa 0300     		movs	r3, r0
 587 00ac 2380     		strh	r3, [r4]
 622:Generated_Source\PSoC4/blue_1.c ****         if(apiResult == CYBLE_ERROR_OK)
 588              		.loc 1 622 0
 589 00ae E623     		movs	r3, #230
 590 00b0 FB18     		adds	r3, r7, r3
 591 00b2 1B88     		ldrh	r3, [r3]
 592 00b4 002B     		cmp	r3, #0
 593 00b6 06D1     		bne	.L20
 623:Generated_Source\PSoC4/blue_1.c ****         {
 624:Generated_Source\PSoC4/blue_1.c ****             cyBle_pendingFlashWrite &= (uint8)~CYBLE_PENDING_CCCD_FLASH_WRITE_BIT;
 594              		.loc 1 624 0
 595 00b8 364B     		ldr	r3, .L27
 596 00ba 1B78     		ldrb	r3, [r3]
 597 00bc 0222     		movs	r2, #2
 598 00be 9343     		bics	r3, r2
 599 00c0 DAB2     		uxtb	r2, r3
 600 00c2 344B     		ldr	r3, .L27
 601 00c4 1A70     		strb	r2, [r3]
 602              	.L20:
 625:Generated_Source\PSoC4/blue_1.c ****         }
 626:Generated_Source\PSoC4/blue_1.c ****     }
 627:Generated_Source\PSoC4/blue_1.c ****     /* Clear requested CCCD values */
 628:Generated_Source\PSoC4/blue_1.c ****     if( ((apiResult == CYBLE_ERROR_OK) || (isForceWrite != 0u)) && 
 603              		.loc 1 628 0
 604 00c6 E623     		movs	r3, #230
 605 00c8 FB18     		adds	r3, r7, r3
 606 00ca 1B88     		ldrh	r3, [r3]
 607 00cc 002B     		cmp	r3, #0
 608 00ce 03D0     		beq	.L21
 609              		.loc 1 628 0 is_stmt 0 discriminator 2
 610 00d0 FB1D     		adds	r3, r7, #7
 611 00d2 1B78     		ldrb	r3, [r3]
 612 00d4 002B     		cmp	r3, #0
 613 00d6 55D0     		beq	.L22
 614              	.L21:
 629:Generated_Source\PSoC4/blue_1.c ****         ((cyBle_pendingFlashWrite & CYBLE_PENDING_CCCD_FLASH_CLEAR_MASK) != 0u) )
ARM GAS  C:\Users\alexport\AppData\Local\Temp\ccf6k4ea.s 			page 23


 615              		.loc 1 629 0 is_stmt 1 discriminator 3
 616 00d8 2E4B     		ldr	r3, .L27
 617 00da 1B78     		ldrb	r3, [r3]
 618 00dc 1A00     		movs	r2, r3
 619 00de 0C23     		movs	r3, #12
 620 00e0 1340     		ands	r3, r2
 628:Generated_Source\PSoC4/blue_1.c ****         ((cyBle_pendingFlashWrite & CYBLE_PENDING_CCCD_FLASH_CLEAR_MASK) != 0u) )
 621              		.loc 1 628 0 discriminator 3
 622 00e2 4FD0     		beq	.L22
 630:Generated_Source\PSoC4/blue_1.c ****     {
 631:Generated_Source\PSoC4/blue_1.c ****         if((cyBle_pendingFlashWrite & CYBLE_PENDING_CCCD_FLASH_CLEAR_ALL_BIT) != 0u)
 623              		.loc 1 631 0
 624 00e4 2B4B     		ldr	r3, .L27
 625 00e6 1B78     		ldrb	r3, [r3]
 626 00e8 1A00     		movs	r2, r3
 627 00ea 0823     		movs	r3, #8
 628 00ec 1340     		ands	r3, r2
 629 00ee 1FD0     		beq	.L23
 630              	.LBB3:
 632:Generated_Source\PSoC4/blue_1.c ****         {
 633:Generated_Source\PSoC4/blue_1.c ****             /* Remove cccd values for all bonded devices */
 634:Generated_Source\PSoC4/blue_1.c ****             uint8 defaultValuesCCCD[CYBLE_GAP_MAX_BONDED_DEVICE + 1u][CYBLE_GATT_DB_CCCD_COUNT];
 635:Generated_Source\PSoC4/blue_1.c ****             
 636:Generated_Source\PSoC4/blue_1.c ****             (void)memset(defaultValuesCCCD, 0, sizeof(defaultValuesCCCD));
 631              		.loc 1 636 0
 632 00f0 0823     		movs	r3, #8
 633 00f2 FB18     		adds	r3, r7, r3
 634 00f4 DC22     		movs	r2, #220
 635 00f6 0021     		movs	r1, #0
 636 00f8 1800     		movs	r0, r3
 637 00fa FFF7FEFF 		bl	memset
 637:Generated_Source\PSoC4/blue_1.c **** 
 638:Generated_Source\PSoC4/blue_1.c ****             apiResult = CyBle_StoreAppData((uint8 *)defaultValuesCCCD, 
 638              		.loc 1 638 0
 639 00fe E623     		movs	r3, #230
 640 0100 FC18     		adds	r4, r7, r3
 641 0102 FB1D     		adds	r3, r7, #7
 642 0104 1B78     		ldrb	r3, [r3]
 643 0106 2749     		ldr	r1, .L27+16
 644 0108 0822     		movs	r2, #8
 645 010a B818     		adds	r0, r7, r2
 646 010c DC22     		movs	r2, #220
 647 010e FFF7FEFF 		bl	CyBle_StoreAppData
 648 0112 0300     		movs	r3, r0
 649 0114 2380     		strh	r3, [r4]
 639:Generated_Source\PSoC4/blue_1.c ****                 (const uint8 *)cyBle_flashStorage.attValuesCCCDFlashMemory, sizeof(defaultValuesCCC
 640:Generated_Source\PSoC4/blue_1.c ****             if(apiResult == CYBLE_ERROR_OK)
 650              		.loc 1 640 0
 651 0116 E623     		movs	r3, #230
 652 0118 FB18     		adds	r3, r7, r3
 653 011a 1B88     		ldrh	r3, [r3]
 654 011c 002B     		cmp	r3, #0
 655 011e 31D1     		bne	.L22
 641:Generated_Source\PSoC4/blue_1.c ****             {
 642:Generated_Source\PSoC4/blue_1.c ****                 cyBle_pendingFlashWrite &= (uint8)~CYBLE_PENDING_CCCD_FLASH_CLEAR_ALL_BIT;
 656              		.loc 1 642 0
 657 0120 1C4B     		ldr	r3, .L27
ARM GAS  C:\Users\alexport\AppData\Local\Temp\ccf6k4ea.s 			page 24


 658 0122 1B78     		ldrb	r3, [r3]
 659 0124 0822     		movs	r2, #8
 660 0126 9343     		bics	r3, r2
 661 0128 DAB2     		uxtb	r2, r3
 662 012a 1A4B     		ldr	r3, .L27
 663 012c 1A70     		strb	r2, [r3]
 664 012e 29E0     		b	.L22
 665              	.L23:
 666              	.LBE3:
 667              	.LBB4:
 643:Generated_Source\PSoC4/blue_1.c ****             }
 644:Generated_Source\PSoC4/blue_1.c ****         }
 645:Generated_Source\PSoC4/blue_1.c ****         else /* Remove cccd values for particular device */
 646:Generated_Source\PSoC4/blue_1.c ****         {
 647:Generated_Source\PSoC4/blue_1.c ****             uint8 defaultValuesCCCD[CYBLE_GATT_DB_CCCD_COUNT] = {0u};
 668              		.loc 1 647 0
 669 0130 0823     		movs	r3, #8
 670 0132 FB18     		adds	r3, r7, r3
 671 0134 1800     		movs	r0, r3
 672 0136 2C23     		movs	r3, #44
 673 0138 1A00     		movs	r2, r3
 674 013a 0021     		movs	r1, #0
 675 013c FFF7FEFF 		bl	memset
 648:Generated_Source\PSoC4/blue_1.c ****             
 649:Generated_Source\PSoC4/blue_1.c ****             apiResult = CyBle_StoreAppData(defaultValuesCCCD, cyBle_flashStorage.attValuesCCCDFlash
 676              		.loc 1 649 0
 677 0140 194B     		ldr	r3, .L27+20
 678 0142 1B78     		ldrb	r3, [r3]
 679 0144 1A00     		movs	r2, r3
 680 0146 2C23     		movs	r3, #44
 681 0148 5343     		muls	r3, r2
 682 014a 9E22     		movs	r2, #158
 683 014c 9200     		lsls	r2, r2, #2
 684 014e 9A18     		adds	r2, r3, r2
 685 0150 124B     		ldr	r3, .L27+8
 686 0152 D318     		adds	r3, r2, r3
 687 0154 591C     		adds	r1, r3, #1
 688 0156 E623     		movs	r3, #230
 689 0158 FC18     		adds	r4, r7, r3
 690 015a FB1D     		adds	r3, r7, #7
 691 015c 1B78     		ldrb	r3, [r3]
 692 015e 0822     		movs	r2, #8
 693 0160 B818     		adds	r0, r7, r2
 694 0162 2C22     		movs	r2, #44
 695 0164 FFF7FEFF 		bl	CyBle_StoreAppData
 696 0168 0300     		movs	r3, r0
 697 016a 2380     		strh	r3, [r4]
 650:Generated_Source\PSoC4/blue_1.c ****                                     cyBle_pendingFlashClearCccdHandle], CYBLE_GATT_DB_CCCD_COUNT, i
 651:Generated_Source\PSoC4/blue_1.c ****             if(apiResult == CYBLE_ERROR_OK)
 698              		.loc 1 651 0
 699 016c E623     		movs	r3, #230
 700 016e FB18     		adds	r3, r7, r3
 701 0170 1B88     		ldrh	r3, [r3]
 702 0172 002B     		cmp	r3, #0
 703 0174 06D1     		bne	.L22
 652:Generated_Source\PSoC4/blue_1.c ****             {
 653:Generated_Source\PSoC4/blue_1.c ****                 cyBle_pendingFlashWrite &= (uint8)~CYBLE_PENDING_CCCD_FLASH_CLEAR_BIT;
ARM GAS  C:\Users\alexport\AppData\Local\Temp\ccf6k4ea.s 			page 25


 704              		.loc 1 653 0
 705 0176 074B     		ldr	r3, .L27
 706 0178 1B78     		ldrb	r3, [r3]
 707 017a 0422     		movs	r2, #4
 708 017c 9343     		bics	r3, r2
 709 017e DAB2     		uxtb	r2, r3
 710 0180 044B     		ldr	r3, .L27
 711 0182 1A70     		strb	r2, [r3]
 712              	.L22:
 713              	.LBE4:
 654:Generated_Source\PSoC4/blue_1.c ****             }
 655:Generated_Source\PSoC4/blue_1.c ****         }
 656:Generated_Source\PSoC4/blue_1.c ****     }
 657:Generated_Source\PSoC4/blue_1.c **** #endif /* CYBLE_GATT_DB_CCCD_COUNT != 0u */
 658:Generated_Source\PSoC4/blue_1.c ****     return(apiResult);
 714              		.loc 1 658 0
 715 0184 E623     		movs	r3, #230
 716 0186 FB18     		adds	r3, r7, r3
 717 0188 1B88     		ldrh	r3, [r3]
 659:Generated_Source\PSoC4/blue_1.c **** }
 718              		.loc 1 659 0
 719 018a 1800     		movs	r0, r3
 720 018c BD46     		mov	sp, r7
 721 018e 3BB0     		add	sp, sp, #236
 722              		@ sp needed
 723 0190 90BD     		pop	{r4, r7, pc}
 724              	.L28:
 725 0192 C046     		.align	2
 726              	.L27:
 727 0194 00000000 		.word	cyBle_pendingFlashWrite
 728 0198 00000000 		.word	cyBle_connHandle
 729 019c 00000000 		.word	cyBle_flashStorage
 730 01a0 00000000 		.word	cyBle_attValuesCCCD
 731 01a4 79020000 		.word	cyBle_flashStorage+633
 732 01a8 24000000 		.word	cyBle_pendingFlashClearCccdHandle
 733              		.cfi_endproc
 734              	.LFE6:
 735              		.size	CyBle_StoreBondingData, .-CyBle_StoreBondingData
 736              		.section	.text.CyBle_GapRemoveBondedDevice,"ax",%progbits
 737              		.align	2
 738              		.global	CyBle_GapRemoveBondedDevice
 739              		.code	16
 740              		.thumb_func
 741              		.type	CyBle_GapRemoveBondedDevice, %function
 742              	CyBle_GapRemoveBondedDevice:
 743              	.LFB7:
 660:Generated_Source\PSoC4/blue_1.c **** 
 661:Generated_Source\PSoC4/blue_1.c **** 
 662:Generated_Source\PSoC4/blue_1.c **** /******************************************************************************
 663:Generated_Source\PSoC4/blue_1.c **** * Function Name: CyBle_GapRemoveBondedDevice
 664:Generated_Source\PSoC4/blue_1.c **** ***************************************************************************//**
 665:Generated_Source\PSoC4/blue_1.c **** * 
 666:Generated_Source\PSoC4/blue_1.c **** *  This function marks the device untrusted. It removes the bonding information
 667:Generated_Source\PSoC4/blue_1.c **** *  of the device including CCCD values. This function removes device from the
 668:Generated_Source\PSoC4/blue_1.c **** *  white list also when autopopulate white list with bonded devices option is
 669:Generated_Source\PSoC4/blue_1.c **** *  enabled.
 670:Generated_Source\PSoC4/blue_1.c **** * 
ARM GAS  C:\Users\alexport\AppData\Local\Temp\ccf6k4ea.s 			page 26


 671:Generated_Source\PSoC4/blue_1.c **** *  This function is available only when Bonding requirement is selected in
 672:Generated_Source\PSoC4/blue_1.c **** *  Security settings.    
 673:Generated_Source\PSoC4/blue_1.c **** *
 674:Generated_Source\PSoC4/blue_1.c **** *  \param bdAddr: Pointer to peer device address, of type CYBLE_GAP_BD_ADDR_T.
 675:Generated_Source\PSoC4/blue_1.c **** *                 If device address is set to 0, then all devices shall be
 676:Generated_Source\PSoC4/blue_1.c **** *                 removed from trusted list and white list.
 677:Generated_Source\PSoC4/blue_1.c **** *
 678:Generated_Source\PSoC4/blue_1.c **** * \return
 679:Generated_Source\PSoC4/blue_1.c **** *  CYBLE_API_RESULT_T : Return value indicates if the function succeeded or
 680:Generated_Source\PSoC4/blue_1.c **** *  failed. Following are the possible error codes.
 681:Generated_Source\PSoC4/blue_1.c **** *
 682:Generated_Source\PSoC4/blue_1.c **** *   Errors codes                     | Description
 683:Generated_Source\PSoC4/blue_1.c **** *   ---------------------------------| ------------------------------------
 684:Generated_Source\PSoC4/blue_1.c **** *   CYBLE_ERROR_OK                   | On successful operation.
 685:Generated_Source\PSoC4/blue_1.c **** *   CYBLE_ERROR_INVALID_PARAMETER    | On specifying NULL as input parameter for 'bdAddr'.
 686:Generated_Source\PSoC4/blue_1.c **** *   CYBLE_ERROR_INVALID_OPERATION    | Whitelist is already in use or there is pending write to fla
 687:Generated_Source\PSoC4/blue_1.c **** *   CYBLE_ERROR_NO_DEVICE_ENTITY     | Device does not exist in the bond list.
 688:Generated_Source\PSoC4/blue_1.c **** *
 689:Generated_Source\PSoC4/blue_1.c **** *  \globalvars
 690:Generated_Source\PSoC4/blue_1.c **** *   The bdHandle is set in cyBle_pendingFlashWrite variable to indicate that
 691:Generated_Source\PSoC4/blue_1.c **** *   data should be stored to flash by CyBle_StoreBondingData() afterwards. 
 692:Generated_Source\PSoC4/blue_1.c **** *     
 693:Generated_Source\PSoC4/blue_1.c **** ******************************************************************************/
 694:Generated_Source\PSoC4/blue_1.c **** CYBLE_API_RESULT_T CyBle_GapRemoveBondedDevice(CYBLE_GAP_BD_ADDR_T* bdAddr)
 695:Generated_Source\PSoC4/blue_1.c **** {
 744              		.loc 1 695 0
 745              		.cfi_startproc
 746              		@ args = 0, pretend = 0, frame = 24
 747              		@ frame_needed = 1, uses_anonymous_args = 0
 748 0000 90B5     		push	{r4, r7, lr}
 749              		.cfi_def_cfa_offset 12
 750              		.cfi_offset 4, -12
 751              		.cfi_offset 7, -8
 752              		.cfi_offset 14, -4
 753 0002 87B0     		sub	sp, sp, #28
 754              		.cfi_def_cfa_offset 40
 755 0004 00AF     		add	r7, sp, #0
 756              		.cfi_def_cfa_register 7
 757 0006 7860     		str	r0, [r7, #4]
 696:Generated_Source\PSoC4/blue_1.c ****     CYBLE_API_RESULT_T apiResult = CYBLE_ERROR_OK;
 758              		.loc 1 696 0
 759 0008 1623     		movs	r3, #22
 760 000a FB18     		adds	r3, r7, r3
 761 000c 0022     		movs	r2, #0
 762 000e 1A80     		strh	r2, [r3]
 697:Generated_Source\PSoC4/blue_1.c ****     
 698:Generated_Source\PSoC4/blue_1.c ****     if(cyBle_pendingFlashWrite == 0u)
 763              		.loc 1 698 0
 764 0010 284B     		ldr	r3, .L36
 765 0012 1B78     		ldrb	r3, [r3]
 766 0014 002B     		cmp	r3, #0
 767 0016 42D1     		bne	.L30
 768              	.LBB5:
 699:Generated_Source\PSoC4/blue_1.c ****     {
 700:Generated_Source\PSoC4/blue_1.c ****         
 701:Generated_Source\PSoC4/blue_1.c ****     #if(CYBLE_GATT_DB_CCCD_COUNT != 0u)
 702:Generated_Source\PSoC4/blue_1.c ****         /* Request to clear CCCD values which will be done by CyBle_StoreBondingData() */
ARM GAS  C:\Users\alexport\AppData\Local\Temp\ccf6k4ea.s 			page 27


 703:Generated_Source\PSoC4/blue_1.c ****         uint8 bDevHandle;
 704:Generated_Source\PSoC4/blue_1.c ****         CYBLE_GAP_BD_ADDR_T invalidBdAddr = {{0u,0u,0u,0u,0u,0u}, 0u};
 769              		.loc 1 704 0
 770 0018 0C23     		movs	r3, #12
 771 001a FB18     		adds	r3, r7, r3
 772 001c 1800     		movs	r0, r3
 773 001e 0723     		movs	r3, #7
 774 0020 1A00     		movs	r2, r3
 775 0022 0021     		movs	r1, #0
 776 0024 FFF7FEFF 		bl	memset
 705:Generated_Source\PSoC4/blue_1.c **** 
 706:Generated_Source\PSoC4/blue_1.c ****         if(memcmp(((uint8 *) &(bdAddr->bdAddr)), ((uint8 *) &(invalidBdAddr.bdAddr)), CYBLE_GAP_BD_
 777              		.loc 1 706 0
 778 0028 7B68     		ldr	r3, [r7, #4]
 779 002a 0C22     		movs	r2, #12
 780 002c B918     		adds	r1, r7, r2
 781 002e 0622     		movs	r2, #6
 782 0030 1800     		movs	r0, r3
 783 0032 FFF7FEFF 		bl	memcmp
 784 0036 031E     		subs	r3, r0, #0
 785 0038 07D1     		bne	.L31
 707:Generated_Source\PSoC4/blue_1.c **** 	    {
 708:Generated_Source\PSoC4/blue_1.c ****             /* Request to remove all bonded devices by CyBle_StoreBondingData() */
 709:Generated_Source\PSoC4/blue_1.c ****             cyBle_pendingFlashWrite |= CYBLE_PENDING_CCCD_FLASH_CLEAR_ALL_BIT;
 786              		.loc 1 709 0
 787 003a 1E4B     		ldr	r3, .L36
 788 003c 1B78     		ldrb	r3, [r3]
 789 003e 0822     		movs	r2, #8
 790 0040 1343     		orrs	r3, r2
 791 0042 DAB2     		uxtb	r2, r3
 792 0044 1B4B     		ldr	r3, .L36
 793 0046 1A70     		strb	r2, [r3]
 794 0048 1BE0     		b	.L32
 795              	.L31:
 710:Generated_Source\PSoC4/blue_1.c ****         }
 711:Generated_Source\PSoC4/blue_1.c ****         else
 712:Generated_Source\PSoC4/blue_1.c ****         {
 713:Generated_Source\PSoC4/blue_1.c ****             /* Get the BD handle from Address */
 714:Generated_Source\PSoC4/blue_1.c ****             apiResult = CyBle_GapGetPeerBdHandle(&bDevHandle, bdAddr);
 796              		.loc 1 714 0
 797 004a 1623     		movs	r3, #22
 798 004c FC18     		adds	r4, r7, r3
 799 004e 7A68     		ldr	r2, [r7, #4]
 800 0050 1523     		movs	r3, #21
 801 0052 FB18     		adds	r3, r7, r3
 802 0054 1100     		movs	r1, r2
 803 0056 1800     		movs	r0, r3
 804 0058 FFF7FEFF 		bl	CyBle_GapGetPeerBdHandle
 805 005c 0300     		movs	r3, r0
 806 005e 2380     		strh	r3, [r4]
 715:Generated_Source\PSoC4/blue_1.c ****             if(apiResult == CYBLE_ERROR_OK)
 807              		.loc 1 715 0
 808 0060 1623     		movs	r3, #22
 809 0062 FB18     		adds	r3, r7, r3
 810 0064 1B88     		ldrh	r3, [r3]
 811 0066 002B     		cmp	r3, #0
 812 0068 0BD1     		bne	.L32
ARM GAS  C:\Users\alexport\AppData\Local\Temp\ccf6k4ea.s 			page 28


 716:Generated_Source\PSoC4/blue_1.c ****             {
 717:Generated_Source\PSoC4/blue_1.c ****                 /* Store BD handle to clear cccd values by CyBle_StoreBondingData() */
 718:Generated_Source\PSoC4/blue_1.c ****                 cyBle_pendingFlashWrite |= CYBLE_PENDING_CCCD_FLASH_CLEAR_BIT;
 813              		.loc 1 718 0
 814 006a 124B     		ldr	r3, .L36
 815 006c 1B78     		ldrb	r3, [r3]
 816 006e 0422     		movs	r2, #4
 817 0070 1343     		orrs	r3, r2
 818 0072 DAB2     		uxtb	r2, r3
 819 0074 0F4B     		ldr	r3, .L36
 820 0076 1A70     		strb	r2, [r3]
 719:Generated_Source\PSoC4/blue_1.c ****                 cyBle_pendingFlashClearCccdHandle = bDevHandle;
 821              		.loc 1 719 0
 822 0078 1523     		movs	r3, #21
 823 007a FB18     		adds	r3, r7, r3
 824 007c 1A78     		ldrb	r2, [r3]
 825 007e 0E4B     		ldr	r3, .L36+4
 826 0080 1A70     		strb	r2, [r3]
 827              	.L32:
 720:Generated_Source\PSoC4/blue_1.c ****             }
 721:Generated_Source\PSoC4/blue_1.c ****         }
 722:Generated_Source\PSoC4/blue_1.c ****     #endif /* CYBLE_GATT_DB_CCCD_COUNT != 0u */
 723:Generated_Source\PSoC4/blue_1.c ****         if(apiResult == CYBLE_ERROR_OK)
 828              		.loc 1 723 0
 829 0082 1623     		movs	r3, #22
 830 0084 FB18     		adds	r3, r7, r3
 831 0086 1B88     		ldrh	r3, [r3]
 832 0088 002B     		cmp	r3, #0
 833 008a 0CD1     		bne	.L34
 724:Generated_Source\PSoC4/blue_1.c ****         {
 725:Generated_Source\PSoC4/blue_1.c ****             apiResult = CyBle_GapRemoveDeviceFromWhiteList(bdAddr);
 834              		.loc 1 725 0
 835 008c 1623     		movs	r3, #22
 836 008e FC18     		adds	r4, r7, r3
 837 0090 7B68     		ldr	r3, [r7, #4]
 838 0092 1800     		movs	r0, r3
 839 0094 FFF7FEFF 		bl	CyBle_GapRemoveDeviceFromWhiteList
 840 0098 0300     		movs	r3, r0
 841 009a 2380     		strh	r3, [r4]
 842 009c 03E0     		b	.L34
 843              	.L30:
 844              	.LBE5:
 726:Generated_Source\PSoC4/blue_1.c ****         }
 727:Generated_Source\PSoC4/blue_1.c ****     }
 728:Generated_Source\PSoC4/blue_1.c ****     else
 729:Generated_Source\PSoC4/blue_1.c ****     {
 730:Generated_Source\PSoC4/blue_1.c ****         apiResult = CYBLE_ERROR_INVALID_OPERATION;
 845              		.loc 1 730 0
 846 009e 1623     		movs	r3, #22
 847 00a0 FB18     		adds	r3, r7, r3
 848 00a2 0222     		movs	r2, #2
 849 00a4 1A80     		strh	r2, [r3]
 850              	.L34:
 731:Generated_Source\PSoC4/blue_1.c ****     }
 732:Generated_Source\PSoC4/blue_1.c ****     
 733:Generated_Source\PSoC4/blue_1.c ****     return(apiResult);
 851              		.loc 1 733 0
ARM GAS  C:\Users\alexport\AppData\Local\Temp\ccf6k4ea.s 			page 29


 852 00a6 1623     		movs	r3, #22
 853 00a8 FB18     		adds	r3, r7, r3
 854 00aa 1B88     		ldrh	r3, [r3]
 734:Generated_Source\PSoC4/blue_1.c **** }
 855              		.loc 1 734 0
 856 00ac 1800     		movs	r0, r3
 857 00ae BD46     		mov	sp, r7
 858 00b0 07B0     		add	sp, sp, #28
 859              		@ sp needed
 860 00b2 90BD     		pop	{r4, r7, pc}
 861              	.L37:
 862              		.align	2
 863              	.L36:
 864 00b4 00000000 		.word	cyBle_pendingFlashWrite
 865 00b8 24000000 		.word	cyBle_pendingFlashClearCccdHandle
 866              		.cfi_endproc
 867              	.LFE7:
 868              		.size	CyBle_GapRemoveBondedDevice, .-CyBle_GapRemoveBondedDevice
 869              		.section	.text.CyBle_GappStartAdvertisement,"ax",%progbits
 870              		.align	2
 871              		.global	CyBle_GappStartAdvertisement
 872              		.code	16
 873              		.thumb_func
 874              		.type	CyBle_GappStartAdvertisement, %function
 875              	CyBle_GappStartAdvertisement:
 876              	.LFB8:
 735:Generated_Source\PSoC4/blue_1.c **** 
 736:Generated_Source\PSoC4/blue_1.c **** 
 737:Generated_Source\PSoC4/blue_1.c **** #endif /* (CYBLE_GAP_ROLE_PERIPHERAL || CYBLE_GAP_ROLE_CENTRAL) && (CYBLE_BONDING_REQUIREMENT == CY
 738:Generated_Source\PSoC4/blue_1.c **** 
 739:Generated_Source\PSoC4/blue_1.c **** 
 740:Generated_Source\PSoC4/blue_1.c **** #if(CYBLE_GAP_ROLE_PERIPHERAL || CYBLE_GAP_ROLE_BROADCASTER)
 741:Generated_Source\PSoC4/blue_1.c **** 
 742:Generated_Source\PSoC4/blue_1.c ****     /******************************************************************************
 743:Generated_Source\PSoC4/blue_1.c ****     *  Function Name: CyBle_GappStartAdvertisement
 744:Generated_Source\PSoC4/blue_1.c ****     ***************************************************************************//**
 745:Generated_Source\PSoC4/blue_1.c ****     *     
 746:Generated_Source\PSoC4/blue_1.c ****     *  This function is used to start the advertisement using the advertisement data 
 747:Generated_Source\PSoC4/blue_1.c ****     *  set in the component customizer's GUI. After invoking this function, the 
 748:Generated_Source\PSoC4/blue_1.c ****     *  device will be available for connection by the devices configured for GAP 
 749:Generated_Source\PSoC4/blue_1.c ****     *  central role. It is only included if the device is configured for GAP 
 750:Generated_Source\PSoC4/blue_1.c ****     *  Peripheral or GAP Peripheral + Central role.
 751:Generated_Source\PSoC4/blue_1.c ****     *  
 752:Generated_Source\PSoC4/blue_1.c ****     *  On start of advertisement, GAP Peripheral receives the
 753:Generated_Source\PSoC4/blue_1.c ****     *  CYBLE_EVT_GAPP_ADVERTISEMENT_START_STOP event. The following events are 
 754:Generated_Source\PSoC4/blue_1.c ****     *  possible on invoking this function:
 755:Generated_Source\PSoC4/blue_1.c ****     *  
 756:Generated_Source\PSoC4/blue_1.c ****     *  * CYBLE_EVT_GAP_DEVICE_CONNECTED - If the device connects to a GAP Central and 
 757:Generated_Source\PSoC4/blue_1.c ****     *    Link Layer Privacy is disabled in component customizer.
 758:Generated_Source\PSoC4/blue_1.c ****     *  * CYBLE_EVT_GAP_ENHANCE_CONN_COMPLETE - If the device connects to a GAP Central and 
 759:Generated_Source\PSoC4/blue_1.c ****     *    Link Layer Privacy is enabled in component customizer.
 760:Generated_Source\PSoC4/blue_1.c ****     *  * CYBLE_EVT_TIMEOUT: If no device in GAP Central mode connects to this 
 761:Generated_Source\PSoC4/blue_1.c ****     *                       device within the specified timeout limit. Stack 
 762:Generated_Source\PSoC4/blue_1.c ****     *                       automatically initiate stop advertising when Slow 
 763:Generated_Source\PSoC4/blue_1.c ****     *                       advertising was initiated, or starts Slow advertising
 764:Generated_Source\PSoC4/blue_1.c ****     *                       after Fast advertising timeout occur.
 765:Generated_Source\PSoC4/blue_1.c ****     *  * CYBLE_EVT_GAPP_ADVERTISEMENT_START_STOP: If device started or stopped
ARM GAS  C:\Users\alexport\AppData\Local\Temp\ccf6k4ea.s 			page 30


 766:Generated_Source\PSoC4/blue_1.c ****     *                                               advertising. Use CyBle_GetState()
 767:Generated_Source\PSoC4/blue_1.c ****     *                                               to determine the state. Sequential 
 768:Generated_Source\PSoC4/blue_1.c ****     *                                               advertising could be started when
 769:Generated_Source\PSoC4/blue_1.c ****     *                                               CYBLE_STATE_DISCONNECTED state is
 770:Generated_Source\PSoC4/blue_1.c ****     *                                               returned.
 771:Generated_Source\PSoC4/blue_1.c ****     * 
 772:Generated_Source\PSoC4/blue_1.c ****     *  \param advertisingIntervalType: Fast or slow advertising interval with timings
 773:Generated_Source\PSoC4/blue_1.c ****     *                                 entered in Advertising settings section of the
 774:Generated_Source\PSoC4/blue_1.c ****     *                                 customizer.
 775:Generated_Source\PSoC4/blue_1.c ****     *  * CYBLE_ADVERTISING_FAST   0x00u
 776:Generated_Source\PSoC4/blue_1.c ****     *  * CYBLE_ADVERTISING_SLOW   0x01u
 777:Generated_Source\PSoC4/blue_1.c ****     *  * CYBLE_ADVERTISING_CUSTOM 0x02u
 778:Generated_Source\PSoC4/blue_1.c ****     * 
 779:Generated_Source\PSoC4/blue_1.c ****     * \return
 780:Generated_Source\PSoC4/blue_1.c ****     *  CYBLE_API_RESULT_T : Return value indicates if the function succeeded or
 781:Generated_Source\PSoC4/blue_1.c ****     *  failed. Following are the possible error codes.
 782:Generated_Source\PSoC4/blue_1.c ****     * 
 783:Generated_Source\PSoC4/blue_1.c ****     *   Errors codes                      |  Description
 784:Generated_Source\PSoC4/blue_1.c ****     *   --------------------------------- |  --------------------------------
 785:Generated_Source\PSoC4/blue_1.c ****     *   CYBLE_ERROR_OK                    |  On successful operation.
 786:Generated_Source\PSoC4/blue_1.c ****     *   CYBLE_ERROR_INVALID_PARAMETER     |  On passing an invalid parameter.
 787:Generated_Source\PSoC4/blue_1.c ****     *   CYBLE_ERROR_INVALID_STATE         |  On calling this function not in Disconnected state.
 788:Generated_Source\PSoC4/blue_1.c ****     *
 789:Generated_Source\PSoC4/blue_1.c ****     * 
 790:Generated_Source\PSoC4/blue_1.c ****     *******************************************************************************/
 791:Generated_Source\PSoC4/blue_1.c ****     CYBLE_API_RESULT_T CyBle_GappStartAdvertisement(uint8 advertisingIntervalType)
 792:Generated_Source\PSoC4/blue_1.c ****     {
 877              		.loc 1 792 0
 878              		.cfi_startproc
 879              		@ args = 0, pretend = 0, frame = 16
 880              		@ frame_needed = 1, uses_anonymous_args = 0
 881 0000 90B5     		push	{r4, r7, lr}
 882              		.cfi_def_cfa_offset 12
 883              		.cfi_offset 4, -12
 884              		.cfi_offset 7, -8
 885              		.cfi_offset 14, -4
 886 0002 85B0     		sub	sp, sp, #20
 887              		.cfi_def_cfa_offset 32
 888 0004 00AF     		add	r7, sp, #0
 889              		.cfi_def_cfa_register 7
 890 0006 0200     		movs	r2, r0
 891 0008 FB1D     		adds	r3, r7, #7
 892 000a 1A70     		strb	r2, [r3]
 793:Generated_Source\PSoC4/blue_1.c ****         CYBLE_API_RESULT_T apiResult;
 794:Generated_Source\PSoC4/blue_1.c ****         
 795:Generated_Source\PSoC4/blue_1.c ****         if(advertisingIntervalType > CYBLE_ADVERTISING_CUSTOM)
 893              		.loc 1 795 0
 894 000c FB1D     		adds	r3, r7, #7
 895 000e 1B78     		ldrb	r3, [r3]
 896 0010 022B     		cmp	r3, #2
 897 0012 04D9     		bls	.L39
 796:Generated_Source\PSoC4/blue_1.c ****         {
 797:Generated_Source\PSoC4/blue_1.c ****             apiResult = CYBLE_ERROR_INVALID_PARAMETER;
 898              		.loc 1 797 0
 899 0014 0E23     		movs	r3, #14
 900 0016 FB18     		adds	r3, r7, r3
 901 0018 0122     		movs	r2, #1
ARM GAS  C:\Users\alexport\AppData\Local\Temp\ccf6k4ea.s 			page 31


 902 001a 1A80     		strh	r2, [r3]
 903 001c 4AE0     		b	.L40
 904              	.L39:
 798:Generated_Source\PSoC4/blue_1.c ****         }
 799:Generated_Source\PSoC4/blue_1.c ****         else if((CYBLE_STATE_DISCONNECTED == CyBle_GetState()) && ((cyBle_eventHandlerFlag & CYBLE_
 905              		.loc 1 799 0
 906 001e 294B     		ldr	r3, .L46
 907 0020 1B78     		ldrb	r3, [r3]
 908 0022 042B     		cmp	r3, #4
 909 0024 41D1     		bne	.L41
 910              		.loc 1 799 0 is_stmt 0 discriminator 1
 911 0026 284B     		ldr	r3, .L46+4
 912 0028 1B78     		ldrb	r3, [r3]
 913 002a DBB2     		uxtb	r3, r3
 914 002c 1A00     		movs	r2, r3
 915 002e 0423     		movs	r3, #4
 916 0030 1340     		ands	r3, r2
 917 0032 3AD1     		bne	.L41
 800:Generated_Source\PSoC4/blue_1.c ****         {   
 801:Generated_Source\PSoC4/blue_1.c ****             if(advertisingIntervalType == CYBLE_ADVERTISING_FAST)
 918              		.loc 1 801 0 is_stmt 1
 919 0034 FB1D     		adds	r3, r7, #7
 920 0036 1B78     		ldrb	r3, [r3]
 921 0038 002B     		cmp	r3, #0
 922 003a 0BD1     		bne	.L42
 802:Generated_Source\PSoC4/blue_1.c ****             {
 803:Generated_Source\PSoC4/blue_1.c ****                 cyBle_discoveryModeInfo.advTo = CYBLE_FAST_ADV_TIMEOUT;
 923              		.loc 1 803 0
 924 003c 234B     		ldr	r3, .L46+8
 925 003e 0022     		movs	r2, #0
 926 0040 1A82     		strh	r2, [r3, #16]
 804:Generated_Source\PSoC4/blue_1.c ****                 cyBle_discoveryModeInfo.advParam->advIntvMin = CYBLE_FAST_ADV_INT_MIN;
 927              		.loc 1 804 0
 928 0042 224B     		ldr	r3, .L46+8
 929 0044 5B68     		ldr	r3, [r3, #4]
 930 0046 2022     		movs	r2, #32
 931 0048 1A80     		strh	r2, [r3]
 805:Generated_Source\PSoC4/blue_1.c ****                 cyBle_discoveryModeInfo.advParam->advIntvMax = CYBLE_FAST_ADV_INT_MAX;
 932              		.loc 1 805 0
 933 004a 204B     		ldr	r3, .L46+8
 934 004c 5B68     		ldr	r3, [r3, #4]
 935 004e 3022     		movs	r2, #48
 936 0050 5A80     		strh	r2, [r3, #2]
 937 0052 10E0     		b	.L43
 938              	.L42:
 806:Generated_Source\PSoC4/blue_1.c ****             }
 807:Generated_Source\PSoC4/blue_1.c ****             else if(advertisingIntervalType == CYBLE_ADVERTISING_SLOW)
 939              		.loc 1 807 0
 940 0054 FB1D     		adds	r3, r7, #7
 941 0056 1B78     		ldrb	r3, [r3]
 942 0058 012B     		cmp	r3, #1
 943 005a 0CD1     		bne	.L43
 808:Generated_Source\PSoC4/blue_1.c ****             {
 809:Generated_Source\PSoC4/blue_1.c ****                 cyBle_discoveryModeInfo.advTo = CYBLE_SLOW_ADV_TIMEOUT;
 944              		.loc 1 809 0
 945 005c 1B4B     		ldr	r3, .L46+8
 946 005e 9622     		movs	r2, #150
ARM GAS  C:\Users\alexport\AppData\Local\Temp\ccf6k4ea.s 			page 32


 947 0060 1A82     		strh	r2, [r3, #16]
 810:Generated_Source\PSoC4/blue_1.c ****                 cyBle_discoveryModeInfo.advParam->advIntvMin = CYBLE_SLOW_ADV_INT_MIN;
 948              		.loc 1 810 0
 949 0062 1A4B     		ldr	r3, .L46+8
 950 0064 5B68     		ldr	r3, [r3, #4]
 951 0066 C822     		movs	r2, #200
 952 0068 D200     		lsls	r2, r2, #3
 953 006a 1A80     		strh	r2, [r3]
 811:Generated_Source\PSoC4/blue_1.c ****                 cyBle_discoveryModeInfo.advParam->advIntvMax = CYBLE_SLOW_ADV_INT_MAX;
 954              		.loc 1 811 0
 955 006c 174B     		ldr	r3, .L46+8
 956 006e 5B68     		ldr	r3, [r3, #4]
 957 0070 8022     		movs	r2, #128
 958 0072 D201     		lsls	r2, r2, #7
 959 0074 5A80     		strh	r2, [r3, #2]
 960              	.L43:
 812:Generated_Source\PSoC4/blue_1.c ****             }       
 813:Generated_Source\PSoC4/blue_1.c ****             else /* Do not update advertising intervals */
 814:Generated_Source\PSoC4/blue_1.c ****             {
 815:Generated_Source\PSoC4/blue_1.c ****             }
 816:Generated_Source\PSoC4/blue_1.c ****             cyBle_advertisingIntervalType = advertisingIntervalType;
 961              		.loc 1 816 0
 962 0076 164B     		ldr	r3, .L46+12
 963 0078 FA1D     		adds	r2, r7, #7
 964 007a 1278     		ldrb	r2, [r2]
 965 007c 1A70     		strb	r2, [r3]
 817:Generated_Source\PSoC4/blue_1.c ****             apiResult = CyBle_GappEnterDiscoveryMode(&cyBle_discoveryModeInfo);
 966              		.loc 1 817 0
 967 007e 0E23     		movs	r3, #14
 968 0080 FC18     		adds	r4, r7, r3
 969 0082 124B     		ldr	r3, .L46+8
 970 0084 1800     		movs	r0, r3
 971 0086 FFF7FEFF 		bl	CyBle_GappEnterDiscoveryMode
 972 008a 0300     		movs	r3, r0
 973 008c 2380     		strh	r3, [r4]
 818:Generated_Source\PSoC4/blue_1.c ****         
 819:Generated_Source\PSoC4/blue_1.c ****             if(apiResult == CYBLE_ERROR_OK)
 974              		.loc 1 819 0
 975 008e 0E23     		movs	r3, #14
 976 0090 FB18     		adds	r3, r7, r3
 977 0092 1B88     		ldrh	r3, [r3]
 978 0094 002B     		cmp	r3, #0
 979 0096 0DD1     		bne	.L40
 820:Generated_Source\PSoC4/blue_1.c ****             {
 821:Generated_Source\PSoC4/blue_1.c ****                 cyBle_eventHandlerFlag |= CYBLE_START_FLAG;
 980              		.loc 1 821 0
 981 0098 0B4B     		ldr	r3, .L46+4
 982 009a 1B78     		ldrb	r3, [r3]
 983 009c DBB2     		uxtb	r3, r3
 984 009e 0422     		movs	r2, #4
 985 00a0 1343     		orrs	r3, r2
 986 00a2 DAB2     		uxtb	r2, r3
 987 00a4 084B     		ldr	r3, .L46+4
 988 00a6 1A70     		strb	r2, [r3]
 819:Generated_Source\PSoC4/blue_1.c ****             {
 989              		.loc 1 819 0
 990 00a8 04E0     		b	.L40
ARM GAS  C:\Users\alexport\AppData\Local\Temp\ccf6k4ea.s 			page 33


 991              	.L41:
 822:Generated_Source\PSoC4/blue_1.c ****             }
 823:Generated_Source\PSoC4/blue_1.c ****         }
 824:Generated_Source\PSoC4/blue_1.c ****         else
 825:Generated_Source\PSoC4/blue_1.c ****         {
 826:Generated_Source\PSoC4/blue_1.c ****             apiResult = CYBLE_ERROR_INVALID_STATE;
 992              		.loc 1 826 0
 993 00aa 0E23     		movs	r3, #14
 994 00ac FB18     		adds	r3, r7, r3
 995 00ae 0422     		movs	r2, #4
 996 00b0 FF32     		adds	r2, r2, #255
 997 00b2 1A80     		strh	r2, [r3]
 998              	.L40:
 827:Generated_Source\PSoC4/blue_1.c ****         }
 828:Generated_Source\PSoC4/blue_1.c **** 
 829:Generated_Source\PSoC4/blue_1.c ****         return (apiResult);
 999              		.loc 1 829 0
 1000 00b4 0E23     		movs	r3, #14
 1001 00b6 FB18     		adds	r3, r7, r3
 1002 00b8 1B88     		ldrh	r3, [r3]
 830:Generated_Source\PSoC4/blue_1.c ****     }
 1003              		.loc 1 830 0
 1004 00ba 1800     		movs	r0, r3
 1005 00bc BD46     		mov	sp, r7
 1006 00be 05B0     		add	sp, sp, #20
 1007              		@ sp needed
 1008 00c0 90BD     		pop	{r4, r7, pc}
 1009              	.L47:
 1010 00c2 C046     		.align	2
 1011              	.L46:
 1012 00c4 00000000 		.word	cyBle_state
 1013 00c8 00000000 		.word	cyBle_eventHandlerFlag
 1014 00cc 00000000 		.word	cyBle_discoveryModeInfo
 1015 00d0 00000000 		.word	cyBle_advertisingIntervalType
 1016              		.cfi_endproc
 1017              	.LFE8:
 1018              		.size	CyBle_GappStartAdvertisement, .-CyBle_GappStartAdvertisement
 1019              		.section	.text.CyBle_GappStopAdvertisement,"ax",%progbits
 1020              		.align	2
 1021              		.global	CyBle_GappStopAdvertisement
 1022              		.code	16
 1023              		.thumb_func
 1024              		.type	CyBle_GappStopAdvertisement, %function
 1025              	CyBle_GappStopAdvertisement:
 1026              	.LFB9:
 831:Generated_Source\PSoC4/blue_1.c **** 
 832:Generated_Source\PSoC4/blue_1.c ****     
 833:Generated_Source\PSoC4/blue_1.c ****     /******************************************************************************
 834:Generated_Source\PSoC4/blue_1.c ****     * Function Name: CyBle_GappStopAdvertisement
 835:Generated_Source\PSoC4/blue_1.c ****     ***************************************************************************//**
 836:Generated_Source\PSoC4/blue_1.c ****     * 
 837:Generated_Source\PSoC4/blue_1.c ****     *   This function can be used to exit from discovery mode. After the execution 
 838:Generated_Source\PSoC4/blue_1.c ****     *   of this function, there will no longer be any advertisements. On stopping 
 839:Generated_Source\PSoC4/blue_1.c ****     *   advertising, GAP Peripheral receives CYBLE_EVT_GAPP_ADVERTISEMENT_START_STOP
 840:Generated_Source\PSoC4/blue_1.c ****     *   event. It is expected that the application layer tracks the function call 
 841:Generated_Source\PSoC4/blue_1.c ****     *   performed before occurrence of this event as this event can occur on making 
 842:Generated_Source\PSoC4/blue_1.c ****     *   a call to Cy_BleGappStartAdvertisement(), CyBle_GappEnterDiscoveryMode(), 
ARM GAS  C:\Users\alexport\AppData\Local\Temp\ccf6k4ea.s 			page 34


 843:Generated_Source\PSoC4/blue_1.c ****     *   or CyBle_GappStartAdvertisement() functions as well.
 844:Generated_Source\PSoC4/blue_1.c ****     *   
 845:Generated_Source\PSoC4/blue_1.c ****     *   The following event occurs on invoking this function:
 846:Generated_Source\PSoC4/blue_1.c ****     *   * CYBLE_EVT_GAPP_ADVERTISEMENT_START_STOP
 847:Generated_Source\PSoC4/blue_1.c ****     * 
 848:Generated_Source\PSoC4/blue_1.c ****     *  \return
 849:Generated_Source\PSoC4/blue_1.c ****     *   None
 850:Generated_Source\PSoC4/blue_1.c ****     * 
 851:Generated_Source\PSoC4/blue_1.c ****     *******************************************************************************/
 852:Generated_Source\PSoC4/blue_1.c ****     void CyBle_GappStopAdvertisement(void)
 853:Generated_Source\PSoC4/blue_1.c ****     {
 1027              		.loc 1 853 0
 1028              		.cfi_startproc
 1029              		@ args = 0, pretend = 0, frame = 0
 1030              		@ frame_needed = 1, uses_anonymous_args = 0
 1031 0000 80B5     		push	{r7, lr}
 1032              		.cfi_def_cfa_offset 8
 1033              		.cfi_offset 7, -8
 1034              		.cfi_offset 14, -4
 1035 0002 00AF     		add	r7, sp, #0
 1036              		.cfi_def_cfa_register 7
 854:Generated_Source\PSoC4/blue_1.c ****         CyBle_GappExitDiscoveryMode();
 1037              		.loc 1 854 0
 1038 0004 FFF7FEFF 		bl	CyBle_GappExitDiscoveryMode
 855:Generated_Source\PSoC4/blue_1.c ****         cyBle_eventHandlerFlag |= CYBLE_STOP_FLAG;
 1039              		.loc 1 855 0
 1040 0008 054B     		ldr	r3, .L49
 1041 000a 1B78     		ldrb	r3, [r3]
 1042 000c DBB2     		uxtb	r3, r3
 1043 000e 0822     		movs	r2, #8
 1044 0010 1343     		orrs	r3, r2
 1045 0012 DAB2     		uxtb	r2, r3
 1046 0014 024B     		ldr	r3, .L49
 1047 0016 1A70     		strb	r2, [r3]
 856:Generated_Source\PSoC4/blue_1.c ****     }
 1048              		.loc 1 856 0
 1049 0018 C046     		nop
 1050 001a BD46     		mov	sp, r7
 1051              		@ sp needed
 1052 001c 80BD     		pop	{r7, pc}
 1053              	.L50:
 1054 001e C046     		.align	2
 1055              	.L49:
 1056 0020 00000000 		.word	cyBle_eventHandlerFlag
 1057              		.cfi_endproc
 1058              	.LFE9:
 1059              		.size	CyBle_GappStopAdvertisement, .-CyBle_GappStopAdvertisement
 1060              		.section	.text.CyBle_ChangeAdDeviceAddress,"ax",%progbits
 1061              		.align	2
 1062              		.global	CyBle_ChangeAdDeviceAddress
 1063              		.code	16
 1064              		.thumb_func
 1065              		.type	CyBle_ChangeAdDeviceAddress, %function
 1066              	CyBle_ChangeAdDeviceAddress:
 1067              	.LFB10:
 857:Generated_Source\PSoC4/blue_1.c ****     
 858:Generated_Source\PSoC4/blue_1.c ****     
ARM GAS  C:\Users\alexport\AppData\Local\Temp\ccf6k4ea.s 			page 35


 859:Generated_Source\PSoC4/blue_1.c ****     /******************************************************************************
 860:Generated_Source\PSoC4/blue_1.c ****     * Function Name: CyBle_ChangeAdDeviceAddress
 861:Generated_Source\PSoC4/blue_1.c ****     ***************************************************************************//**
 862:Generated_Source\PSoC4/blue_1.c ****     * 
 863:Generated_Source\PSoC4/blue_1.c ****     *  This function is used to set the Bluetooth device address into the 
 864:Generated_Source\PSoC4/blue_1.c ****     *  advertisement or scan response data structure.
 865:Generated_Source\PSoC4/blue_1.c ****     * 
 866:Generated_Source\PSoC4/blue_1.c ****     *  \param bdAddr: Bluetooth Device address. The variable is of type CYBLE_GAP_BD_ADDR_T
 867:Generated_Source\PSoC4/blue_1.c ****     *  \param dest: 0 - selects advertisement structure, not zero value selects scan 
 868:Generated_Source\PSoC4/blue_1.c ****     *               response structure.
 869:Generated_Source\PSoC4/blue_1.c ****     * 
 870:Generated_Source\PSoC4/blue_1.c ****     * \return
 871:Generated_Source\PSoC4/blue_1.c ****     *  None
 872:Generated_Source\PSoC4/blue_1.c ****     *  
 873:Generated_Source\PSoC4/blue_1.c ****     *******************************************************************************/
 874:Generated_Source\PSoC4/blue_1.c ****     void CyBle_ChangeAdDeviceAddress(const CYBLE_GAP_BD_ADDR_T* bdAddr, uint8 dest)
 875:Generated_Source\PSoC4/blue_1.c ****     {
 1068              		.loc 1 875 0
 1069              		.cfi_startproc
 1070              		@ args = 0, pretend = 0, frame = 16
 1071              		@ frame_needed = 1, uses_anonymous_args = 0
 1072 0000 80B5     		push	{r7, lr}
 1073              		.cfi_def_cfa_offset 8
 1074              		.cfi_offset 7, -8
 1075              		.cfi_offset 14, -4
 1076 0002 84B0     		sub	sp, sp, #16
 1077              		.cfi_def_cfa_offset 24
 1078 0004 00AF     		add	r7, sp, #0
 1079              		.cfi_def_cfa_register 7
 1080 0006 7860     		str	r0, [r7, #4]
 1081 0008 0A00     		movs	r2, r1
 1082 000a FB1C     		adds	r3, r7, #3
 1083 000c 1A70     		strb	r2, [r3]
 876:Generated_Source\PSoC4/blue_1.c ****         uint8 i;
 877:Generated_Source\PSoC4/blue_1.c ****         uint8 *destBuffer = NULL;
 1084              		.loc 1 877 0
 1085 000e 0023     		movs	r3, #0
 1086 0010 BB60     		str	r3, [r7, #8]
 878:Generated_Source\PSoC4/blue_1.c ****         
 879:Generated_Source\PSoC4/blue_1.c ****         if(dest == 0u)      /* Destination - advertising structure */
 880:Generated_Source\PSoC4/blue_1.c ****         {
 881:Generated_Source\PSoC4/blue_1.c ****             #ifdef CYBLE_ADV_PKT_INDEX_BLUETOOTH_DEVICE_ADDRESS
 882:Generated_Source\PSoC4/blue_1.c ****                 destBuffer = &cyBle_discoveryData.advData[CYBLE_ADV_PKT_INDEX_BLUETOOTH_DEVICE_ADDR
 883:Generated_Source\PSoC4/blue_1.c ****             #endif /* CYBLE_ADV_PKT_INDEX_BLUETOOTH_DEVICE_ADDRESS */
 884:Generated_Source\PSoC4/blue_1.c ****         }
 885:Generated_Source\PSoC4/blue_1.c ****         else                /* Destination - scan response structure */
 886:Generated_Source\PSoC4/blue_1.c ****         {
 887:Generated_Source\PSoC4/blue_1.c ****             #ifdef CYBLE_SCN_PKT_INDEX_BLUETOOTH_DEVICE_ADDRESS
 888:Generated_Source\PSoC4/blue_1.c ****                 destBuffer = &cyBle_scanRspData.scanRspData[CYBLE_SCN_PKT_INDEX_BLUETOOTH_DEVICE_AD
 889:Generated_Source\PSoC4/blue_1.c ****             #endif /* CYBLE_SCN_PKT_INDEX_BLUETOOTH_DEVICE_ADDRESS */    
 890:Generated_Source\PSoC4/blue_1.c ****         }
 891:Generated_Source\PSoC4/blue_1.c ****         
 892:Generated_Source\PSoC4/blue_1.c ****         if(destBuffer != NULL)
 1087              		.loc 1 892 0
 1088 0012 BB68     		ldr	r3, [r7, #8]
 1089 0014 002B     		cmp	r3, #0
 1090 0016 20D0     		beq	.L55
ARM GAS  C:\Users\alexport\AppData\Local\Temp\ccf6k4ea.s 			page 36


 893:Generated_Source\PSoC4/blue_1.c ****         {
 894:Generated_Source\PSoC4/blue_1.c ****             /* Update Device Address type */
 895:Generated_Source\PSoC4/blue_1.c ****             destBuffer[0u] = bdAddr->type;
 1091              		.loc 1 895 0
 1092 0018 7B68     		ldr	r3, [r7, #4]
 1093 001a 9A79     		ldrb	r2, [r3, #6]
 1094 001c BB68     		ldr	r3, [r7, #8]
 1095 001e 1A70     		strb	r2, [r3]
 896:Generated_Source\PSoC4/blue_1.c ****             
 897:Generated_Source\PSoC4/blue_1.c ****             for(i = 0u; i < CYBLE_GAP_BD_ADDR_SIZE; i++)
 1096              		.loc 1 897 0
 1097 0020 0F23     		movs	r3, #15
 1098 0022 FB18     		adds	r3, r7, r3
 1099 0024 0022     		movs	r2, #0
 1100 0026 1A70     		strb	r2, [r3]
 1101 0028 12E0     		b	.L53
 1102              	.L54:
 898:Generated_Source\PSoC4/blue_1.c ****             {
 899:Generated_Source\PSoC4/blue_1.c ****                 destBuffer[i + 1u] = bdAddr->bdAddr[i];
 1103              		.loc 1 899 0 discriminator 3
 1104 002a 0F23     		movs	r3, #15
 1105 002c FB18     		adds	r3, r7, r3
 1106 002e 1B78     		ldrb	r3, [r3]
 1107 0030 0133     		adds	r3, r3, #1
 1108 0032 BA68     		ldr	r2, [r7, #8]
 1109 0034 D318     		adds	r3, r2, r3
 1110 0036 0F22     		movs	r2, #15
 1111 0038 BA18     		adds	r2, r7, r2
 1112 003a 1278     		ldrb	r2, [r2]
 1113 003c 7968     		ldr	r1, [r7, #4]
 1114 003e 8A5C     		ldrb	r2, [r1, r2]
 1115 0040 1A70     		strb	r2, [r3]
 897:Generated_Source\PSoC4/blue_1.c ****             {
 1116              		.loc 1 897 0 discriminator 3
 1117 0042 0F23     		movs	r3, #15
 1118 0044 FB18     		adds	r3, r7, r3
 1119 0046 1A78     		ldrb	r2, [r3]
 1120 0048 0F23     		movs	r3, #15
 1121 004a FB18     		adds	r3, r7, r3
 1122 004c 0132     		adds	r2, r2, #1
 1123 004e 1A70     		strb	r2, [r3]
 1124              	.L53:
 897:Generated_Source\PSoC4/blue_1.c ****             {
 1125              		.loc 1 897 0 is_stmt 0 discriminator 1
 1126 0050 0F23     		movs	r3, #15
 1127 0052 FB18     		adds	r3, r7, r3
 1128 0054 1B78     		ldrb	r3, [r3]
 1129 0056 052B     		cmp	r3, #5
 1130 0058 E7D9     		bls	.L54
 1131              	.L55:
 900:Generated_Source\PSoC4/blue_1.c ****             }
 901:Generated_Source\PSoC4/blue_1.c ****         }
 902:Generated_Source\PSoC4/blue_1.c ****     }
 1132              		.loc 1 902 0 is_stmt 1
 1133 005a C046     		nop
 1134 005c BD46     		mov	sp, r7
 1135 005e 04B0     		add	sp, sp, #16
ARM GAS  C:\Users\alexport\AppData\Local\Temp\ccf6k4ea.s 			page 37


 1136              		@ sp needed
 1137 0060 80BD     		pop	{r7, pc}
 1138              		.cfi_endproc
 1139              	.LFE10:
 1140              		.size	CyBle_ChangeAdDeviceAddress, .-CyBle_ChangeAdDeviceAddress
 1141 0062 C046     		.section	.text.CyBle_ChangeAdLocalName,"ax",%progbits
 1142              		.align	2
 1143              		.code	16
 1144              		.thumb_func
 1145              		.type	CyBle_ChangeAdLocalName, %function
 1146              	CyBle_ChangeAdLocalName:
 1147              	.LFB11:
 903:Generated_Source\PSoC4/blue_1.c ****   
 904:Generated_Source\PSoC4/blue_1.c **** #endif /* CYBLE_GAP_ROLE_PERIPHERAL || CYBLE_GAP_ROLE_BROADCASTER */
 905:Generated_Source\PSoC4/blue_1.c **** 
 906:Generated_Source\PSoC4/blue_1.c **** 
 907:Generated_Source\PSoC4/blue_1.c **** #if(CYBLE_GAP_ROLE_CENTRAL || CYBLE_GAP_ROLE_OBSERVER)
 908:Generated_Source\PSoC4/blue_1.c **** 
 909:Generated_Source\PSoC4/blue_1.c ****     /******************************************************************************
 910:Generated_Source\PSoC4/blue_1.c ****     * Function Name: CyBle_GapcStartScan
 911:Generated_Source\PSoC4/blue_1.c ****     ***************************************************************************//**
 912:Generated_Source\PSoC4/blue_1.c ****     * 
 913:Generated_Source\PSoC4/blue_1.c ****     *   This function is used for discovering GAP peripheral devices that are 
 914:Generated_Source\PSoC4/blue_1.c ****     *   available for connection. It performs the scanning routine using the 
 915:Generated_Source\PSoC4/blue_1.c ****     *   parameters entered in the component's customizer.
 916:Generated_Source\PSoC4/blue_1.c ****     *   
 917:Generated_Source\PSoC4/blue_1.c ****     *   As soon as the discovery operation starts, CYBLE_EVT_GAPC_SCAN_START_STOP 
 918:Generated_Source\PSoC4/blue_1.c ****     *   event is generated. The CYBLE_EVT_GAPC_SCAN_PROGRESS_RESULT event is 
 919:Generated_Source\PSoC4/blue_1.c ****     *   generated when a GAP peripheral device is located. There are three discovery
 920:Generated_Source\PSoC4/blue_1.c ****     *   procedures can be selected in the customizer's GUI:
 921:Generated_Source\PSoC4/blue_1.c ****     *   
 922:Generated_Source\PSoC4/blue_1.c ****     *   * Observation procedure: A device performing the observer role receives only
 923:Generated_Source\PSoC4/blue_1.c ****     *                            advertisement data from devices irrespective of 
 924:Generated_Source\PSoC4/blue_1.c ****     *                            their discoverable mode settings. Advertisement 
 925:Generated_Source\PSoC4/blue_1.c ****     *                            data received is provided by the event,      
 926:Generated_Source\PSoC4/blue_1.c ****     *                            CYBLE_EVT_GAPC_SCAN_PROGRESS_RESULT. This procedure
 927:Generated_Source\PSoC4/blue_1.c ****     *                            requires the scanType sub parameter to be passive
 928:Generated_Source\PSoC4/blue_1.c ****     *                            scanning. 
 929:Generated_Source\PSoC4/blue_1.c ****     *   
 930:Generated_Source\PSoC4/blue_1.c ****     *   * Limited Discovery procedure: A device performing the limited discovery
 931:Generated_Source\PSoC4/blue_1.c ****     *                                  procedure receives advertisement data and 
 932:Generated_Source\PSoC4/blue_1.c ****     *                                  scan# response data from devices in the 
 933:Generated_Source\PSoC4/blue_1.c ****     *                                  limited discoverable mode only. Received data
 934:Generated_Source\PSoC4/blue_1.c ****     *                                  is provided by the event, 
 935:Generated_Source\PSoC4/blue_1.c ****     *                                  CYBLE_EVT_GAPC_SCAN_PROGRESS_RESULT. This 
 936:Generated_Source\PSoC4/blue_1.c ****     *                                  procedure requires the scanType sub-parameter 
 937:Generated_Source\PSoC4/blue_1.c ****     *                                  to be active scanning.
 938:Generated_Source\PSoC4/blue_1.c ****     *   
 939:Generated_Source\PSoC4/blue_1.c ****     *   * General Discovery procedure: A device performing the general discovery 
 940:Generated_Source\PSoC4/blue_1.c ****     *                                  procedure receives the advertisement data and
 941:Generated_Source\PSoC4/blue_1.c ****     *                                  scan response data from devices in both 
 942:Generated_Source\PSoC4/blue_1.c ****     *                                  limited discoverable mode and the general 
 943:Generated_Source\PSoC4/blue_1.c ****     *                                  discoverable mode. Received data is provided
 944:Generated_Source\PSoC4/blue_1.c ****     *                                  by the event,
 945:Generated_Source\PSoC4/blue_1.c ****     *                                  CYBLE_EVT_GAPC_SCAN_PROGRESS_RESULT. This 
 946:Generated_Source\PSoC4/blue_1.c ****     *                                  procedure requires the scanType sub-parameter
 947:Generated_Source\PSoC4/blue_1.c ****     *                                  to be active scanning.
ARM GAS  C:\Users\alexport\AppData\Local\Temp\ccf6k4ea.s 			page 38


 948:Generated_Source\PSoC4/blue_1.c ****     *   
 949:Generated_Source\PSoC4/blue_1.c ****     *   Every Advertisement / Scan response packet received results in a new event, 
 950:Generated_Source\PSoC4/blue_1.c ****     *   CYBLE_EVT_GAPC_SCAN_PROGRESS_RESULT.
 951:Generated_Source\PSoC4/blue_1.c ****     *   If 'scanTo' sub-parameter is a non-zero value, then upon commencement of 
 952:Generated_Source\PSoC4/blue_1.c ****     *   discovery procedure and elapsed time = 'scanTo', CYBLE_EVT_TIMEOUT event
 953:Generated_Source\PSoC4/blue_1.c ****     *   is generated with the event parameter indicating CYBLE_GAP_SCAN_TO.
 954:Generated_Source\PSoC4/blue_1.c ****     *   Possible generated events are:
 955:Generated_Source\PSoC4/blue_1.c ****     *   * CYBLE_EVT_GAPC_SCAN_START_STOP: If a device started or stopped scanning. 
 956:Generated_Source\PSoC4/blue_1.c ****     *                                     Use CyBle_GetState() to determine the 
 957:Generated_Source\PSoC4/blue_1.c ****     *                                     state. Sequential scanning could be 
 958:Generated_Source\PSoC4/blue_1.c ****     *                                     started when CYBLE_STATE_DISCONNECTED 
 959:Generated_Source\PSoC4/blue_1.c ****     *                                     state is returned. 
 960:Generated_Source\PSoC4/blue_1.c ****     *   * CYBLE_EVT_GAPC_SCAN_PROGRESS_RESULT 
 961:Generated_Source\PSoC4/blue_1.c ****     *   * CYBLE_EVT_TIMEOUT (CYBLE_GAP_SCAN_TO)
 962:Generated_Source\PSoC4/blue_1.c ****     * 
 963:Generated_Source\PSoC4/blue_1.c ****     *   \param scanningIntervalType:  Fast or slow scanning interval with
 964:Generated_Source\PSoC4/blue_1.c ****     *       timings entered in Scan settings section of the customizer.
 965:Generated_Source\PSoC4/blue_1.c ****     * 	  * CYBLE_SCANNING_FAST   0x00u
 966:Generated_Source\PSoC4/blue_1.c ****     * 	  * CYBLE_SCANNING_SLOW   0x01u
 967:Generated_Source\PSoC4/blue_1.c ****     * 	  * CYBLE_SCANNING_CUSTOM 0x02u
 968:Generated_Source\PSoC4/blue_1.c ****     * 
 969:Generated_Source\PSoC4/blue_1.c ****     * \return
 970:Generated_Source\PSoC4/blue_1.c ****     *  CYBLE_API_RESULT_T : Return value indicates if the function succeeded or
 971:Generated_Source\PSoC4/blue_1.c ****     *  failed. Following are the possible error codes.
 972:Generated_Source\PSoC4/blue_1.c ****     *
 973:Generated_Source\PSoC4/blue_1.c ****     *   Errors codes                       | Description
 974:Generated_Source\PSoC4/blue_1.c ****     *   ---------------------------------- | -----------------------------------
 975:Generated_Source\PSoC4/blue_1.c ****     *   CYBLE_ERROR_OK                     | On successful operation.
 976:Generated_Source\PSoC4/blue_1.c ****     *   CYBLE_ERROR_STACK_INTERNAL         | An error occurred in the BLE stack.
 977:Generated_Source\PSoC4/blue_1.c ****     *   CYBLE_ERROR_INVALID_PARAMETER      | On passing an invalid parameter.
 978:Generated_Source\PSoC4/blue_1.c ****     *  
 979:Generated_Source\PSoC4/blue_1.c ****     *******************************************************************************/
 980:Generated_Source\PSoC4/blue_1.c ****     CYBLE_API_RESULT_T CyBle_GapcStartScan(uint8 scanningIntervalType)
 981:Generated_Source\PSoC4/blue_1.c ****     {
 982:Generated_Source\PSoC4/blue_1.c ****         CYBLE_API_RESULT_T apiResult;
 983:Generated_Source\PSoC4/blue_1.c **** 
 984:Generated_Source\PSoC4/blue_1.c ****         if(scanningIntervalType > CYBLE_SCANNING_CUSTOM)
 985:Generated_Source\PSoC4/blue_1.c ****         {
 986:Generated_Source\PSoC4/blue_1.c ****             apiResult = CYBLE_ERROR_INVALID_PARAMETER;
 987:Generated_Source\PSoC4/blue_1.c ****         }
 988:Generated_Source\PSoC4/blue_1.c ****         else
 989:Generated_Source\PSoC4/blue_1.c ****         {
 990:Generated_Source\PSoC4/blue_1.c ****             if(scanningIntervalType == CYBLE_SCANNING_FAST)
 991:Generated_Source\PSoC4/blue_1.c ****             {
 992:Generated_Source\PSoC4/blue_1.c ****                 cyBle_discoveryInfo.scanTo = CYBLE_FAST_SCAN_TIMEOUT;
 993:Generated_Source\PSoC4/blue_1.c ****                 cyBle_discoveryInfo.scanIntv = CYBLE_FAST_SCAN_INTERVAL;
 994:Generated_Source\PSoC4/blue_1.c ****                 cyBle_discoveryInfo.scanWindow = CYBLE_FAST_SCAN_WINDOW;
 995:Generated_Source\PSoC4/blue_1.c ****             }
 996:Generated_Source\PSoC4/blue_1.c ****             else if(scanningIntervalType == CYBLE_SCANNING_SLOW)
 997:Generated_Source\PSoC4/blue_1.c ****             {
 998:Generated_Source\PSoC4/blue_1.c ****                 cyBle_discoveryInfo.scanTo = CYBLE_SLOW_SCAN_TIMEOUT;
 999:Generated_Source\PSoC4/blue_1.c ****                 cyBle_discoveryInfo.scanIntv = CYBLE_SLOW_SCAN_INTERVAL;
1000:Generated_Source\PSoC4/blue_1.c ****                 cyBle_discoveryInfo.scanWindow = CYBLE_SLOW_SCAN_WINDOW;
1001:Generated_Source\PSoC4/blue_1.c ****             }       
1002:Generated_Source\PSoC4/blue_1.c ****             else /* Do not update scanning intervals */
1003:Generated_Source\PSoC4/blue_1.c ****             {
1004:Generated_Source\PSoC4/blue_1.c ****             }
ARM GAS  C:\Users\alexport\AppData\Local\Temp\ccf6k4ea.s 			page 39


1005:Generated_Source\PSoC4/blue_1.c ****             
1006:Generated_Source\PSoC4/blue_1.c ****             cyBle_scanningIntervalType = scanningIntervalType;
1007:Generated_Source\PSoC4/blue_1.c ****             apiResult = CyBle_GapcStartDiscovery(&cyBle_discoveryInfo);
1008:Generated_Source\PSoC4/blue_1.c ****         
1009:Generated_Source\PSoC4/blue_1.c ****             if(apiResult == CYBLE_ERROR_OK)
1010:Generated_Source\PSoC4/blue_1.c ****             {
1011:Generated_Source\PSoC4/blue_1.c ****                 cyBle_eventHandlerFlag |= CYBLE_START_FLAG;
1012:Generated_Source\PSoC4/blue_1.c ****             }
1013:Generated_Source\PSoC4/blue_1.c ****         }
1014:Generated_Source\PSoC4/blue_1.c ****        
1015:Generated_Source\PSoC4/blue_1.c ****         return (apiResult);
1016:Generated_Source\PSoC4/blue_1.c ****     }
1017:Generated_Source\PSoC4/blue_1.c ****     
1018:Generated_Source\PSoC4/blue_1.c ****     
1019:Generated_Source\PSoC4/blue_1.c ****     /******************************************************************************
1020:Generated_Source\PSoC4/blue_1.c ****     * Function Name: CyBle_GapcStopScan
1021:Generated_Source\PSoC4/blue_1.c ****     ***************************************************************************//**
1022:Generated_Source\PSoC4/blue_1.c ****     * 
1023:Generated_Source\PSoC4/blue_1.c ****     *   This function used to stop the discovery of devices. On stopping discovery
1024:Generated_Source\PSoC4/blue_1.c ****     *   operation, CYBLE_EVT_GAPC_SCAN_START_STOP event is generated. Application
1025:Generated_Source\PSoC4/blue_1.c ****     *   layer needs to keep track of the function call made before receiving this
1026:Generated_Source\PSoC4/blue_1.c ****     *   event to associate this event with either the start or stop discovery
1027:Generated_Source\PSoC4/blue_1.c ****     *   function.
1028:Generated_Source\PSoC4/blue_1.c ****     * 
1029:Generated_Source\PSoC4/blue_1.c ****     *   Possible events generated are:
1030:Generated_Source\PSoC4/blue_1.c ****     *    * CYBLE_EVT_GAPC_SCAN_START_STOP
1031:Generated_Source\PSoC4/blue_1.c ****     * 
1032:Generated_Source\PSoC4/blue_1.c ****     *  \return
1033:Generated_Source\PSoC4/blue_1.c ****     *   None
1034:Generated_Source\PSoC4/blue_1.c ****     * 
1035:Generated_Source\PSoC4/blue_1.c ****     *******************************************************************************/
1036:Generated_Source\PSoC4/blue_1.c ****     void CyBle_GapcStopScan(void)
1037:Generated_Source\PSoC4/blue_1.c ****     {
1038:Generated_Source\PSoC4/blue_1.c ****         CyBle_GapcStopDiscovery();
1039:Generated_Source\PSoC4/blue_1.c ****         
1040:Generated_Source\PSoC4/blue_1.c ****         cyBle_eventHandlerFlag |= CYBLE_STOP_FLAG;
1041:Generated_Source\PSoC4/blue_1.c ****     }
1042:Generated_Source\PSoC4/blue_1.c **** 
1043:Generated_Source\PSoC4/blue_1.c ****     
1044:Generated_Source\PSoC4/blue_1.c **** #endif /* CYBLE_GAP_ROLE_CENTRAL || CYBLE_GAP_ROLE_OBSERVER */
1045:Generated_Source\PSoC4/blue_1.c **** 
1046:Generated_Source\PSoC4/blue_1.c **** 
1047:Generated_Source\PSoC4/blue_1.c **** #if(CYBLE_GAP_ROLE_CENTRAL)
1048:Generated_Source\PSoC4/blue_1.c **** 
1049:Generated_Source\PSoC4/blue_1.c ****     /******************************************************************************
1050:Generated_Source\PSoC4/blue_1.c ****     * Function Name: CyBle_GapcConnectDevice
1051:Generated_Source\PSoC4/blue_1.c ****     ***************************************************************************//**
1052:Generated_Source\PSoC4/blue_1.c ****     * 
1053:Generated_Source\PSoC4/blue_1.c ****     *  This function is used to send a connection request to the remote device with
1054:Generated_Source\PSoC4/blue_1.c ****     *  the connection parameters set in the component customizer. This function needs
1055:Generated_Source\PSoC4/blue_1.c ****     *  to be called only once after the target device is discovered by 
1056:Generated_Source\PSoC4/blue_1.c ****     *  CyBle_GapcStartScan() and further scanning has stopped. Scanning is 
1057:Generated_Source\PSoC4/blue_1.c ****     *  successfully stopped on invoking CyBle_GapcStopScan() and then receiving the
1058:Generated_Source\PSoC4/blue_1.c ****     *  event CYBLE_EVT_GAPC_SCAN_START_STOP with sub-parameter 'success' = 0x01u.
1059:Generated_Source\PSoC4/blue_1.c ****     *  
1060:Generated_Source\PSoC4/blue_1.c ****     *  On successful connection, the following events are generated at the GAP 
1061:Generated_Source\PSoC4/blue_1.c ****     *  Central device (as well as the GAP Peripheral device), in the following order.
ARM GAS  C:\Users\alexport\AppData\Local\Temp\ccf6k4ea.s 			page 40


1062:Generated_Source\PSoC4/blue_1.c ****     *  * CYBLE_EVT_GATT_CONNECT_IND
1063:Generated_Source\PSoC4/blue_1.c ****     *  * CYBLE_EVT_GAP_DEVICE_CONNECTED - If the device connects to a GAP Central and 
1064:Generated_Source\PSoC4/blue_1.c ****     *    Link Layer Privacy is disabled in component customizer.
1065:Generated_Source\PSoC4/blue_1.c ****     *  * CYBLE_EVT_GAP_ENHANCE_CONN_COMPLETE - If the device connects to a GAP Central and 
1066:Generated_Source\PSoC4/blue_1.c ****     *    Link Layer Privacy is enabled in component customizer.
1067:Generated_Source\PSoC4/blue_1.c ****     *  * CYBLE_EVT_GAP_DEVICE_CONNECTED
1068:Generated_Source\PSoC4/blue_1.c ****     *  
1069:Generated_Source\PSoC4/blue_1.c ****     *  A procedure is considered to have timed out if a connection response packet is 
1070:Generated_Source\PSoC4/blue_1.c ****     *  not received within time set by cyBle_connectingTimeout global variable
1071:Generated_Source\PSoC4/blue_1.c ****     *  (30 seconds by default). CYBLE_EVT_TIMEOUT event with CYBLE_GENERIC_TO parameter
1072:Generated_Source\PSoC4/blue_1.c ****     *  will indicate about connection procedure timeout. Connection will automatically
1073:Generated_Source\PSoC4/blue_1.c ****     *  be canceled and state will be changed to CYBLE_STATE_DISCONNECTED.
1074:Generated_Source\PSoC4/blue_1.c ****     * 
1075:Generated_Source\PSoC4/blue_1.c ****     *  \param address: The device address of the remote device to connect to. 
1076:Generated_Source\PSoC4/blue_1.c ****     *  
1077:Generated_Source\PSoC4/blue_1.c ****     * \return
1078:Generated_Source\PSoC4/blue_1.c ****     *  CYBLE_API_RESULT_T : Return value indicates if the function succeeded or 
1079:Generated_Source\PSoC4/blue_1.c ****     *  failed. Following are the possible error codes.
1080:Generated_Source\PSoC4/blue_1.c ****     *
1081:Generated_Source\PSoC4/blue_1.c ****     *   Errors codes                       | Description
1082:Generated_Source\PSoC4/blue_1.c ****     *   ------------                       | -----------
1083:Generated_Source\PSoC4/blue_1.c ****     *   CYBLE_ERROR_OK                     | On successful operation.
1084:Generated_Source\PSoC4/blue_1.c ****     *   CYBLE_ERROR_STACK_INTERNAL         | On error occurred in the BLE stack.
1085:Generated_Source\PSoC4/blue_1.c ****     *   CYBLE_ERROR_INVALID_PARAMETER      | On passing an invalid parameter.
1086:Generated_Source\PSoC4/blue_1.c ****     *   CYBLE_ERROR_INVALID_STATE          | On calling this function not in Disconnected state.
1087:Generated_Source\PSoC4/blue_1.c ****     *  
1088:Generated_Source\PSoC4/blue_1.c ****     ******************************************************************************/
1089:Generated_Source\PSoC4/blue_1.c ****     CYBLE_API_RESULT_T CyBle_GapcConnectDevice(const CYBLE_GAP_BD_ADDR_T * address)
1090:Generated_Source\PSoC4/blue_1.c ****     {
1091:Generated_Source\PSoC4/blue_1.c ****         CYBLE_API_RESULT_T apiResult;
1092:Generated_Source\PSoC4/blue_1.c ****         uint8 i;
1093:Generated_Source\PSoC4/blue_1.c **** 
1094:Generated_Source\PSoC4/blue_1.c ****         if(CyBle_GetState() != CYBLE_STATE_DISCONNECTED)
1095:Generated_Source\PSoC4/blue_1.c ****         {
1096:Generated_Source\PSoC4/blue_1.c ****             apiResult = CYBLE_ERROR_INVALID_STATE;
1097:Generated_Source\PSoC4/blue_1.c ****         }
1098:Generated_Source\PSoC4/blue_1.c ****         else if(address == NULL)
1099:Generated_Source\PSoC4/blue_1.c ****         {
1100:Generated_Source\PSoC4/blue_1.c ****             apiResult = CYBLE_ERROR_INVALID_PARAMETER;
1101:Generated_Source\PSoC4/blue_1.c ****         }
1102:Generated_Source\PSoC4/blue_1.c ****         else
1103:Generated_Source\PSoC4/blue_1.c ****         {
1104:Generated_Source\PSoC4/blue_1.c ****             for(i = 0u; i < CYBLE_GAP_BD_ADDR_SIZE; i++)
1105:Generated_Source\PSoC4/blue_1.c ****             {
1106:Generated_Source\PSoC4/blue_1.c ****                 cyBle_connectionParameters.peerBdAddr[i] = address->bdAddr[i];
1107:Generated_Source\PSoC4/blue_1.c ****             }
1108:Generated_Source\PSoC4/blue_1.c ****             cyBle_connectionParameters.peerAddrType = address -> type;
1109:Generated_Source\PSoC4/blue_1.c ****             apiResult = CyBle_GapcInitConnection(&cyBle_connectionParameters);
1110:Generated_Source\PSoC4/blue_1.c ****             
1111:Generated_Source\PSoC4/blue_1.c ****             if(apiResult == CYBLE_ERROR_OK)
1112:Generated_Source\PSoC4/blue_1.c ****             {
1113:Generated_Source\PSoC4/blue_1.c ****                 CyBle_SetState(CYBLE_STATE_CONNECTING);
1114:Generated_Source\PSoC4/blue_1.c ****                 if(cyBle_connectingTimeout != 0u)
1115:Generated_Source\PSoC4/blue_1.c ****                 {
1116:Generated_Source\PSoC4/blue_1.c ****                     (void)CyBle_StartTimer(cyBle_connectingTimeout);
1117:Generated_Source\PSoC4/blue_1.c ****                 }
1118:Generated_Source\PSoC4/blue_1.c ****             }
ARM GAS  C:\Users\alexport\AppData\Local\Temp\ccf6k4ea.s 			page 41


1119:Generated_Source\PSoC4/blue_1.c ****         }
1120:Generated_Source\PSoC4/blue_1.c ****         return (apiResult);
1121:Generated_Source\PSoC4/blue_1.c ****     }
1122:Generated_Source\PSoC4/blue_1.c ****     
1123:Generated_Source\PSoC4/blue_1.c **** 
1124:Generated_Source\PSoC4/blue_1.c ****     /******************************************************************************
1125:Generated_Source\PSoC4/blue_1.c ****     * Function Name: CyBle_GapcCancelDeviceConnection
1126:Generated_Source\PSoC4/blue_1.c ****     ***************************************************************************//**
1127:Generated_Source\PSoC4/blue_1.c ****     * 
1128:Generated_Source\PSoC4/blue_1.c ****     *  This function cancels a previously initiated connection with the remote 
1129:Generated_Source\PSoC4/blue_1.c ****     *  device. It is a blocking function. No event is generated on calling this 
1130:Generated_Source\PSoC4/blue_1.c ****     *  function. If the devices are already connected then this function should not
1131:Generated_Source\PSoC4/blue_1.c ****     *  be used. If you intend to disconnect from an existing connection, the function
1132:Generated_Source\PSoC4/blue_1.c ****     *  CyBle_GapDisconnect() should be used.
1133:Generated_Source\PSoC4/blue_1.c ****     * 
1134:Generated_Source\PSoC4/blue_1.c ****     * \return
1135:Generated_Source\PSoC4/blue_1.c ****     *  CYBLE_API_RESULT_T : Return value indicates if the function succeeded or 
1136:Generated_Source\PSoC4/blue_1.c ****     *  failed. Following are the possible error codes.
1137:Generated_Source\PSoC4/blue_1.c ****     *
1138:Generated_Source\PSoC4/blue_1.c ****     *   Errors codes                       | Description
1139:Generated_Source\PSoC4/blue_1.c ****     *   ---------------------------------- | --------------------------------------
1140:Generated_Source\PSoC4/blue_1.c ****     *   CYBLE_ERROR_OK                     | On successful operation.
1141:Generated_Source\PSoC4/blue_1.c ****     *   CYBLE_ERROR_STACK_INTERNAL         | An error occurred in the BLE stack.
1142:Generated_Source\PSoC4/blue_1.c ****     *   CYBLE_ERROR_INVALID_STATE          | On calling this function not in Connecting state.
1143:Generated_Source\PSoC4/blue_1.c ****     *  
1144:Generated_Source\PSoC4/blue_1.c ****     *******************************************************************************/
1145:Generated_Source\PSoC4/blue_1.c ****     CYBLE_API_RESULT_T CyBle_GapcCancelDeviceConnection(void)
1146:Generated_Source\PSoC4/blue_1.c ****     {
1147:Generated_Source\PSoC4/blue_1.c ****         CYBLE_API_RESULT_T apiResult;
1148:Generated_Source\PSoC4/blue_1.c ****         
1149:Generated_Source\PSoC4/blue_1.c ****         if(CyBle_GetState() != CYBLE_STATE_CONNECTING)
1150:Generated_Source\PSoC4/blue_1.c ****         {
1151:Generated_Source\PSoC4/blue_1.c ****             apiResult = CYBLE_ERROR_INVALID_STATE;
1152:Generated_Source\PSoC4/blue_1.c ****         }
1153:Generated_Source\PSoC4/blue_1.c ****         else 
1154:Generated_Source\PSoC4/blue_1.c ****         {
1155:Generated_Source\PSoC4/blue_1.c ****             apiResult = CyBle_GapcCancelConnection();
1156:Generated_Source\PSoC4/blue_1.c ****             
1157:Generated_Source\PSoC4/blue_1.c ****             if(cyBle_connectingTimeout != 0u)
1158:Generated_Source\PSoC4/blue_1.c ****             {
1159:Generated_Source\PSoC4/blue_1.c ****                 (void)CyBle_StopTimer();
1160:Generated_Source\PSoC4/blue_1.c ****             }
1161:Generated_Source\PSoC4/blue_1.c **** 
1162:Generated_Source\PSoC4/blue_1.c ****             if(apiResult == CYBLE_ERROR_OK)
1163:Generated_Source\PSoC4/blue_1.c ****             {
1164:Generated_Source\PSoC4/blue_1.c ****                 CyBle_SetState(CYBLE_STATE_DISCONNECTED);
1165:Generated_Source\PSoC4/blue_1.c ****             }
1166:Generated_Source\PSoC4/blue_1.c ****         }
1167:Generated_Source\PSoC4/blue_1.c ****         return (apiResult);
1168:Generated_Source\PSoC4/blue_1.c ****     }    
1169:Generated_Source\PSoC4/blue_1.c **** 
1170:Generated_Source\PSoC4/blue_1.c ****     
1171:Generated_Source\PSoC4/blue_1.c **** #endif /* CYBLE_GAP_ROLE_CENTRAL */
1172:Generated_Source\PSoC4/blue_1.c **** 
1173:Generated_Source\PSoC4/blue_1.c **** 
1174:Generated_Source\PSoC4/blue_1.c **** #if(CYBLE_GATT_ROLE_SERVER)
1175:Generated_Source\PSoC4/blue_1.c **** 
ARM GAS  C:\Users\alexport\AppData\Local\Temp\ccf6k4ea.s 			page 42


1176:Generated_Source\PSoC4/blue_1.c **** #if(CYBLE_GAP_ROLE_PERIPHERAL)
1177:Generated_Source\PSoC4/blue_1.c **** 
1178:Generated_Source\PSoC4/blue_1.c ****         /******************************************************************************
1179:Generated_Source\PSoC4/blue_1.c ****         * Function Name: CyBle_ChangeAdLocalName
1180:Generated_Source\PSoC4/blue_1.c ****         ***************************************************************************//**
1181:Generated_Source\PSoC4/blue_1.c ****         *  This function is used to set the local device name in the advertisement or 
1182:Generated_Source\PSoC4/blue_1.c ****         *  scan response data structure.
1183:Generated_Source\PSoC4/blue_1.c ****         * 
1184:Generated_Source\PSoC4/blue_1.c ****         *  \param name: The local device name string to be set in advertisement data 
1185:Generated_Source\PSoC4/blue_1.c ****         *            structure.
1186:Generated_Source\PSoC4/blue_1.c ****         *  \param dest: 0 - advertisement structure, not zero value selects scan response
1187:Generated_Source\PSoC4/blue_1.c ****         *              structure.
1188:Generated_Source\PSoC4/blue_1.c ****         * 
1189:Generated_Source\PSoC4/blue_1.c ****         * \return
1190:Generated_Source\PSoC4/blue_1.c ****         *  None
1191:Generated_Source\PSoC4/blue_1.c ****         *  
1192:Generated_Source\PSoC4/blue_1.c ****         *******************************************************************************/
1193:Generated_Source\PSoC4/blue_1.c ****         static void CyBle_ChangeAdLocalName(const char8 name[], uint8 dest)
1194:Generated_Source\PSoC4/blue_1.c ****         {
 1148              		.loc 1 1194 0
 1149              		.cfi_startproc
 1150              		@ args = 0, pretend = 0, frame = 24
 1151              		@ frame_needed = 1, uses_anonymous_args = 0
 1152 0000 80B5     		push	{r7, lr}
 1153              		.cfi_def_cfa_offset 8
 1154              		.cfi_offset 7, -8
 1155              		.cfi_offset 14, -4
 1156 0002 86B0     		sub	sp, sp, #24
 1157              		.cfi_def_cfa_offset 32
 1158 0004 00AF     		add	r7, sp, #0
 1159              		.cfi_def_cfa_register 7
 1160 0006 7860     		str	r0, [r7, #4]
 1161 0008 0A00     		movs	r2, r1
 1162 000a FB1C     		adds	r3, r7, #3
 1163 000c 1A70     		strb	r2, [r3]
1195:Generated_Source\PSoC4/blue_1.c ****             uint8 i;
1196:Generated_Source\PSoC4/blue_1.c ****             uint8 flag = 0u;
 1164              		.loc 1 1196 0
 1165 000e 1623     		movs	r3, #22
 1166 0010 FB18     		adds	r3, r7, r3
 1167 0012 0022     		movs	r2, #0
 1168 0014 1A70     		strb	r2, [r3]
1197:Generated_Source\PSoC4/blue_1.c ****             uint8 adLength = 0u;
 1169              		.loc 1 1197 0
 1170 0016 1523     		movs	r3, #21
 1171 0018 FB18     		adds	r3, r7, r3
 1172 001a 0022     		movs	r2, #0
 1173 001c 1A70     		strb	r2, [r3]
1198:Generated_Source\PSoC4/blue_1.c ****             uint8 byteCounter = 0u;
 1174              		.loc 1 1198 0
 1175 001e 1423     		movs	r3, #20
 1176 0020 FB18     		adds	r3, r7, r3
 1177 0022 0022     		movs	r2, #0
 1178 0024 1A70     		strb	r2, [r3]
1199:Generated_Source\PSoC4/blue_1.c ****             uint8 *destBuffer;
1200:Generated_Source\PSoC4/blue_1.c ****             uint8 maxLength;
1201:Generated_Source\PSoC4/blue_1.c ****             
ARM GAS  C:\Users\alexport\AppData\Local\Temp\ccf6k4ea.s 			page 43


1202:Generated_Source\PSoC4/blue_1.c ****             if(dest == 0u)      /* Destination - advertising structure */
 1179              		.loc 1 1202 0
 1180 0026 FB1C     		adds	r3, r7, #3
 1181 0028 1B78     		ldrb	r3, [r3]
 1182 002a 002B     		cmp	r3, #0
 1183 002c 07D1     		bne	.L57
1203:Generated_Source\PSoC4/blue_1.c ****             {
1204:Generated_Source\PSoC4/blue_1.c ****                 destBuffer = cyBle_discoveryData.advData;
 1184              		.loc 1 1204 0
 1185 002e 5C4B     		ldr	r3, .L74
 1186 0030 3B61     		str	r3, [r7, #16]
1205:Generated_Source\PSoC4/blue_1.c ****                 maxLength = cyBle_discoveryData.advDataLen;
 1187              		.loc 1 1205 0
 1188 0032 0F23     		movs	r3, #15
 1189 0034 FB18     		adds	r3, r7, r3
 1190 0036 5A4A     		ldr	r2, .L74
 1191 0038 D27F     		ldrb	r2, [r2, #31]
 1192 003a 1A70     		strb	r2, [r3]
 1193 003c 3BE0     		b	.L59
 1194              	.L57:
1206:Generated_Source\PSoC4/blue_1.c ****             }
1207:Generated_Source\PSoC4/blue_1.c ****             else                /* Destination - scan response structure */
1208:Generated_Source\PSoC4/blue_1.c ****             {
1209:Generated_Source\PSoC4/blue_1.c ****                 destBuffer = cyBle_scanRspData.scanRspData;
 1195              		.loc 1 1209 0
 1196 003e 594B     		ldr	r3, .L74+4
 1197 0040 3B61     		str	r3, [r7, #16]
1210:Generated_Source\PSoC4/blue_1.c ****                 maxLength = cyBle_scanRspData.scanRspDataLen;
 1198              		.loc 1 1210 0
 1199 0042 0F23     		movs	r3, #15
 1200 0044 FB18     		adds	r3, r7, r3
 1201 0046 574A     		ldr	r2, .L74+4
 1202 0048 D27F     		ldrb	r2, [r2, #31]
 1203 004a 1A70     		strb	r2, [r3]
1211:Generated_Source\PSoC4/blue_1.c ****             }
1212:Generated_Source\PSoC4/blue_1.c ****             
1213:Generated_Source\PSoC4/blue_1.c ****             while((byteCounter < maxLength) && (flag == 0u))
 1204              		.loc 1 1213 0
 1205 004c 33E0     		b	.L59
 1206              	.L65:
1214:Generated_Source\PSoC4/blue_1.c ****             {
1215:Generated_Source\PSoC4/blue_1.c ****                 adLength = destBuffer[byteCounter];
 1207              		.loc 1 1215 0
 1208 004e 1423     		movs	r3, #20
 1209 0050 FB18     		adds	r3, r7, r3
 1210 0052 1B78     		ldrb	r3, [r3]
 1211 0054 3A69     		ldr	r2, [r7, #16]
 1212 0056 D218     		adds	r2, r2, r3
 1213 0058 1523     		movs	r3, #21
 1214 005a FB18     		adds	r3, r7, r3
 1215 005c 1278     		ldrb	r2, [r2]
 1216 005e 1A70     		strb	r2, [r3]
1216:Generated_Source\PSoC4/blue_1.c ****                 
1217:Generated_Source\PSoC4/blue_1.c ****                 if(0u != adLength)
 1217              		.loc 1 1217 0
 1218 0060 1523     		movs	r3, #21
 1219 0062 FB18     		adds	r3, r7, r3
ARM GAS  C:\Users\alexport\AppData\Local\Temp\ccf6k4ea.s 			page 44


 1220 0064 1B78     		ldrb	r3, [r3]
 1221 0066 002B     		cmp	r3, #0
 1222 0068 33D0     		beq	.L72
1218:Generated_Source\PSoC4/blue_1.c ****                 {
1219:Generated_Source\PSoC4/blue_1.c ****                     /* Increment byte counter so it can point to AD type */
1220:Generated_Source\PSoC4/blue_1.c ****                     byteCounter++;
 1223              		.loc 1 1220 0
 1224 006a 1423     		movs	r3, #20
 1225 006c FB18     		adds	r3, r7, r3
 1226 006e 1A78     		ldrb	r2, [r3]
 1227 0070 1423     		movs	r3, #20
 1228 0072 FB18     		adds	r3, r7, r3
 1229 0074 0132     		adds	r2, r2, #1
 1230 0076 1A70     		strb	r2, [r3]
1221:Generated_Source\PSoC4/blue_1.c ****                     
1222:Generated_Source\PSoC4/blue_1.c ****                     if((destBuffer[byteCounter] == CYBLE_SHORT_LOCAL_NAME) || 
 1231              		.loc 1 1222 0
 1232 0078 1423     		movs	r3, #20
 1233 007a FB18     		adds	r3, r7, r3
 1234 007c 1B78     		ldrb	r3, [r3]
 1235 007e 3A69     		ldr	r2, [r7, #16]
 1236 0080 D318     		adds	r3, r2, r3
 1237 0082 1B78     		ldrb	r3, [r3]
 1238 0084 082B     		cmp	r3, #8
 1239 0086 07D0     		beq	.L61
1223:Generated_Source\PSoC4/blue_1.c ****                        (destBuffer[byteCounter] == CYBLE_COMPLETE_LOCAL_NAME))
 1240              		.loc 1 1223 0 discriminator 1
 1241 0088 1423     		movs	r3, #20
 1242 008a FB18     		adds	r3, r7, r3
 1243 008c 1B78     		ldrb	r3, [r3]
 1244 008e 3A69     		ldr	r2, [r7, #16]
 1245 0090 D318     		adds	r3, r2, r3
 1246 0092 1B78     		ldrb	r3, [r3]
1222:Generated_Source\PSoC4/blue_1.c ****                        (destBuffer[byteCounter] == CYBLE_COMPLETE_LOCAL_NAME))
 1247              		.loc 1 1222 0 discriminator 1
 1248 0094 092B     		cmp	r3, #9
 1249 0096 04D1     		bne	.L62
 1250              	.L61:
1224:Generated_Source\PSoC4/blue_1.c ****                     {
1225:Generated_Source\PSoC4/blue_1.c ****                         /* Start of the Local Name AD type was fount. Set flag and exit the loop. *
1226:Generated_Source\PSoC4/blue_1.c ****                         flag = 1u;
 1251              		.loc 1 1226 0
 1252 0098 1623     		movs	r3, #22
 1253 009a FB18     		adds	r3, r7, r3
 1254 009c 0122     		movs	r2, #1
 1255 009e 1A70     		strb	r2, [r3]
 1256 00a0 09E0     		b	.L59
 1257              	.L62:
1227:Generated_Source\PSoC4/blue_1.c ****                     }
1228:Generated_Source\PSoC4/blue_1.c ****                     else
1229:Generated_Source\PSoC4/blue_1.c ****                     {
1230:Generated_Source\PSoC4/blue_1.c ****                         byteCounter += adLength;
 1258              		.loc 1 1230 0
 1259 00a2 1423     		movs	r3, #20
 1260 00a4 FB18     		adds	r3, r7, r3
 1261 00a6 1422     		movs	r2, #20
 1262 00a8 B918     		adds	r1, r7, r2
ARM GAS  C:\Users\alexport\AppData\Local\Temp\ccf6k4ea.s 			page 45


 1263 00aa 1522     		movs	r2, #21
 1264 00ac BA18     		adds	r2, r7, r2
 1265 00ae 0978     		ldrb	r1, [r1]
 1266 00b0 1278     		ldrb	r2, [r2]
 1267 00b2 8A18     		adds	r2, r1, r2
 1268 00b4 1A70     		strb	r2, [r3]
 1269              	.L59:
1213:Generated_Source\PSoC4/blue_1.c ****             {
 1270              		.loc 1 1213 0
 1271 00b6 1423     		movs	r3, #20
 1272 00b8 FA18     		adds	r2, r7, r3
 1273 00ba 0F23     		movs	r3, #15
 1274 00bc FB18     		adds	r3, r7, r3
 1275 00be 1278     		ldrb	r2, [r2]
 1276 00c0 1B78     		ldrb	r3, [r3]
 1277 00c2 9A42     		cmp	r2, r3
 1278 00c4 06D2     		bcs	.L64
1213:Generated_Source\PSoC4/blue_1.c ****             {
 1279              		.loc 1 1213 0 is_stmt 0 discriminator 1
 1280 00c6 1623     		movs	r3, #22
 1281 00c8 FB18     		adds	r3, r7, r3
 1282 00ca 1B78     		ldrb	r3, [r3]
 1283 00cc 002B     		cmp	r3, #0
 1284 00ce BED0     		beq	.L65
 1285 00d0 00E0     		b	.L64
 1286              	.L72:
1231:Generated_Source\PSoC4/blue_1.c ****                     }
1232:Generated_Source\PSoC4/blue_1.c ****                 }
1233:Generated_Source\PSoC4/blue_1.c ****                 else
1234:Generated_Source\PSoC4/blue_1.c ****                 {
1235:Generated_Source\PSoC4/blue_1.c ****                     /* The end of advertisement data structure was encountered though exit the loop
1236:Generated_Source\PSoC4/blue_1.c ****                     break;
 1287              		.loc 1 1236 0 is_stmt 1
 1288 00d2 C046     		nop
 1289              	.L64:
1237:Generated_Source\PSoC4/blue_1.c ****                 }
1238:Generated_Source\PSoC4/blue_1.c ****             }
1239:Generated_Source\PSoC4/blue_1.c ****             
1240:Generated_Source\PSoC4/blue_1.c ****             if(0u != flag)
 1290              		.loc 1 1240 0
 1291 00d4 1623     		movs	r3, #22
 1292 00d6 FB18     		adds	r3, r7, r3
 1293 00d8 1B78     		ldrb	r3, [r3]
 1294 00da 002B     		cmp	r3, #0
 1295 00dc 5BD0     		beq	.L73
1241:Generated_Source\PSoC4/blue_1.c ****             {
1242:Generated_Source\PSoC4/blue_1.c ****                 /* Reuse "adLength" to hold location of the last character of local name in 
1243:Generated_Source\PSoC4/blue_1.c ****                    AD structure. */
1244:Generated_Source\PSoC4/blue_1.c ****                 adLength += byteCounter;
 1296              		.loc 1 1244 0
 1297 00de 1523     		movs	r3, #21
 1298 00e0 FB18     		adds	r3, r7, r3
 1299 00e2 1522     		movs	r2, #21
 1300 00e4 B918     		adds	r1, r7, r2
 1301 00e6 1422     		movs	r2, #20
 1302 00e8 BA18     		adds	r2, r7, r2
 1303 00ea 0978     		ldrb	r1, [r1]
ARM GAS  C:\Users\alexport\AppData\Local\Temp\ccf6k4ea.s 			page 46


 1304 00ec 1278     		ldrb	r2, [r2]
 1305 00ee 8A18     		adds	r2, r1, r2
 1306 00f0 1A70     		strb	r2, [r3]
1245:Generated_Source\PSoC4/blue_1.c ****                 
1246:Generated_Source\PSoC4/blue_1.c ****                 /* Increment byte counter to point to start of the local Name string */
1247:Generated_Source\PSoC4/blue_1.c ****                 byteCounter++;
 1307              		.loc 1 1247 0
 1308 00f2 1423     		movs	r3, #20
 1309 00f4 FB18     		adds	r3, r7, r3
 1310 00f6 1A78     		ldrb	r2, [r3]
 1311 00f8 1423     		movs	r3, #20
 1312 00fa FB18     		adds	r3, r7, r3
 1313 00fc 0132     		adds	r2, r2, #1
 1314 00fe 1A70     		strb	r2, [r3]
1248:Generated_Source\PSoC4/blue_1.c ****                 
1249:Generated_Source\PSoC4/blue_1.c ****                 for(i = byteCounter; ((i < (adLength)) && (CYBLE_NULL_CHARCTER != name[i - byteCoun
 1315              		.loc 1 1249 0
 1316 0100 1723     		movs	r3, #23
 1317 0102 FB18     		adds	r3, r7, r3
 1318 0104 1422     		movs	r2, #20
 1319 0106 BA18     		adds	r2, r7, r2
 1320 0108 1278     		ldrb	r2, [r2]
 1321 010a 1A70     		strb	r2, [r3]
 1322 010c 17E0     		b	.L67
 1323              	.L69:
1250:Generated_Source\PSoC4/blue_1.c ****                 {
1251:Generated_Source\PSoC4/blue_1.c ****                     destBuffer[i] = (uint8)name[i - byteCounter];
 1324              		.loc 1 1251 0 discriminator 4
 1325 010e 1723     		movs	r3, #23
 1326 0110 FB18     		adds	r3, r7, r3
 1327 0112 1B78     		ldrb	r3, [r3]
 1328 0114 3A69     		ldr	r2, [r7, #16]
 1329 0116 D318     		adds	r3, r2, r3
 1330 0118 1722     		movs	r2, #23
 1331 011a BA18     		adds	r2, r7, r2
 1332 011c 1178     		ldrb	r1, [r2]
 1333 011e 1422     		movs	r2, #20
 1334 0120 BA18     		adds	r2, r7, r2
 1335 0122 1278     		ldrb	r2, [r2]
 1336 0124 8A1A     		subs	r2, r1, r2
 1337 0126 1100     		movs	r1, r2
 1338 0128 7A68     		ldr	r2, [r7, #4]
 1339 012a 5218     		adds	r2, r2, r1
 1340 012c 1278     		ldrb	r2, [r2]
 1341 012e 1A70     		strb	r2, [r3]
1249:Generated_Source\PSoC4/blue_1.c ****                 {
 1342              		.loc 1 1249 0 discriminator 4
 1343 0130 1723     		movs	r3, #23
 1344 0132 FB18     		adds	r3, r7, r3
 1345 0134 1A78     		ldrb	r2, [r3]
 1346 0136 1723     		movs	r3, #23
 1347 0138 FB18     		adds	r3, r7, r3
 1348 013a 0132     		adds	r2, r2, #1
 1349 013c 1A70     		strb	r2, [r3]
 1350              	.L67:
1249:Generated_Source\PSoC4/blue_1.c ****                 {
 1351              		.loc 1 1249 0 is_stmt 0 discriminator 1
ARM GAS  C:\Users\alexport\AppData\Local\Temp\ccf6k4ea.s 			page 47


 1352 013e 1723     		movs	r3, #23
 1353 0140 FA18     		adds	r2, r7, r3
 1354 0142 1523     		movs	r3, #21
 1355 0144 FB18     		adds	r3, r7, r3
 1356 0146 1278     		ldrb	r2, [r2]
 1357 0148 1B78     		ldrb	r3, [r3]
 1358 014a 9A42     		cmp	r2, r3
 1359 014c 1BD2     		bcs	.L70
1249:Generated_Source\PSoC4/blue_1.c ****                 {
 1360              		.loc 1 1249 0 discriminator 3
 1361 014e 1723     		movs	r3, #23
 1362 0150 FB18     		adds	r3, r7, r3
 1363 0152 1A78     		ldrb	r2, [r3]
 1364 0154 1423     		movs	r3, #20
 1365 0156 FB18     		adds	r3, r7, r3
 1366 0158 1B78     		ldrb	r3, [r3]
 1367 015a D31A     		subs	r3, r2, r3
 1368 015c 1A00     		movs	r2, r3
 1369 015e 7B68     		ldr	r3, [r7, #4]
 1370 0160 9B18     		adds	r3, r3, r2
 1371 0162 1B78     		ldrb	r3, [r3]
 1372 0164 002B     		cmp	r3, #0
 1373 0166 D2D1     		bne	.L69
1252:Generated_Source\PSoC4/blue_1.c ****                 }
1253:Generated_Source\PSoC4/blue_1.c ****                 
1254:Generated_Source\PSoC4/blue_1.c ****                 /* This loop handles the case when new local name is shorted than old one.
1255:Generated_Source\PSoC4/blue_1.c ****                    In this case all remaining characters should be null characters. */
1256:Generated_Source\PSoC4/blue_1.c ****                 while(adLength > i)
 1374              		.loc 1 1256 0 is_stmt 1
 1375 0168 0DE0     		b	.L70
 1376              	.L71:
1257:Generated_Source\PSoC4/blue_1.c ****                 {
1258:Generated_Source\PSoC4/blue_1.c ****                     /* Terminate string */
1259:Generated_Source\PSoC4/blue_1.c ****                     destBuffer[i] = (uint8)CYBLE_NULL_CHARCTER;
 1377              		.loc 1 1259 0
 1378 016a 1723     		movs	r3, #23
 1379 016c FB18     		adds	r3, r7, r3
 1380 016e 1B78     		ldrb	r3, [r3]
 1381 0170 3A69     		ldr	r2, [r7, #16]
 1382 0172 D318     		adds	r3, r2, r3
 1383 0174 0022     		movs	r2, #0
 1384 0176 1A70     		strb	r2, [r3]
1260:Generated_Source\PSoC4/blue_1.c ****                     i++;
 1385              		.loc 1 1260 0
 1386 0178 1723     		movs	r3, #23
 1387 017a FB18     		adds	r3, r7, r3
 1388 017c 1A78     		ldrb	r2, [r3]
 1389 017e 1723     		movs	r3, #23
 1390 0180 FB18     		adds	r3, r7, r3
 1391 0182 0132     		adds	r2, r2, #1
 1392 0184 1A70     		strb	r2, [r3]
 1393              	.L70:
1256:Generated_Source\PSoC4/blue_1.c ****                 {
 1394              		.loc 1 1256 0
 1395 0186 1523     		movs	r3, #21
 1396 0188 FA18     		adds	r2, r7, r3
 1397 018a 1723     		movs	r3, #23
ARM GAS  C:\Users\alexport\AppData\Local\Temp\ccf6k4ea.s 			page 48


 1398 018c FB18     		adds	r3, r7, r3
 1399 018e 1278     		ldrb	r2, [r2]
 1400 0190 1B78     		ldrb	r3, [r3]
 1401 0192 9A42     		cmp	r2, r3
 1402 0194 E9D8     		bhi	.L71
 1403              	.L73:
1261:Generated_Source\PSoC4/blue_1.c ****                 }
1262:Generated_Source\PSoC4/blue_1.c ****             }
1263:Generated_Source\PSoC4/blue_1.c ****         }
 1404              		.loc 1 1263 0
 1405 0196 C046     		nop
 1406 0198 BD46     		mov	sp, r7
 1407 019a 06B0     		add	sp, sp, #24
 1408              		@ sp needed
 1409 019c 80BD     		pop	{r7, pc}
 1410              	.L75:
 1411 019e C046     		.align	2
 1412              	.L74:
 1413 01a0 00000000 		.word	cyBle_discoveryData
 1414 01a4 00000000 		.word	cyBle_scanRspData
 1415              		.cfi_endproc
 1416              	.LFE11:
 1417              		.size	CyBle_ChangeAdLocalName, .-CyBle_ChangeAdLocalName
 1418              		.section	.text.CyBle_GapSetLocalName,"ax",%progbits
 1419              		.align	2
 1420              		.global	CyBle_GapSetLocalName
 1421              		.code	16
 1422              		.thumb_func
 1423              		.type	CyBle_GapSetLocalName, %function
 1424              	CyBle_GapSetLocalName:
 1425              	.LFB12:
1264:Generated_Source\PSoC4/blue_1.c ****         
1265:Generated_Source\PSoC4/blue_1.c **** #endif /* (CYBLE_GAP_ROLE_PERIPHERAL) */  
1266:Generated_Source\PSoC4/blue_1.c ****     
1267:Generated_Source\PSoC4/blue_1.c ****     
1268:Generated_Source\PSoC4/blue_1.c ****     /******************************************************************************
1269:Generated_Source\PSoC4/blue_1.c ****     * Function Name: CyBle_GapSetLocalName
1270:Generated_Source\PSoC4/blue_1.c ****     ***************************************************************************//**
1271:Generated_Source\PSoC4/blue_1.c ****     *  This function is used to set the local device name - a Characteristic of the 
1272:Generated_Source\PSoC4/blue_1.c ****     *  GAP Service. If the characteristic length entered in the component customizer
1273:Generated_Source\PSoC4/blue_1.c ****     *  is shorter than the string specified by the "name" parameter, the local device
1274:Generated_Source\PSoC4/blue_1.c ****     *  name will be cut to the length specified in the customizer.
1275:Generated_Source\PSoC4/blue_1.c ****     * 
1276:Generated_Source\PSoC4/blue_1.c ****     *  \param name: The local device name string. The name string to be written as
1277:Generated_Source\PSoC4/blue_1.c ****     *              the local device name. It represents a UTF-8 encoded User
1278:Generated_Source\PSoC4/blue_1.c ****     *              Friendly Descriptive Name for the device. The length of the local
1279:Generated_Source\PSoC4/blue_1.c ****     *              device string is entered into the component customizer and it can
1280:Generated_Source\PSoC4/blue_1.c ****     *              be set to a value from 0 to 248 bytes. If the name contained in
1281:Generated_Source\PSoC4/blue_1.c ****     *              the parameter is shorter than the length from the customizer, the
1282:Generated_Source\PSoC4/blue_1.c ****     *              end of the name is indicated by a NULL octet (0x00).
1283:Generated_Source\PSoC4/blue_1.c ****     * 
1284:Generated_Source\PSoC4/blue_1.c ****     * \return
1285:Generated_Source\PSoC4/blue_1.c ****     *  CYBLE_API_RESULT_T : Return value indicates if the function succeeded or 
1286:Generated_Source\PSoC4/blue_1.c ****     *  failed. Following are the possible error codes.
1287:Generated_Source\PSoC4/blue_1.c ****     *
1288:Generated_Source\PSoC4/blue_1.c ****     *   Errors codes                       | Description
1289:Generated_Source\PSoC4/blue_1.c ****     *   ------------                       | -----------
ARM GAS  C:\Users\alexport\AppData\Local\Temp\ccf6k4ea.s 			page 49


1290:Generated_Source\PSoC4/blue_1.c ****     *   CYBLE_ERROR_OK                     | Function completed successfully.
1291:Generated_Source\PSoC4/blue_1.c ****     *   CYBLE_ERROR_INVALID_PARAMETER      | On specifying NULL as input parameter
1292:Generated_Source\PSoC4/blue_1.c ****     *  
1293:Generated_Source\PSoC4/blue_1.c ****     *******************************************************************************/
1294:Generated_Source\PSoC4/blue_1.c ****     CYBLE_API_RESULT_T CyBle_GapSetLocalName(const char8 name[])
1295:Generated_Source\PSoC4/blue_1.c ****     {
 1426              		.loc 1 1295 0
 1427              		.cfi_startproc
 1428              		@ args = 0, pretend = 0, frame = 24
 1429              		@ frame_needed = 1, uses_anonymous_args = 0
 1430 0000 80B5     		push	{r7, lr}
 1431              		.cfi_def_cfa_offset 8
 1432              		.cfi_offset 7, -8
 1433              		.cfi_offset 14, -4
 1434 0002 86B0     		sub	sp, sp, #24
 1435              		.cfi_def_cfa_offset 32
 1436 0004 00AF     		add	r7, sp, #0
 1437              		.cfi_def_cfa_register 7
 1438 0006 7860     		str	r0, [r7, #4]
1296:Generated_Source\PSoC4/blue_1.c ****         CYBLE_API_RESULT_T apiResult = CYBLE_ERROR_OK;
 1439              		.loc 1 1296 0
 1440 0008 1623     		movs	r3, #22
 1441 000a FB18     		adds	r3, r7, r3
 1442 000c 0022     		movs	r2, #0
 1443 000e 1A80     		strh	r2, [r3]
1297:Generated_Source\PSoC4/blue_1.c ****         uint8 i;
1298:Generated_Source\PSoC4/blue_1.c ****         char8 *ptr;
1299:Generated_Source\PSoC4/blue_1.c ****         uint8 charLen;
1300:Generated_Source\PSoC4/blue_1.c **** 
1301:Generated_Source\PSoC4/blue_1.c ****         if(NULL != name)
 1444              		.loc 1 1301 0
 1445 0010 7B68     		ldr	r3, [r7, #4]
 1446 0012 002B     		cmp	r3, #0
 1447 0014 5CD0     		beq	.L77
1302:Generated_Source\PSoC4/blue_1.c ****         {
1303:Generated_Source\PSoC4/blue_1.c ****             /* Get the pointer to the Device Name characteristic  */
1304:Generated_Source\PSoC4/blue_1.c ****             ptr = (char8 *) CYBLE_GATT_DB_ATTR_GET_ATTR_GEN_PTR(cyBle_gaps.deviceNameCharHandle);
 1448              		.loc 1 1304 0
 1449 0016 344B     		ldr	r3, .L84
 1450 0018 5B88     		ldrh	r3, [r3, #2]
 1451 001a 5A1E     		subs	r2, r3, #1
 1452 001c 3349     		ldr	r1, .L84+4
 1453 001e 1300     		movs	r3, r2
 1454 0020 9B00     		lsls	r3, r3, #2
 1455 0022 9B18     		adds	r3, r3, r2
 1456 0024 9B00     		lsls	r3, r3, #2
 1457 0026 CB18     		adds	r3, r1, r3
 1458 0028 1033     		adds	r3, r3, #16
 1459 002a 1B68     		ldr	r3, [r3]
 1460 002c 5B68     		ldr	r3, [r3, #4]
 1461 002e 3B61     		str	r3, [r7, #16]
1305:Generated_Source\PSoC4/blue_1.c **** 
1306:Generated_Source\PSoC4/blue_1.c ****             /* First need to get the maximum length of the characteristic data in the GATT
1307:Generated_Source\PSoC4/blue_1.c ****                 database to make sure there is enough place for the data. The length
1308:Generated_Source\PSoC4/blue_1.c ****                 can't be longer than 248, so only the LSB of 16 bit of length is to
1309:Generated_Source\PSoC4/blue_1.c ****                 be used. */
1310:Generated_Source\PSoC4/blue_1.c ****             charLen = (uint8)CYBLE_GATT_DB_ATTR_GET_ATTR_GEN_MAX_LEN(cyBle_gaps.deviceNameCharHandl
ARM GAS  C:\Users\alexport\AppData\Local\Temp\ccf6k4ea.s 			page 50


 1462              		.loc 1 1310 0
 1463 0030 2D4B     		ldr	r3, .L84
 1464 0032 5B88     		ldrh	r3, [r3, #2]
 1465 0034 5A1E     		subs	r2, r3, #1
 1466 0036 2D49     		ldr	r1, .L84+4
 1467 0038 1300     		movs	r3, r2
 1468 003a 9B00     		lsls	r3, r3, #2
 1469 003c 9B18     		adds	r3, r3, r2
 1470 003e 9B00     		lsls	r3, r3, #2
 1471 0040 CB18     		adds	r3, r1, r3
 1472 0042 0C33     		adds	r3, r3, #12
 1473 0044 1A88     		ldrh	r2, [r3]
 1474 0046 0F23     		movs	r3, #15
 1475 0048 FB18     		adds	r3, r7, r3
 1476 004a 1A70     		strb	r2, [r3]
1311:Generated_Source\PSoC4/blue_1.c **** 
1312:Generated_Source\PSoC4/blue_1.c ****             /* Copy name into characteristic */
1313:Generated_Source\PSoC4/blue_1.c ****             for(i = 0u; ((i < charLen) && (CYBLE_NULL_CHARCTER != name[i])); i++)
 1477              		.loc 1 1313 0
 1478 004c 1523     		movs	r3, #21
 1479 004e FB18     		adds	r3, r7, r3
 1480 0050 0022     		movs	r2, #0
 1481 0052 1A70     		strb	r2, [r3]
 1482 0054 12E0     		b	.L78
 1483              	.L80:
1314:Generated_Source\PSoC4/blue_1.c ****             {
1315:Generated_Source\PSoC4/blue_1.c ****                 ptr[i] = name[i];
 1484              		.loc 1 1315 0 discriminator 4
 1485 0056 1523     		movs	r3, #21
 1486 0058 FB18     		adds	r3, r7, r3
 1487 005a 1B78     		ldrb	r3, [r3]
 1488 005c 3A69     		ldr	r2, [r7, #16]
 1489 005e D318     		adds	r3, r2, r3
 1490 0060 1522     		movs	r2, #21
 1491 0062 BA18     		adds	r2, r7, r2
 1492 0064 1278     		ldrb	r2, [r2]
 1493 0066 7968     		ldr	r1, [r7, #4]
 1494 0068 8A18     		adds	r2, r1, r2
 1495 006a 1278     		ldrb	r2, [r2]
 1496 006c 1A70     		strb	r2, [r3]
1313:Generated_Source\PSoC4/blue_1.c ****             {
 1497              		.loc 1 1313 0 discriminator 4
 1498 006e 1523     		movs	r3, #21
 1499 0070 FB18     		adds	r3, r7, r3
 1500 0072 1A78     		ldrb	r2, [r3]
 1501 0074 1523     		movs	r3, #21
 1502 0076 FB18     		adds	r3, r7, r3
 1503 0078 0132     		adds	r2, r2, #1
 1504 007a 1A70     		strb	r2, [r3]
 1505              	.L78:
1313:Generated_Source\PSoC4/blue_1.c ****             {
 1506              		.loc 1 1313 0 is_stmt 0 discriminator 1
 1507 007c 1523     		movs	r3, #21
 1508 007e FA18     		adds	r2, r7, r3
 1509 0080 0F23     		movs	r3, #15
 1510 0082 FB18     		adds	r3, r7, r3
 1511 0084 1278     		ldrb	r2, [r2]
ARM GAS  C:\Users\alexport\AppData\Local\Temp\ccf6k4ea.s 			page 51


 1512 0086 1B78     		ldrb	r3, [r3]
 1513 0088 9A42     		cmp	r2, r3
 1514 008a 07D2     		bcs	.L79
1313:Generated_Source\PSoC4/blue_1.c ****             {
 1515              		.loc 1 1313 0 discriminator 3
 1516 008c 1523     		movs	r3, #21
 1517 008e FB18     		adds	r3, r7, r3
 1518 0090 1B78     		ldrb	r3, [r3]
 1519 0092 7A68     		ldr	r2, [r7, #4]
 1520 0094 D318     		adds	r3, r2, r3
 1521 0096 1B78     		ldrb	r3, [r3]
 1522 0098 002B     		cmp	r3, #0
 1523 009a DCD1     		bne	.L80
 1524              	.L79:
1316:Generated_Source\PSoC4/blue_1.c ****             }
1317:Generated_Source\PSoC4/blue_1.c **** 
1318:Generated_Source\PSoC4/blue_1.c ****             if(i < charLen)
 1525              		.loc 1 1318 0 is_stmt 1
 1526 009c 1523     		movs	r3, #21
 1527 009e FA18     		adds	r2, r7, r3
 1528 00a0 0F23     		movs	r3, #15
 1529 00a2 FB18     		adds	r3, r7, r3
 1530 00a4 1278     		ldrb	r2, [r2]
 1531 00a6 1B78     		ldrb	r3, [r3]
 1532 00a8 9A42     		cmp	r2, r3
 1533 00aa 06D2     		bcs	.L81
1319:Generated_Source\PSoC4/blue_1.c ****             {
1320:Generated_Source\PSoC4/blue_1.c ****                 /* Terminate string */
1321:Generated_Source\PSoC4/blue_1.c ****                 ptr[i] = CYBLE_NULL_CHARCTER;
 1534              		.loc 1 1321 0
 1535 00ac 1523     		movs	r3, #21
 1536 00ae FB18     		adds	r3, r7, r3
 1537 00b0 1B78     		ldrb	r3, [r3]
 1538 00b2 3A69     		ldr	r2, [r7, #16]
 1539 00b4 D318     		adds	r3, r2, r3
 1540 00b6 0022     		movs	r2, #0
 1541 00b8 1A70     		strb	r2, [r3]
 1542              	.L81:
1322:Generated_Source\PSoC4/blue_1.c ****             }
1323:Generated_Source\PSoC4/blue_1.c ****             
1324:Generated_Source\PSoC4/blue_1.c ****             /* Set new actual length */
1325:Generated_Source\PSoC4/blue_1.c ****             
1326:Generated_Source\PSoC4/blue_1.c ****             /* Update device name in advertising and scan response structure */
1327:Generated_Source\PSoC4/blue_1.c ****             #if(CYBLE_GAP_ROLE_PERIPHERAL)
1328:Generated_Source\PSoC4/blue_1.c ****                 CyBle_ChangeAdLocalName(name, 0u);
 1543              		.loc 1 1328 0
 1544 00ba 7B68     		ldr	r3, [r7, #4]
 1545 00bc 0021     		movs	r1, #0
 1546 00be 1800     		movs	r0, r3
 1547 00c0 FFF7FEFF 		bl	CyBle_ChangeAdLocalName
1329:Generated_Source\PSoC4/blue_1.c ****                 CyBle_ChangeAdLocalName(name, 1u);
 1548              		.loc 1 1329 0
 1549 00c4 7B68     		ldr	r3, [r7, #4]
 1550 00c6 0121     		movs	r1, #1
 1551 00c8 1800     		movs	r0, r3
 1552 00ca FFF7FEFF 		bl	CyBle_ChangeAdLocalName
 1553 00ce 03E0     		b	.L82
ARM GAS  C:\Users\alexport\AppData\Local\Temp\ccf6k4ea.s 			page 52


 1554              	.L77:
1330:Generated_Source\PSoC4/blue_1.c ****             #endif /* (CYBLE_GAP_ROLE_PERIPHERAL) */
1331:Generated_Source\PSoC4/blue_1.c ****         }
1332:Generated_Source\PSoC4/blue_1.c ****         else
1333:Generated_Source\PSoC4/blue_1.c ****         {
1334:Generated_Source\PSoC4/blue_1.c ****             apiResult = CYBLE_ERROR_INVALID_PARAMETER;
 1555              		.loc 1 1334 0
 1556 00d0 1623     		movs	r3, #22
 1557 00d2 FB18     		adds	r3, r7, r3
 1558 00d4 0122     		movs	r2, #1
 1559 00d6 1A80     		strh	r2, [r3]
 1560              	.L82:
1335:Generated_Source\PSoC4/blue_1.c ****         }
1336:Generated_Source\PSoC4/blue_1.c ****         
1337:Generated_Source\PSoC4/blue_1.c ****         return(apiResult);
 1561              		.loc 1 1337 0
 1562 00d8 1623     		movs	r3, #22
 1563 00da FB18     		adds	r3, r7, r3
 1564 00dc 1B88     		ldrh	r3, [r3]
1338:Generated_Source\PSoC4/blue_1.c ****     }
 1565              		.loc 1 1338 0
 1566 00de 1800     		movs	r0, r3
 1567 00e0 BD46     		mov	sp, r7
 1568 00e2 06B0     		add	sp, sp, #24
 1569              		@ sp needed
 1570 00e4 80BD     		pop	{r7, pc}
 1571              	.L85:
 1572 00e6 C046     		.align	2
 1573              	.L84:
 1574 00e8 00000000 		.word	cyBle_gaps
 1575 00ec 00000000 		.word	cyBle_gattDB
 1576              		.cfi_endproc
 1577              	.LFE12:
 1578              		.size	CyBle_GapSetLocalName, .-CyBle_GapSetLocalName
 1579              		.section	.text.CyBle_GapGetLocalName,"ax",%progbits
 1580              		.align	2
 1581              		.global	CyBle_GapGetLocalName
 1582              		.code	16
 1583              		.thumb_func
 1584              		.type	CyBle_GapGetLocalName, %function
 1585              	CyBle_GapGetLocalName:
 1586              	.LFB13:
1339:Generated_Source\PSoC4/blue_1.c **** 
1340:Generated_Source\PSoC4/blue_1.c **** 
1341:Generated_Source\PSoC4/blue_1.c ****     /******************************************************************************
1342:Generated_Source\PSoC4/blue_1.c ****     * Function Name: CyBle_GapGetLocalName
1343:Generated_Source\PSoC4/blue_1.c ****     ***************************************************************************//**
1344:Generated_Source\PSoC4/blue_1.c ****     *  
1345:Generated_Source\PSoC4/blue_1.c ****     *  This function is used to read the local device name - a Characteristic of the 
1346:Generated_Source\PSoC4/blue_1.c ****     *  GAP Service.
1347:Generated_Source\PSoC4/blue_1.c ****     * 
1348:Generated_Source\PSoC4/blue_1.c ****     * \param name: The local device name string. Used to read the local name to the
1349:Generated_Source\PSoC4/blue_1.c ****     *             given string array. It represents a UTF-8 encoded User Friendly 
1350:Generated_Source\PSoC4/blue_1.c ****     *             Descriptive Name for the device. The length of the local device
1351:Generated_Source\PSoC4/blue_1.c ****     *             string is entered into the component customizer and it can be set
1352:Generated_Source\PSoC4/blue_1.c ****     *             to a value from 0 to 248 bytes. If the name contained in the
1353:Generated_Source\PSoC4/blue_1.c ****     *             parameter is shorter than the length from the customizer, the end
ARM GAS  C:\Users\alexport\AppData\Local\Temp\ccf6k4ea.s 			page 53


1354:Generated_Source\PSoC4/blue_1.c ****     *             of the name is indicated by a NULL octet (0x00).
1355:Generated_Source\PSoC4/blue_1.c ****     * 
1356:Generated_Source\PSoC4/blue_1.c ****     * \return
1357:Generated_Source\PSoC4/blue_1.c ****     *  CYBLE_API_RESULT_T : Return value indicates if the function succeeded or 
1358:Generated_Source\PSoC4/blue_1.c ****     *  failed. Following are the possible error codes.
1359:Generated_Source\PSoC4/blue_1.c ****     *
1360:Generated_Source\PSoC4/blue_1.c ****     *   Errors codes                       | Description
1361:Generated_Source\PSoC4/blue_1.c ****     *   ------------                       | -----------
1362:Generated_Source\PSoC4/blue_1.c ****     *   CYBLE_ERROR_OK                     | Function completed successfully.
1363:Generated_Source\PSoC4/blue_1.c ****     *   CYBLE_ERROR_INVALID_PARAMETER      | On specifying NULL as input parameter
1364:Generated_Source\PSoC4/blue_1.c ****     *
1365:Generated_Source\PSoC4/blue_1.c ****     *******************************************************************************/
1366:Generated_Source\PSoC4/blue_1.c ****     CYBLE_API_RESULT_T CyBle_GapGetLocalName(char8 name[])
1367:Generated_Source\PSoC4/blue_1.c ****     {
 1587              		.loc 1 1367 0
 1588              		.cfi_startproc
 1589              		@ args = 0, pretend = 0, frame = 24
 1590              		@ frame_needed = 1, uses_anonymous_args = 0
 1591 0000 80B5     		push	{r7, lr}
 1592              		.cfi_def_cfa_offset 8
 1593              		.cfi_offset 7, -8
 1594              		.cfi_offset 14, -4
 1595 0002 86B0     		sub	sp, sp, #24
 1596              		.cfi_def_cfa_offset 32
 1597 0004 00AF     		add	r7, sp, #0
 1598              		.cfi_def_cfa_register 7
 1599 0006 7860     		str	r0, [r7, #4]
1368:Generated_Source\PSoC4/blue_1.c ****         CYBLE_API_RESULT_T apiResult = CYBLE_ERROR_OK;
 1600              		.loc 1 1368 0
 1601 0008 1623     		movs	r3, #22
 1602 000a FB18     		adds	r3, r7, r3
 1603 000c 0022     		movs	r2, #0
 1604 000e 1A80     		strh	r2, [r3]
1369:Generated_Source\PSoC4/blue_1.c ****         uint8 charLen;
1370:Generated_Source\PSoC4/blue_1.c ****         uint8 i;
1371:Generated_Source\PSoC4/blue_1.c ****         char8 *ptr;
1372:Generated_Source\PSoC4/blue_1.c **** 
1373:Generated_Source\PSoC4/blue_1.c ****         if(NULL != name)
 1605              		.loc 1 1373 0
 1606 0010 7B68     		ldr	r3, [r7, #4]
 1607 0012 002B     		cmp	r3, #0
 1608 0014 4BD0     		beq	.L87
1374:Generated_Source\PSoC4/blue_1.c ****         {
1375:Generated_Source\PSoC4/blue_1.c ****             /* Get the pointer to the Device Name characteristic  */
1376:Generated_Source\PSoC4/blue_1.c ****             ptr = (char8 *) CYBLE_GATT_DB_ATTR_GET_ATTR_GEN_PTR(cyBle_gaps.deviceNameCharHandle);
 1609              		.loc 1 1376 0
 1610 0016 2B4B     		ldr	r3, .L93
 1611 0018 5B88     		ldrh	r3, [r3, #2]
 1612 001a 5A1E     		subs	r2, r3, #1
 1613 001c 2A49     		ldr	r1, .L93+4
 1614 001e 1300     		movs	r3, r2
 1615 0020 9B00     		lsls	r3, r3, #2
 1616 0022 9B18     		adds	r3, r3, r2
 1617 0024 9B00     		lsls	r3, r3, #2
 1618 0026 CB18     		adds	r3, r1, r3
 1619 0028 1033     		adds	r3, r3, #16
 1620 002a 1B68     		ldr	r3, [r3]
ARM GAS  C:\Users\alexport\AppData\Local\Temp\ccf6k4ea.s 			page 54


 1621 002c 5B68     		ldr	r3, [r3, #4]
 1622 002e 3B61     		str	r3, [r7, #16]
1377:Generated_Source\PSoC4/blue_1.c **** 
1378:Generated_Source\PSoC4/blue_1.c ****             /* First need to get the length of the characteristic data in the GATT
1379:Generated_Source\PSoC4/blue_1.c ****                 database to make sure there is enough place for the data. The length
1380:Generated_Source\PSoC4/blue_1.c ****                 can't be longer than 248, so only the LSB of 16 bit of length is to
1381:Generated_Source\PSoC4/blue_1.c ****                 be used. */
1382:Generated_Source\PSoC4/blue_1.c ****             charLen = (uint8)CYBLE_GATT_DB_ATTR_GET_ATTR_GEN_LEN(cyBle_gaps.deviceNameCharHandle);
 1623              		.loc 1 1382 0
 1624 0030 244B     		ldr	r3, .L93
 1625 0032 5B88     		ldrh	r3, [r3, #2]
 1626 0034 5A1E     		subs	r2, r3, #1
 1627 0036 2449     		ldr	r1, .L93+4
 1628 0038 1300     		movs	r3, r2
 1629 003a 9B00     		lsls	r3, r3, #2
 1630 003c 9B18     		adds	r3, r3, r2
 1631 003e 9B00     		lsls	r3, r3, #2
 1632 0040 CB18     		adds	r3, r1, r3
 1633 0042 1033     		adds	r3, r3, #16
 1634 0044 1B68     		ldr	r3, [r3]
 1635 0046 1A88     		ldrh	r2, [r3]
 1636 0048 0F23     		movs	r3, #15
 1637 004a FB18     		adds	r3, r7, r3
 1638 004c 1A70     		strb	r2, [r3]
1383:Generated_Source\PSoC4/blue_1.c **** 
1384:Generated_Source\PSoC4/blue_1.c ****             /* Copy name from characteristic */
1385:Generated_Source\PSoC4/blue_1.c ****             for(i = 0u; ((i < charLen) && (CYBLE_NULL_CHARCTER != ptr[i])); i++)
 1639              		.loc 1 1385 0
 1640 004e 1523     		movs	r3, #21
 1641 0050 FB18     		adds	r3, r7, r3
 1642 0052 0022     		movs	r2, #0
 1643 0054 1A70     		strb	r2, [r3]
 1644 0056 12E0     		b	.L88
 1645              	.L90:
1386:Generated_Source\PSoC4/blue_1.c ****             {
1387:Generated_Source\PSoC4/blue_1.c ****                 name[i] = ptr[i];
 1646              		.loc 1 1387 0 discriminator 4
 1647 0058 1523     		movs	r3, #21
 1648 005a FB18     		adds	r3, r7, r3
 1649 005c 1B78     		ldrb	r3, [r3]
 1650 005e 7A68     		ldr	r2, [r7, #4]
 1651 0060 D318     		adds	r3, r2, r3
 1652 0062 1522     		movs	r2, #21
 1653 0064 BA18     		adds	r2, r7, r2
 1654 0066 1278     		ldrb	r2, [r2]
 1655 0068 3969     		ldr	r1, [r7, #16]
 1656 006a 8A18     		adds	r2, r1, r2
 1657 006c 1278     		ldrb	r2, [r2]
 1658 006e 1A70     		strb	r2, [r3]
1385:Generated_Source\PSoC4/blue_1.c ****             {
 1659              		.loc 1 1385 0 discriminator 4
 1660 0070 1523     		movs	r3, #21
 1661 0072 FB18     		adds	r3, r7, r3
 1662 0074 1A78     		ldrb	r2, [r3]
 1663 0076 1523     		movs	r3, #21
 1664 0078 FB18     		adds	r3, r7, r3
 1665 007a 0132     		adds	r2, r2, #1
ARM GAS  C:\Users\alexport\AppData\Local\Temp\ccf6k4ea.s 			page 55


 1666 007c 1A70     		strb	r2, [r3]
 1667              	.L88:
1385:Generated_Source\PSoC4/blue_1.c ****             {
 1668              		.loc 1 1385 0 is_stmt 0 discriminator 1
 1669 007e 1523     		movs	r3, #21
 1670 0080 FA18     		adds	r2, r7, r3
 1671 0082 0F23     		movs	r3, #15
 1672 0084 FB18     		adds	r3, r7, r3
 1673 0086 1278     		ldrb	r2, [r2]
 1674 0088 1B78     		ldrb	r3, [r3]
 1675 008a 9A42     		cmp	r2, r3
 1676 008c 07D2     		bcs	.L89
1385:Generated_Source\PSoC4/blue_1.c ****             {
 1677              		.loc 1 1385 0 discriminator 3
 1678 008e 1523     		movs	r3, #21
 1679 0090 FB18     		adds	r3, r7, r3
 1680 0092 1B78     		ldrb	r3, [r3]
 1681 0094 3A69     		ldr	r2, [r7, #16]
 1682 0096 D318     		adds	r3, r2, r3
 1683 0098 1B78     		ldrb	r3, [r3]
 1684 009a 002B     		cmp	r3, #0
 1685 009c DCD1     		bne	.L90
 1686              	.L89:
1388:Generated_Source\PSoC4/blue_1.c ****             }
1389:Generated_Source\PSoC4/blue_1.c **** 
1390:Generated_Source\PSoC4/blue_1.c ****             /* Terminate string */
1391:Generated_Source\PSoC4/blue_1.c ****             name[i] = CYBLE_NULL_CHARCTER;
 1687              		.loc 1 1391 0 is_stmt 1
 1688 009e 1523     		movs	r3, #21
 1689 00a0 FB18     		adds	r3, r7, r3
 1690 00a2 1B78     		ldrb	r3, [r3]
 1691 00a4 7A68     		ldr	r2, [r7, #4]
 1692 00a6 D318     		adds	r3, r2, r3
 1693 00a8 0022     		movs	r2, #0
 1694 00aa 1A70     		strb	r2, [r3]
 1695 00ac 03E0     		b	.L91
 1696              	.L87:
1392:Generated_Source\PSoC4/blue_1.c ****         }
1393:Generated_Source\PSoC4/blue_1.c ****         else
1394:Generated_Source\PSoC4/blue_1.c ****         {
1395:Generated_Source\PSoC4/blue_1.c ****             apiResult = CYBLE_ERROR_INVALID_PARAMETER;
 1697              		.loc 1 1395 0
 1698 00ae 1623     		movs	r3, #22
 1699 00b0 FB18     		adds	r3, r7, r3
 1700 00b2 0122     		movs	r2, #1
 1701 00b4 1A80     		strh	r2, [r3]
 1702              	.L91:
1396:Generated_Source\PSoC4/blue_1.c ****         }
1397:Generated_Source\PSoC4/blue_1.c ****         
1398:Generated_Source\PSoC4/blue_1.c ****         return(apiResult);
 1703              		.loc 1 1398 0
 1704 00b6 1623     		movs	r3, #22
 1705 00b8 FB18     		adds	r3, r7, r3
 1706 00ba 1B88     		ldrh	r3, [r3]
1399:Generated_Source\PSoC4/blue_1.c ****     }
 1707              		.loc 1 1399 0
 1708 00bc 1800     		movs	r0, r3
ARM GAS  C:\Users\alexport\AppData\Local\Temp\ccf6k4ea.s 			page 56


 1709 00be BD46     		mov	sp, r7
 1710 00c0 06B0     		add	sp, sp, #24
 1711              		@ sp needed
 1712 00c2 80BD     		pop	{r7, pc}
 1713              	.L94:
 1714              		.align	2
 1715              	.L93:
 1716 00c4 00000000 		.word	cyBle_gaps
 1717 00c8 00000000 		.word	cyBle_gattDB
 1718              		.cfi_endproc
 1719              	.LFE13:
 1720              		.size	CyBle_GapGetLocalName, .-CyBle_GapGetLocalName
 1721              		.section	.text.CyBle_Get16ByPtr,"ax",%progbits
 1722              		.align	2
 1723              		.global	CyBle_Get16ByPtr
 1724              		.code	16
 1725              		.thumb_func
 1726              		.type	CyBle_Get16ByPtr, %function
 1727              	CyBle_Get16ByPtr:
 1728              	.LFB14:
1400:Generated_Source\PSoC4/blue_1.c **** 
1401:Generated_Source\PSoC4/blue_1.c **** #endif /* (CYBLE_GATT_ROLE_SERVER) */
1402:Generated_Source\PSoC4/blue_1.c **** 
1403:Generated_Source\PSoC4/blue_1.c **** 
1404:Generated_Source\PSoC4/blue_1.c **** /******************************************************************************
1405:Generated_Source\PSoC4/blue_1.c **** * Function Name: CyBle_Get16ByPtr
1406:Generated_Source\PSoC4/blue_1.c **** ***************************************************************************//**
1407:Generated_Source\PSoC4/blue_1.c **** * 
1408:Generated_Source\PSoC4/blue_1.c **** *  Returns the two-bytes value by using a pointer to the LSB.
1409:Generated_Source\PSoC4/blue_1.c **** * 
1410:Generated_Source\PSoC4/blue_1.c **** *  \param ptr: Pointer to the LSB of two-bytes data (little endian).
1411:Generated_Source\PSoC4/blue_1.c **** * 
1412:Generated_Source\PSoC4/blue_1.c **** *  \return
1413:Generated_Source\PSoC4/blue_1.c **** *  uint16: Two-bytes data.
1414:Generated_Source\PSoC4/blue_1.c **** * 
1415:Generated_Source\PSoC4/blue_1.c **** ******************************************************************************/
1416:Generated_Source\PSoC4/blue_1.c **** uint16 CyBle_Get16ByPtr(const uint8 ptr[])
1417:Generated_Source\PSoC4/blue_1.c **** {
 1729              		.loc 1 1417 0
 1730              		.cfi_startproc
 1731              		@ args = 0, pretend = 0, frame = 8
 1732              		@ frame_needed = 1, uses_anonymous_args = 0
 1733 0000 80B5     		push	{r7, lr}
 1734              		.cfi_def_cfa_offset 8
 1735              		.cfi_offset 7, -8
 1736              		.cfi_offset 14, -4
 1737 0002 82B0     		sub	sp, sp, #8
 1738              		.cfi_def_cfa_offset 16
 1739 0004 00AF     		add	r7, sp, #0
 1740              		.cfi_def_cfa_register 7
 1741 0006 7860     		str	r0, [r7, #4]
1418:Generated_Source\PSoC4/blue_1.c ****     return ((uint16) ptr[0u] | ((uint16) (((uint16) ptr[1u]) << 8u)));
 1742              		.loc 1 1418 0
 1743 0008 7B68     		ldr	r3, [r7, #4]
 1744 000a 1B78     		ldrb	r3, [r3]
 1745 000c 9AB2     		uxth	r2, r3
 1746 000e 7B68     		ldr	r3, [r7, #4]
ARM GAS  C:\Users\alexport\AppData\Local\Temp\ccf6k4ea.s 			page 57


 1747 0010 0133     		adds	r3, r3, #1
 1748 0012 1B78     		ldrb	r3, [r3]
 1749 0014 9BB2     		uxth	r3, r3
 1750 0016 1B02     		lsls	r3, r3, #8
 1751 0018 9BB2     		uxth	r3, r3
 1752 001a 1343     		orrs	r3, r2
 1753 001c 9BB2     		uxth	r3, r3
1419:Generated_Source\PSoC4/blue_1.c **** }
 1754              		.loc 1 1419 0
 1755 001e 1800     		movs	r0, r3
 1756 0020 BD46     		mov	sp, r7
 1757 0022 02B0     		add	sp, sp, #8
 1758              		@ sp needed
 1759 0024 80BD     		pop	{r7, pc}
 1760              		.cfi_endproc
 1761              	.LFE14:
 1762              		.size	CyBle_Get16ByPtr, .-CyBle_Get16ByPtr
 1763 0026 C046     		.section	.text.CyBle_Set16ByPtr,"ax",%progbits
 1764              		.align	2
 1765              		.global	CyBle_Set16ByPtr
 1766              		.code	16
 1767              		.thumb_func
 1768              		.type	CyBle_Set16ByPtr, %function
 1769              	CyBle_Set16ByPtr:
 1770              	.LFB15:
1420:Generated_Source\PSoC4/blue_1.c **** 
1421:Generated_Source\PSoC4/blue_1.c **** 
1422:Generated_Source\PSoC4/blue_1.c **** /******************************************************************************
1423:Generated_Source\PSoC4/blue_1.c **** * Function Name: CyBle_Set16ByPtr
1424:Generated_Source\PSoC4/blue_1.c **** ***************************************************************************//**
1425:Generated_Source\PSoC4/blue_1.c **** * 
1426:Generated_Source\PSoC4/blue_1.c **** *  Sets the two-bytes value by using a pointer to the LSB.
1427:Generated_Source\PSoC4/blue_1.c **** * 
1428:Generated_Source\PSoC4/blue_1.c **** *  \param ptr:    Pointer to the LSB of two-bytes data (little endian).
1429:Generated_Source\PSoC4/blue_1.c **** *  \param value:  Two-bytes data to be written.
1430:Generated_Source\PSoC4/blue_1.c **** * 
1431:Generated_Source\PSoC4/blue_1.c **** *  \return
1432:Generated_Source\PSoC4/blue_1.c **** *  None
1433:Generated_Source\PSoC4/blue_1.c **** * 
1434:Generated_Source\PSoC4/blue_1.c **** ******************************************************************************/
1435:Generated_Source\PSoC4/blue_1.c **** void CyBle_Set16ByPtr(uint8 ptr[], uint16 value)
1436:Generated_Source\PSoC4/blue_1.c **** {
 1771              		.loc 1 1436 0
 1772              		.cfi_startproc
 1773              		@ args = 0, pretend = 0, frame = 8
 1774              		@ frame_needed = 1, uses_anonymous_args = 0
 1775 0000 80B5     		push	{r7, lr}
 1776              		.cfi_def_cfa_offset 8
 1777              		.cfi_offset 7, -8
 1778              		.cfi_offset 14, -4
 1779 0002 82B0     		sub	sp, sp, #8
 1780              		.cfi_def_cfa_offset 16
 1781 0004 00AF     		add	r7, sp, #0
 1782              		.cfi_def_cfa_register 7
 1783 0006 7860     		str	r0, [r7, #4]
 1784 0008 0A00     		movs	r2, r1
 1785 000a BB1C     		adds	r3, r7, #2
ARM GAS  C:\Users\alexport\AppData\Local\Temp\ccf6k4ea.s 			page 58


 1786 000c 1A80     		strh	r2, [r3]
1437:Generated_Source\PSoC4/blue_1.c ****     ptr[0u] = (uint8) value;
 1787              		.loc 1 1437 0
 1788 000e BB1C     		adds	r3, r7, #2
 1789 0010 1B88     		ldrh	r3, [r3]
 1790 0012 DAB2     		uxtb	r2, r3
 1791 0014 7B68     		ldr	r3, [r7, #4]
 1792 0016 1A70     		strb	r2, [r3]
1438:Generated_Source\PSoC4/blue_1.c ****     ptr[1u] = (uint8) (value >> 8u);
 1793              		.loc 1 1438 0
 1794 0018 7B68     		ldr	r3, [r7, #4]
 1795 001a 0133     		adds	r3, r3, #1
 1796 001c BA1C     		adds	r2, r7, #2
 1797 001e 1288     		ldrh	r2, [r2]
 1798 0020 120A     		lsrs	r2, r2, #8
 1799 0022 92B2     		uxth	r2, r2
 1800 0024 D2B2     		uxtb	r2, r2
 1801 0026 1A70     		strb	r2, [r3]
1439:Generated_Source\PSoC4/blue_1.c **** }
 1802              		.loc 1 1439 0
 1803 0028 C046     		nop
 1804 002a BD46     		mov	sp, r7
 1805 002c 02B0     		add	sp, sp, #8
 1806              		@ sp needed
 1807 002e 80BD     		pop	{r7, pc}
 1808              		.cfi_endproc
 1809              	.LFE15:
 1810              		.size	CyBle_Set16ByPtr, .-CyBle_Set16ByPtr
 1811              		.text
 1812              	.Letext0:
 1813              		.file 2 "Generated_Source\\PSoC4\\cytypes.h"
 1814              		.file 3 "Generated_Source\\PSoC4\\blue_1_Stack.h"
 1815              		.file 4 "Generated_Source\\PSoC4\\blue_1_StackGap.h"
 1816              		.file 5 "Generated_Source\\PSoC4\\blue_1_StackGatt.h"
 1817              		.file 6 "Generated_Source\\PSoC4\\blue_1_StackGattDb.h"
 1818              		.file 7 "Generated_Source\\PSoC4\\blue_1.h"
 1819              		.file 8 "Generated_Source\\PSoC4\\blue_1_gatt.h"
 1820              		.file 9 "Generated_Source\\PSoC4\\blue_1_dis.h"
 1821              		.file 10 "Generated_Source\\PSoC4\\blue_1_eventHandler.h"
 1822              		.section	.debug_info,"",%progbits
 1823              	.Ldebug_info0:
 1824 0000 440E0000 		.4byte	0xe44
 1825 0004 0400     		.2byte	0x4
 1826 0006 00000000 		.4byte	.Ldebug_abbrev0
 1827 000a 04       		.byte	0x4
 1828 000b 01       		.uleb128 0x1
 1829 000c 1C090000 		.4byte	.LASF269
 1830 0010 0C       		.byte	0xc
 1831 0011 3A110000 		.4byte	.LASF270
 1832 0015 12000000 		.4byte	.LASF271
 1833 0019 00000000 		.4byte	.Ldebug_ranges0+0
 1834 001d 00000000 		.4byte	0
 1835 0021 00000000 		.4byte	.Ldebug_line0
 1836 0025 02       		.uleb128 0x2
 1837 0026 01       		.byte	0x1
 1838 0027 06       		.byte	0x6
 1839 0028 84040000 		.4byte	.LASF0
ARM GAS  C:\Users\alexport\AppData\Local\Temp\ccf6k4ea.s 			page 59


 1840 002c 02       		.uleb128 0x2
 1841 002d 01       		.byte	0x1
 1842 002e 08       		.byte	0x8
 1843 002f 1B050000 		.4byte	.LASF1
 1844 0033 02       		.uleb128 0x2
 1845 0034 02       		.byte	0x2
 1846 0035 05       		.byte	0x5
 1847 0036 55140000 		.4byte	.LASF2
 1848 003a 02       		.uleb128 0x2
 1849 003b 02       		.byte	0x2
 1850 003c 07       		.byte	0x7
 1851 003d 78170000 		.4byte	.LASF3
 1852 0041 02       		.uleb128 0x2
 1853 0042 04       		.byte	0x4
 1854 0043 05       		.byte	0x5
 1855 0044 15030000 		.4byte	.LASF4
 1856 0048 02       		.uleb128 0x2
 1857 0049 04       		.byte	0x4
 1858 004a 07       		.byte	0x7
 1859 004b 540A0000 		.4byte	.LASF5
 1860 004f 02       		.uleb128 0x2
 1861 0050 08       		.byte	0x8
 1862 0051 05       		.byte	0x5
 1863 0052 0E0C0000 		.4byte	.LASF6
 1864 0056 02       		.uleb128 0x2
 1865 0057 08       		.byte	0x8
 1866 0058 07       		.byte	0x7
 1867 0059 76110000 		.4byte	.LASF7
 1868 005d 03       		.uleb128 0x3
 1869 005e 04       		.byte	0x4
 1870 005f 05       		.byte	0x5
 1871 0060 696E7400 		.ascii	"int\000"
 1872 0064 02       		.uleb128 0x2
 1873 0065 04       		.byte	0x4
 1874 0066 07       		.byte	0x7
 1875 0067 200E0000 		.4byte	.LASF8
 1876 006b 04       		.uleb128 0x4
 1877 006c 0C140000 		.4byte	.LASF9
 1878 0070 02       		.byte	0x2
 1879 0071 FC01     		.2byte	0x1fc
 1880 0073 2C000000 		.4byte	0x2c
 1881 0077 04       		.uleb128 0x4
 1882 0078 DD180000 		.4byte	.LASF10
 1883 007c 02       		.byte	0x2
 1884 007d FD01     		.2byte	0x1fd
 1885 007f 3A000000 		.4byte	0x3a
 1886 0083 04       		.uleb128 0x4
 1887 0084 06010000 		.4byte	.LASF11
 1888 0088 02       		.byte	0x2
 1889 0089 FE01     		.2byte	0x1fe
 1890 008b 48000000 		.4byte	0x48
 1891 008f 02       		.uleb128 0x2
 1892 0090 04       		.byte	0x4
 1893 0091 04       		.byte	0x4
 1894 0092 AB0D0000 		.4byte	.LASF12
 1895 0096 02       		.uleb128 0x2
 1896 0097 08       		.byte	0x8
ARM GAS  C:\Users\alexport\AppData\Local\Temp\ccf6k4ea.s 			page 60


 1897 0098 04       		.byte	0x4
 1898 0099 8E0C0000 		.4byte	.LASF13
 1899 009d 04       		.uleb128 0x4
 1900 009e 6B010000 		.4byte	.LASF14
 1901 00a2 02       		.byte	0x2
 1902 00a3 0D02     		.2byte	0x20d
 1903 00a5 A9000000 		.4byte	0xa9
 1904 00a9 02       		.uleb128 0x2
 1905 00aa 01       		.byte	0x1
 1906 00ab 08       		.byte	0x8
 1907 00ac 38060000 		.4byte	.LASF15
 1908 00b0 05       		.uleb128 0x5
 1909 00b1 6B000000 		.4byte	0x6b
 1910 00b5 02       		.uleb128 0x2
 1911 00b6 08       		.byte	0x8
 1912 00b7 04       		.byte	0x4
 1913 00b8 74100000 		.4byte	.LASF16
 1914 00bc 02       		.uleb128 0x2
 1915 00bd 04       		.byte	0x4
 1916 00be 07       		.byte	0x7
 1917 00bf 78000000 		.4byte	.LASF17
 1918 00c3 06       		.uleb128 0x6
 1919 00c4 04       		.byte	0x4
 1920 00c5 07       		.uleb128 0x7
 1921 00c6 04       		.byte	0x4
 1922 00c7 CB000000 		.4byte	0xcb
 1923 00cb 08       		.uleb128 0x8
 1924 00cc DB000000 		.4byte	0xdb
 1925 00d0 09       		.uleb128 0x9
 1926 00d1 83000000 		.4byte	0x83
 1927 00d5 09       		.uleb128 0x9
 1928 00d6 C3000000 		.4byte	0xc3
 1929 00da 00       		.byte	0
 1930 00db 0A       		.uleb128 0xa
 1931 00dc 01       		.byte	0x1
 1932 00dd 2C000000 		.4byte	0x2c
 1933 00e1 03       		.byte	0x3
 1934 00e2 3501     		.2byte	0x135
 1935 00e4 99020000 		.4byte	0x299
 1936 00e8 0B       		.uleb128 0xb
 1937 00e9 6A060000 		.4byte	.LASF18
 1938 00ed 00       		.byte	0
 1939 00ee 0B       		.uleb128 0xb
 1940 00ef 78030000 		.4byte	.LASF19
 1941 00f3 01       		.byte	0x1
 1942 00f4 0B       		.uleb128 0xb
 1943 00f5 8D110000 		.4byte	.LASF20
 1944 00f9 02       		.byte	0x2
 1945 00fa 0B       		.uleb128 0xb
 1946 00fb B8040000 		.4byte	.LASF21
 1947 00ff 03       		.byte	0x3
 1948 0100 0B       		.uleb128 0xb
 1949 0101 20180000 		.4byte	.LASF22
 1950 0105 04       		.byte	0x4
 1951 0106 0B       		.uleb128 0xb
 1952 0107 E9160000 		.4byte	.LASF23
 1953 010b 05       		.byte	0x5
ARM GAS  C:\Users\alexport\AppData\Local\Temp\ccf6k4ea.s 			page 61


 1954 010c 0B       		.uleb128 0xb
 1955 010d 8B100000 		.4byte	.LASF24
 1956 0111 06       		.byte	0x6
 1957 0112 0B       		.uleb128 0xb
 1958 0113 4A150000 		.4byte	.LASF25
 1959 0117 20       		.byte	0x20
 1960 0118 0B       		.uleb128 0xb
 1961 0119 F8010000 		.4byte	.LASF26
 1962 011d 21       		.byte	0x21
 1963 011e 0B       		.uleb128 0xb
 1964 011f A90B0000 		.4byte	.LASF27
 1965 0123 22       		.byte	0x22
 1966 0124 0B       		.uleb128 0xb
 1967 0125 6F0F0000 		.4byte	.LASF28
 1968 0129 23       		.byte	0x23
 1969 012a 0B       		.uleb128 0xb
 1970 012b CC090000 		.4byte	.LASF29
 1971 012f 24       		.byte	0x24
 1972 0130 0B       		.uleb128 0xb
 1973 0131 F8090000 		.4byte	.LASF30
 1974 0135 25       		.byte	0x25
 1975 0136 0B       		.uleb128 0xb
 1976 0137 B6130000 		.4byte	.LASF31
 1977 013b 26       		.byte	0x26
 1978 013c 0B       		.uleb128 0xb
 1979 013d B4000000 		.4byte	.LASF32
 1980 0141 27       		.byte	0x27
 1981 0142 0B       		.uleb128 0xb
 1982 0143 9A180000 		.4byte	.LASF33
 1983 0147 28       		.byte	0x28
 1984 0148 0B       		.uleb128 0xb
 1985 0149 CA100000 		.4byte	.LASF34
 1986 014d 29       		.byte	0x29
 1987 014e 0B       		.uleb128 0xb
 1988 014f 0E0B0000 		.4byte	.LASF35
 1989 0153 2A       		.byte	0x2a
 1990 0154 0B       		.uleb128 0xb
 1991 0155 CF0E0000 		.4byte	.LASF36
 1992 0159 2B       		.byte	0x2b
 1993 015a 0B       		.uleb128 0xb
 1994 015b 05170000 		.4byte	.LASF37
 1995 015f 2C       		.byte	0x2c
 1996 0160 0B       		.uleb128 0xb
 1997 0161 81000000 		.4byte	.LASF38
 1998 0165 2D       		.byte	0x2d
 1999 0166 0B       		.uleb128 0xb
 2000 0167 20140000 		.4byte	.LASF39
 2001 016b 2E       		.byte	0x2e
 2002 016c 0B       		.uleb128 0xb
 2003 016d 89020000 		.4byte	.LASF40
 2004 0171 2F       		.byte	0x2f
 2005 0172 0B       		.uleb128 0xb
 2006 0173 17060000 		.4byte	.LASF41
 2007 0177 30       		.byte	0x30
 2008 0178 0B       		.uleb128 0xb
 2009 0179 170D0000 		.4byte	.LASF42
 2010 017d 31       		.byte	0x31
ARM GAS  C:\Users\alexport\AppData\Local\Temp\ccf6k4ea.s 			page 62


 2011 017e 0B       		.uleb128 0xb
 2012 017f 97060000 		.4byte	.LASF43
 2013 0183 32       		.byte	0x32
 2014 0184 0B       		.uleb128 0xb
 2015 0185 47050000 		.4byte	.LASF44
 2016 0189 33       		.byte	0x33
 2017 018a 0B       		.uleb128 0xb
 2018 018b 6E050000 		.4byte	.LASF45
 2019 018f 34       		.byte	0x34
 2020 0190 0B       		.uleb128 0xb
 2021 0191 BA150000 		.4byte	.LASF46
 2022 0195 35       		.byte	0x35
 2023 0196 0B       		.uleb128 0xb
 2024 0197 50020000 		.4byte	.LASF47
 2025 019b 36       		.byte	0x36
 2026 019c 0B       		.uleb128 0xb
 2027 019d 05110000 		.4byte	.LASF48
 2028 01a1 37       		.byte	0x37
 2029 01a2 0B       		.uleb128 0xb
 2030 01a3 C1140000 		.4byte	.LASF49
 2031 01a7 40       		.byte	0x40
 2032 01a8 0B       		.uleb128 0xb
 2033 01a9 D3000000 		.4byte	.LASF50
 2034 01ad 41       		.byte	0x41
 2035 01ae 0B       		.uleb128 0xb
 2036 01af 35180000 		.4byte	.LASF51
 2037 01b3 42       		.byte	0x42
 2038 01b4 0B       		.uleb128 0xb
 2039 01b5 E7100000 		.4byte	.LASF52
 2040 01b9 43       		.byte	0x43
 2041 01ba 0B       		.uleb128 0xb
 2042 01bb 29050000 		.4byte	.LASF53
 2043 01bf 44       		.byte	0x44
 2044 01c0 0B       		.uleb128 0xb
 2045 01c1 E0040000 		.4byte	.LASF54
 2046 01c5 45       		.byte	0x45
 2047 01c6 0B       		.uleb128 0xb
 2048 01c7 D9120000 		.4byte	.LASF55
 2049 01cb 46       		.byte	0x46
 2050 01cc 0B       		.uleb128 0xb
 2051 01cd BB120000 		.4byte	.LASF56
 2052 01d1 47       		.byte	0x47
 2053 01d2 0B       		.uleb128 0xb
 2054 01d3 F0050000 		.4byte	.LASF57
 2055 01d7 48       		.byte	0x48
 2056 01d8 0B       		.uleb128 0xb
 2057 01d9 C70F0000 		.4byte	.LASF58
 2058 01dd 49       		.byte	0x49
 2059 01de 0B       		.uleb128 0xb
 2060 01df D5060000 		.4byte	.LASF59
 2061 01e3 4A       		.byte	0x4a
 2062 01e4 0B       		.uleb128 0xb
 2063 01e5 4B060000 		.4byte	.LASF60
 2064 01e9 4B       		.byte	0x4b
 2065 01ea 0B       		.uleb128 0xb
 2066 01eb FF0E0000 		.4byte	.LASF61
 2067 01ef 4C       		.byte	0x4c
ARM GAS  C:\Users\alexport\AppData\Local\Temp\ccf6k4ea.s 			page 63


 2068 01f0 0B       		.uleb128 0xb
 2069 01f1 4C130000 		.4byte	.LASF62
 2070 01f5 4D       		.byte	0x4d
 2071 01f6 0B       		.uleb128 0xb
 2072 01f7 D4020000 		.4byte	.LASF63
 2073 01fb 4E       		.byte	0x4e
 2074 01fc 0B       		.uleb128 0xb
 2075 01fd 3A0E0000 		.4byte	.LASF64
 2076 0201 4F       		.byte	0x4f
 2077 0202 0B       		.uleb128 0xb
 2078 0203 2B150000 		.4byte	.LASF65
 2079 0207 50       		.byte	0x50
 2080 0208 0B       		.uleb128 0xb
 2081 0209 F3060000 		.4byte	.LASF66
 2082 020d 51       		.byte	0x51
 2083 020e 0B       		.uleb128 0xb
 2084 020f D7010000 		.4byte	.LASF67
 2085 0213 52       		.byte	0x52
 2086 0214 0B       		.uleb128 0xb
 2087 0215 A3160000 		.4byte	.LASF68
 2088 0219 53       		.byte	0x53
 2089 021a 0B       		.uleb128 0xb
 2090 021b BC180000 		.4byte	.LASF69
 2091 021f 54       		.byte	0x54
 2092 0220 0B       		.uleb128 0xb
 2093 0221 210F0000 		.4byte	.LASF70
 2094 0225 55       		.byte	0x55
 2095 0226 0B       		.uleb128 0xb
 2096 0227 34070000 		.4byte	.LASF71
 2097 022b 56       		.byte	0x56
 2098 022c 0B       		.uleb128 0xb
 2099 022d D60D0000 		.4byte	.LASF72
 2100 0231 57       		.byte	0x57
 2101 0232 0B       		.uleb128 0xb
 2102 0233 77180000 		.4byte	.LASF73
 2103 0237 58       		.byte	0x58
 2104 0238 0B       		.uleb128 0xb
 2105 0239 29170000 		.4byte	.LASF74
 2106 023d 70       		.byte	0x70
 2107 023e 0B       		.uleb128 0xb
 2108 023f D6080000 		.4byte	.LASF75
 2109 0243 71       		.byte	0x71
 2110 0244 0B       		.uleb128 0xb
 2111 0245 2E040000 		.4byte	.LASF76
 2112 0249 72       		.byte	0x72
 2113 024a 0B       		.uleb128 0xb
 2114 024b 0D150000 		.4byte	.LASF77
 2115 024f 73       		.byte	0x73
 2116 0250 0B       		.uleb128 0xb
 2117 0251 0C100000 		.4byte	.LASF78
 2118 0255 74       		.byte	0x74
 2119 0256 0B       		.uleb128 0xb
 2120 0257 7D0B0000 		.4byte	.LASF79
 2121 025b 75       		.byte	0x75
 2122 025c 0B       		.uleb128 0xb
 2123 025d CF050000 		.4byte	.LASF80
 2124 0261 76       		.byte	0x76
ARM GAS  C:\Users\alexport\AppData\Local\Temp\ccf6k4ea.s 			page 64


 2125 0262 0B       		.uleb128 0xb
 2126 0263 E2110000 		.4byte	.LASF81
 2127 0267 77       		.byte	0x77
 2128 0268 0B       		.uleb128 0xb
 2129 0269 71010000 		.4byte	.LASF82
 2130 026d 78       		.byte	0x78
 2131 026e 0B       		.uleb128 0xb
 2132 026f F2020000 		.4byte	.LASF83
 2133 0273 79       		.byte	0x79
 2134 0274 0B       		.uleb128 0xb
 2135 0275 53180000 		.4byte	.LASF84
 2136 0279 7A       		.byte	0x7a
 2137 027a 0B       		.uleb128 0xb
 2138 027b B70C0000 		.4byte	.LASF85
 2139 027f FA       		.byte	0xfa
 2140 0280 0B       		.uleb128 0xb
 2141 0281 5D160000 		.4byte	.LASF86
 2142 0285 FB       		.byte	0xfb
 2143 0286 0B       		.uleb128 0xb
 2144 0287 FC080000 		.4byte	.LASF87
 2145 028b FC       		.byte	0xfc
 2146 028c 0B       		.uleb128 0xb
 2147 028d 5C100000 		.4byte	.LASF88
 2148 0291 FD       		.byte	0xfd
 2149 0292 0B       		.uleb128 0xb
 2150 0293 C10E0000 		.4byte	.LASF89
 2151 0297 FF       		.byte	0xff
 2152 0298 00       		.byte	0
 2153 0299 0A       		.uleb128 0xa
 2154 029a 02       		.byte	0x2
 2155 029b 3A000000 		.4byte	0x3a
 2156 029f 03       		.byte	0x3
 2157 02a0 EA03     		.2byte	0x3ea
 2158 02a2 78030000 		.4byte	0x378
 2159 02a6 0B       		.uleb128 0xb
 2160 02a7 D1040000 		.4byte	.LASF90
 2161 02ab 00       		.byte	0
 2162 02ac 0B       		.uleb128 0xb
 2163 02ad F2070000 		.4byte	.LASF91
 2164 02b1 01       		.byte	0x1
 2165 02b2 0B       		.uleb128 0xb
 2166 02b3 F9170000 		.4byte	.LASF92
 2167 02b7 02       		.byte	0x2
 2168 02b8 0B       		.uleb128 0xb
 2169 02b9 6E080000 		.4byte	.LASF93
 2170 02bd 03       		.byte	0x3
 2171 02be 0B       		.uleb128 0xb
 2172 02bf 310A0000 		.4byte	.LASF94
 2173 02c3 04       		.byte	0x4
 2174 02c4 0B       		.uleb128 0xb
 2175 02c5 700C0000 		.4byte	.LASF95
 2176 02c9 05       		.byte	0x5
 2177 02ca 0B       		.uleb128 0xb
 2178 02cb 37160000 		.4byte	.LASF96
 2179 02cf 06       		.byte	0x6
 2180 02d0 0B       		.uleb128 0xb
 2181 02d1 B8060000 		.4byte	.LASF97
ARM GAS  C:\Users\alexport\AppData\Local\Temp\ccf6k4ea.s 			page 65


 2182 02d5 07       		.byte	0x7
 2183 02d6 0B       		.uleb128 0xb
 2184 02d7 8D0D0000 		.4byte	.LASF98
 2185 02db 08       		.byte	0x8
 2186 02dc 0B       		.uleb128 0xb
 2187 02dd 90150000 		.4byte	.LASF99
 2188 02e1 09       		.byte	0x9
 2189 02e2 0B       		.uleb128 0xb
 2190 02e3 F0180000 		.4byte	.LASF100
 2191 02e7 0A       		.byte	0xa
 2192 02e8 0B       		.uleb128 0xb
 2193 02e9 30020000 		.4byte	.LASF101
 2194 02ed 0B       		.byte	0xb
 2195 02ee 0B       		.uleb128 0xb
 2196 02ef C4160000 		.4byte	.LASF102
 2197 02f3 0C       		.byte	0xc
 2198 02f4 0B       		.uleb128 0xb
 2199 02f5 940E0000 		.4byte	.LASF103
 2200 02f9 0D       		.byte	0xd
 2201 02fa 0B       		.uleb128 0xb
 2202 02fb C00A0000 		.4byte	.LASF104
 2203 02ff 0E       		.byte	0xe
 2204 0300 0B       		.uleb128 0xb
 2205 0301 4B0C0000 		.4byte	.LASF105
 2206 0305 0F       		.byte	0xf
 2207 0306 0B       		.uleb128 0xb
 2208 0307 21010000 		.4byte	.LASF106
 2209 030b 10       		.byte	0x10
 2210 030c 0B       		.uleb128 0xb
 2211 030d 3B0D0000 		.4byte	.LASF107
 2212 0311 11       		.byte	0x11
 2213 0312 0B       		.uleb128 0xb
 2214 0313 8B030000 		.4byte	.LASF108
 2215 0317 12       		.byte	0x12
 2216 0318 0B       		.uleb128 0xb
 2217 0319 5C040000 		.4byte	.LASF109
 2218 031d 13       		.byte	0x13
 2219 031e 0B       		.uleb128 0xb
 2220 031f 950C0000 		.4byte	.LASF110
 2221 0323 27       		.byte	0x27
 2222 0324 0B       		.uleb128 0xb
 2223 0325 B10D0000 		.4byte	.LASF111
 2224 0329 28       		.byte	0x28
 2225 032a 0B       		.uleb128 0xb
 2226 032b 4F010000 		.4byte	.LASF112
 2227 032f 29       		.byte	0x29
 2228 0330 0B       		.uleb128 0xb
 2229 0331 A4140000 		.4byte	.LASF113
 2230 0335 2A       		.byte	0x2a
 2231 0336 0B       		.uleb128 0xb
 2232 0337 660A0000 		.4byte	.LASF114
 2233 033b 2B       		.byte	0x2b
 2234 033c 0B       		.uleb128 0xb
 2235 033d 23120000 		.4byte	.LASF115
 2236 0341 2C       		.byte	0x2c
 2237 0342 0B       		.uleb128 0xb
 2238 0343 22130000 		.4byte	.LASF116
ARM GAS  C:\Users\alexport\AppData\Local\Temp\ccf6k4ea.s 			page 66


 2239 0347 2D       		.byte	0x2d
 2240 0348 0B       		.uleb128 0xb
 2241 0349 D6070000 		.4byte	.LASF117
 2242 034d FE       		.byte	0xfe
 2243 034e 0B       		.uleb128 0xb
 2244 034f C6080000 		.4byte	.LASF118
 2245 0353 FF       		.byte	0xff
 2246 0354 0C       		.uleb128 0xc
 2247 0355 AE0F0000 		.4byte	.LASF119
 2248 0359 0001     		.2byte	0x100
 2249 035b 0C       		.uleb128 0xc
 2250 035c 950F0000 		.4byte	.LASF120
 2251 0360 0101     		.2byte	0x101
 2252 0362 0C       		.uleb128 0xc
 2253 0363 D9030000 		.4byte	.LASF121
 2254 0367 0201     		.2byte	0x102
 2255 0369 0C       		.uleb128 0xc
 2256 036a AC110000 		.4byte	.LASF122
 2257 036e 0301     		.2byte	0x103
 2258 0370 0C       		.uleb128 0xc
 2259 0371 120A0000 		.4byte	.LASF123
 2260 0375 0401     		.2byte	0x104
 2261 0377 00       		.byte	0
 2262 0378 04       		.uleb128 0x4
 2263 0379 7C160000 		.4byte	.LASF124
 2264 037d 03       		.byte	0x3
 2265 037e 5C04     		.2byte	0x45c
 2266 0380 99020000 		.4byte	0x299
 2267 0384 0D       		.uleb128 0xd
 2268 0385 07       		.byte	0x7
 2269 0386 03       		.byte	0x3
 2270 0387 2A05     		.2byte	0x52a
 2271 0389 A8030000 		.4byte	0x3a8
 2272 038d 0E       		.uleb128 0xe
 2273 038e F7150000 		.4byte	.LASF125
 2274 0392 03       		.byte	0x3
 2275 0393 2D05     		.2byte	0x52d
 2276 0395 A8030000 		.4byte	0x3a8
 2277 0399 00       		.byte	0
 2278 039a 0E       		.uleb128 0xe
 2279 039b AA010000 		.4byte	.LASF126
 2280 039f 03       		.byte	0x3
 2281 03a0 2F05     		.2byte	0x52f
 2282 03a2 6B000000 		.4byte	0x6b
 2283 03a6 06       		.byte	0x6
 2284 03a7 00       		.byte	0
 2285 03a8 0F       		.uleb128 0xf
 2286 03a9 6B000000 		.4byte	0x6b
 2287 03ad B8030000 		.4byte	0x3b8
 2288 03b1 10       		.uleb128 0x10
 2289 03b2 BC000000 		.4byte	0xbc
 2290 03b6 05       		.byte	0x5
 2291 03b7 00       		.byte	0
 2292 03b8 04       		.uleb128 0x4
 2293 03b9 48120000 		.4byte	.LASF127
 2294 03bd 03       		.byte	0x3
 2295 03be 3005     		.2byte	0x530
ARM GAS  C:\Users\alexport\AppData\Local\Temp\ccf6k4ea.s 			page 67


 2296 03c0 84030000 		.4byte	0x384
 2297 03c4 0D       		.uleb128 0xd
 2298 03c5 04       		.byte	0x4
 2299 03c6 03       		.byte	0x3
 2300 03c7 3A05     		.2byte	0x53a
 2301 03c9 E8030000 		.4byte	0x3e8
 2302 03cd 0E       		.uleb128 0xe
 2303 03ce 80100000 		.4byte	.LASF128
 2304 03d2 03       		.byte	0x3
 2305 03d3 3D05     		.2byte	0x53d
 2306 03d5 77000000 		.4byte	0x77
 2307 03d9 00       		.byte	0
 2308 03da 0E       		.uleb128 0xe
 2309 03db AC040000 		.4byte	.LASF129
 2310 03df 03       		.byte	0x3
 2311 03e0 3F05     		.2byte	0x53f
 2312 03e2 6B000000 		.4byte	0x6b
 2313 03e6 02       		.byte	0x2
 2314 03e7 00       		.byte	0
 2315 03e8 04       		.uleb128 0x4
 2316 03e9 48030000 		.4byte	.LASF130
 2317 03ed 03       		.byte	0x3
 2318 03ee 4005     		.2byte	0x540
 2319 03f0 C4030000 		.4byte	0x3c4
 2320 03f4 0D       		.uleb128 0xd
 2321 03f5 06       		.byte	0x6
 2322 03f6 03       		.byte	0x3
 2323 03f7 4405     		.2byte	0x544
 2324 03f9 25040000 		.4byte	0x425
 2325 03fd 0E       		.uleb128 0xe
 2326 03fe E80B0000 		.4byte	.LASF131
 2327 0402 03       		.byte	0x3
 2328 0403 4705     		.2byte	0x547
 2329 0405 77000000 		.4byte	0x77
 2330 0409 00       		.byte	0
 2331 040a 0E       		.uleb128 0xe
 2332 040b AC170000 		.4byte	.LASF132
 2333 040f 03       		.byte	0x3
 2334 0410 4A05     		.2byte	0x54a
 2335 0412 77000000 		.4byte	0x77
 2336 0416 02       		.byte	0x2
 2337 0417 0E       		.uleb128 0xe
 2338 0418 110E0000 		.4byte	.LASF133
 2339 041c 03       		.byte	0x3
 2340 041d 4D05     		.2byte	0x54d
 2341 041f 6B000000 		.4byte	0x6b
 2342 0423 04       		.byte	0x4
 2343 0424 00       		.byte	0
 2344 0425 04       		.uleb128 0x4
 2345 0426 BB020000 		.4byte	.LASF134
 2346 042a 03       		.byte	0x3
 2347 042b 4E05     		.2byte	0x54e
 2348 042d F4030000 		.4byte	0x3f4
 2349 0431 0D       		.uleb128 0xd
 2350 0432 01       		.byte	0x1
 2351 0433 03       		.byte	0x3
 2352 0434 5105     		.2byte	0x551
ARM GAS  C:\Users\alexport\AppData\Local\Temp\ccf6k4ea.s 			page 68


 2353 0436 48040000 		.4byte	0x448
 2354 043a 0E       		.uleb128 0xe
 2355 043b AE0A0000 		.4byte	.LASF135
 2356 043f 03       		.byte	0x3
 2357 0440 5405     		.2byte	0x554
 2358 0442 6B000000 		.4byte	0x6b
 2359 0446 00       		.byte	0
 2360 0447 00       		.byte	0
 2361 0448 04       		.uleb128 0x4
 2362 0449 5F0D0000 		.4byte	.LASF136
 2363 044d 03       		.byte	0x3
 2364 044e 5505     		.2byte	0x555
 2365 0450 31040000 		.4byte	0x431
 2366 0454 0D       		.uleb128 0xd
 2367 0455 0C       		.byte	0xc
 2368 0456 03       		.byte	0x3
 2369 0457 5B05     		.2byte	0x55b
 2370 0459 85040000 		.4byte	0x485
 2371 045d 0E       		.uleb128 0xe
 2372 045e 62030000 		.4byte	.LASF137
 2373 0462 03       		.byte	0x3
 2374 0463 5E05     		.2byte	0x55e
 2375 0465 85040000 		.4byte	0x485
 2376 0469 00       		.byte	0
 2377 046a 0E       		.uleb128 0xe
 2378 046b 5C120000 		.4byte	.LASF138
 2379 046f 03       		.byte	0x3
 2380 0470 6105     		.2byte	0x561
 2381 0472 8B040000 		.4byte	0x48b
 2382 0476 04       		.byte	0x4
 2383 0477 0E       		.uleb128 0xe
 2384 0478 2D0E0000 		.4byte	.LASF139
 2385 047c 03       		.byte	0x3
 2386 047d 6705     		.2byte	0x567
 2387 047f 77000000 		.4byte	0x77
 2388 0483 08       		.byte	0x8
 2389 0484 00       		.byte	0
 2390 0485 07       		.uleb128 0x7
 2391 0486 04       		.byte	0x4
 2392 0487 25040000 		.4byte	0x425
 2393 048b 07       		.uleb128 0x7
 2394 048c 04       		.byte	0x4
 2395 048d 48040000 		.4byte	0x448
 2396 0491 04       		.uleb128 0x4
 2397 0492 CD0B0000 		.4byte	.LASF140
 2398 0496 03       		.byte	0x3
 2399 0497 6805     		.2byte	0x568
 2400 0499 54040000 		.4byte	0x454
 2401 049d 07       		.uleb128 0x7
 2402 049e 04       		.byte	0x4
 2403 049f 6B000000 		.4byte	0x6b
 2404 04a3 11       		.uleb128 0x11
 2405 04a4 01       		.byte	0x1
 2406 04a5 2C000000 		.4byte	0x2c
 2407 04a9 04       		.byte	0x4
 2408 04aa E0       		.byte	0xe0
 2409 04ab CE040000 		.4byte	0x4ce
ARM GAS  C:\Users\alexport\AppData\Local\Temp\ccf6k4ea.s 			page 69


 2410 04af 0B       		.uleb128 0xb
 2411 04b0 CD170000 		.4byte	.LASF141
 2412 04b4 00       		.byte	0
 2413 04b5 0B       		.uleb128 0xb
 2414 04b6 E00F0000 		.4byte	.LASF142
 2415 04ba 01       		.byte	0x1
 2416 04bb 0B       		.uleb128 0xb
 2417 04bc E9140000 		.4byte	.LASF143
 2418 04c0 02       		.byte	0x2
 2419 04c1 0B       		.uleb128 0xb
 2420 04c2 04040000 		.4byte	.LASF144
 2421 04c6 03       		.byte	0x3
 2422 04c7 0B       		.uleb128 0xb
 2423 04c8 43080000 		.4byte	.LASF145
 2424 04cc 04       		.byte	0x4
 2425 04cd 00       		.byte	0
 2426 04ce 12       		.uleb128 0x12
 2427 04cf EE0E0000 		.4byte	.LASF146
 2428 04d3 04       		.byte	0x4
 2429 04d4 F0       		.byte	0xf0
 2430 04d5 A3040000 		.4byte	0x4a3
 2431 04d9 0D       		.uleb128 0xd
 2432 04da 10       		.byte	0x10
 2433 04db 04       		.byte	0x4
 2434 04dc 2102     		.2byte	0x221
 2435 04de 4B050000 		.4byte	0x54b
 2436 04e2 0E       		.uleb128 0xe
 2437 04e3 86050000 		.4byte	.LASF147
 2438 04e7 04       		.byte	0x4
 2439 04e8 2702     		.2byte	0x227
 2440 04ea 77000000 		.4byte	0x77
 2441 04ee 00       		.byte	0
 2442 04ef 0E       		.uleb128 0xe
 2443 04f0 0A190000 		.4byte	.LASF148
 2444 04f4 04       		.byte	0x4
 2445 04f5 2D02     		.2byte	0x22d
 2446 04f7 77000000 		.4byte	0x77
 2447 04fb 02       		.byte	0x2
 2448 04fc 0E       		.uleb128 0xe
 2449 04fd 290A0000 		.4byte	.LASF149
 2450 0501 04       		.byte	0x4
 2451 0502 3602     		.2byte	0x236
 2452 0504 CE040000 		.4byte	0x4ce
 2453 0508 04       		.byte	0x4
 2454 0509 0E       		.uleb128 0xe
 2455 050a E4180000 		.4byte	.LASF150
 2456 050e 04       		.byte	0x4
 2457 050f 3E02     		.2byte	0x23e
 2458 0511 6B000000 		.4byte	0x6b
 2459 0515 05       		.byte	0x5
 2460 0516 0E       		.uleb128 0xe
 2461 0517 080D0000 		.4byte	.LASF151
 2462 051b 04       		.byte	0x4
 2463 051c 4502     		.2byte	0x245
 2464 051e 6B000000 		.4byte	0x6b
 2465 0522 06       		.byte	0x6
 2466 0523 0E       		.uleb128 0xe
ARM GAS  C:\Users\alexport\AppData\Local\Temp\ccf6k4ea.s 			page 70


 2467 0524 8B170000 		.4byte	.LASF152
 2468 0528 04       		.byte	0x4
 2469 0529 4B02     		.2byte	0x24b
 2470 052b A8030000 		.4byte	0x3a8
 2471 052f 07       		.byte	0x7
 2472 0530 0E       		.uleb128 0xe
 2473 0531 BF170000 		.4byte	.LASF153
 2474 0535 04       		.byte	0x4
 2475 0536 5302     		.2byte	0x253
 2476 0538 6B000000 		.4byte	0x6b
 2477 053c 0D       		.byte	0xd
 2478 053d 0E       		.uleb128 0xe
 2479 053e E8090000 		.4byte	.LASF154
 2480 0542 04       		.byte	0x4
 2481 0543 5F02     		.2byte	0x25f
 2482 0545 6B000000 		.4byte	0x6b
 2483 0549 0E       		.byte	0xe
 2484 054a 00       		.byte	0
 2485 054b 04       		.uleb128 0x4
 2486 054c AA090000 		.4byte	.LASF155
 2487 0550 04       		.byte	0x4
 2488 0551 6102     		.2byte	0x261
 2489 0553 D9040000 		.4byte	0x4d9
 2490 0557 0D       		.uleb128 0xd
 2491 0558 20       		.byte	0x20
 2492 0559 04       		.byte	0x4
 2493 055a 6402     		.2byte	0x264
 2494 055c 7B050000 		.4byte	0x57b
 2495 0560 0E       		.uleb128 0xe
 2496 0561 190F0000 		.4byte	.LASF156
 2497 0565 04       		.byte	0x4
 2498 0566 6702     		.2byte	0x267
 2499 0568 7B050000 		.4byte	0x57b
 2500 056c 00       		.byte	0
 2501 056d 0E       		.uleb128 0xe
 2502 056e 77120000 		.4byte	.LASF157
 2503 0572 04       		.byte	0x4
 2504 0573 6A02     		.2byte	0x26a
 2505 0575 6B000000 		.4byte	0x6b
 2506 0579 1F       		.byte	0x1f
 2507 057a 00       		.byte	0
 2508 057b 0F       		.uleb128 0xf
 2509 057c 6B000000 		.4byte	0x6b
 2510 0580 8B050000 		.4byte	0x58b
 2511 0584 10       		.uleb128 0x10
 2512 0585 BC000000 		.4byte	0xbc
 2513 0589 1E       		.byte	0x1e
 2514 058a 00       		.byte	0
 2515 058b 04       		.uleb128 0x4
 2516 058c B8050000 		.4byte	.LASF158
 2517 0590 04       		.byte	0x4
 2518 0591 6C02     		.2byte	0x26c
 2519 0593 57050000 		.4byte	0x557
 2520 0597 0D       		.uleb128 0xd
 2521 0598 20       		.byte	0x20
 2522 0599 04       		.byte	0x4
 2523 059a 6F02     		.2byte	0x26f
ARM GAS  C:\Users\alexport\AppData\Local\Temp\ccf6k4ea.s 			page 71


 2524 059c BB050000 		.4byte	0x5bb
 2525 05a0 0E       		.uleb128 0xe
 2526 05a1 57000000 		.4byte	.LASF159
 2527 05a5 04       		.byte	0x4
 2528 05a6 7302     		.2byte	0x273
 2529 05a8 7B050000 		.4byte	0x57b
 2530 05ac 00       		.byte	0
 2531 05ad 0E       		.uleb128 0xe
 2532 05ae 95140000 		.4byte	.LASF160
 2533 05b2 04       		.byte	0x4
 2534 05b3 7602     		.2byte	0x276
 2535 05b5 6B000000 		.4byte	0x6b
 2536 05b9 1F       		.byte	0x1f
 2537 05ba 00       		.byte	0
 2538 05bb 04       		.uleb128 0x4
 2539 05bc DE130000 		.4byte	.LASF161
 2540 05c0 04       		.byte	0x4
 2541 05c1 7802     		.2byte	0x278
 2542 05c3 97050000 		.4byte	0x597
 2543 05c7 0D       		.uleb128 0xd
 2544 05c8 14       		.byte	0x14
 2545 05c9 04       		.byte	0x4
 2546 05ca 7B02     		.2byte	0x27b
 2547 05cc 12060000 		.4byte	0x612
 2548 05d0 0E       		.uleb128 0xe
 2549 05d1 18010000 		.4byte	.LASF162
 2550 05d5 04       		.byte	0x4
 2551 05d6 8302     		.2byte	0x283
 2552 05d8 6B000000 		.4byte	0x6b
 2553 05dc 00       		.byte	0
 2554 05dd 0E       		.uleb128 0xe
 2555 05de 420C0000 		.4byte	.LASF163
 2556 05e2 04       		.byte	0x4
 2557 05e3 8602     		.2byte	0x286
 2558 05e5 12060000 		.4byte	0x612
 2559 05e9 04       		.byte	0x4
 2560 05ea 0E       		.uleb128 0xe
 2561 05eb 190F0000 		.4byte	.LASF156
 2562 05ef 04       		.byte	0x4
 2563 05f0 8802     		.2byte	0x288
 2564 05f2 18060000 		.4byte	0x618
 2565 05f6 08       		.byte	0x8
 2566 05f7 0E       		.uleb128 0xe
 2567 05f8 57000000 		.4byte	.LASF159
 2568 05fc 04       		.byte	0x4
 2569 05fd 8A02     		.2byte	0x28a
 2570 05ff 1E060000 		.4byte	0x61e
 2571 0603 0C       		.byte	0xc
 2572 0604 0E       		.uleb128 0xe
 2573 0605 56070000 		.4byte	.LASF164
 2574 0609 04       		.byte	0x4
 2575 060a 9402     		.2byte	0x294
 2576 060c 77000000 		.4byte	0x77
 2577 0610 10       		.byte	0x10
 2578 0611 00       		.byte	0
 2579 0612 07       		.uleb128 0x7
 2580 0613 04       		.byte	0x4
ARM GAS  C:\Users\alexport\AppData\Local\Temp\ccf6k4ea.s 			page 72


 2581 0614 4B050000 		.4byte	0x54b
 2582 0618 07       		.uleb128 0x7
 2583 0619 04       		.byte	0x4
 2584 061a 8B050000 		.4byte	0x58b
 2585 061e 07       		.uleb128 0x7
 2586 061f 04       		.byte	0x4
 2587 0620 BB050000 		.4byte	0x5bb
 2588 0624 04       		.uleb128 0x4
 2589 0625 87120000 		.4byte	.LASF165
 2590 0629 04       		.byte	0x4
 2591 062a 9602     		.2byte	0x296
 2592 062c C7050000 		.4byte	0x5c7
 2593 0630 04       		.uleb128 0x4
 2594 0631 C6110000 		.4byte	.LASF166
 2595 0635 05       		.byte	0x5
 2596 0636 8901     		.2byte	0x189
 2597 0638 77000000 		.4byte	0x77
 2598 063c 0D       		.uleb128 0xd
 2599 063d 02       		.byte	0x2
 2600 063e 05       		.byte	0x5
 2601 063f 9301     		.2byte	0x193
 2602 0641 60060000 		.4byte	0x660
 2603 0645 0E       		.uleb128 0xe
 2604 0646 B2020000 		.4byte	.LASF167
 2605 064a 05       		.byte	0x5
 2606 064b 9A01     		.2byte	0x19a
 2607 064d 6B000000 		.4byte	0x6b
 2608 0651 00       		.byte	0
 2609 0652 0E       		.uleb128 0xe
 2610 0653 F3170000 		.4byte	.LASF168
 2611 0657 05       		.byte	0x5
 2612 0658 A001     		.2byte	0x1a0
 2613 065a 6B000000 		.4byte	0x6b
 2614 065e 01       		.byte	0x1
 2615 065f 00       		.byte	0
 2616 0660 04       		.uleb128 0x4
 2617 0661 0F020000 		.4byte	.LASF169
 2618 0665 05       		.byte	0x5
 2619 0666 A201     		.2byte	0x1a2
 2620 0668 3C060000 		.4byte	0x63c
 2621 066c 13       		.uleb128 0x13
 2622 066d 08       		.byte	0x8
 2623 066e 06       		.byte	0x6
 2624 066f CE       		.byte	0xce
 2625 0670 8D060000 		.4byte	0x68d
 2626 0674 14       		.uleb128 0x14
 2627 0675 6A120000 		.4byte	.LASF170
 2628 0679 06       		.byte	0x6
 2629 067a D1       		.byte	0xd1
 2630 067b 77000000 		.4byte	0x77
 2631 067f 00       		.byte	0
 2632 0680 14       		.uleb128 0x14
 2633 0681 F9130000 		.4byte	.LASF171
 2634 0685 06       		.byte	0x6
 2635 0686 D6       		.byte	0xd6
 2636 0687 C3000000 		.4byte	0xc3
 2637 068b 04       		.byte	0x4
ARM GAS  C:\Users\alexport\AppData\Local\Temp\ccf6k4ea.s 			page 73


 2638 068c 00       		.byte	0
 2639 068d 12       		.uleb128 0x12
 2640 068e 3E100000 		.4byte	.LASF172
 2641 0692 06       		.byte	0x6
 2642 0693 D8       		.byte	0xd8
 2643 0694 6C060000 		.4byte	0x66c
 2644 0698 13       		.uleb128 0x13
 2645 0699 08       		.byte	0x8
 2646 069a 06       		.byte	0x6
 2647 069b DB       		.byte	0xdb
 2648 069c B9060000 		.4byte	0x6b9
 2649 06a0 14       		.uleb128 0x14
 2650 06a1 3D060000 		.4byte	.LASF173
 2651 06a5 06       		.byte	0x6
 2652 06a6 DE       		.byte	0xde
 2653 06a7 77000000 		.4byte	0x77
 2654 06ab 00       		.byte	0
 2655 06ac 14       		.uleb128 0x14
 2656 06ad 75140000 		.4byte	.LASF174
 2657 06b1 06       		.byte	0x6
 2658 06b2 E3       		.byte	0xe3
 2659 06b3 B9060000 		.4byte	0x6b9
 2660 06b7 04       		.byte	0x4
 2661 06b8 00       		.byte	0
 2662 06b9 07       		.uleb128 0x7
 2663 06ba 04       		.byte	0x4
 2664 06bb 8D060000 		.4byte	0x68d
 2665 06bf 12       		.uleb128 0x12
 2666 06c0 97130000 		.4byte	.LASF175
 2667 06c4 06       		.byte	0x6
 2668 06c5 E5       		.byte	0xe5
 2669 06c6 98060000 		.4byte	0x698
 2670 06ca 15       		.uleb128 0x15
 2671 06cb 08       		.byte	0x8
 2672 06cc 06       		.byte	0x6
 2673 06cd E8       		.byte	0xe8
 2674 06ce E9060000 		.4byte	0x6e9
 2675 06d2 16       		.uleb128 0x16
 2676 06d3 86140000 		.4byte	.LASF176
 2677 06d7 06       		.byte	0x6
 2678 06d8 EF       		.byte	0xef
 2679 06d9 BF060000 		.4byte	0x6bf
 2680 06dd 16       		.uleb128 0x16
 2681 06de E90A0000 		.4byte	.LASF177
 2682 06e2 06       		.byte	0x6
 2683 06e3 F2       		.byte	0xf2
 2684 06e4 77000000 		.4byte	0x77
 2685 06e8 00       		.byte	0
 2686 06e9 12       		.uleb128 0x12
 2687 06ea 7F130000 		.4byte	.LASF178
 2688 06ee 06       		.byte	0x6
 2689 06ef F4       		.byte	0xf4
 2690 06f0 CA060000 		.4byte	0x6ca
 2691 06f4 13       		.uleb128 0x13
 2692 06f5 14       		.byte	0x14
 2693 06f6 06       		.byte	0x6
 2694 06f7 F7       		.byte	0xf7
ARM GAS  C:\Users\alexport\AppData\Local\Temp\ccf6k4ea.s 			page 74


 2695 06f8 3D070000 		.4byte	0x73d
 2696 06fc 14       		.uleb128 0x14
 2697 06fd 91050000 		.4byte	.LASF179
 2698 0701 06       		.byte	0x6
 2699 0702 FA       		.byte	0xfa
 2700 0703 77000000 		.4byte	0x77
 2701 0707 00       		.byte	0
 2702 0708 0E       		.uleb128 0xe
 2703 0709 FC030000 		.4byte	.LASF180
 2704 070d 06       		.byte	0x6
 2705 070e 0001     		.2byte	0x100
 2706 0710 77000000 		.4byte	0x77
 2707 0714 02       		.byte	0x2
 2708 0715 0E       		.uleb128 0xe
 2709 0716 9F010000 		.4byte	.LASF181
 2710 071a 06       		.byte	0x6
 2711 071b 0B01     		.2byte	0x10b
 2712 071d 83000000 		.4byte	0x83
 2713 0721 04       		.byte	0x4
 2714 0722 0E       		.uleb128 0xe
 2715 0723 590E0000 		.4byte	.LASF182
 2716 0727 06       		.byte	0x6
 2717 0728 0E01     		.2byte	0x10e
 2718 072a 77000000 		.4byte	0x77
 2719 072e 08       		.byte	0x8
 2720 072f 0E       		.uleb128 0xe
 2721 0730 07120000 		.4byte	.LASF183
 2722 0734 06       		.byte	0x6
 2723 0735 1701     		.2byte	0x117
 2724 0737 E9060000 		.4byte	0x6e9
 2725 073b 0C       		.byte	0xc
 2726 073c 00       		.byte	0
 2727 073d 04       		.uleb128 0x4
 2728 073e 73070000 		.4byte	.LASF184
 2729 0742 06       		.byte	0x6
 2730 0743 1801     		.2byte	0x118
 2731 0745 F4060000 		.4byte	0x6f4
 2732 0749 04       		.uleb128 0x4
 2733 074a AF010000 		.4byte	.LASF185
 2734 074e 07       		.byte	0x7
 2735 074f 0302     		.2byte	0x203
 2736 0751 C5000000 		.4byte	0xc5
 2737 0755 17       		.uleb128 0x17
 2738 0756 5703     		.2byte	0x357
 2739 0758 08       		.byte	0x8
 2740 0759 9F       		.byte	0x9f
 2741 075a 92070000 		.4byte	0x792
 2742 075e 14       		.uleb128 0x14
 2743 075f 0E090000 		.4byte	.LASF186
 2744 0763 08       		.byte	0x8
 2745 0764 A2       		.byte	0xa2
 2746 0765 92070000 		.4byte	0x792
 2747 0769 00       		.byte	0
 2748 076a 18       		.uleb128 0x18
 2749 076b AD080000 		.4byte	.LASF187
 2750 076f 08       		.byte	0x8
 2751 0770 A5       		.byte	0xa5
ARM GAS  C:\Users\alexport\AppData\Local\Temp\ccf6k4ea.s 			page 75


 2752 0771 A3070000 		.4byte	0x7a3
 2753 0775 7902     		.2byte	0x279
 2754 0777 18       		.uleb128 0x18
 2755 0778 6E150000 		.4byte	.LASF188
 2756 077c 08       		.byte	0x8
 2757 077d A8       		.byte	0xa8
 2758 077e 6B000000 		.4byte	0x6b
 2759 0782 5503     		.2byte	0x355
 2760 0784 18       		.uleb128 0x18
 2761 0785 24080000 		.4byte	.LASF189
 2762 0789 08       		.byte	0x8
 2763 078a AB       		.byte	0xab
 2764 078b 6B000000 		.4byte	0x6b
 2765 078f 5603     		.2byte	0x356
 2766 0791 00       		.byte	0
 2767 0792 0F       		.uleb128 0xf
 2768 0793 6B000000 		.4byte	0x6b
 2769 0797 A3070000 		.4byte	0x7a3
 2770 079b 19       		.uleb128 0x19
 2771 079c BC000000 		.4byte	0xbc
 2772 07a0 7802     		.2byte	0x278
 2773 07a2 00       		.byte	0
 2774 07a3 0F       		.uleb128 0xf
 2775 07a4 6B000000 		.4byte	0x6b
 2776 07a8 B9070000 		.4byte	0x7b9
 2777 07ac 10       		.uleb128 0x10
 2778 07ad BC000000 		.4byte	0xbc
 2779 07b1 04       		.byte	0x4
 2780 07b2 10       		.uleb128 0x10
 2781 07b3 BC000000 		.4byte	0xbc
 2782 07b7 2B       		.byte	0x2b
 2783 07b8 00       		.byte	0
 2784 07b9 12       		.uleb128 0x12
 2785 07ba 990A0000 		.4byte	.LASF190
 2786 07be 08       		.byte	0x8
 2787 07bf AC       		.byte	0xac
 2788 07c0 55070000 		.4byte	0x755
 2789 07c4 11       		.uleb128 0x11
 2790 07c5 01       		.byte	0x1
 2791 07c6 2C000000 		.4byte	0x2c
 2792 07ca 09       		.byte	0x9
 2793 07cb 22       		.byte	0x22
 2794 07cc 0D080000 		.4byte	0x80d
 2795 07d0 0B       		.uleb128 0xb
 2796 07d1 5A110000 		.4byte	.LASF191
 2797 07d5 00       		.byte	0
 2798 07d6 0B       		.uleb128 0xb
 2799 07d7 5C070000 		.4byte	.LASF192
 2800 07db 01       		.byte	0x1
 2801 07dc 0B       		.uleb128 0xb
 2802 07dd F60A0000 		.4byte	.LASF193
 2803 07e1 02       		.byte	0x2
 2804 07e2 0B       		.uleb128 0xb
 2805 07e3 AE030000 		.4byte	.LASF194
 2806 07e7 03       		.byte	0x3
 2807 07e8 0B       		.uleb128 0xb
 2808 07e9 C0010000 		.4byte	.LASF195
ARM GAS  C:\Users\alexport\AppData\Local\Temp\ccf6k4ea.s 			page 76


 2809 07ed 04       		.byte	0x4
 2810 07ee 0B       		.uleb128 0xb
 2811 07ef 1D070000 		.4byte	.LASF196
 2812 07f3 05       		.byte	0x5
 2813 07f4 0B       		.uleb128 0xb
 2814 07f5 C2070000 		.4byte	.LASF197
 2815 07f9 06       		.byte	0x6
 2816 07fa 0B       		.uleb128 0xb
 2817 07fb 660E0000 		.4byte	.LASF198
 2818 07ff 07       		.byte	0x7
 2819 0800 0B       		.uleb128 0xb
 2820 0801 1C0C0000 		.4byte	.LASF199
 2821 0805 08       		.byte	0x8
 2822 0806 0B       		.uleb128 0xb
 2823 0807 63000000 		.4byte	.LASF200
 2824 080b 09       		.byte	0x9
 2825 080c 00       		.byte	0
 2826 080d 0A       		.uleb128 0xa
 2827 080e 01       		.byte	0x1
 2828 080f 2C000000 		.4byte	0x2c
 2829 0813 0A       		.byte	0xa
 2830 0814 5A08     		.2byte	0x85a
 2831 0816 39080000 		.4byte	0x839
 2832 081a 0B       		.uleb128 0xb
 2833 081b 07050000 		.4byte	.LASF201
 2834 081f 00       		.byte	0
 2835 0820 0B       		.uleb128 0xb
 2836 0821 640B0000 		.4byte	.LASF202
 2837 0825 01       		.byte	0x1
 2838 0826 0B       		.uleb128 0xb
 2839 0827 96170000 		.4byte	.LASF203
 2840 082b 02       		.byte	0x2
 2841 082c 0B       		.uleb128 0xb
 2842 082d 71020000 		.4byte	.LASF204
 2843 0831 03       		.byte	0x3
 2844 0832 0B       		.uleb128 0xb
 2845 0833 66130000 		.4byte	.LASF205
 2846 0837 04       		.byte	0x4
 2847 0838 00       		.byte	0
 2848 0839 04       		.uleb128 0x4
 2849 083a DB140000 		.4byte	.LASF206
 2850 083e 0A       		.byte	0xa
 2851 083f 6808     		.2byte	0x868
 2852 0841 0D080000 		.4byte	0x80d
 2853 0845 0D       		.uleb128 0xd
 2854 0846 0C       		.byte	0xc
 2855 0847 0A       		.byte	0xa
 2856 0848 A309     		.2byte	0x9a3
 2857 084a 9D080000 		.4byte	0x89d
 2858 084e 0E       		.uleb128 0xe
 2859 084f 63170000 		.4byte	.LASF207
 2860 0853 0A       		.byte	0xa
 2861 0854 A609     		.2byte	0x9a6
 2862 0856 30060000 		.4byte	0x630
 2863 085a 00       		.byte	0
 2864 085b 0E       		.uleb128 0xe
 2865 085c F30C0000 		.4byte	.LASF208
ARM GAS  C:\Users\alexport\AppData\Local\Temp\ccf6k4ea.s 			page 77


 2866 0860 0A       		.byte	0xa
 2867 0861 A809     		.2byte	0x9a8
 2868 0863 30060000 		.4byte	0x630
 2869 0867 02       		.byte	0x2
 2870 0868 0E       		.uleb128 0xe
 2871 0869 B5100000 		.4byte	.LASF209
 2872 086d 0A       		.byte	0xa
 2873 086e AA09     		.2byte	0x9aa
 2874 0870 30060000 		.4byte	0x630
 2875 0874 04       		.byte	0x4
 2876 0875 0E       		.uleb128 0xe
 2877 0876 570F0000 		.4byte	.LASF210
 2878 087a 0A       		.byte	0xa
 2879 087b AD09     		.2byte	0x9ad
 2880 087d 30060000 		.4byte	0x630
 2881 0881 06       		.byte	0x6
 2882 0882 0E       		.uleb128 0xe
 2883 0883 D7150000 		.4byte	.LASF211
 2884 0887 0A       		.byte	0xa
 2885 0888 AF09     		.2byte	0x9af
 2886 088a 30060000 		.4byte	0x630
 2887 088e 08       		.byte	0x8
 2888 088f 0E       		.uleb128 0xe
 2889 0890 4A040000 		.4byte	.LASF212
 2890 0894 0A       		.byte	0xa
 2891 0895 B109     		.2byte	0x9b1
 2892 0897 30060000 		.4byte	0x630
 2893 089b 0A       		.byte	0xa
 2894 089c 00       		.byte	0
 2895 089d 04       		.uleb128 0x4
 2896 089e 3B120000 		.4byte	.LASF213
 2897 08a2 0A       		.byte	0xa
 2898 08a3 B209     		.2byte	0x9b2
 2899 08a5 45080000 		.4byte	0x845
 2900 08a9 1A       		.uleb128 0x1a
 2901 08aa 12070000 		.4byte	.LASF214
 2902 08ae 01       		.byte	0x1
 2903 08af 98       		.byte	0x98
 2904 08b0 00000000 		.4byte	.LFB2
 2905 08b4 40000000 		.4byte	.LFE2-.LFB2
 2906 08b8 01       		.uleb128 0x1
 2907 08b9 9C       		.byte	0x9c
 2908 08ba 1A       		.uleb128 0x1a
 2909 08bb 1E030000 		.4byte	.LASF215
 2910 08bf 01       		.byte	0x1
 2911 08c0 C9       		.byte	0xc9
 2912 08c1 00000000 		.4byte	.LFB3
 2913 08c5 12000000 		.4byte	.LFE3-.LFB3
 2914 08c9 01       		.uleb128 0x1
 2915 08ca 9C       		.byte	0x9c
 2916 08cb 1B       		.uleb128 0x1b
 2917 08cc FA120000 		.4byte	.LASF223
 2918 08d0 01       		.byte	0x1
 2919 08d1 9701     		.2byte	0x197
 2920 08d3 78030000 		.4byte	0x378
 2921 08d7 00000000 		.4byte	.LFB4
 2922 08db 30010000 		.4byte	.LFE4-.LFB4
ARM GAS  C:\Users\alexport\AppData\Local\Temp\ccf6k4ea.s 			page 78


 2923 08df 01       		.uleb128 0x1
 2924 08e0 9C       		.byte	0x9c
 2925 08e1 5B090000 		.4byte	0x95b
 2926 08e5 1C       		.uleb128 0x1c
 2927 08e6 23020000 		.4byte	.LASF225
 2928 08ea 01       		.byte	0x1
 2929 08eb 9701     		.2byte	0x197
 2930 08ed 49070000 		.4byte	0x749
 2931 08f1 03       		.uleb128 0x3
 2932 08f2 91       		.byte	0x91
 2933 08f3 B47F     		.sleb128 -76
 2934 08f5 1D       		.uleb128 0x1d
 2935 08f6 AA000000 		.4byte	.LASF216
 2936 08fa 01       		.byte	0x1
 2937 08fb 9901     		.2byte	0x199
 2938 08fd 78030000 		.4byte	0x378
 2939 0901 02       		.uleb128 0x2
 2940 0902 91       		.byte	0x91
 2941 0903 6E       		.sleb128 -18
 2942 0904 1D       		.uleb128 0x1d
 2943 0905 10080000 		.4byte	.LASF217
 2944 0909 01       		.byte	0x1
 2945 090a 9D01     		.2byte	0x19d
 2946 090c 5B090000 		.4byte	0x95b
 2947 0910 02       		.uleb128 0x2
 2948 0911 91       		.byte	0x91
 2949 0912 58       		.sleb128 -40
 2950 0913 1E       		.uleb128 0x1e
 2951 0914 4A000000 		.4byte	.LBB2
 2952 0918 54000000 		.4byte	.LBE2-.LBB2
 2953 091c 1D       		.uleb128 0x1d
 2954 091d 12130000 		.4byte	.LASF218
 2955 0921 01       		.byte	0x1
 2956 0922 BF01     		.2byte	0x1bf
 2957 0924 25040000 		.4byte	0x425
 2958 0928 02       		.uleb128 0x2
 2959 0929 91       		.byte	0x91
 2960 092a 50       		.sleb128 -48
 2961 092b 1D       		.uleb128 0x1d
 2962 092c 2A100000 		.4byte	.LASF219
 2963 0930 01       		.byte	0x1
 2964 0931 C001     		.2byte	0x1c0
 2965 0933 48040000 		.4byte	0x448
 2966 0937 02       		.uleb128 0x2
 2967 0938 91       		.byte	0x91
 2968 0939 4C       		.sleb128 -52
 2969 093a 1D       		.uleb128 0x1d
 2970 093b 6C030000 		.4byte	.LASF220
 2971 093f 01       		.byte	0x1
 2972 0940 C101     		.2byte	0x1c1
 2973 0942 91040000 		.4byte	0x491
 2974 0946 02       		.uleb128 0x2
 2975 0947 91       		.byte	0x91
 2976 0948 40       		.sleb128 -64
 2977 0949 1D       		.uleb128 0x1d
 2978 094a 34080000 		.4byte	.LASF221
 2979 094e 01       		.byte	0x1
ARM GAS  C:\Users\alexport\AppData\Local\Temp\ccf6k4ea.s 			page 79


 2980 094f C201     		.2byte	0x1c2
 2981 0951 77000000 		.4byte	0x77
 2982 0955 03       		.uleb128 0x3
 2983 0956 91       		.byte	0x91
 2984 0957 BE7F     		.sleb128 -66
 2985 0959 00       		.byte	0
 2986 095a 00       		.byte	0
 2987 095b 0F       		.uleb128 0xf
 2988 095c E8030000 		.4byte	0x3e8
 2989 0960 6B090000 		.4byte	0x96b
 2990 0964 10       		.uleb128 0x10
 2991 0965 BC000000 		.4byte	0xbc
 2992 0969 04       		.byte	0x4
 2993 096a 00       		.byte	0
 2994 096b 1F       		.uleb128 0x1f
 2995 096c 9E0B0000 		.4byte	.LASF222
 2996 0970 01       		.byte	0x1
 2997 0971 1C02     		.2byte	0x21c
 2998 0973 00000000 		.4byte	.LFB5
 2999 0977 18000000 		.4byte	.LFE5-.LFB5
 3000 097b 01       		.uleb128 0x1
 3001 097c 9C       		.byte	0x9c
 3002 097d 1B       		.uleb128 0x1b
 3003 097e 20160000 		.4byte	.LASF224
 3004 0982 01       		.byte	0x1
 3005 0983 5402     		.2byte	0x254
 3006 0985 78030000 		.4byte	0x378
 3007 0989 00000000 		.4byte	.LFB6
 3008 098d AC010000 		.4byte	.LFE6-.LFB6
 3009 0991 01       		.uleb128 0x1
 3010 0992 9C       		.byte	0x9c
 3011 0993 EF090000 		.4byte	0x9ef
 3012 0997 1C       		.uleb128 0x1c
 3013 0998 9F110000 		.4byte	.LASF226
 3014 099c 01       		.byte	0x1
 3015 099d 5402     		.2byte	0x254
 3016 099f 6B000000 		.4byte	0x6b
 3017 09a3 03       		.uleb128 0x3
 3018 09a4 91       		.byte	0x91
 3019 09a5 8F7E     		.sleb128 -241
 3020 09a7 1D       		.uleb128 0x1d
 3021 09a8 AA000000 		.4byte	.LASF216
 3022 09ac 01       		.byte	0x1
 3023 09ad 5602     		.2byte	0x256
 3024 09af 78030000 		.4byte	0x378
 3025 09b3 02       		.uleb128 0x2
 3026 09b4 91       		.byte	0x91
 3027 09b5 6E       		.sleb128 -18
 3028 09b6 20       		.uleb128 0x20
 3029 09b7 F0000000 		.4byte	.LBB3
 3030 09bb 40000000 		.4byte	.LBE3-.LBB3
 3031 09bf D4090000 		.4byte	0x9d4
 3032 09c3 1D       		.uleb128 0x1d
 3033 09c4 FF0D0000 		.4byte	.LASF227
 3034 09c8 01       		.byte	0x1
 3035 09c9 7A02     		.2byte	0x27a
 3036 09cb A3070000 		.4byte	0x7a3
ARM GAS  C:\Users\alexport\AppData\Local\Temp\ccf6k4ea.s 			page 80


 3037 09cf 03       		.uleb128 0x3
 3038 09d0 91       		.byte	0x91
 3039 09d1 907E     		.sleb128 -240
 3040 09d3 00       		.byte	0
 3041 09d4 1E       		.uleb128 0x1e
 3042 09d5 30010000 		.4byte	.LBB4
 3043 09d9 54000000 		.4byte	.LBE4-.LBB4
 3044 09dd 1D       		.uleb128 0x1d
 3045 09de FF0D0000 		.4byte	.LASF227
 3046 09e2 01       		.byte	0x1
 3047 09e3 8702     		.2byte	0x287
 3048 09e5 EF090000 		.4byte	0x9ef
 3049 09e9 03       		.uleb128 0x3
 3050 09ea 91       		.byte	0x91
 3051 09eb 907E     		.sleb128 -240
 3052 09ed 00       		.byte	0
 3053 09ee 00       		.byte	0
 3054 09ef 0F       		.uleb128 0xf
 3055 09f0 6B000000 		.4byte	0x6b
 3056 09f4 FF090000 		.4byte	0x9ff
 3057 09f8 10       		.uleb128 0x10
 3058 09f9 BC000000 		.4byte	0xbc
 3059 09fd 2B       		.byte	0x2b
 3060 09fe 00       		.byte	0
 3061 09ff 1B       		.uleb128 0x1b
 3062 0a00 90040000 		.4byte	.LASF228
 3063 0a04 01       		.byte	0x1
 3064 0a05 B602     		.2byte	0x2b6
 3065 0a07 78030000 		.4byte	0x378
 3066 0a0b 00000000 		.4byte	.LFB7
 3067 0a0f BC000000 		.4byte	.LFE7-.LFB7
 3068 0a13 01       		.uleb128 0x1
 3069 0a14 9C       		.byte	0x9c
 3070 0a15 600A0000 		.4byte	0xa60
 3071 0a19 1C       		.uleb128 0x1c
 3072 0a1a F7150000 		.4byte	.LASF125
 3073 0a1e 01       		.byte	0x1
 3074 0a1f B602     		.2byte	0x2b6
 3075 0a21 600A0000 		.4byte	0xa60
 3076 0a25 02       		.uleb128 0x2
 3077 0a26 91       		.byte	0x91
 3078 0a27 5C       		.sleb128 -36
 3079 0a28 1D       		.uleb128 0x1d
 3080 0a29 AA000000 		.4byte	.LASF216
 3081 0a2d 01       		.byte	0x1
 3082 0a2e B802     		.2byte	0x2b8
 3083 0a30 78030000 		.4byte	0x378
 3084 0a34 02       		.uleb128 0x2
 3085 0a35 91       		.byte	0x91
 3086 0a36 6E       		.sleb128 -18
 3087 0a37 1E       		.uleb128 0x1e
 3088 0a38 18000000 		.4byte	.LBB5
 3089 0a3c 86000000 		.4byte	.LBE5-.LBB5
 3090 0a40 1D       		.uleb128 0x1d
 3091 0a41 94010000 		.4byte	.LASF229
 3092 0a45 01       		.byte	0x1
 3093 0a46 BF02     		.2byte	0x2bf
ARM GAS  C:\Users\alexport\AppData\Local\Temp\ccf6k4ea.s 			page 81


 3094 0a48 6B000000 		.4byte	0x6b
 3095 0a4c 02       		.uleb128 0x2
 3096 0a4d 91       		.byte	0x91
 3097 0a4e 6D       		.sleb128 -19
 3098 0a4f 1D       		.uleb128 0x1d
 3099 0a50 DB160000 		.4byte	.LASF230
 3100 0a54 01       		.byte	0x1
 3101 0a55 C002     		.2byte	0x2c0
 3102 0a57 B8030000 		.4byte	0x3b8
 3103 0a5b 02       		.uleb128 0x2
 3104 0a5c 91       		.byte	0x91
 3105 0a5d 64       		.sleb128 -28
 3106 0a5e 00       		.byte	0
 3107 0a5f 00       		.byte	0
 3108 0a60 07       		.uleb128 0x7
 3109 0a61 04       		.byte	0x4
 3110 0a62 B8030000 		.4byte	0x3b8
 3111 0a66 1B       		.uleb128 0x1b
 3112 0a67 9B050000 		.4byte	.LASF231
 3113 0a6b 01       		.byte	0x1
 3114 0a6c 1703     		.2byte	0x317
 3115 0a6e 78030000 		.4byte	0x378
 3116 0a72 00000000 		.4byte	.LFB8
 3117 0a76 D4000000 		.4byte	.LFE8-.LFB8
 3118 0a7a 01       		.uleb128 0x1
 3119 0a7b 9C       		.byte	0x9c
 3120 0a7c 9F0A0000 		.4byte	0xa9f
 3121 0a80 1C       		.uleb128 0x1c
 3122 0a81 30030000 		.4byte	.LASF232
 3123 0a85 01       		.byte	0x1
 3124 0a86 1703     		.2byte	0x317
 3125 0a88 6B000000 		.4byte	0x6b
 3126 0a8c 02       		.uleb128 0x2
 3127 0a8d 91       		.byte	0x91
 3128 0a8e 67       		.sleb128 -25
 3129 0a8f 1D       		.uleb128 0x1d
 3130 0a90 AA000000 		.4byte	.LASF216
 3131 0a94 01       		.byte	0x1
 3132 0a95 1903     		.2byte	0x319
 3133 0a97 78030000 		.4byte	0x378
 3134 0a9b 02       		.uleb128 0x2
 3135 0a9c 91       		.byte	0x91
 3136 0a9d 6E       		.sleb128 -18
 3137 0a9e 00       		.byte	0
 3138 0a9f 1F       		.uleb128 0x1f
 3139 0aa0 A6070000 		.4byte	.LASF233
 3140 0aa4 01       		.byte	0x1
 3141 0aa5 5403     		.2byte	0x354
 3142 0aa7 00000000 		.4byte	.LFB9
 3143 0aab 24000000 		.4byte	.LFE9-.LFB9
 3144 0aaf 01       		.uleb128 0x1
 3145 0ab0 9C       		.byte	0x9c
 3146 0ab1 21       		.uleb128 0x21
 3147 0ab2 480B0000 		.4byte	.LASF245
 3148 0ab6 01       		.byte	0x1
 3149 0ab7 6A03     		.2byte	0x36a
 3150 0ab9 00000000 		.4byte	.LFB10
ARM GAS  C:\Users\alexport\AppData\Local\Temp\ccf6k4ea.s 			page 82


 3151 0abd 62000000 		.4byte	.LFE10-.LFB10
 3152 0ac1 01       		.uleb128 0x1
 3153 0ac2 9C       		.byte	0x9c
 3154 0ac3 020B0000 		.4byte	0xb02
 3155 0ac7 1C       		.uleb128 0x1c
 3156 0ac8 F7150000 		.4byte	.LASF125
 3157 0acc 01       		.byte	0x1
 3158 0acd 6A03     		.2byte	0x36a
 3159 0acf 020B0000 		.4byte	0xb02
 3160 0ad3 02       		.uleb128 0x2
 3161 0ad4 91       		.byte	0x91
 3162 0ad5 6C       		.sleb128 -20
 3163 0ad6 1C       		.uleb128 0x1c
 3164 0ad7 82120000 		.4byte	.LASF234
 3165 0adb 01       		.byte	0x1
 3166 0adc 6A03     		.2byte	0x36a
 3167 0ade 6B000000 		.4byte	0x6b
 3168 0ae2 02       		.uleb128 0x2
 3169 0ae3 91       		.byte	0x91
 3170 0ae4 6B       		.sleb128 -21
 3171 0ae5 22       		.uleb128 0x22
 3172 0ae6 6900     		.ascii	"i\000"
 3173 0ae8 01       		.byte	0x1
 3174 0ae9 6C03     		.2byte	0x36c
 3175 0aeb 6B000000 		.4byte	0x6b
 3176 0aef 02       		.uleb128 0x2
 3177 0af0 91       		.byte	0x91
 3178 0af1 77       		.sleb128 -9
 3179 0af2 1D       		.uleb128 0x1d
 3180 0af3 0D010000 		.4byte	.LASF235
 3181 0af7 01       		.byte	0x1
 3182 0af8 6D03     		.2byte	0x36d
 3183 0afa 9D040000 		.4byte	0x49d
 3184 0afe 02       		.uleb128 0x2
 3185 0aff 91       		.byte	0x91
 3186 0b00 70       		.sleb128 -16
 3187 0b01 00       		.byte	0
 3188 0b02 07       		.uleb128 0x7
 3189 0b03 04       		.byte	0x4
 3190 0b04 080B0000 		.4byte	0xb08
 3191 0b08 23       		.uleb128 0x23
 3192 0b09 B8030000 		.4byte	0x3b8
 3193 0b0d 24       		.uleb128 0x24
 3194 0b0e EE000000 		.4byte	.LASF272
 3195 0b12 01       		.byte	0x1
 3196 0b13 A904     		.2byte	0x4a9
 3197 0b15 00000000 		.4byte	.LFB11
 3198 0b19 A8010000 		.4byte	.LFE11-.LFB11
 3199 0b1d 01       		.uleb128 0x1
 3200 0b1e 9C       		.byte	0x9c
 3201 0b1f 9A0B0000 		.4byte	0xb9a
 3202 0b23 1C       		.uleb128 0x1c
 3203 0b24 07140000 		.4byte	.LASF236
 3204 0b28 01       		.byte	0x1
 3205 0b29 A904     		.2byte	0x4a9
 3206 0b2b 9A0B0000 		.4byte	0xb9a
 3207 0b2f 02       		.uleb128 0x2
ARM GAS  C:\Users\alexport\AppData\Local\Temp\ccf6k4ea.s 			page 83


 3208 0b30 91       		.byte	0x91
 3209 0b31 64       		.sleb128 -28
 3210 0b32 1C       		.uleb128 0x1c
 3211 0b33 82120000 		.4byte	.LASF234
 3212 0b37 01       		.byte	0x1
 3213 0b38 A904     		.2byte	0x4a9
 3214 0b3a 6B000000 		.4byte	0x6b
 3215 0b3e 02       		.uleb128 0x2
 3216 0b3f 91       		.byte	0x91
 3217 0b40 63       		.sleb128 -29
 3218 0b41 22       		.uleb128 0x22
 3219 0b42 6900     		.ascii	"i\000"
 3220 0b44 01       		.byte	0x1
 3221 0b45 AB04     		.2byte	0x4ab
 3222 0b47 6B000000 		.4byte	0x6b
 3223 0b4b 02       		.uleb128 0x2
 3224 0b4c 91       		.byte	0x91
 3225 0b4d 77       		.sleb128 -9
 3226 0b4e 1D       		.uleb128 0x1d
 3227 0b4f 7E0E0000 		.4byte	.LASF237
 3228 0b53 01       		.byte	0x1
 3229 0b54 AC04     		.2byte	0x4ac
 3230 0b56 6B000000 		.4byte	0x6b
 3231 0b5a 02       		.uleb128 0x2
 3232 0b5b 91       		.byte	0x91
 3233 0b5c 76       		.sleb128 -10
 3234 0b5d 1D       		.uleb128 0x1d
 3235 0b5e 17180000 		.4byte	.LASF238
 3236 0b62 01       		.byte	0x1
 3237 0b63 AD04     		.2byte	0x4ad
 3238 0b65 6B000000 		.4byte	0x6b
 3239 0b69 02       		.uleb128 0x2
 3240 0b6a 91       		.byte	0x91
 3241 0b6b 75       		.sleb128 -11
 3242 0b6c 1D       		.uleb128 0x1d
 3243 0b6d 51160000 		.4byte	.LASF239
 3244 0b71 01       		.byte	0x1
 3245 0b72 AE04     		.2byte	0x4ae
 3246 0b74 6B000000 		.4byte	0x6b
 3247 0b78 02       		.uleb128 0x2
 3248 0b79 91       		.byte	0x91
 3249 0b7a 74       		.sleb128 -12
 3250 0b7b 1D       		.uleb128 0x1d
 3251 0b7c 0D010000 		.4byte	.LASF235
 3252 0b80 01       		.byte	0x1
 3253 0b81 AF04     		.2byte	0x4af
 3254 0b83 9D040000 		.4byte	0x49d
 3255 0b87 02       		.uleb128 0x2
 3256 0b88 91       		.byte	0x91
 3257 0b89 70       		.sleb128 -16
 3258 0b8a 1D       		.uleb128 0x1d
 3259 0b8b C2090000 		.4byte	.LASF240
 3260 0b8f 01       		.byte	0x1
 3261 0b90 B004     		.2byte	0x4b0
 3262 0b92 6B000000 		.4byte	0x6b
 3263 0b96 02       		.uleb128 0x2
 3264 0b97 91       		.byte	0x91
ARM GAS  C:\Users\alexport\AppData\Local\Temp\ccf6k4ea.s 			page 84


 3265 0b98 6F       		.sleb128 -17
 3266 0b99 00       		.byte	0
 3267 0b9a 07       		.uleb128 0x7
 3268 0b9b 04       		.byte	0x4
 3269 0b9c A00B0000 		.4byte	0xba0
 3270 0ba0 23       		.uleb128 0x23
 3271 0ba1 9D000000 		.4byte	0x9d
 3272 0ba5 1B       		.uleb128 0x1b
 3273 0ba6 5F140000 		.4byte	.LASF241
 3274 0baa 01       		.byte	0x1
 3275 0bab 0E05     		.2byte	0x50e
 3276 0bad 78030000 		.4byte	0x378
 3277 0bb1 00000000 		.4byte	.LFB12
 3278 0bb5 F0000000 		.4byte	.LFE12-.LFB12
 3279 0bb9 01       		.uleb128 0x1
 3280 0bba 9C       		.byte	0x9c
 3281 0bbb 090C0000 		.4byte	0xc09
 3282 0bbf 1C       		.uleb128 0x1c
 3283 0bc0 07140000 		.4byte	.LASF236
 3284 0bc4 01       		.byte	0x1
 3285 0bc5 0E05     		.2byte	0x50e
 3286 0bc7 9A0B0000 		.4byte	0xb9a
 3287 0bcb 02       		.uleb128 0x2
 3288 0bcc 91       		.byte	0x91
 3289 0bcd 64       		.sleb128 -28
 3290 0bce 1D       		.uleb128 0x1d
 3291 0bcf AA000000 		.4byte	.LASF216
 3292 0bd3 01       		.byte	0x1
 3293 0bd4 1005     		.2byte	0x510
 3294 0bd6 78030000 		.4byte	0x378
 3295 0bda 02       		.uleb128 0x2
 3296 0bdb 91       		.byte	0x91
 3297 0bdc 76       		.sleb128 -10
 3298 0bdd 22       		.uleb128 0x22
 3299 0bde 6900     		.ascii	"i\000"
 3300 0be0 01       		.byte	0x1
 3301 0be1 1105     		.2byte	0x511
 3302 0be3 6B000000 		.4byte	0x6b
 3303 0be7 02       		.uleb128 0x2
 3304 0be8 91       		.byte	0x91
 3305 0be9 75       		.sleb128 -11
 3306 0bea 22       		.uleb128 0x22
 3307 0beb 70747200 		.ascii	"ptr\000"
 3308 0bef 01       		.byte	0x1
 3309 0bf0 1205     		.2byte	0x512
 3310 0bf2 090C0000 		.4byte	0xc09
 3311 0bf6 02       		.uleb128 0x2
 3312 0bf7 91       		.byte	0x91
 3313 0bf8 70       		.sleb128 -16
 3314 0bf9 1D       		.uleb128 0x1d
 3315 0bfa B90E0000 		.4byte	.LASF242
 3316 0bfe 01       		.byte	0x1
 3317 0bff 1305     		.2byte	0x513
 3318 0c01 6B000000 		.4byte	0x6b
 3319 0c05 02       		.uleb128 0x2
 3320 0c06 91       		.byte	0x91
 3321 0c07 6F       		.sleb128 -17
ARM GAS  C:\Users\alexport\AppData\Local\Temp\ccf6k4ea.s 			page 85


 3322 0c08 00       		.byte	0
 3323 0c09 07       		.uleb128 0x7
 3324 0c0a 04       		.byte	0x4
 3325 0c0b 9D000000 		.4byte	0x9d
 3326 0c0f 25       		.uleb128 0x25
 3327 0c10 81060000 		.4byte	.LASF243
 3328 0c14 01       		.byte	0x1
 3329 0c15 5605     		.2byte	0x556
 3330 0c17 78030000 		.4byte	0x378
 3331 0c1b 00000000 		.4byte	.LFB13
 3332 0c1f CC000000 		.4byte	.LFE13-.LFB13
 3333 0c23 01       		.uleb128 0x1
 3334 0c24 9C       		.byte	0x9c
 3335 0c25 730C0000 		.4byte	0xc73
 3336 0c29 1C       		.uleb128 0x1c
 3337 0c2a 07140000 		.4byte	.LASF236
 3338 0c2e 01       		.byte	0x1
 3339 0c2f 5605     		.2byte	0x556
 3340 0c31 090C0000 		.4byte	0xc09
 3341 0c35 02       		.uleb128 0x2
 3342 0c36 91       		.byte	0x91
 3343 0c37 64       		.sleb128 -28
 3344 0c38 1D       		.uleb128 0x1d
 3345 0c39 AA000000 		.4byte	.LASF216
 3346 0c3d 01       		.byte	0x1
 3347 0c3e 5805     		.2byte	0x558
 3348 0c40 78030000 		.4byte	0x378
 3349 0c44 02       		.uleb128 0x2
 3350 0c45 91       		.byte	0x91
 3351 0c46 76       		.sleb128 -10
 3352 0c47 1D       		.uleb128 0x1d
 3353 0c48 B90E0000 		.4byte	.LASF242
 3354 0c4c 01       		.byte	0x1
 3355 0c4d 5905     		.2byte	0x559
 3356 0c4f 6B000000 		.4byte	0x6b
 3357 0c53 02       		.uleb128 0x2
 3358 0c54 91       		.byte	0x91
 3359 0c55 6F       		.sleb128 -17
 3360 0c56 22       		.uleb128 0x22
 3361 0c57 6900     		.ascii	"i\000"
 3362 0c59 01       		.byte	0x1
 3363 0c5a 5A05     		.2byte	0x55a
 3364 0c5c 6B000000 		.4byte	0x6b
 3365 0c60 02       		.uleb128 0x2
 3366 0c61 91       		.byte	0x91
 3367 0c62 75       		.sleb128 -11
 3368 0c63 22       		.uleb128 0x22
 3369 0c64 70747200 		.ascii	"ptr\000"
 3370 0c68 01       		.byte	0x1
 3371 0c69 5B05     		.2byte	0x55b
 3372 0c6b 090C0000 		.4byte	0xc09
 3373 0c6f 02       		.uleb128 0x2
 3374 0c70 91       		.byte	0x91
 3375 0c71 70       		.sleb128 -16
 3376 0c72 00       		.byte	0
 3377 0c73 25       		.uleb128 0x25
 3378 0c74 A4100000 		.4byte	.LASF244
ARM GAS  C:\Users\alexport\AppData\Local\Temp\ccf6k4ea.s 			page 86


 3379 0c78 01       		.byte	0x1
 3380 0c79 8805     		.2byte	0x588
 3381 0c7b 77000000 		.4byte	0x77
 3382 0c7f 00000000 		.4byte	.LFB14
 3383 0c83 26000000 		.4byte	.LFE14-.LFB14
 3384 0c87 01       		.uleb128 0x1
 3385 0c88 9C       		.byte	0x9c
 3386 0c89 9D0C0000 		.4byte	0xc9d
 3387 0c8d 26       		.uleb128 0x26
 3388 0c8e 70747200 		.ascii	"ptr\000"
 3389 0c92 01       		.byte	0x1
 3390 0c93 8805     		.2byte	0x588
 3391 0c95 9D0C0000 		.4byte	0xc9d
 3392 0c99 02       		.uleb128 0x2
 3393 0c9a 91       		.byte	0x91
 3394 0c9b 74       		.sleb128 -12
 3395 0c9c 00       		.byte	0
 3396 0c9d 07       		.uleb128 0x7
 3397 0c9e 04       		.byte	0x4
 3398 0c9f A30C0000 		.4byte	0xca3
 3399 0ca3 23       		.uleb128 0x23
 3400 0ca4 6B000000 		.4byte	0x6b
 3401 0ca8 21       		.uleb128 0x21
 3402 0ca9 830E0000 		.4byte	.LASF246
 3403 0cad 01       		.byte	0x1
 3404 0cae 9B05     		.2byte	0x59b
 3405 0cb0 00000000 		.4byte	.LFB15
 3406 0cb4 30000000 		.4byte	.LFE15-.LFB15
 3407 0cb8 01       		.uleb128 0x1
 3408 0cb9 9C       		.byte	0x9c
 3409 0cba DD0C0000 		.4byte	0xcdd
 3410 0cbe 26       		.uleb128 0x26
 3411 0cbf 70747200 		.ascii	"ptr\000"
 3412 0cc3 01       		.byte	0x1
 3413 0cc4 9B05     		.2byte	0x59b
 3414 0cc6 9D040000 		.4byte	0x49d
 3415 0cca 02       		.uleb128 0x2
 3416 0ccb 91       		.byte	0x91
 3417 0ccc 74       		.sleb128 -12
 3418 0ccd 1C       		.uleb128 0x1c
 3419 0cce 01120000 		.4byte	.LASF247
 3420 0cd2 01       		.byte	0x1
 3421 0cd3 9B05     		.2byte	0x59b
 3422 0cd5 77000000 		.4byte	0x77
 3423 0cd9 02       		.uleb128 0x2
 3424 0cda 91       		.byte	0x91
 3425 0cdb 72       		.sleb128 -14
 3426 0cdc 00       		.byte	0
 3427 0cdd 27       		.uleb128 0x27
 3428 0cde 84070000 		.4byte	.LASF248
 3429 0ce2 01       		.byte	0x1
 3430 0ce3 84       		.byte	0x84
 3431 0ce4 6B000000 		.4byte	0x6b
 3432 0ce8 05       		.uleb128 0x5
 3433 0ce9 03       		.byte	0x3
 3434 0cea 24000000 		.4byte	cyBle_pendingFlashClearCccdHandle
 3435 0cee 28       		.uleb128 0x28
ARM GAS  C:\Users\alexport\AppData\Local\Temp\ccf6k4ea.s 			page 87


 3436 0cef 10120000 		.4byte	.LASF249
 3437 0cf3 01       		.byte	0x1
 3438 0cf4 89       		.byte	0x89
 3439 0cf5 49070000 		.4byte	0x749
 3440 0cf9 05       		.uleb128 0x5
 3441 0cfa 03       		.byte	0x3
 3442 0cfb 00000000 		.4byte	CyBle_ApplCallback
 3443 0cff 28       		.uleb128 0x28
 3444 0d00 12140000 		.4byte	.LASF250
 3445 0d04 01       		.byte	0x1
 3446 0d05 2B       		.byte	0x2b
 3447 0d06 6B000000 		.4byte	0x6b
 3448 0d0a 05       		.uleb128 0x5
 3449 0d0b 03       		.byte	0x3
 3450 0d0c 00000000 		.4byte	cyBle_initVar
 3451 0d10 0F       		.uleb128 0xf
 3452 0d11 6B000000 		.4byte	0x6b
 3453 0d15 210D0000 		.4byte	0xd21
 3454 0d19 19       		.uleb128 0x19
 3455 0d1a BC000000 		.4byte	0xbc
 3456 0d1e 170B     		.2byte	0xb17
 3457 0d20 00       		.byte	0
 3458 0d21 28       		.uleb128 0x28
 3459 0d22 A5150000 		.4byte	.LASF251
 3460 0d26 01       		.byte	0x1
 3461 0d27 36       		.byte	0x36
 3462 0d28 100D0000 		.4byte	0xd10
 3463 0d2c 05       		.uleb128 0x5
 3464 0d2d 03       		.byte	0x3
 3465 0d2e 00000000 		.4byte	cyBle_stackMemoryRam
 3466 0d32 29       		.uleb128 0x29
 3467 0d33 09160000 		.4byte	.LASF252
 3468 0d37 07       		.byte	0x7
 3469 0d38 A302     		.2byte	0x2a3
 3470 0d3a B0000000 		.4byte	0xb0
 3471 0d3e 28       		.uleb128 0x28
 3472 0d3f C5030000 		.4byte	.LASF253
 3473 0d43 01       		.byte	0x1
 3474 0d44 8A       		.byte	0x8a
 3475 0d45 B8030000 		.4byte	0x3b8
 3476 0d49 05       		.uleb128 0x5
 3477 0d4a 03       		.byte	0x3
 3478 0d4b 00000000 		.4byte	cyBle_deviceAddress
 3479 0d4f 28       		.uleb128 0x28
 3480 0d50 93080000 		.4byte	.LASF254
 3481 0d54 01       		.byte	0x1
 3482 0d55 8B       		.byte	0x8b
 3483 0d56 600A0000 		.4byte	0xa60
 3484 0d5a 05       		.uleb128 0x5
 3485 0d5b 03       		.byte	0x3
 3486 0d5c 00000000 		.4byte	cyBle_sflashDeviceAddress
 3487 0d60 28       		.uleb128 0x28
 3488 0d61 2D0C0000 		.4byte	.LASF255
 3489 0d65 01       		.byte	0x1
 3490 0d66 3C       		.byte	0x3c
 3491 0d67 4B050000 		.4byte	0x54b
 3492 0d6b 05       		.uleb128 0x5
ARM GAS  C:\Users\alexport\AppData\Local\Temp\ccf6k4ea.s 			page 88


 3493 0d6c 03       		.byte	0x3
 3494 0d6d 00000000 		.4byte	cyBle_discoveryParam
 3495 0d71 28       		.uleb128 0x28
 3496 0d72 4F170000 		.4byte	.LASF256
 3497 0d76 01       		.byte	0x1
 3498 0d77 48       		.byte	0x48
 3499 0d78 8B050000 		.4byte	0x58b
 3500 0d7c 05       		.uleb128 0x5
 3501 0d7d 03       		.byte	0x3
 3502 0d7e 00000000 		.4byte	cyBle_discoveryData
 3503 0d82 28       		.uleb128 0x28
 3504 0d83 450F0000 		.4byte	.LASF257
 3505 0d87 01       		.byte	0x1
 3506 0d88 51       		.byte	0x51
 3507 0d89 BB050000 		.4byte	0x5bb
 3508 0d8d 05       		.uleb128 0x5
 3509 0d8e 03       		.byte	0x3
 3510 0d8f 00000000 		.4byte	cyBle_scanRspData
 3511 0d93 28       		.uleb128 0x28
 3512 0d94 78150000 		.4byte	.LASF258
 3513 0d98 01       		.byte	0x1
 3514 0d99 61       		.byte	0x61
 3515 0d9a 24060000 		.4byte	0x624
 3516 0d9e 05       		.uleb128 0x5
 3517 0d9f 03       		.byte	0x3
 3518 0da0 00000000 		.4byte	cyBle_discoveryModeInfo
 3519 0da4 28       		.uleb128 0x28
 3520 0da5 A3120000 		.4byte	.LASF259
 3521 0da9 01       		.byte	0x1
 3522 0daa 81       		.byte	0x81
 3523 0dab 6B000000 		.4byte	0x6b
 3524 0daf 05       		.uleb128 0x5
 3525 0db0 03       		.byte	0x3
 3526 0db1 00000000 		.4byte	cyBle_pendingFlashWrite
 3527 0db5 28       		.uleb128 0x28
 3528 0db6 00000000 		.4byte	.LASF260
 3529 0dba 01       		.byte	0x1
 3530 0dbb 80       		.byte	0x80
 3531 0dbc 6B000000 		.4byte	0x6b
 3532 0dc0 05       		.uleb128 0x5
 3533 0dc1 03       		.byte	0x3
 3534 0dc2 00000000 		.4byte	cyBle_peerBonding
 3535 0dc6 0F       		.uleb128 0xf
 3536 0dc7 D60D0000 		.4byte	0xdd6
 3537 0dcb D60D0000 		.4byte	0xdd6
 3538 0dcf 10       		.uleb128 0x10
 3539 0dd0 BC000000 		.4byte	0xbc
 3540 0dd4 A5       		.byte	0xa5
 3541 0dd5 00       		.byte	0
 3542 0dd6 23       		.uleb128 0x23
 3543 0dd7 3D070000 		.4byte	0x73d
 3544 0ddb 2A       		.uleb128 0x2a
 3545 0ddc 800D0000 		.4byte	.LASF261
 3546 0de0 08       		.byte	0x8
 3547 0de1 EB       		.byte	0xeb
 3548 0de2 E60D0000 		.4byte	0xde6
 3549 0de6 23       		.uleb128 0x23
ARM GAS  C:\Users\alexport\AppData\Local\Temp\ccf6k4ea.s 			page 89


 3550 0de7 C60D0000 		.4byte	0xdc6
 3551 0deb 2A       		.uleb128 0x2a
 3552 0dec 8F160000 		.4byte	.LASF262
 3553 0df0 08       		.byte	0x8
 3554 0df1 EF       		.byte	0xef
 3555 0df2 EF090000 		.4byte	0x9ef
 3556 0df6 2A       		.uleb128 0x2a
 3557 0df7 FB0B0000 		.4byte	.LASF263
 3558 0dfb 08       		.byte	0x8
 3559 0dfc F7       		.byte	0xf7
 3560 0dfd 010E0000 		.4byte	0xe01
 3561 0e01 23       		.uleb128 0x23
 3562 0e02 B9070000 		.4byte	0x7b9
 3563 0e06 29       		.uleb128 0x29
 3564 0e07 06130000 		.4byte	.LASF264
 3565 0e0b 0A       		.byte	0xa
 3566 0e0c B30A     		.2byte	0xab3
 3567 0e0e 39080000 		.4byte	0x839
 3568 0e12 29       		.uleb128 0x29
 3569 0e13 44140000 		.4byte	.LASF265
 3570 0e17 0A       		.byte	0xa
 3571 0e18 B40A     		.2byte	0xab4
 3572 0e1a 60060000 		.4byte	0x660
 3573 0e1e 29       		.uleb128 0x29
 3574 0e1f 370B0000 		.4byte	.LASF266
 3575 0e23 0A       		.byte	0xa
 3576 0e24 B50A     		.2byte	0xab5
 3577 0e26 B0000000 		.4byte	0xb0
 3578 0e2a 29       		.uleb128 0x29
 3579 0e2b FE150000 		.4byte	.LASF267
 3580 0e2f 0A       		.byte	0xa
 3581 0e30 B60A     		.2byte	0xab6
 3582 0e32 360E0000 		.4byte	0xe36
 3583 0e36 23       		.uleb128 0x23
 3584 0e37 9D080000 		.4byte	0x89d
 3585 0e3b 29       		.uleb128 0x29
 3586 0e3c D50C0000 		.4byte	.LASF268
 3587 0e40 0A       		.byte	0xa
 3588 0e41 B90A     		.2byte	0xab9
 3589 0e43 6B000000 		.4byte	0x6b
 3590 0e47 00       		.byte	0
 3591              		.section	.debug_abbrev,"",%progbits
 3592              	.Ldebug_abbrev0:
 3593 0000 01       		.uleb128 0x1
 3594 0001 11       		.uleb128 0x11
 3595 0002 01       		.byte	0x1
 3596 0003 25       		.uleb128 0x25
 3597 0004 0E       		.uleb128 0xe
 3598 0005 13       		.uleb128 0x13
 3599 0006 0B       		.uleb128 0xb
 3600 0007 03       		.uleb128 0x3
 3601 0008 0E       		.uleb128 0xe
 3602 0009 1B       		.uleb128 0x1b
 3603 000a 0E       		.uleb128 0xe
 3604 000b 55       		.uleb128 0x55
 3605 000c 17       		.uleb128 0x17
 3606 000d 11       		.uleb128 0x11
ARM GAS  C:\Users\alexport\AppData\Local\Temp\ccf6k4ea.s 			page 90


 3607 000e 01       		.uleb128 0x1
 3608 000f 10       		.uleb128 0x10
 3609 0010 17       		.uleb128 0x17
 3610 0011 00       		.byte	0
 3611 0012 00       		.byte	0
 3612 0013 02       		.uleb128 0x2
 3613 0014 24       		.uleb128 0x24
 3614 0015 00       		.byte	0
 3615 0016 0B       		.uleb128 0xb
 3616 0017 0B       		.uleb128 0xb
 3617 0018 3E       		.uleb128 0x3e
 3618 0019 0B       		.uleb128 0xb
 3619 001a 03       		.uleb128 0x3
 3620 001b 0E       		.uleb128 0xe
 3621 001c 00       		.byte	0
 3622 001d 00       		.byte	0
 3623 001e 03       		.uleb128 0x3
 3624 001f 24       		.uleb128 0x24
 3625 0020 00       		.byte	0
 3626 0021 0B       		.uleb128 0xb
 3627 0022 0B       		.uleb128 0xb
 3628 0023 3E       		.uleb128 0x3e
 3629 0024 0B       		.uleb128 0xb
 3630 0025 03       		.uleb128 0x3
 3631 0026 08       		.uleb128 0x8
 3632 0027 00       		.byte	0
 3633 0028 00       		.byte	0
 3634 0029 04       		.uleb128 0x4
 3635 002a 16       		.uleb128 0x16
 3636 002b 00       		.byte	0
 3637 002c 03       		.uleb128 0x3
 3638 002d 0E       		.uleb128 0xe
 3639 002e 3A       		.uleb128 0x3a
 3640 002f 0B       		.uleb128 0xb
 3641 0030 3B       		.uleb128 0x3b
 3642 0031 05       		.uleb128 0x5
 3643 0032 49       		.uleb128 0x49
 3644 0033 13       		.uleb128 0x13
 3645 0034 00       		.byte	0
 3646 0035 00       		.byte	0
 3647 0036 05       		.uleb128 0x5
 3648 0037 35       		.uleb128 0x35
 3649 0038 00       		.byte	0
 3650 0039 49       		.uleb128 0x49
 3651 003a 13       		.uleb128 0x13
 3652 003b 00       		.byte	0
 3653 003c 00       		.byte	0
 3654 003d 06       		.uleb128 0x6
 3655 003e 0F       		.uleb128 0xf
 3656 003f 00       		.byte	0
 3657 0040 0B       		.uleb128 0xb
 3658 0041 0B       		.uleb128 0xb
 3659 0042 00       		.byte	0
 3660 0043 00       		.byte	0
 3661 0044 07       		.uleb128 0x7
 3662 0045 0F       		.uleb128 0xf
 3663 0046 00       		.byte	0
ARM GAS  C:\Users\alexport\AppData\Local\Temp\ccf6k4ea.s 			page 91


 3664 0047 0B       		.uleb128 0xb
 3665 0048 0B       		.uleb128 0xb
 3666 0049 49       		.uleb128 0x49
 3667 004a 13       		.uleb128 0x13
 3668 004b 00       		.byte	0
 3669 004c 00       		.byte	0
 3670 004d 08       		.uleb128 0x8
 3671 004e 15       		.uleb128 0x15
 3672 004f 01       		.byte	0x1
 3673 0050 27       		.uleb128 0x27
 3674 0051 19       		.uleb128 0x19
 3675 0052 01       		.uleb128 0x1
 3676 0053 13       		.uleb128 0x13
 3677 0054 00       		.byte	0
 3678 0055 00       		.byte	0
 3679 0056 09       		.uleb128 0x9
 3680 0057 05       		.uleb128 0x5
 3681 0058 00       		.byte	0
 3682 0059 49       		.uleb128 0x49
 3683 005a 13       		.uleb128 0x13
 3684 005b 00       		.byte	0
 3685 005c 00       		.byte	0
 3686 005d 0A       		.uleb128 0xa
 3687 005e 04       		.uleb128 0x4
 3688 005f 01       		.byte	0x1
 3689 0060 0B       		.uleb128 0xb
 3690 0061 0B       		.uleb128 0xb
 3691 0062 49       		.uleb128 0x49
 3692 0063 13       		.uleb128 0x13
 3693 0064 3A       		.uleb128 0x3a
 3694 0065 0B       		.uleb128 0xb
 3695 0066 3B       		.uleb128 0x3b
 3696 0067 05       		.uleb128 0x5
 3697 0068 01       		.uleb128 0x1
 3698 0069 13       		.uleb128 0x13
 3699 006a 00       		.byte	0
 3700 006b 00       		.byte	0
 3701 006c 0B       		.uleb128 0xb
 3702 006d 28       		.uleb128 0x28
 3703 006e 00       		.byte	0
 3704 006f 03       		.uleb128 0x3
 3705 0070 0E       		.uleb128 0xe
 3706 0071 1C       		.uleb128 0x1c
 3707 0072 0B       		.uleb128 0xb
 3708 0073 00       		.byte	0
 3709 0074 00       		.byte	0
 3710 0075 0C       		.uleb128 0xc
 3711 0076 28       		.uleb128 0x28
 3712 0077 00       		.byte	0
 3713 0078 03       		.uleb128 0x3
 3714 0079 0E       		.uleb128 0xe
 3715 007a 1C       		.uleb128 0x1c
 3716 007b 05       		.uleb128 0x5
 3717 007c 00       		.byte	0
 3718 007d 00       		.byte	0
 3719 007e 0D       		.uleb128 0xd
 3720 007f 13       		.uleb128 0x13
ARM GAS  C:\Users\alexport\AppData\Local\Temp\ccf6k4ea.s 			page 92


 3721 0080 01       		.byte	0x1
 3722 0081 0B       		.uleb128 0xb
 3723 0082 0B       		.uleb128 0xb
 3724 0083 3A       		.uleb128 0x3a
 3725 0084 0B       		.uleb128 0xb
 3726 0085 3B       		.uleb128 0x3b
 3727 0086 05       		.uleb128 0x5
 3728 0087 01       		.uleb128 0x1
 3729 0088 13       		.uleb128 0x13
 3730 0089 00       		.byte	0
 3731 008a 00       		.byte	0
 3732 008b 0E       		.uleb128 0xe
 3733 008c 0D       		.uleb128 0xd
 3734 008d 00       		.byte	0
 3735 008e 03       		.uleb128 0x3
 3736 008f 0E       		.uleb128 0xe
 3737 0090 3A       		.uleb128 0x3a
 3738 0091 0B       		.uleb128 0xb
 3739 0092 3B       		.uleb128 0x3b
 3740 0093 05       		.uleb128 0x5
 3741 0094 49       		.uleb128 0x49
 3742 0095 13       		.uleb128 0x13
 3743 0096 38       		.uleb128 0x38
 3744 0097 0B       		.uleb128 0xb
 3745 0098 00       		.byte	0
 3746 0099 00       		.byte	0
 3747 009a 0F       		.uleb128 0xf
 3748 009b 01       		.uleb128 0x1
 3749 009c 01       		.byte	0x1
 3750 009d 49       		.uleb128 0x49
 3751 009e 13       		.uleb128 0x13
 3752 009f 01       		.uleb128 0x1
 3753 00a0 13       		.uleb128 0x13
 3754 00a1 00       		.byte	0
 3755 00a2 00       		.byte	0
 3756 00a3 10       		.uleb128 0x10
 3757 00a4 21       		.uleb128 0x21
 3758 00a5 00       		.byte	0
 3759 00a6 49       		.uleb128 0x49
 3760 00a7 13       		.uleb128 0x13
 3761 00a8 2F       		.uleb128 0x2f
 3762 00a9 0B       		.uleb128 0xb
 3763 00aa 00       		.byte	0
 3764 00ab 00       		.byte	0
 3765 00ac 11       		.uleb128 0x11
 3766 00ad 04       		.uleb128 0x4
 3767 00ae 01       		.byte	0x1
 3768 00af 0B       		.uleb128 0xb
 3769 00b0 0B       		.uleb128 0xb
 3770 00b1 49       		.uleb128 0x49
 3771 00b2 13       		.uleb128 0x13
 3772 00b3 3A       		.uleb128 0x3a
 3773 00b4 0B       		.uleb128 0xb
 3774 00b5 3B       		.uleb128 0x3b
 3775 00b6 0B       		.uleb128 0xb
 3776 00b7 01       		.uleb128 0x1
 3777 00b8 13       		.uleb128 0x13
ARM GAS  C:\Users\alexport\AppData\Local\Temp\ccf6k4ea.s 			page 93


 3778 00b9 00       		.byte	0
 3779 00ba 00       		.byte	0
 3780 00bb 12       		.uleb128 0x12
 3781 00bc 16       		.uleb128 0x16
 3782 00bd 00       		.byte	0
 3783 00be 03       		.uleb128 0x3
 3784 00bf 0E       		.uleb128 0xe
 3785 00c0 3A       		.uleb128 0x3a
 3786 00c1 0B       		.uleb128 0xb
 3787 00c2 3B       		.uleb128 0x3b
 3788 00c3 0B       		.uleb128 0xb
 3789 00c4 49       		.uleb128 0x49
 3790 00c5 13       		.uleb128 0x13
 3791 00c6 00       		.byte	0
 3792 00c7 00       		.byte	0
 3793 00c8 13       		.uleb128 0x13
 3794 00c9 13       		.uleb128 0x13
 3795 00ca 01       		.byte	0x1
 3796 00cb 0B       		.uleb128 0xb
 3797 00cc 0B       		.uleb128 0xb
 3798 00cd 3A       		.uleb128 0x3a
 3799 00ce 0B       		.uleb128 0xb
 3800 00cf 3B       		.uleb128 0x3b
 3801 00d0 0B       		.uleb128 0xb
 3802 00d1 01       		.uleb128 0x1
 3803 00d2 13       		.uleb128 0x13
 3804 00d3 00       		.byte	0
 3805 00d4 00       		.byte	0
 3806 00d5 14       		.uleb128 0x14
 3807 00d6 0D       		.uleb128 0xd
 3808 00d7 00       		.byte	0
 3809 00d8 03       		.uleb128 0x3
 3810 00d9 0E       		.uleb128 0xe
 3811 00da 3A       		.uleb128 0x3a
 3812 00db 0B       		.uleb128 0xb
 3813 00dc 3B       		.uleb128 0x3b
 3814 00dd 0B       		.uleb128 0xb
 3815 00de 49       		.uleb128 0x49
 3816 00df 13       		.uleb128 0x13
 3817 00e0 38       		.uleb128 0x38
 3818 00e1 0B       		.uleb128 0xb
 3819 00e2 00       		.byte	0
 3820 00e3 00       		.byte	0
 3821 00e4 15       		.uleb128 0x15
 3822 00e5 17       		.uleb128 0x17
 3823 00e6 01       		.byte	0x1
 3824 00e7 0B       		.uleb128 0xb
 3825 00e8 0B       		.uleb128 0xb
 3826 00e9 3A       		.uleb128 0x3a
 3827 00ea 0B       		.uleb128 0xb
 3828 00eb 3B       		.uleb128 0x3b
 3829 00ec 0B       		.uleb128 0xb
 3830 00ed 01       		.uleb128 0x1
 3831 00ee 13       		.uleb128 0x13
 3832 00ef 00       		.byte	0
 3833 00f0 00       		.byte	0
 3834 00f1 16       		.uleb128 0x16
ARM GAS  C:\Users\alexport\AppData\Local\Temp\ccf6k4ea.s 			page 94


 3835 00f2 0D       		.uleb128 0xd
 3836 00f3 00       		.byte	0
 3837 00f4 03       		.uleb128 0x3
 3838 00f5 0E       		.uleb128 0xe
 3839 00f6 3A       		.uleb128 0x3a
 3840 00f7 0B       		.uleb128 0xb
 3841 00f8 3B       		.uleb128 0x3b
 3842 00f9 0B       		.uleb128 0xb
 3843 00fa 49       		.uleb128 0x49
 3844 00fb 13       		.uleb128 0x13
 3845 00fc 00       		.byte	0
 3846 00fd 00       		.byte	0
 3847 00fe 17       		.uleb128 0x17
 3848 00ff 13       		.uleb128 0x13
 3849 0100 01       		.byte	0x1
 3850 0101 0B       		.uleb128 0xb
 3851 0102 05       		.uleb128 0x5
 3852 0103 3A       		.uleb128 0x3a
 3853 0104 0B       		.uleb128 0xb
 3854 0105 3B       		.uleb128 0x3b
 3855 0106 0B       		.uleb128 0xb
 3856 0107 01       		.uleb128 0x1
 3857 0108 13       		.uleb128 0x13
 3858 0109 00       		.byte	0
 3859 010a 00       		.byte	0
 3860 010b 18       		.uleb128 0x18
 3861 010c 0D       		.uleb128 0xd
 3862 010d 00       		.byte	0
 3863 010e 03       		.uleb128 0x3
 3864 010f 0E       		.uleb128 0xe
 3865 0110 3A       		.uleb128 0x3a
 3866 0111 0B       		.uleb128 0xb
 3867 0112 3B       		.uleb128 0x3b
 3868 0113 0B       		.uleb128 0xb
 3869 0114 49       		.uleb128 0x49
 3870 0115 13       		.uleb128 0x13
 3871 0116 38       		.uleb128 0x38
 3872 0117 05       		.uleb128 0x5
 3873 0118 00       		.byte	0
 3874 0119 00       		.byte	0
 3875 011a 19       		.uleb128 0x19
 3876 011b 21       		.uleb128 0x21
 3877 011c 00       		.byte	0
 3878 011d 49       		.uleb128 0x49
 3879 011e 13       		.uleb128 0x13
 3880 011f 2F       		.uleb128 0x2f
 3881 0120 05       		.uleb128 0x5
 3882 0121 00       		.byte	0
 3883 0122 00       		.byte	0
 3884 0123 1A       		.uleb128 0x1a
 3885 0124 2E       		.uleb128 0x2e
 3886 0125 00       		.byte	0
 3887 0126 3F       		.uleb128 0x3f
 3888 0127 19       		.uleb128 0x19
 3889 0128 03       		.uleb128 0x3
 3890 0129 0E       		.uleb128 0xe
 3891 012a 3A       		.uleb128 0x3a
ARM GAS  C:\Users\alexport\AppData\Local\Temp\ccf6k4ea.s 			page 95


 3892 012b 0B       		.uleb128 0xb
 3893 012c 3B       		.uleb128 0x3b
 3894 012d 0B       		.uleb128 0xb
 3895 012e 27       		.uleb128 0x27
 3896 012f 19       		.uleb128 0x19
 3897 0130 11       		.uleb128 0x11
 3898 0131 01       		.uleb128 0x1
 3899 0132 12       		.uleb128 0x12
 3900 0133 06       		.uleb128 0x6
 3901 0134 40       		.uleb128 0x40
 3902 0135 18       		.uleb128 0x18
 3903 0136 9642     		.uleb128 0x2116
 3904 0138 19       		.uleb128 0x19
 3905 0139 00       		.byte	0
 3906 013a 00       		.byte	0
 3907 013b 1B       		.uleb128 0x1b
 3908 013c 2E       		.uleb128 0x2e
 3909 013d 01       		.byte	0x1
 3910 013e 3F       		.uleb128 0x3f
 3911 013f 19       		.uleb128 0x19
 3912 0140 03       		.uleb128 0x3
 3913 0141 0E       		.uleb128 0xe
 3914 0142 3A       		.uleb128 0x3a
 3915 0143 0B       		.uleb128 0xb
 3916 0144 3B       		.uleb128 0x3b
 3917 0145 05       		.uleb128 0x5
 3918 0146 27       		.uleb128 0x27
 3919 0147 19       		.uleb128 0x19
 3920 0148 49       		.uleb128 0x49
 3921 0149 13       		.uleb128 0x13
 3922 014a 11       		.uleb128 0x11
 3923 014b 01       		.uleb128 0x1
 3924 014c 12       		.uleb128 0x12
 3925 014d 06       		.uleb128 0x6
 3926 014e 40       		.uleb128 0x40
 3927 014f 18       		.uleb128 0x18
 3928 0150 9642     		.uleb128 0x2116
 3929 0152 19       		.uleb128 0x19
 3930 0153 01       		.uleb128 0x1
 3931 0154 13       		.uleb128 0x13
 3932 0155 00       		.byte	0
 3933 0156 00       		.byte	0
 3934 0157 1C       		.uleb128 0x1c
 3935 0158 05       		.uleb128 0x5
 3936 0159 00       		.byte	0
 3937 015a 03       		.uleb128 0x3
 3938 015b 0E       		.uleb128 0xe
 3939 015c 3A       		.uleb128 0x3a
 3940 015d 0B       		.uleb128 0xb
 3941 015e 3B       		.uleb128 0x3b
 3942 015f 05       		.uleb128 0x5
 3943 0160 49       		.uleb128 0x49
 3944 0161 13       		.uleb128 0x13
 3945 0162 02       		.uleb128 0x2
 3946 0163 18       		.uleb128 0x18
 3947 0164 00       		.byte	0
 3948 0165 00       		.byte	0
ARM GAS  C:\Users\alexport\AppData\Local\Temp\ccf6k4ea.s 			page 96


 3949 0166 1D       		.uleb128 0x1d
 3950 0167 34       		.uleb128 0x34
 3951 0168 00       		.byte	0
 3952 0169 03       		.uleb128 0x3
 3953 016a 0E       		.uleb128 0xe
 3954 016b 3A       		.uleb128 0x3a
 3955 016c 0B       		.uleb128 0xb
 3956 016d 3B       		.uleb128 0x3b
 3957 016e 05       		.uleb128 0x5
 3958 016f 49       		.uleb128 0x49
 3959 0170 13       		.uleb128 0x13
 3960 0171 02       		.uleb128 0x2
 3961 0172 18       		.uleb128 0x18
 3962 0173 00       		.byte	0
 3963 0174 00       		.byte	0
 3964 0175 1E       		.uleb128 0x1e
 3965 0176 0B       		.uleb128 0xb
 3966 0177 01       		.byte	0x1
 3967 0178 11       		.uleb128 0x11
 3968 0179 01       		.uleb128 0x1
 3969 017a 12       		.uleb128 0x12
 3970 017b 06       		.uleb128 0x6
 3971 017c 00       		.byte	0
 3972 017d 00       		.byte	0
 3973 017e 1F       		.uleb128 0x1f
 3974 017f 2E       		.uleb128 0x2e
 3975 0180 00       		.byte	0
 3976 0181 3F       		.uleb128 0x3f
 3977 0182 19       		.uleb128 0x19
 3978 0183 03       		.uleb128 0x3
 3979 0184 0E       		.uleb128 0xe
 3980 0185 3A       		.uleb128 0x3a
 3981 0186 0B       		.uleb128 0xb
 3982 0187 3B       		.uleb128 0x3b
 3983 0188 05       		.uleb128 0x5
 3984 0189 27       		.uleb128 0x27
 3985 018a 19       		.uleb128 0x19
 3986 018b 11       		.uleb128 0x11
 3987 018c 01       		.uleb128 0x1
 3988 018d 12       		.uleb128 0x12
 3989 018e 06       		.uleb128 0x6
 3990 018f 40       		.uleb128 0x40
 3991 0190 18       		.uleb128 0x18
 3992 0191 9642     		.uleb128 0x2116
 3993 0193 19       		.uleb128 0x19
 3994 0194 00       		.byte	0
 3995 0195 00       		.byte	0
 3996 0196 20       		.uleb128 0x20
 3997 0197 0B       		.uleb128 0xb
 3998 0198 01       		.byte	0x1
 3999 0199 11       		.uleb128 0x11
 4000 019a 01       		.uleb128 0x1
 4001 019b 12       		.uleb128 0x12
 4002 019c 06       		.uleb128 0x6
 4003 019d 01       		.uleb128 0x1
 4004 019e 13       		.uleb128 0x13
 4005 019f 00       		.byte	0
ARM GAS  C:\Users\alexport\AppData\Local\Temp\ccf6k4ea.s 			page 97


 4006 01a0 00       		.byte	0
 4007 01a1 21       		.uleb128 0x21
 4008 01a2 2E       		.uleb128 0x2e
 4009 01a3 01       		.byte	0x1
 4010 01a4 3F       		.uleb128 0x3f
 4011 01a5 19       		.uleb128 0x19
 4012 01a6 03       		.uleb128 0x3
 4013 01a7 0E       		.uleb128 0xe
 4014 01a8 3A       		.uleb128 0x3a
 4015 01a9 0B       		.uleb128 0xb
 4016 01aa 3B       		.uleb128 0x3b
 4017 01ab 05       		.uleb128 0x5
 4018 01ac 27       		.uleb128 0x27
 4019 01ad 19       		.uleb128 0x19
 4020 01ae 11       		.uleb128 0x11
 4021 01af 01       		.uleb128 0x1
 4022 01b0 12       		.uleb128 0x12
 4023 01b1 06       		.uleb128 0x6
 4024 01b2 40       		.uleb128 0x40
 4025 01b3 18       		.uleb128 0x18
 4026 01b4 9742     		.uleb128 0x2117
 4027 01b6 19       		.uleb128 0x19
 4028 01b7 01       		.uleb128 0x1
 4029 01b8 13       		.uleb128 0x13
 4030 01b9 00       		.byte	0
 4031 01ba 00       		.byte	0
 4032 01bb 22       		.uleb128 0x22
 4033 01bc 34       		.uleb128 0x34
 4034 01bd 00       		.byte	0
 4035 01be 03       		.uleb128 0x3
 4036 01bf 08       		.uleb128 0x8
 4037 01c0 3A       		.uleb128 0x3a
 4038 01c1 0B       		.uleb128 0xb
 4039 01c2 3B       		.uleb128 0x3b
 4040 01c3 05       		.uleb128 0x5
 4041 01c4 49       		.uleb128 0x49
 4042 01c5 13       		.uleb128 0x13
 4043 01c6 02       		.uleb128 0x2
 4044 01c7 18       		.uleb128 0x18
 4045 01c8 00       		.byte	0
 4046 01c9 00       		.byte	0
 4047 01ca 23       		.uleb128 0x23
 4048 01cb 26       		.uleb128 0x26
 4049 01cc 00       		.byte	0
 4050 01cd 49       		.uleb128 0x49
 4051 01ce 13       		.uleb128 0x13
 4052 01cf 00       		.byte	0
 4053 01d0 00       		.byte	0
 4054 01d1 24       		.uleb128 0x24
 4055 01d2 2E       		.uleb128 0x2e
 4056 01d3 01       		.byte	0x1
 4057 01d4 03       		.uleb128 0x3
 4058 01d5 0E       		.uleb128 0xe
 4059 01d6 3A       		.uleb128 0x3a
 4060 01d7 0B       		.uleb128 0xb
 4061 01d8 3B       		.uleb128 0x3b
 4062 01d9 05       		.uleb128 0x5
ARM GAS  C:\Users\alexport\AppData\Local\Temp\ccf6k4ea.s 			page 98


 4063 01da 27       		.uleb128 0x27
 4064 01db 19       		.uleb128 0x19
 4065 01dc 11       		.uleb128 0x11
 4066 01dd 01       		.uleb128 0x1
 4067 01de 12       		.uleb128 0x12
 4068 01df 06       		.uleb128 0x6
 4069 01e0 40       		.uleb128 0x40
 4070 01e1 18       		.uleb128 0x18
 4071 01e2 9742     		.uleb128 0x2117
 4072 01e4 19       		.uleb128 0x19
 4073 01e5 01       		.uleb128 0x1
 4074 01e6 13       		.uleb128 0x13
 4075 01e7 00       		.byte	0
 4076 01e8 00       		.byte	0
 4077 01e9 25       		.uleb128 0x25
 4078 01ea 2E       		.uleb128 0x2e
 4079 01eb 01       		.byte	0x1
 4080 01ec 3F       		.uleb128 0x3f
 4081 01ed 19       		.uleb128 0x19
 4082 01ee 03       		.uleb128 0x3
 4083 01ef 0E       		.uleb128 0xe
 4084 01f0 3A       		.uleb128 0x3a
 4085 01f1 0B       		.uleb128 0xb
 4086 01f2 3B       		.uleb128 0x3b
 4087 01f3 05       		.uleb128 0x5
 4088 01f4 27       		.uleb128 0x27
 4089 01f5 19       		.uleb128 0x19
 4090 01f6 49       		.uleb128 0x49
 4091 01f7 13       		.uleb128 0x13
 4092 01f8 11       		.uleb128 0x11
 4093 01f9 01       		.uleb128 0x1
 4094 01fa 12       		.uleb128 0x12
 4095 01fb 06       		.uleb128 0x6
 4096 01fc 40       		.uleb128 0x40
 4097 01fd 18       		.uleb128 0x18
 4098 01fe 9742     		.uleb128 0x2117
 4099 0200 19       		.uleb128 0x19
 4100 0201 01       		.uleb128 0x1
 4101 0202 13       		.uleb128 0x13
 4102 0203 00       		.byte	0
 4103 0204 00       		.byte	0
 4104 0205 26       		.uleb128 0x26
 4105 0206 05       		.uleb128 0x5
 4106 0207 00       		.byte	0
 4107 0208 03       		.uleb128 0x3
 4108 0209 08       		.uleb128 0x8
 4109 020a 3A       		.uleb128 0x3a
 4110 020b 0B       		.uleb128 0xb
 4111 020c 3B       		.uleb128 0x3b
 4112 020d 05       		.uleb128 0x5
 4113 020e 49       		.uleb128 0x49
 4114 020f 13       		.uleb128 0x13
 4115 0210 02       		.uleb128 0x2
 4116 0211 18       		.uleb128 0x18
 4117 0212 00       		.byte	0
 4118 0213 00       		.byte	0
 4119 0214 27       		.uleb128 0x27
ARM GAS  C:\Users\alexport\AppData\Local\Temp\ccf6k4ea.s 			page 99


 4120 0215 34       		.uleb128 0x34
 4121 0216 00       		.byte	0
 4122 0217 03       		.uleb128 0x3
 4123 0218 0E       		.uleb128 0xe
 4124 0219 3A       		.uleb128 0x3a
 4125 021a 0B       		.uleb128 0xb
 4126 021b 3B       		.uleb128 0x3b
 4127 021c 0B       		.uleb128 0xb
 4128 021d 49       		.uleb128 0x49
 4129 021e 13       		.uleb128 0x13
 4130 021f 02       		.uleb128 0x2
 4131 0220 18       		.uleb128 0x18
 4132 0221 00       		.byte	0
 4133 0222 00       		.byte	0
 4134 0223 28       		.uleb128 0x28
 4135 0224 34       		.uleb128 0x34
 4136 0225 00       		.byte	0
 4137 0226 03       		.uleb128 0x3
 4138 0227 0E       		.uleb128 0xe
 4139 0228 3A       		.uleb128 0x3a
 4140 0229 0B       		.uleb128 0xb
 4141 022a 3B       		.uleb128 0x3b
 4142 022b 0B       		.uleb128 0xb
 4143 022c 49       		.uleb128 0x49
 4144 022d 13       		.uleb128 0x13
 4145 022e 3F       		.uleb128 0x3f
 4146 022f 19       		.uleb128 0x19
 4147 0230 02       		.uleb128 0x2
 4148 0231 18       		.uleb128 0x18
 4149 0232 00       		.byte	0
 4150 0233 00       		.byte	0
 4151 0234 29       		.uleb128 0x29
 4152 0235 34       		.uleb128 0x34
 4153 0236 00       		.byte	0
 4154 0237 03       		.uleb128 0x3
 4155 0238 0E       		.uleb128 0xe
 4156 0239 3A       		.uleb128 0x3a
 4157 023a 0B       		.uleb128 0xb
 4158 023b 3B       		.uleb128 0x3b
 4159 023c 05       		.uleb128 0x5
 4160 023d 49       		.uleb128 0x49
 4161 023e 13       		.uleb128 0x13
 4162 023f 3F       		.uleb128 0x3f
 4163 0240 19       		.uleb128 0x19
 4164 0241 3C       		.uleb128 0x3c
 4165 0242 19       		.uleb128 0x19
 4166 0243 00       		.byte	0
 4167 0244 00       		.byte	0
 4168 0245 2A       		.uleb128 0x2a
 4169 0246 34       		.uleb128 0x34
 4170 0247 00       		.byte	0
 4171 0248 03       		.uleb128 0x3
 4172 0249 0E       		.uleb128 0xe
 4173 024a 3A       		.uleb128 0x3a
 4174 024b 0B       		.uleb128 0xb
 4175 024c 3B       		.uleb128 0x3b
 4176 024d 0B       		.uleb128 0xb
ARM GAS  C:\Users\alexport\AppData\Local\Temp\ccf6k4ea.s 			page 100


 4177 024e 49       		.uleb128 0x49
 4178 024f 13       		.uleb128 0x13
 4179 0250 3F       		.uleb128 0x3f
 4180 0251 19       		.uleb128 0x19
 4181 0252 3C       		.uleb128 0x3c
 4182 0253 19       		.uleb128 0x19
 4183 0254 00       		.byte	0
 4184 0255 00       		.byte	0
 4185 0256 00       		.byte	0
 4186              		.section	.debug_aranges,"",%progbits
 4187 0000 84000000 		.4byte	0x84
 4188 0004 0200     		.2byte	0x2
 4189 0006 00000000 		.4byte	.Ldebug_info0
 4190 000a 04       		.byte	0x4
 4191 000b 00       		.byte	0
 4192 000c 0000     		.2byte	0
 4193 000e 0000     		.2byte	0
 4194 0010 00000000 		.4byte	.LFB2
 4195 0014 40000000 		.4byte	.LFE2-.LFB2
 4196 0018 00000000 		.4byte	.LFB3
 4197 001c 12000000 		.4byte	.LFE3-.LFB3
 4198 0020 00000000 		.4byte	.LFB4
 4199 0024 30010000 		.4byte	.LFE4-.LFB4
 4200 0028 00000000 		.4byte	.LFB5
 4201 002c 18000000 		.4byte	.LFE5-.LFB5
 4202 0030 00000000 		.4byte	.LFB6
 4203 0034 AC010000 		.4byte	.LFE6-.LFB6
 4204 0038 00000000 		.4byte	.LFB7
 4205 003c BC000000 		.4byte	.LFE7-.LFB7
 4206 0040 00000000 		.4byte	.LFB8
 4207 0044 D4000000 		.4byte	.LFE8-.LFB8
 4208 0048 00000000 		.4byte	.LFB9
 4209 004c 24000000 		.4byte	.LFE9-.LFB9
 4210 0050 00000000 		.4byte	.LFB10
 4211 0054 62000000 		.4byte	.LFE10-.LFB10
 4212 0058 00000000 		.4byte	.LFB11
 4213 005c A8010000 		.4byte	.LFE11-.LFB11
 4214 0060 00000000 		.4byte	.LFB12
 4215 0064 F0000000 		.4byte	.LFE12-.LFB12
 4216 0068 00000000 		.4byte	.LFB13
 4217 006c CC000000 		.4byte	.LFE13-.LFB13
 4218 0070 00000000 		.4byte	.LFB14
 4219 0074 26000000 		.4byte	.LFE14-.LFB14
 4220 0078 00000000 		.4byte	.LFB15
 4221 007c 30000000 		.4byte	.LFE15-.LFB15
 4222 0080 00000000 		.4byte	0
 4223 0084 00000000 		.4byte	0
 4224              		.section	.debug_ranges,"",%progbits
 4225              	.Ldebug_ranges0:
 4226 0000 00000000 		.4byte	.LFB2
 4227 0004 40000000 		.4byte	.LFE2
 4228 0008 00000000 		.4byte	.LFB3
 4229 000c 12000000 		.4byte	.LFE3
 4230 0010 00000000 		.4byte	.LFB4
 4231 0014 30010000 		.4byte	.LFE4
 4232 0018 00000000 		.4byte	.LFB5
 4233 001c 18000000 		.4byte	.LFE5
ARM GAS  C:\Users\alexport\AppData\Local\Temp\ccf6k4ea.s 			page 101


 4234 0020 00000000 		.4byte	.LFB6
 4235 0024 AC010000 		.4byte	.LFE6
 4236 0028 00000000 		.4byte	.LFB7
 4237 002c BC000000 		.4byte	.LFE7
 4238 0030 00000000 		.4byte	.LFB8
 4239 0034 D4000000 		.4byte	.LFE8
 4240 0038 00000000 		.4byte	.LFB9
 4241 003c 24000000 		.4byte	.LFE9
 4242 0040 00000000 		.4byte	.LFB10
 4243 0044 62000000 		.4byte	.LFE10
 4244 0048 00000000 		.4byte	.LFB11
 4245 004c A8010000 		.4byte	.LFE11
 4246 0050 00000000 		.4byte	.LFB12
 4247 0054 F0000000 		.4byte	.LFE12
 4248 0058 00000000 		.4byte	.LFB13
 4249 005c CC000000 		.4byte	.LFE13
 4250 0060 00000000 		.4byte	.LFB14
 4251 0064 26000000 		.4byte	.LFE14
 4252 0068 00000000 		.4byte	.LFB15
 4253 006c 30000000 		.4byte	.LFE15
 4254 0070 00000000 		.4byte	0
 4255 0074 00000000 		.4byte	0
 4256              		.section	.debug_line,"",%progbits
 4257              	.Ldebug_line0:
 4258 0000 02030000 		.section	.debug_str,"MS",%progbits,1
 4258      0200DE00 
 4258      00000201 
 4258      FB0E0D00 
 4258      01010101 
 4259              	.LASF260:
 4260 0000 6379426C 		.ascii	"cyBle_peerBonding\000"
 4260      655F7065 
 4260      6572426F 
 4260      6E64696E 
 4260      6700
 4261              	.LASF271:
 4262 0012 433A5C55 		.ascii	"C:\\Users\\alexport\\OneDrive - Safeguard Analytics"
 4262      73657273 
 4262      5C616C65 
 4262      78706F72 
 4262      745C4F6E 
 4263 0042 5C53412D 		.ascii	"\\SA-220\\SA-220.cydsn\000"
 4263      3232305C 
 4263      53412D32 
 4263      32302E63 
 4263      7964736E 
 4264              	.LASF159:
 4265 0057 7363616E 		.ascii	"scanRspData\000"
 4265      52737044 
 4265      61746100 
 4266              	.LASF200:
 4267 0063 4359424C 		.ascii	"CYBLE_DIS_CHAR_COUNT\000"
 4267      455F4449 
 4267      535F4348 
 4267      41525F43 
 4267      4F554E54 
 4268              	.LASF17:
ARM GAS  C:\Users\alexport\AppData\Local\Temp\ccf6k4ea.s 			page 102


 4269 0078 73697A65 		.ascii	"sizetype\000"
 4269      74797065 
 4269      00
 4270              	.LASF38:
 4271 0081 4359424C 		.ascii	"CYBLE_EVT_GAP_NUMERIC_COMPARISON_REQUEST\000"
 4271      455F4556 
 4271      545F4741 
 4271      505F4E55 
 4271      4D455249 
 4272              	.LASF216:
 4273 00aa 61706952 		.ascii	"apiResult\000"
 4273      6573756C 
 4273      7400
 4274              	.LASF32:
 4275 00b4 4359424C 		.ascii	"CYBLE_EVT_GAP_DEVICE_CONNECTED\000"
 4275      455F4556 
 4275      545F4741 
 4275      505F4445 
 4275      56494345 
 4276              	.LASF50:
 4277 00d3 4359424C 		.ascii	"CYBLE_EVT_GATT_CONNECT_IND\000"
 4277      455F4556 
 4277      545F4741 
 4277      54545F43 
 4277      4F4E4E45 
 4278              	.LASF272:
 4279 00ee 4379426C 		.ascii	"CyBle_ChangeAdLocalName\000"
 4279      655F4368 
 4279      616E6765 
 4279      41644C6F 
 4279      63616C4E 
 4280              	.LASF11:
 4281 0106 75696E74 		.ascii	"uint32\000"
 4281      333200
 4282              	.LASF235:
 4283 010d 64657374 		.ascii	"destBuffer\000"
 4283      42756666 
 4283      657200
 4284              	.LASF162:
 4285 0118 64697363 		.ascii	"discMode\000"
 4285      4D6F6465 
 4285      00
 4286              	.LASF106:
 4287 0121 4359424C 		.ascii	"CYBLE_ERROR_L2CAP_CONNECTION_ENTITY_NOT_FOUND\000"
 4287      455F4552 
 4287      524F525F 
 4287      4C324341 
 4287      505F434F 
 4288              	.LASF112:
 4289 014f 4359424C 		.ascii	"CYBLE_ERROR_MIC_AUTH_FAILED\000"
 4289      455F4552 
 4289      524F525F 
 4289      4D49435F 
 4289      41555448 
 4290              	.LASF14:
 4291 016b 63686172 		.ascii	"char8\000"
 4291      3800
ARM GAS  C:\Users\alexport\AppData\Local\Temp\ccf6k4ea.s 			page 103


 4292              	.LASF82:
 4293 0171 4359424C 		.ascii	"CYBLE_EVT_L2CAP_CBFC_RX_CREDIT_IND\000"
 4293      455F4556 
 4293      545F4C32 
 4293      4341505F 
 4293      43424643 
 4294              	.LASF229:
 4295 0194 62446576 		.ascii	"bDevHandle\000"
 4295      48616E64 
 4295      6C6500
 4296              	.LASF181:
 4297 019f 7065726D 		.ascii	"permission\000"
 4297      69737369 
 4297      6F6E00
 4298              	.LASF126:
 4299 01aa 74797065 		.ascii	"type\000"
 4299      00
 4300              	.LASF185:
 4301 01af 4359424C 		.ascii	"CYBLE_CALLBACK_T\000"
 4301      455F4341 
 4301      4C4C4241 
 4301      434B5F54 
 4301      00
 4302              	.LASF195:
 4303 01c0 4359424C 		.ascii	"CYBLE_DIS_FIRMWARE_REV\000"
 4303      455F4449 
 4303      535F4649 
 4303      524D5741 
 4303      52455F52 
 4304              	.LASF67:
 4305 01d7 4359424C 		.ascii	"CYBLE_EVT_GATTC_HANDLE_VALUE_NTF\000"
 4305      455F4556 
 4305      545F4741 
 4305      5454435F 
 4305      48414E44 
 4306              	.LASF26:
 4307 01f8 4359424C 		.ascii	"CYBLE_EVT_GAP_AUTH_REQ\000"
 4307      455F4556 
 4307      545F4741 
 4307      505F4155 
 4307      54485F52 
 4308              	.LASF169:
 4309 020f 4359424C 		.ascii	"CYBLE_CONN_HANDLE_T\000"
 4309      455F434F 
 4309      4E4E5F48 
 4309      414E444C 
 4309      455F5400 
 4310              	.LASF225:
 4311 0223 63616C6C 		.ascii	"callbackFunc\000"
 4311      6261636B 
 4311      46756E63 
 4311      00
 4312              	.LASF101:
 4313 0230 4359424C 		.ascii	"CYBLE_ERROR_BT_ON_NOT_COMPLETED\000"
 4313      455F4552 
 4313      524F525F 
 4313      42545F4F 
ARM GAS  C:\Users\alexport\AppData\Local\Temp\ccf6k4ea.s 			page 104


 4313      4E5F4E4F 
 4314              	.LASF47:
 4315 0250 4359424C 		.ascii	"CYBLE_EVT_GAP_AUTH_REQ_REPLY_ERR\000"
 4315      455F4556 
 4315      545F4741 
 4315      505F4155 
 4315      54485F52 
 4316              	.LASF204:
 4317 0271 4359424C 		.ascii	"CYBLE_STATE_ADVERTISING\000"
 4317      455F5354 
 4317      4154455F 
 4317      41445645 
 4317      52544953 
 4318              	.LASF40:
 4319 0289 4359424C 		.ascii	"CYBLE_EVT_GAP_OOB_GENERATED_NOTIFICATION\000"
 4319      455F4556 
 4319      545F4741 
 4319      505F4F4F 
 4319      425F4745 
 4320              	.LASF167:
 4321 02b2 62644861 		.ascii	"bdHandle\000"
 4321      6E646C65 
 4321      00
 4322              	.LASF134:
 4323 02bb 4359424C 		.ascii	"CYBLE_DLE_CONFIG_PARAM_T\000"
 4323      455F444C 
 4323      455F434F 
 4323      4E464947 
 4323      5F504152 
 4324              	.LASF63:
 4325 02d4 4359424C 		.ascii	"CYBLE_EVT_GATTS_WRITE_CMD_REQ\000"
 4325      455F4556 
 4325      545F4741 
 4325      5454535F 
 4325      57524954 
 4326              	.LASF83:
 4327 02f2 4359424C 		.ascii	"CYBLE_EVT_L2CAP_CBFC_TX_CREDIT_IND\000"
 4327      455F4556 
 4327      545F4C32 
 4327      4341505F 
 4327      43424643 
 4328              	.LASF4:
 4329 0315 6C6F6E67 		.ascii	"long int\000"
 4329      20696E74 
 4329      00
 4330              	.LASF215:
 4331 031e 4379426C 		.ascii	"CyBle_ServiceInit\000"
 4331      655F5365 
 4331      72766963 
 4331      65496E69 
 4331      7400
 4332              	.LASF232:
 4333 0330 61647665 		.ascii	"advertisingIntervalType\000"
 4333      72746973 
 4333      696E6749 
 4333      6E746572 
 4333      76616C54 
ARM GAS  C:\Users\alexport\AppData\Local\Temp\ccf6k4ea.s 			page 105


 4334              	.LASF130:
 4335 0348 4359424C 		.ascii	"CYBLE_STK_APP_DATA_BUFF_T\000"
 4335      455F5354 
 4335      4B5F4150 
 4335      505F4441 
 4335      54415F42 
 4336              	.LASF137:
 4337 0362 646C6543 		.ascii	"dleConfig\000"
 4337      6F6E6669 
 4337      6700
 4338              	.LASF220:
 4339 036c 73746163 		.ascii	"stackConfig\000"
 4339      6B436F6E 
 4339      66696700 
 4340              	.LASF19:
 4341 0378 4359424C 		.ascii	"CYBLE_EVT_STACK_ON\000"
 4341      455F4556 
 4341      545F5354 
 4341      41434B5F 
 4341      4F4E00
 4342              	.LASF108:
 4343 038b 4359424C 		.ascii	"CYBLE_ERROR_L2CAP_PSM_NOT_IN_RANGE\000"
 4343      455F4552 
 4343      524F525F 
 4343      4C324341 
 4343      505F5053 
 4344              	.LASF194:
 4345 03ae 4359424C 		.ascii	"CYBLE_DIS_HARDWARE_REV\000"
 4345      455F4449 
 4345      535F4841 
 4345      52445741 
 4345      52455F52 
 4346              	.LASF253:
 4347 03c5 6379426C 		.ascii	"cyBle_deviceAddress\000"
 4347      655F6465 
 4347      76696365 
 4347      41646472 
 4347      65737300 
 4348              	.LASF121:
 4349 03d9 4359424C 		.ascii	"CYBLE_ERROR_CHAR_IS_NOT_DISCOVERED\000"
 4349      455F4552 
 4349      524F525F 
 4349      43484152 
 4349      5F49535F 
 4350              	.LASF180:
 4351 03fc 61747454 		.ascii	"attType\000"
 4351      79706500 
 4352              	.LASF144:
 4353 0404 4359424C 		.ascii	"CYBLE_GAPP_NON_CONNECTABLE_UNDIRECTED_ADV\000"
 4353      455F4741 
 4353      50505F4E 
 4353      4F4E5F43 
 4353      4F4E4E45 
 4354              	.LASF76:
 4355 042e 4359424C 		.ascii	"CYBLE_EVT_L2CAP_COMMAND_REJ\000"
 4355      455F4556 
 4355      545F4C32 
ARM GAS  C:\Users\alexport\AppData\Local\Temp\ccf6k4ea.s 			page 106


 4355      4341505F 
 4355      434F4D4D 
 4356              	.LASF212:
 4357 044a 7270614F 		.ascii	"rpaOnlyCharHandle\000"
 4357      6E6C7943 
 4357      68617248 
 4357      616E646C 
 4357      6500
 4358              	.LASF109:
 4359 045c 4359424C 		.ascii	"CYBLE_ERROR_GATT_DB_INVALID_ATTR_HANDLE\000"
 4359      455F4552 
 4359      524F525F 
 4359      47415454 
 4359      5F44425F 
 4360              	.LASF0:
 4361 0484 7369676E 		.ascii	"signed char\000"
 4361      65642063 
 4361      68617200 
 4362              	.LASF228:
 4363 0490 4379426C 		.ascii	"CyBle_GapRemoveBondedDevice\000"
 4363      655F4761 
 4363      7052656D 
 4363      6F766542 
 4363      6F6E6465 
 4364              	.LASF129:
 4365 04ac 62756666 		.ascii	"bufferUnits\000"
 4365      6572556E 
 4365      69747300 
 4366              	.LASF21:
 4367 04b8 4359424C 		.ascii	"CYBLE_EVT_HARDWARE_ERROR\000"
 4367      455F4556 
 4367      545F4841 
 4367      52445741 
 4367      52455F45 
 4368              	.LASF90:
 4369 04d1 4359424C 		.ascii	"CYBLE_ERROR_OK\000"
 4369      455F4552 
 4369      524F525F 
 4369      4F4B00
 4370              	.LASF54:
 4371 04e0 4359424C 		.ascii	"CYBLE_EVT_GATTC_READ_BY_GROUP_TYPE_RSP\000"
 4371      455F4556 
 4371      545F4741 
 4371      5454435F 
 4371      52454144 
 4372              	.LASF201:
 4373 0507 4359424C 		.ascii	"CYBLE_STATE_STOPPED\000"
 4373      455F5354 
 4373      4154455F 
 4373      53544F50 
 4373      50454400 
 4374              	.LASF1:
 4375 051b 756E7369 		.ascii	"unsigned char\000"
 4375      676E6564 
 4375      20636861 
 4375      7200
 4376              	.LASF53:
ARM GAS  C:\Users\alexport\AppData\Local\Temp\ccf6k4ea.s 			page 107


 4377 0529 4359424C 		.ascii	"CYBLE_EVT_GATTC_XCHNG_MTU_RSP\000"
 4377      455F4556 
 4377      545F4741 
 4377      5454435F 
 4377      5843484E 
 4378              	.LASF44:
 4379 0547 4359424C 		.ascii	"CYBLE_EVT_GAP_SMP_NEGOTIATED_AUTH_INFO\000"
 4379      455F4556 
 4379      545F4741 
 4379      505F534D 
 4379      505F4E45 
 4380              	.LASF45:
 4381 056e 4359424C 		.ascii	"CYBLE_EVT_GAP_CONN_ESTB\000"
 4381      455F4556 
 4381      545F4741 
 4381      505F434F 
 4381      4E4E5F45 
 4382              	.LASF147:
 4383 0586 61647649 		.ascii	"advIntvMin\000"
 4383      6E74764D 
 4383      696E00
 4384              	.LASF179:
 4385 0591 61747448 		.ascii	"attHandle\000"
 4385      616E646C 
 4385      6500
 4386              	.LASF231:
 4387 059b 4379426C 		.ascii	"CyBle_GappStartAdvertisement\000"
 4387      655F4761 
 4387      70705374 
 4387      61727441 
 4387      64766572 
 4388              	.LASF158:
 4389 05b8 4359424C 		.ascii	"CYBLE_GAPP_DISC_DATA_T\000"
 4389      455F4741 
 4389      50505F44 
 4389      4953435F 
 4389      44415441 
 4390              	.LASF80:
 4391 05cf 4359424C 		.ascii	"CYBLE_EVT_L2CAP_CBFC_DISCONN_CNF\000"
 4391      455F4556 
 4391      545F4C32 
 4391      4341505F 
 4391      43424643 
 4392              	.LASF57:
 4393 05f0 4359424C 		.ascii	"CYBLE_EVT_GATTC_FIND_BY_TYPE_VALUE_RSP\000"
 4393      455F4556 
 4393      545F4741 
 4393      5454435F 
 4393      46494E44 
 4394              	.LASF41:
 4395 0617 4359424C 		.ascii	"CYBLE_EVT_GAP_DATA_LENGTH_CHANGE\000"
 4395      455F4556 
 4395      545F4741 
 4395      505F4441 
 4395      54415F4C 
 4396              	.LASF15:
 4397 0638 63686172 		.ascii	"char\000"
ARM GAS  C:\Users\alexport\AppData\Local\Temp\ccf6k4ea.s 			page 108


 4397      00
 4398              	.LASF173:
 4399 063d 6D617841 		.ascii	"maxAttrLength\000"
 4399      7474724C 
 4399      656E6774 
 4399      6800
 4400              	.LASF60:
 4401 064b 4359424C 		.ascii	"CYBLE_EVT_GATTC_READ_MULTI_RSP\000"
 4401      455F4556 
 4401      545F4741 
 4401      5454435F 
 4401      52454144 
 4402              	.LASF18:
 4403 066a 4359424C 		.ascii	"CYBLE_EVT_HOST_INVALID\000"
 4403      455F4556 
 4403      545F484F 
 4403      53545F49 
 4403      4E56414C 
 4404              	.LASF243:
 4405 0681 4379426C 		.ascii	"CyBle_GapGetLocalName\000"
 4405      655F4761 
 4405      70476574 
 4405      4C6F6361 
 4405      6C4E616D 
 4406              	.LASF43:
 4407 0697 4359424C 		.ascii	"CYBLE_EVT_GAPC_DIRECT_ADV_REPORT\000"
 4407      455F4556 
 4407      545F4741 
 4407      50435F44 
 4407      49524543 
 4408              	.LASF97:
 4409 06b8 4359424C 		.ascii	"CYBLE_ERROR_NO_DEVICE_ENTITY\000"
 4409      455F4552 
 4409      524F525F 
 4409      4E4F5F44 
 4409      45564943 
 4410              	.LASF59:
 4411 06d5 4359424C 		.ascii	"CYBLE_EVT_GATTC_READ_BLOB_RSP\000"
 4411      455F4556 
 4411      545F4741 
 4411      5454435F 
 4411      52454144 
 4412              	.LASF66:
 4413 06f3 4359424C 		.ascii	"CYBLE_EVT_GATTC_EXEC_WRITE_RSP\000"
 4413      455F4556 
 4413      545F4741 
 4413      5454435F 
 4413      45584543 
 4414              	.LASF214:
 4415 0712 4379426C 		.ascii	"CyBle_Init\000"
 4415      655F496E 
 4415      697400
 4416              	.LASF196:
 4417 071d 4359424C 		.ascii	"CYBLE_DIS_SOFTWARE_REV\000"
 4417      455F4449 
 4417      535F534F 
 4417      46545741 
ARM GAS  C:\Users\alexport\AppData\Local\Temp\ccf6k4ea.s 			page 109


 4417      52455F52 
 4418              	.LASF71:
 4419 0734 4359424C 		.ascii	"CYBLE_EVT_GATTC_STOP_CMD_COMPLETE\000"
 4419      455F4556 
 4419      545F4741 
 4419      5454435F 
 4419      53544F50 
 4420              	.LASF164:
 4421 0756 61647654 		.ascii	"advTo\000"
 4421      6F00
 4422              	.LASF192:
 4423 075c 4359424C 		.ascii	"CYBLE_DIS_MODEL_NUMBER\000"
 4423      455F4449 
 4423      535F4D4F 
 4423      44454C5F 
 4423      4E554D42 
 4424              	.LASF184:
 4425 0773 4359424C 		.ascii	"CYBLE_GATTS_DB_T\000"
 4425      455F4741 
 4425      5454535F 
 4425      44425F54 
 4425      00
 4426              	.LASF248:
 4427 0784 6379426C 		.ascii	"cyBle_pendingFlashClearCccdHandle\000"
 4427      655F7065 
 4427      6E64696E 
 4427      67466C61 
 4427      7368436C 
 4428              	.LASF233:
 4429 07a6 4379426C 		.ascii	"CyBle_GappStopAdvertisement\000"
 4429      655F4761 
 4429      70705374 
 4429      6F704164 
 4429      76657274 
 4430              	.LASF197:
 4431 07c2 4359424C 		.ascii	"CYBLE_DIS_SYSTEM_ID\000"
 4431      455F4449 
 4431      535F5359 
 4431      5354454D 
 4431      5F494400 
 4432              	.LASF117:
 4433 07d6 4359424C 		.ascii	"CYBLE_ERROR_CONTROLLER_BUSY\000"
 4433      455F4552 
 4433      524F525F 
 4433      434F4E54 
 4433      524F4C4C 
 4434              	.LASF91:
 4435 07f2 4359424C 		.ascii	"CYBLE_ERROR_INVALID_PARAMETER\000"
 4435      455F4552 
 4435      524F525F 
 4435      494E5641 
 4435      4C49445F 
 4436              	.LASF217:
 4437 0810 6379426C 		.ascii	"cyBle_stackDataBuff\000"
 4437      655F7374 
 4437      61636B44 
 4437      61746142 
ARM GAS  C:\Users\alexport\AppData\Local\Temp\ccf6k4ea.s 			page 110


 4437      75666600 
 4438              	.LASF189:
 4439 0824 626F756E 		.ascii	"boundedDevCount\000"
 4439      64656444 
 4439      6576436F 
 4439      756E7400 
 4440              	.LASF221:
 4441 0834 66656174 		.ascii	"featureHeapReq\000"
 4441      75726548 
 4441      65617052 
 4441      657100
 4442              	.LASF145:
 4443 0843 4359424C 		.ascii	"CYBLE_GAPP_CONNECTABLE_LOW_DC_DIRECTED_ADV\000"
 4443      455F4741 
 4443      50505F43 
 4443      4F4E4E45 
 4443      43544142 
 4444              	.LASF93:
 4445 086e 4359424C 		.ascii	"CYBLE_ERROR_MEMORY_ALLOCATION_FAILED\000"
 4445      455F4552 
 4445      524F525F 
 4445      4D454D4F 
 4445      52595F41 
 4446              	.LASF254:
 4447 0893 6379426C 		.ascii	"cyBle_sflashDeviceAddress\000"
 4447      655F7366 
 4447      6C617368 
 4447      44657669 
 4447      63654164 
 4448              	.LASF187:
 4449 08ad 61747456 		.ascii	"attValuesCCCDFlashMemory\000"
 4449      616C7565 
 4449      73434343 
 4449      44466C61 
 4449      73684D65 
 4450              	.LASF118:
 4451 08c6 4359424C 		.ascii	"CYBLE_ERROR_MAX\000"
 4451      455F4552 
 4451      524F525F 
 4451      4D415800 
 4452              	.LASF75:
 4453 08d6 4359424C 		.ascii	"CYBLE_EVT_L2CAP_CONN_PARAM_UPDATE_RSP\000"
 4453      455F4556 
 4453      545F4C32 
 4453      4341505F 
 4453      434F4E4E 
 4454              	.LASF87:
 4455 08fc 4359424C 		.ascii	"CYBLE_EVT_HCI_PKT\000"
 4455      455F4556 
 4455      545F4843 
 4455      495F504B 
 4455      5400
 4456              	.LASF186:
 4457 090e 73746163 		.ascii	"stackFlashptr\000"
 4457      6B466C61 
 4457      73687074 
 4457      7200
ARM GAS  C:\Users\alexport\AppData\Local\Temp\ccf6k4ea.s 			page 111


 4458              	.LASF269:
 4459 091c 474E5520 		.ascii	"GNU C11 5.4.1 20160609 (release) [ARM/embedded-5-br"
 4459      43313120 
 4459      352E342E 
 4459      31203230 
 4459      31363036 
 4460 094f 616E6368 		.ascii	"anch revision 237715] -mcpu=cortex-m0 -mthumb -g -O"
 4460      20726576 
 4460      6973696F 
 4460      6E203233 
 4460      37373135 
 4461 0982 30202D66 		.ascii	"0 -ffunction-sections -ffat-lto-objects\000"
 4461      66756E63 
 4461      74696F6E 
 4461      2D736563 
 4461      74696F6E 
 4462              	.LASF155:
 4463 09aa 4359424C 		.ascii	"CYBLE_GAPP_DISC_PARAM_T\000"
 4463      455F4741 
 4463      50505F44 
 4463      4953435F 
 4463      50415241 
 4464              	.LASF240:
 4465 09c2 6D61784C 		.ascii	"maxLength\000"
 4465      656E6774 
 4465      6800
 4466              	.LASF29:
 4467 09cc 4359424C 		.ascii	"CYBLE_EVT_GAP_AUTH_COMPLETE\000"
 4467      455F4556 
 4467      545F4741 
 4467      505F4155 
 4467      54485F43 
 4468              	.LASF154:
 4469 09e8 61647646 		.ascii	"advFilterPolicy\000"
 4469      696C7465 
 4469      72506F6C 
 4469      69637900 
 4470              	.LASF30:
 4471 09f8 4359424C 		.ascii	"CYBLE_EVT_GAP_AUTH_FAILED\000"
 4471      455F4556 
 4471      545F4741 
 4471      505F4155 
 4471      54485F46 
 4472              	.LASF123:
 4473 0a12 4359424C 		.ascii	"CYBLE_ERROR_STACK_BUSY\000"
 4473      455F4552 
 4473      524F525F 
 4473      53544143 
 4473      4B5F4255 
 4474              	.LASF149:
 4475 0a29 61647654 		.ascii	"advType\000"
 4475      79706500 
 4476              	.LASF94:
 4477 0a31 4359424C 		.ascii	"CYBLE_ERROR_INSUFFICIENT_RESOURCES\000"
 4477      455F4552 
 4477      524F525F 
 4477      494E5355 
ARM GAS  C:\Users\alexport\AppData\Local\Temp\ccf6k4ea.s 			page 112


 4477      46464943 
 4478              	.LASF5:
 4479 0a54 6C6F6E67 		.ascii	"long unsigned int\000"
 4479      20756E73 
 4479      69676E65 
 4479      6420696E 
 4479      7400
 4480              	.LASF114:
 4481 0a66 4359424C 		.ascii	"CYBLE_ERROR_UNSUPPORTED_FEATURE_OR_PARAMETER_VALUE\000"
 4481      455F4552 
 4481      524F525F 
 4481      554E5355 
 4481      50504F52 
 4482              	.LASF190:
 4483 0a99 43595F42 		.ascii	"CY_BLE_FLASH_STORAGE\000"
 4483      4C455F46 
 4483      4C415348 
 4483      5F53544F 
 4483      52414745 
 4484              	.LASF135:
 4485 0aae 7265736F 		.ascii	"resolvingListSize\000"
 4485      6C76696E 
 4485      674C6973 
 4485      7453697A 
 4485      6500
 4486              	.LASF104:
 4487 0ac0 4359424C 		.ascii	"CYBLE_ERROR_L2CAP_PSM_ALREADY_REGISTERED\000"
 4487      455F4552 
 4487      524F525F 
 4487      4C324341 
 4487      505F5053 
 4488              	.LASF177:
 4489 0ae9 61747456 		.ascii	"attValueUuid\000"
 4489      616C7565 
 4489      55756964 
 4489      00
 4490              	.LASF193:
 4491 0af6 4359424C 		.ascii	"CYBLE_DIS_SERIAL_NUMBER\000"
 4491      455F4449 
 4491      535F5345 
 4491      5249414C 
 4491      5F4E554D 
 4492              	.LASF35:
 4493 0b0e 4359424C 		.ascii	"CYBLE_EVT_GAP_CONNECTION_UPDATE_COMPLETE\000"
 4493      455F4556 
 4493      545F4741 
 4493      505F434F 
 4493      4E4E4543 
 4494              	.LASF266:
 4495 0b37 6379426C 		.ascii	"cyBle_busyStatus\000"
 4495      655F6275 
 4495      73795374 
 4495      61747573 
 4495      00
 4496              	.LASF245:
 4497 0b48 4379426C 		.ascii	"CyBle_ChangeAdDeviceAddress\000"
 4497      655F4368 
ARM GAS  C:\Users\alexport\AppData\Local\Temp\ccf6k4ea.s 			page 113


 4497      616E6765 
 4497      41644465 
 4497      76696365 
 4498              	.LASF202:
 4499 0b64 4359424C 		.ascii	"CYBLE_STATE_INITIALIZING\000"
 4499      455F5354 
 4499      4154455F 
 4499      494E4954 
 4499      49414C49 
 4500              	.LASF79:
 4501 0b7d 4359424C 		.ascii	"CYBLE_EVT_L2CAP_CBFC_DISCONN_IND\000"
 4501      455F4556 
 4501      545F4C32 
 4501      4341505F 
 4501      43424643 
 4502              	.LASF222:
 4503 0b9e 4379426C 		.ascii	"CyBle_Stop\000"
 4503      655F5374 
 4503      6F7000
 4504              	.LASF27:
 4505 0ba9 4359424C 		.ascii	"CYBLE_EVT_GAP_PASSKEY_ENTRY_REQUEST\000"
 4505      455F4556 
 4505      545F4741 
 4505      505F5041 
 4505      53534B45 
 4506              	.LASF140:
 4507 0bcd 4359424C 		.ascii	"CYBLE_STACK_CONFIG_PARAM_T\000"
 4507      455F5354 
 4507      41434B5F 
 4507      434F4E46 
 4507      49475F50 
 4508              	.LASF131:
 4509 0be8 646C654D 		.ascii	"dleMaxTxCapability\000"
 4509      61785478 
 4509      43617061 
 4509      62696C69 
 4509      747900
 4510              	.LASF263:
 4511 0bfb 6379426C 		.ascii	"cyBle_flashStorage\000"
 4511      655F666C 
 4511      61736853 
 4511      746F7261 
 4511      676500
 4512              	.LASF6:
 4513 0c0e 6C6F6E67 		.ascii	"long long int\000"
 4513      206C6F6E 
 4513      6720696E 
 4513      7400
 4514              	.LASF199:
 4515 0c1c 4359424C 		.ascii	"CYBLE_DIS_PNP_ID\000"
 4515      455F4449 
 4515      535F504E 
 4515      505F4944 
 4515      00
 4516              	.LASF255:
 4517 0c2d 6379426C 		.ascii	"cyBle_discoveryParam\000"
 4517      655F6469 
ARM GAS  C:\Users\alexport\AppData\Local\Temp\ccf6k4ea.s 			page 114


 4517      73636F76 
 4517      65727950 
 4517      6172616D 
 4518              	.LASF163:
 4519 0c42 61647650 		.ascii	"advParam\000"
 4519      6172616D 
 4519      00
 4520              	.LASF105:
 4521 0c4b 4359424C 		.ascii	"CYBLE_ERROR_L2CAP_PSM_NOT_REGISTERED\000"
 4521      455F4552 
 4521      524F525F 
 4521      4C324341 
 4521      505F5053 
 4522              	.LASF95:
 4523 0c70 4359424C 		.ascii	"CYBLE_ERROR_OOB_NOT_AVAILABLE\000"
 4523      455F4552 
 4523      524F525F 
 4523      4F4F425F 
 4523      4E4F545F 
 4524              	.LASF13:
 4525 0c8e 646F7562 		.ascii	"double\000"
 4525      6C6500
 4526              	.LASF110:
 4527 0c95 4359424C 		.ascii	"CYBLE_ERROR_DEVICE_ALREADY_EXISTS\000"
 4527      455F4552 
 4527      524F525F 
 4527      44455649 
 4527      43455F41 
 4528              	.LASF85:
 4529 0cb7 4359424C 		.ascii	"CYBLE_EVT_PENDING_FLASH_WRITE\000"
 4529      455F4556 
 4529      545F5045 
 4529      4E44494E 
 4529      475F464C 
 4530              	.LASF268:
 4531 0cd5 6379426C 		.ascii	"cyBle_advertisingIntervalType\000"
 4531      655F6164 
 4531      76657274 
 4531      6973696E 
 4531      67496E74 
 4532              	.LASF208:
 4533 0cf3 64657669 		.ascii	"deviceNameCharHandle\000"
 4533      63654E61 
 4533      6D654368 
 4533      61724861 
 4533      6E646C65 
 4534              	.LASF151:
 4535 0d08 64697265 		.ascii	"directAddrType\000"
 4535      63744164 
 4535      64725479 
 4535      706500
 4536              	.LASF42:
 4537 0d17 4359424C 		.ascii	"CYBLE_EVT_GAP_ENHANCE_CONN_COMPLETE\000"
 4537      455F4556 
 4537      545F4741 
 4537      505F454E 
 4537      48414E43 
ARM GAS  C:\Users\alexport\AppData\Local\Temp\ccf6k4ea.s 			page 115


 4538              	.LASF107:
 4539 0d3b 4359424C 		.ascii	"CYBLE_ERROR_L2CAP_CHANNEL_NOT_FOUND\000"
 4539      455F4552 
 4539      524F525F 
 4539      4C324341 
 4539      505F4348 
 4540              	.LASF136:
 4541 0d5f 4359424C 		.ascii	"CYBLE_PRIVACY_1_2_CONFIG_PARAM_T\000"
 4541      455F5052 
 4541      49564143 
 4541      595F315F 
 4541      325F434F 
 4542              	.LASF261:
 4543 0d80 6379426C 		.ascii	"cyBle_gattDB\000"
 4543      655F6761 
 4543      74744442 
 4543      00
 4544              	.LASF98:
 4545 0d8d 4359424C 		.ascii	"CYBLE_ERROR_REPEATED_ATTEMPTS\000"
 4545      455F4552 
 4545      524F525F 
 4545      52455045 
 4545      41544544 
 4546              	.LASF12:
 4547 0dab 666C6F61 		.ascii	"float\000"
 4547      7400
 4548              	.LASF111:
 4549 0db1 4359424C 		.ascii	"CYBLE_ERROR_FLASH_WRITE_NOT_PERMITED\000"
 4549      455F4552 
 4549      524F525F 
 4549      464C4153 
 4549      485F5752 
 4550              	.LASF72:
 4551 0dd6 4359424C 		.ascii	"CYBLE_EVT_GATTS_READ_CHAR_VAL_ACCESS_REQ\000"
 4551      455F4556 
 4551      545F4741 
 4551      5454535F 
 4551      52454144 
 4552              	.LASF227:
 4553 0dff 64656661 		.ascii	"defaultValuesCCCD\000"
 4553      756C7456 
 4553      616C7565 
 4553      73434343 
 4553      4400
 4554              	.LASF133:
 4555 0e11 646C654E 		.ascii	"dleNumTxBuffer\000"
 4555      756D5478 
 4555      42756666 
 4555      657200
 4556              	.LASF8:
 4557 0e20 756E7369 		.ascii	"unsigned int\000"
 4557      676E6564 
 4557      20696E74 
 4557      00
 4558              	.LASF139:
 4559 0e2d 66656174 		.ascii	"feature_mask\000"
 4559      7572655F 
ARM GAS  C:\Users\alexport\AppData\Local\Temp\ccf6k4ea.s 			page 116


 4559      6D61736B 
 4559      00
 4560              	.LASF64:
 4561 0e3a 4359424C 		.ascii	"CYBLE_EVT_GATTS_PREP_WRITE_REQ\000"
 4561      455F4556 
 4561      545F4741 
 4561      5454535F 
 4561      50524550 
 4562              	.LASF182:
 4563 0e59 61747445 		.ascii	"attEndHandle\000"
 4563      6E644861 
 4563      6E646C65 
 4563      00
 4564              	.LASF198:
 4565 0e66 4359424C 		.ascii	"CYBLE_DIS_REG_CERT_DATA\000"
 4565      455F4449 
 4565      535F5245 
 4565      475F4345 
 4565      52545F44 
 4566              	.LASF237:
 4567 0e7e 666C6167 		.ascii	"flag\000"
 4567      00
 4568              	.LASF246:
 4569 0e83 4379426C 		.ascii	"CyBle_Set16ByPtr\000"
 4569      655F5365 
 4569      74313642 
 4569      79507472 
 4569      00
 4570              	.LASF103:
 4571 0e94 4359424C 		.ascii	"CYBLE_ERROR_L2CAP_PSM_WRONG_ENCODING\000"
 4571      455F4552 
 4571      524F525F 
 4571      4C324341 
 4571      505F5053 
 4572              	.LASF242:
 4573 0eb9 63686172 		.ascii	"charLen\000"
 4573      4C656E00 
 4574              	.LASF89:
 4575 0ec1 4359424C 		.ascii	"CYBLE_EVT_MAX\000"
 4575      455F4556 
 4575      545F4D41 
 4575      5800
 4576              	.LASF36:
 4577 0ecf 4359424C 		.ascii	"CYBLE_EVT_GAPC_SCAN_START_STOP\000"
 4577      455F4556 
 4577      545F4741 
 4577      50435F53 
 4577      43414E5F 
 4578              	.LASF146:
 4579 0eee 4359424C 		.ascii	"CYBLE_GAPP_ADV_T\000"
 4579      455F4741 
 4579      50505F41 
 4579      44565F54 
 4579      00
 4580              	.LASF61:
 4581 0eff 4359424C 		.ascii	"CYBLE_EVT_GATTS_WRITE_REQ\000"
 4581      455F4556 
ARM GAS  C:\Users\alexport\AppData\Local\Temp\ccf6k4ea.s 			page 117


 4581      545F4741 
 4581      5454535F 
 4581      57524954 
 4582              	.LASF156:
 4583 0f19 61647644 		.ascii	"advData\000"
 4583      61746100 
 4584              	.LASF70:
 4585 0f21 4359424C 		.ascii	"CYBLE_EVT_GATTS_DATA_SIGNED_CMD_REQ\000"
 4585      455F4556 
 4585      545F4741 
 4585      5454535F 
 4585      44415441 
 4586              	.LASF257:
 4587 0f45 6379426C 		.ascii	"cyBle_scanRspData\000"
 4587      655F7363 
 4587      616E5273 
 4587      70446174 
 4587      6100
 4588              	.LASF210:
 4589 0f57 70726566 		.ascii	"prefConnParamCharHandle\000"
 4589      436F6E6E 
 4589      50617261 
 4589      6D436861 
 4589      7248616E 
 4590              	.LASF28:
 4591 0f6f 4359424C 		.ascii	"CYBLE_EVT_GAP_PASSKEY_DISPLAY_REQUEST\000"
 4591      455F4556 
 4591      545F4741 
 4591      505F5041 
 4591      53534B45 
 4592              	.LASF120:
 4593 0f95 4359424C 		.ascii	"CYBLE_ERROR_IND_DISABLED\000"
 4593      455F4552 
 4593      524F525F 
 4593      494E445F 
 4593      44495341 
 4594              	.LASF119:
 4595 0fae 4359424C 		.ascii	"CYBLE_ERROR_NTF_DISABLED\000"
 4595      455F4552 
 4595      524F525F 
 4595      4E54465F 
 4595      44495341 
 4596              	.LASF58:
 4597 0fc7 4359424C 		.ascii	"CYBLE_EVT_GATTC_READ_RSP\000"
 4597      455F4556 
 4597      545F4741 
 4597      5454435F 
 4597      52454144 
 4598              	.LASF142:
 4599 0fe0 4359424C 		.ascii	"CYBLE_GAPP_CONNECTABLE_HIGH_DC_DIRECTED_ADV\000"
 4599      455F4741 
 4599      50505F43 
 4599      4F4E4E45 
 4599      43544142 
 4600              	.LASF78:
 4601 100c 4359424C 		.ascii	"CYBLE_EVT_L2CAP_CBFC_CONN_CNF\000"
 4601      455F4556 
ARM GAS  C:\Users\alexport\AppData\Local\Temp\ccf6k4ea.s 			page 118


 4601      545F4C32 
 4601      4341505F 
 4601      43424643 
 4602              	.LASF219:
 4603 102a 70726976 		.ascii	"privacyConfigParams\000"
 4603      61637943 
 4603      6F6E6669 
 4603      67506172 
 4603      616D7300 
 4604              	.LASF172:
 4605 103e 4359424C 		.ascii	"CYBLE_GATTS_ATT_GEN_VAL_LEN_T\000"
 4605      455F4741 
 4605      5454535F 
 4605      4154545F 
 4605      47454E5F 
 4606              	.LASF88:
 4607 105c 4359424C 		.ascii	"CYBLE_EVT_FLASH_CORRUPT\000"
 4607      455F4556 
 4607      545F464C 
 4607      4153485F 
 4607      434F5252 
 4608              	.LASF16:
 4609 1074 6C6F6E67 		.ascii	"long double\000"
 4609      20646F75 
 4609      626C6500 
 4610              	.LASF128:
 4611 1080 62756666 		.ascii	"bufferSize\000"
 4611      65725369 
 4611      7A6500
 4612              	.LASF24:
 4613 108b 4359424C 		.ascii	"CYBLE_EVT_MEMORY_REQUEST\000"
 4613      455F4556 
 4613      545F4D45 
 4613      4D4F5259 
 4613      5F524551 
 4614              	.LASF244:
 4615 10a4 4379426C 		.ascii	"CyBle_Get16ByPtr\000"
 4615      655F4765 
 4615      74313642 
 4615      79507472 
 4615      00
 4616              	.LASF209:
 4617 10b5 61707065 		.ascii	"appearanceCharHandle\000"
 4617      6172616E 
 4617      63654368 
 4617      61724861 
 4617      6E646C65 
 4618              	.LASF34:
 4619 10ca 4359424C 		.ascii	"CYBLE_EVT_GAP_ENCRYPT_CHANGE\000"
 4619      455F4556 
 4619      545F4741 
 4619      505F454E 
 4619      43525950 
 4620              	.LASF52:
 4621 10e7 4359424C 		.ascii	"CYBLE_EVT_GATTS_XCNHG_MTU_REQ\000"
 4621      455F4556 
 4621      545F4741 
ARM GAS  C:\Users\alexport\AppData\Local\Temp\ccf6k4ea.s 			page 119


 4621      5454535F 
 4621      58434E48 
 4622              	.LASF48:
 4623 1105 4359424C 		.ascii	"CYBLE_EVT_GAP_SMP_LOC_P256_KEYS_GEN_AND_SET_COMPLET"
 4623      455F4556 
 4623      545F4741 
 4623      505F534D 
 4623      505F4C4F 
 4624 1138 4500     		.ascii	"E\000"
 4625              	.LASF270:
 4626 113a 47656E65 		.ascii	"Generated_Source\\PSoC4\\blue_1.c\000"
 4626      72617465 
 4626      645F536F 
 4626      75726365 
 4626      5C50536F 
 4627              	.LASF191:
 4628 115a 4359424C 		.ascii	"CYBLE_DIS_MANUFACTURER_NAME\000"
 4628      455F4449 
 4628      535F4D41 
 4628      4E554641 
 4628      43545552 
 4629              	.LASF7:
 4630 1176 6C6F6E67 		.ascii	"long long unsigned int\000"
 4630      206C6F6E 
 4630      6720756E 
 4630      7369676E 
 4630      65642069 
 4631              	.LASF20:
 4632 118d 4359424C 		.ascii	"CYBLE_EVT_TIMEOUT\000"
 4632      455F4556 
 4632      545F5449 
 4632      4D454F55 
 4632      5400
 4633              	.LASF226:
 4634 119f 6973466F 		.ascii	"isForceWrite\000"
 4634      72636557 
 4634      72697465 
 4634      00
 4635              	.LASF122:
 4636 11ac 4359424C 		.ascii	"CYBLE_ERROR_INVALID_STATE\000"
 4636      455F4552 
 4636      524F525F 
 4636      494E5641 
 4636      4C49445F 
 4637              	.LASF166:
 4638 11c6 4359424C 		.ascii	"CYBLE_GATT_DB_ATTR_HANDLE_T\000"
 4638      455F4741 
 4638      54545F44 
 4638      425F4154 
 4638      54525F48 
 4639              	.LASF81:
 4640 11e2 4359424C 		.ascii	"CYBLE_EVT_L2CAP_CBFC_DATA_READ\000"
 4640      455F4556 
 4640      545F4C32 
 4640      4341505F 
 4640      43424643 
 4641              	.LASF247:
ARM GAS  C:\Users\alexport\AppData\Local\Temp\ccf6k4ea.s 			page 120


 4642 1201 76616C75 		.ascii	"value\000"
 4642      6500
 4643              	.LASF183:
 4644 1207 61747456 		.ascii	"attValue\000"
 4644      616C7565 
 4644      00
 4645              	.LASF249:
 4646 1210 4379426C 		.ascii	"CyBle_ApplCallback\000"
 4646      655F4170 
 4646      706C4361 
 4646      6C6C6261 
 4646      636B00
 4647              	.LASF115:
 4648 1223 4359424C 		.ascii	"CYBLE_ERROR_FLASH_WRITE\000"
 4648      455F4552 
 4648      524F525F 
 4648      464C4153 
 4648      485F5752 
 4649              	.LASF213:
 4650 123b 4359424C 		.ascii	"CYBLE_GAPS_T\000"
 4650      455F4741 
 4650      50535F54 
 4650      00
 4651              	.LASF127:
 4652 1248 4359424C 		.ascii	"CYBLE_GAP_BD_ADDR_T\000"
 4652      455F4741 
 4652      505F4244 
 4652      5F414444 
 4652      525F5400 
 4653              	.LASF138:
 4654 125c 70726976 		.ascii	"privacyConfig\000"
 4654      61637943 
 4654      6F6E6669 
 4654      6700
 4655              	.LASF170:
 4656 126a 61637475 		.ascii	"actualLength\000"
 4656      616C4C65 
 4656      6E677468 
 4656      00
 4657              	.LASF157:
 4658 1277 61647644 		.ascii	"advDataLen\000"
 4658      6174614C 
 4658      656E00
 4659              	.LASF234:
 4660 1282 64657374 		.ascii	"dest\000"
 4660      00
 4661              	.LASF165:
 4662 1287 4359424C 		.ascii	"CYBLE_GAPP_DISC_MODE_INFO_T\000"
 4662      455F4741 
 4662      50505F44 
 4662      4953435F 
 4662      4D4F4445 
 4663              	.LASF259:
 4664 12a3 6379426C 		.ascii	"cyBle_pendingFlashWrite\000"
 4664      655F7065 
 4664      6E64696E 
 4664      67466C61 
ARM GAS  C:\Users\alexport\AppData\Local\Temp\ccf6k4ea.s 			page 121


 4664      73685772 
 4665              	.LASF56:
 4666 12bb 4359424C 		.ascii	"CYBLE_EVT_GATTC_FIND_INFO_RSP\000"
 4666      455F4556 
 4666      545F4741 
 4666      5454435F 
 4666      46494E44 
 4667              	.LASF55:
 4668 12d9 4359424C 		.ascii	"CYBLE_EVT_GATTC_READ_BY_TYPE_RSP\000"
 4668      455F4556 
 4668      545F4741 
 4668      5454435F 
 4668      52454144 
 4669              	.LASF223:
 4670 12fa 4379426C 		.ascii	"CyBle_Start\000"
 4670      655F5374 
 4670      61727400 
 4671              	.LASF264:
 4672 1306 6379426C 		.ascii	"cyBle_state\000"
 4672      655F7374 
 4672      61746500 
 4673              	.LASF218:
 4674 1312 646C6543 		.ascii	"dleConfigParams\000"
 4674      6F6E6669 
 4674      67506172 
 4674      616D7300 
 4675              	.LASF116:
 4676 1322 4359424C 		.ascii	"CYBLE_ERROR_LL_SAME_TRANSACTION_COLLISION\000"
 4676      455F4552 
 4676      524F525F 
 4676      4C4C5F53 
 4676      414D455F 
 4677              	.LASF62:
 4678 134c 4359424C 		.ascii	"CYBLE_EVT_GATTC_WRITE_RSP\000"
 4678      455F4556 
 4678      545F4741 
 4678      5454435F 
 4678      57524954 
 4679              	.LASF205:
 4680 1366 4359424C 		.ascii	"CYBLE_STATE_DISCONNECTED\000"
 4680      455F5354 
 4680      4154455F 
 4680      44495343 
 4680      4F4E4E45 
 4681              	.LASF178:
 4682 137f 4359424C 		.ascii	"CYBLE_GATTS_ATT_VALUE_T\000"
 4682      455F4741 
 4682      5454535F 
 4682      4154545F 
 4682      56414C55 
 4683              	.LASF175:
 4684 1397 4359424C 		.ascii	"CYBLE_GATTS_ATT_PACK_VAL_LEN_T\000"
 4684      455F4741 
 4684      5454535F 
 4684      4154545F 
 4684      5041434B 
 4685              	.LASF31:
ARM GAS  C:\Users\alexport\AppData\Local\Temp\ccf6k4ea.s 			page 122


 4686 13b6 4359424C 		.ascii	"CYBLE_EVT_GAPP_ADVERTISEMENT_START_STOP\000"
 4686      455F4556 
 4686      545F4741 
 4686      50505F41 
 4686      44564552 
 4687              	.LASF161:
 4688 13de 4359424C 		.ascii	"CYBLE_GAPP_SCAN_RSP_DATA_T\000"
 4688      455F4741 
 4688      50505F53 
 4688      43414E5F 
 4688      5253505F 
 4689              	.LASF171:
 4690 13f9 61747447 		.ascii	"attGenericVal\000"
 4690      656E6572 
 4690      69635661 
 4690      6C00
 4691              	.LASF236:
 4692 1407 6E616D65 		.ascii	"name\000"
 4692      00
 4693              	.LASF9:
 4694 140c 75696E74 		.ascii	"uint8\000"
 4694      3800
 4695              	.LASF250:
 4696 1412 6379426C 		.ascii	"cyBle_initVar\000"
 4696      655F696E 
 4696      69745661 
 4696      7200
 4697              	.LASF39:
 4698 1420 4359424C 		.ascii	"CYBLE_EVT_GAP_KEYPRESS_NOTIFICATION\000"
 4698      455F4556 
 4698      545F4741 
 4698      505F4B45 
 4698      59505245 
 4699              	.LASF265:
 4700 1444 6379426C 		.ascii	"cyBle_connHandle\000"
 4700      655F636F 
 4700      6E6E4861 
 4700      6E646C65 
 4700      00
 4701              	.LASF2:
 4702 1455 73686F72 		.ascii	"short int\000"
 4702      7420696E 
 4702      7400
 4703              	.LASF241:
 4704 145f 4379426C 		.ascii	"CyBle_GapSetLocalName\000"
 4704      655F4761 
 4704      70536574 
 4704      4C6F6361 
 4704      6C4E616D 
 4705              	.LASF174:
 4706 1475 61747447 		.ascii	"attGenericValLen\000"
 4706      656E6572 
 4706      69635661 
 4706      6C4C656E 
 4706      00
 4707              	.LASF176:
 4708 1486 61747446 		.ascii	"attFormatValue\000"
ARM GAS  C:\Users\alexport\AppData\Local\Temp\ccf6k4ea.s 			page 123


 4708      6F726D61 
 4708      7456616C 
 4708      756500
 4709              	.LASF160:
 4710 1495 7363616E 		.ascii	"scanRspDataLen\000"
 4710      52737044 
 4710      6174614C 
 4710      656E00
 4711              	.LASF113:
 4712 14a4 4359424C 		.ascii	"CYBLE_ERROR_HARDWARE_FAILURE\000"
 4712      455F4552 
 4712      524F525F 
 4712      48415244 
 4712      57415245 
 4713              	.LASF49:
 4714 14c1 4359424C 		.ascii	"CYBLE_EVT_GATTC_ERROR_RSP\000"
 4714      455F4556 
 4714      545F4741 
 4714      5454435F 
 4714      4552524F 
 4715              	.LASF206:
 4716 14db 4359424C 		.ascii	"CYBLE_STATE_T\000"
 4716      455F5354 
 4716      4154455F 
 4716      5400
 4717              	.LASF143:
 4718 14e9 4359424C 		.ascii	"CYBLE_GAPP_SCANNABLE_UNDIRECTED_ADV\000"
 4718      455F4741 
 4718      50505F53 
 4718      43414E4E 
 4718      41424C45 
 4719              	.LASF77:
 4720 150d 4359424C 		.ascii	"CYBLE_EVT_L2CAP_CBFC_CONN_IND\000"
 4720      455F4556 
 4720      545F4C32 
 4720      4341505F 
 4720      43424643 
 4721              	.LASF65:
 4722 152b 4359424C 		.ascii	"CYBLE_EVT_GATTS_EXEC_WRITE_REQ\000"
 4722      455F4556 
 4722      545F4741 
 4722      5454535F 
 4722      45584543 
 4723              	.LASF25:
 4724 154a 4359424C 		.ascii	"CYBLE_EVT_GAPC_SCAN_PROGRESS_RESULT\000"
 4724      455F4556 
 4724      545F4741 
 4724      50435F53 
 4724      43414E5F 
 4725              	.LASF188:
 4726 156e 63636364 		.ascii	"cccdCount\000"
 4726      436F756E 
 4726      7400
 4727              	.LASF258:
 4728 1578 6379426C 		.ascii	"cyBle_discoveryModeInfo\000"
 4728      655F6469 
 4728      73636F76 
ARM GAS  C:\Users\alexport\AppData\Local\Temp\ccf6k4ea.s 			page 124


 4728      6572794D 
 4728      6F646549 
 4729              	.LASF99:
 4730 1590 4359424C 		.ascii	"CYBLE_ERROR_GAP_ROLE\000"
 4730      455F4552 
 4730      524F525F 
 4730      4741505F 
 4730      524F4C45 
 4731              	.LASF251:
 4732 15a5 6379426C 		.ascii	"cyBle_stackMemoryRam\000"
 4732      655F7374 
 4732      61636B4D 
 4732      656D6F72 
 4732      7952616D 
 4733              	.LASF46:
 4734 15ba 4359424C 		.ascii	"CYBLE_EVT_GAP_SCAN_REQ_RECVD\000"
 4734      455F4556 
 4734      545F4741 
 4734      505F5343 
 4734      414E5F52 
 4735              	.LASF211:
 4736 15d7 63656E74 		.ascii	"centralAddrResolutionCharHandle\000"
 4736      72616C41 
 4736      64647252 
 4736      65736F6C 
 4736      7574696F 
 4737              	.LASF125:
 4738 15f7 62644164 		.ascii	"bdAddr\000"
 4738      647200
 4739              	.LASF267:
 4740 15fe 6379426C 		.ascii	"cyBle_gaps\000"
 4740      655F6761 
 4740      707300
 4741              	.LASF252:
 4742 1609 6379426C 		.ascii	"cyBle_eventHandlerFlag\000"
 4742      655F6576 
 4742      656E7448 
 4742      616E646C 
 4742      6572466C 
 4743              	.LASF224:
 4744 1620 4379426C 		.ascii	"CyBle_StoreBondingData\000"
 4744      655F5374 
 4744      6F726542 
 4744      6F6E6469 
 4744      6E674461 
 4745              	.LASF96:
 4746 1637 4359424C 		.ascii	"CYBLE_ERROR_NO_CONNECTION\000"
 4746      455F4552 
 4746      524F525F 
 4746      4E4F5F43 
 4746      4F4E4E45 
 4747              	.LASF239:
 4748 1651 62797465 		.ascii	"byteCounter\000"
 4748      436F756E 
 4748      74657200 
 4749              	.LASF86:
 4750 165d 4359424C 		.ascii	"CYBLE_EVT_LE_PING_AUTH_TIMEOUT\000"
ARM GAS  C:\Users\alexport\AppData\Local\Temp\ccf6k4ea.s 			page 125


 4750      455F4556 
 4750      545F4C45 
 4750      5F50494E 
 4750      475F4155 
 4751              	.LASF124:
 4752 167c 4359424C 		.ascii	"CYBLE_API_RESULT_T\000"
 4752      455F4150 
 4752      495F5245 
 4752      53554C54 
 4752      5F5400
 4753              	.LASF262:
 4754 168f 6379426C 		.ascii	"cyBle_attValuesCCCD\000"
 4754      655F6174 
 4754      7456616C 
 4754      75657343 
 4754      43434400 
 4755              	.LASF68:
 4756 16a3 4359424C 		.ascii	"CYBLE_EVT_GATTC_HANDLE_VALUE_IND\000"
 4756      455F4556 
 4756      545F4741 
 4756      5454435F 
 4756      48414E44 
 4757              	.LASF102:
 4758 16c4 4359424C 		.ascii	"CYBLE_ERROR_SEC_FAILED\000"
 4758      455F4552 
 4758      524F525F 
 4758      5345435F 
 4758      4641494C 
 4759              	.LASF230:
 4760 16db 696E7661 		.ascii	"invalidBdAddr\000"
 4760      6C696442 
 4760      64416464 
 4760      7200
 4761              	.LASF23:
 4762 16e9 4359424C 		.ascii	"CYBLE_EVT_STACK_BUSY_STATUS\000"
 4762      455F4556 
 4762      545F5354 
 4762      41434B5F 
 4762      42555359 
 4763              	.LASF37:
 4764 1705 4359424C 		.ascii	"CYBLE_EVT_GAP_KEYINFO_EXCHNGE_CMPLT\000"
 4764      455F4556 
 4764      545F4741 
 4764      505F4B45 
 4764      59494E46 
 4765              	.LASF74:
 4766 1729 4359424C 		.ascii	"CYBLE_EVT_L2CAP_CONN_PARAM_UPDATE_REQ\000"
 4766      455F4556 
 4766      545F4C32 
 4766      4341505F 
 4766      434F4E4E 
 4767              	.LASF256:
 4768 174f 6379426C 		.ascii	"cyBle_discoveryData\000"
 4768      655F6469 
 4768      73636F76 
 4768      65727944 
 4768      61746100 
ARM GAS  C:\Users\alexport\AppData\Local\Temp\ccf6k4ea.s 			page 126


 4769              	.LASF207:
 4770 1763 67617053 		.ascii	"gapServiceCharHandle\000"
 4770      65727669 
 4770      63654368 
 4770      61724861 
 4770      6E646C65 
 4771              	.LASF3:
 4772 1778 73686F72 		.ascii	"short unsigned int\000"
 4772      7420756E 
 4772      7369676E 
 4772      65642069 
 4772      6E7400
 4773              	.LASF152:
 4774 178b 64697265 		.ascii	"directAddr\000"
 4774      63744164 
 4774      647200
 4775              	.LASF203:
 4776 1796 4359424C 		.ascii	"CYBLE_STATE_CONNECTED\000"
 4776      455F5354 
 4776      4154455F 
 4776      434F4E4E 
 4776      45435445 
 4777              	.LASF132:
 4778 17ac 646C654D 		.ascii	"dleMaxRxCapability\000"
 4778      61785278 
 4778      43617061 
 4778      62696C69 
 4778      747900
 4779              	.LASF153:
 4780 17bf 61647643 		.ascii	"advChannelMap\000"
 4780      68616E6E 
 4780      656C4D61 
 4780      7000
 4781              	.LASF141:
 4782 17cd 4359424C 		.ascii	"CYBLE_GAPP_CONNECTABLE_UNDIRECTED_ADV\000"
 4782      455F4741 
 4782      50505F43 
 4782      4F4E4E45 
 4782      43544142 
 4783              	.LASF168:
 4784 17f3 61747449 		.ascii	"attId\000"
 4784      6400
 4785              	.LASF92:
 4786 17f9 4359424C 		.ascii	"CYBLE_ERROR_INVALID_OPERATION\000"
 4786      455F4552 
 4786      524F525F 
 4786      494E5641 
 4786      4C49445F 
 4787              	.LASF238:
 4788 1817 61644C65 		.ascii	"adLength\000"
 4788      6E677468 
 4788      00
 4789              	.LASF22:
 4790 1820 4359424C 		.ascii	"CYBLE_EVT_HCI_STATUS\000"
 4790      455F4556 
 4790      545F4843 
 4790      495F5354 
ARM GAS  C:\Users\alexport\AppData\Local\Temp\ccf6k4ea.s 			page 127


 4790      41545553 
 4791              	.LASF51:
 4792 1835 4359424C 		.ascii	"CYBLE_EVT_GATT_DISCONNECT_IND\000"
 4792      455F4556 
 4792      545F4741 
 4792      54545F44 
 4792      4953434F 
 4793              	.LASF84:
 4794 1853 4359424C 		.ascii	"CYBLE_EVT_L2CAP_CBFC_DATA_WRITE_IND\000"
 4794      455F4556 
 4794      545F4C32 
 4794      4341505F 
 4794      43424643 
 4795              	.LASF73:
 4796 1877 4359424C 		.ascii	"CYBLE_EVT_GATTC_LONG_PROCEDURE_END\000"
 4796      455F4556 
 4796      545F4741 
 4796      5454435F 
 4796      4C4F4E47 
 4797              	.LASF33:
 4798 189a 4359424C 		.ascii	"CYBLE_EVT_GAP_DEVICE_DISCONNECTED\000"
 4798      455F4556 
 4798      545F4741 
 4798      505F4445 
 4798      56494345 
 4799              	.LASF69:
 4800 18bc 4359424C 		.ascii	"CYBLE_EVT_GATTS_HANDLE_VALUE_CNF\000"
 4800      455F4556 
 4800      545F4741 
 4800      5454535F 
 4800      48414E44 
 4801              	.LASF10:
 4802 18dd 75696E74 		.ascii	"uint16\000"
 4802      313600
 4803              	.LASF150:
 4804 18e4 6F776E41 		.ascii	"ownAddrType\000"
 4804      64647254 
 4804      79706500 
 4805              	.LASF100:
 4806 18f0 4359424C 		.ascii	"CYBLE_ERROR_TX_POWER_READ\000"
 4806      455F4552 
 4806      524F525F 
 4806      54585F50 
 4806      4F574552 
 4807              	.LASF148:
 4808 190a 61647649 		.ascii	"advIntvMax\000"
 4808      6E74764D 
 4808      617800
 4809              		.ident	"GCC: (GNU Tools for ARM Embedded Processors) 5.4.1 20160609 (release) [ARM/embedded-5-bran
