ARM GAS  C:\Users\alexport\AppData\Local\Temp\ccf6k4ea.s 			page 1


   1              		.syntax unified
   2              		.cpu cortex-m0
   3              		.fpu softvfp
   4              		.eabi_attribute 20, 1
   5              		.eabi_attribute 21, 1
   6              		.eabi_attribute 23, 3
   7              		.eabi_attribute 24, 1
   8              		.eabi_attribute 25, 1
   9              		.eabi_attribute 26, 1
  10              		.eabi_attribute 30, 6
  11              		.eabi_attribute 34, 0
  12              		.eabi_attribute 18, 4
  13              		.thumb
  14              		.syntax unified
  15              		.file	"blue_1.c"
  16              		.text
  17              	.Ltext0:
  18              		.cfi_sections	.debug_frame
  19              		.global	cyBle_initVar
  20              		.bss
  21              		.type	cyBle_initVar, %object
  22              		.size	cyBle_initVar, 1
  23              	cyBle_initVar:
  24 0000 00       		.space	1
  25              		.global	cyBle_stackMemoryRam
  26              		.section	.noinit,"aw",%progbits
  27              		.align	3
  28              		.type	cyBle_stackMemoryRam, %object
  29              		.size	cyBle_stackMemoryRam, 2840
  30              	cyBle_stackMemoryRam:
  31 0000 00000000 		.space	2840
  31      00000000 
  31      00000000 
  31      00000000 
  31      00000000 
  32              		.global	cyBle_discoveryParam
  33              		.data
  34              		.align	2
  35              		.type	cyBle_discoveryParam, %object
  36              		.size	cyBle_discoveryParam, 16
  37              	cyBle_discoveryParam:
  38 0000 2000     		.short	32
  39 0002 3000     		.short	48
  40 0004 00       		.byte	0
  41 0005 00       		.byte	0
  42 0006 00       		.byte	0
  43 0007 00       		.byte	0
  44 0008 00       		.byte	0
  45 0009 00       		.byte	0
  46 000a 50       		.byte	80
  47 000b A0       		.byte	-96
  48 000c 00       		.byte	0
  49 000d 07       		.byte	7
  50 000e 00       		.byte	0
  51 000f 00       		.space	1
  52              		.global	cyBle_discoveryData
  53              		.align	2
ARM GAS  C:\Users\alexport\AppData\Local\Temp\ccf6k4ea.s 			page 2


  54              		.type	cyBle_discoveryData, %object
  55              		.size	cyBle_discoveryData, 32
  56              	cyBle_discoveryData:
  57 0010 02       		.byte	2
  58 0011 01       		.byte	1
  59 0012 06       		.byte	6
  60 0013 16       		.byte	22
  61 0014 09       		.byte	9
  62 0015 4C       		.byte	76
  63 0016 41       		.byte	65
  64 0017 4E       		.byte	78
  65 0018 43       		.byte	67
  66 0019 45       		.byte	69
  67 001a 20       		.byte	32
  68 001b 54       		.byte	84
  69 001c 4F       		.byte	79
  70 001d 55       		.byte	85
  71 001e 50       		.byte	80
  72 001f 53       		.byte	83
  73 0020 20       		.byte	32
  74 0021 32       		.byte	50
  75 0022 33       		.byte	51
  76 0023 34       		.byte	52
  77 0024 35       		.byte	53
  78 0025 36       		.byte	54
  79 0026 37       		.byte	55
  80 0027 38       		.byte	56
  81 0028 39       		.byte	57
  82 0029 30       		.byte	48
  83 002a 03       		.byte	3
  84 002b 02       		.byte	2
  85 002c 2C       		.byte	44
  86 002d B8       		.byte	-72
  87 002e 00       		.byte	0
  88 002f 1E       		.byte	30
  89              		.global	cyBle_scanRspData
  90              		.bss
  91 0001 000000   		.align	2
  92              		.type	cyBle_scanRspData, %object
  93              		.size	cyBle_scanRspData, 32
  94              	cyBle_scanRspData:
  95 0004 00000000 		.space	32
  95      00000000 
  95      00000000 
  95      00000000 
  95      00000000 
  96              		.global	cyBle_discoveryModeInfo
  97              		.data
  98              		.align	2
  99              		.type	cyBle_discoveryModeInfo, %object
 100              		.size	cyBle_discoveryModeInfo, 20
 101              	cyBle_discoveryModeInfo:
 102 0030 02       		.byte	2
 103 0031 000000   		.space	3
 104 0034 00000000 		.word	cyBle_discoveryParam
 105 0038 00000000 		.word	cyBle_discoveryData
 106 003c 00000000 		.word	cyBle_scanRspData
ARM GAS  C:\Users\alexport\AppData\Local\Temp\ccf6k4ea.s 			page 3


 107 0040 0000     		.short	0
 108 0042 0000     		.space	2
 109              		.comm	cyBle_peerBonding,1,1
 110              		.comm	cyBle_pendingFlashWrite,1,1
 111              		.bss
 112              	cyBle_pendingFlashClearCccdHandle:
 113 0024 00       		.space	1
 114              		.comm	CyBle_ApplCallback,4,4
 115              		.global	cyBle_deviceAddress
 116              		.data
 117              		.align	2
 118              		.type	cyBle_deviceAddress, %object
 119              		.size	cyBle_deviceAddress, 7
 120              	cyBle_deviceAddress:
 121 0044 00       		.byte	0
 122 0045 00       		.byte	0
 123 0046 00       		.byte	0
 124 0047 50       		.byte	80
 125 0048 A0       		.byte	-96
 126 0049 00       		.byte	0
 127 004a 00       		.byte	0
 128              		.global	cyBle_sflashDeviceAddress
 129 004b 00       		.align	2
 130              		.type	cyBle_sflashDeviceAddress, %object
 131              		.size	cyBle_sflashDeviceAddress, 4
 132              	cyBle_sflashDeviceAddress:
 133 004c 00F4FF0F 		.word	268432384
 134              		.section	.text.CyBle_Init,"ax",%progbits
 135              		.align	2
 136              		.global	CyBle_Init
 137              		.code	16
 138              		.thumb_func
 139              		.type	CyBle_Init, %function
 140              	CyBle_Init:
 141              	.LFB2:
 142              		.file 1 "Generated_Source\\PSoC4\\blue_1.c"
   1:Generated_Source\PSoC4/blue_1.c **** /***************************************************************************//**
   2:Generated_Source\PSoC4/blue_1.c **** * \file CYBLE.c
   3:Generated_Source\PSoC4/blue_1.c **** * \version 3.40
   4:Generated_Source\PSoC4/blue_1.c **** * 
   5:Generated_Source\PSoC4/blue_1.c **** * \brief
   6:Generated_Source\PSoC4/blue_1.c **** *  This file contains the source code for the Common APIs of the BLE Component.
   7:Generated_Source\PSoC4/blue_1.c **** * 
   8:Generated_Source\PSoC4/blue_1.c **** ********************************************************************************
   9:Generated_Source\PSoC4/blue_1.c **** * \copyright
  10:Generated_Source\PSoC4/blue_1.c **** * Copyright 2014-2016, Cypress Semiconductor Corporation.  All rights reserved.
  11:Generated_Source\PSoC4/blue_1.c **** * You may use this file only in accordance with the license, terms, conditions,
  12:Generated_Source\PSoC4/blue_1.c **** * disclaimers, and limitations in the end user license agreement accompanying
  13:Generated_Source\PSoC4/blue_1.c **** * the software package with which this file was provided.
  14:Generated_Source\PSoC4/blue_1.c **** *******************************************************************************/
  15:Generated_Source\PSoC4/blue_1.c **** 
  16:Generated_Source\PSoC4/blue_1.c **** #include "blue_1_eventHandler.h"
  17:Generated_Source\PSoC4/blue_1.c **** #include "blue_1_HAL_PVT.h"
  18:Generated_Source\PSoC4/blue_1.c **** #include <stdlib.h>
  19:Generated_Source\PSoC4/blue_1.c **** 
  20:Generated_Source\PSoC4/blue_1.c **** 
  21:Generated_Source\PSoC4/blue_1.c **** /***************************************
ARM GAS  C:\Users\alexport\AppData\Local\Temp\ccf6k4ea.s 			page 4


  22:Generated_Source\PSoC4/blue_1.c **** * Function Prototypes
  23:Generated_Source\PSoC4/blue_1.c **** ***************************************/
  24:Generated_Source\PSoC4/blue_1.c **** 
  25:Generated_Source\PSoC4/blue_1.c **** #if(CYBLE_GATT_ROLE_SERVER)
  26:Generated_Source\PSoC4/blue_1.c ****     #if(CYBLE_GAP_ROLE_PERIPHERAL)
  27:Generated_Source\PSoC4/blue_1.c ****         static void CyBle_ChangeAdLocalName(const char8 name[], uint8 dest);
  28:Generated_Source\PSoC4/blue_1.c ****     #endif /* (CYBLE_GAP_ROLE_PERIPHERAL) */
  29:Generated_Source\PSoC4/blue_1.c **** #endif /* (CYBLE_GATT_ROLE_SERVER) */
  30:Generated_Source\PSoC4/blue_1.c ****     
  31:Generated_Source\PSoC4/blue_1.c **** 
  32:Generated_Source\PSoC4/blue_1.c **** /***************************************
  33:Generated_Source\PSoC4/blue_1.c **** * Global Variables
  34:Generated_Source\PSoC4/blue_1.c **** ***************************************/
  35:Generated_Source\PSoC4/blue_1.c **** 
  36:Generated_Source\PSoC4/blue_1.c **** /* Indicates whether the BLE has been initialized. The variable is initialized to
  37:Generated_Source\PSoC4/blue_1.c ****    0 and set to 1 the first time CyBle_Start() is called. This allows the component
  38:Generated_Source\PSoC4/blue_1.c ****    to restart without reinitialization after the first call to the CyBle_Start() 
  39:Generated_Source\PSoC4/blue_1.c ****    routine. If reinitialization of the component is required, the variable should 
  40:Generated_Source\PSoC4/blue_1.c ****    be set to 0 before the CyBle_Start() routine is called. Alternatively, the BLE
  41:Generated_Source\PSoC4/blue_1.c ****    can be reinitialized by calling the CyBle_Init() function.
  42:Generated_Source\PSoC4/blue_1.c **** */
  43:Generated_Source\PSoC4/blue_1.c **** uint8  cyBle_initVar = 0u;
  44:Generated_Source\PSoC4/blue_1.c **** 
  45:Generated_Source\PSoC4/blue_1.c **** /* Allocate RAM memory for stack. This buffer could be reused by application when 
  46:Generated_Source\PSoC4/blue_1.c ****    BLE component is stopped. For export mode buffer is allocated in heap.
  47:Generated_Source\PSoC4/blue_1.c **** */
  48:Generated_Source\PSoC4/blue_1.c **** #if(CYBLE_SHARING_MODE_EXPORT)
  49:Generated_Source\PSoC4/blue_1.c ****     
  50:Generated_Source\PSoC4/blue_1.c **** uint8 *cyBle_stackMemoryRam = NULL;
  51:Generated_Source\PSoC4/blue_1.c **** 
  52:Generated_Source\PSoC4/blue_1.c **** #else
  53:Generated_Source\PSoC4/blue_1.c **** 
  54:Generated_Source\PSoC4/blue_1.c **** CYBLE_CYALIGNED_BEGIN CY_NOINIT uint8 cyBle_stackMemoryRam[CYBLE_STACK_RAM_SIZE] CYBLE_CYALIGNED_EN
  55:Generated_Source\PSoC4/blue_1.c **** 
  56:Generated_Source\PSoC4/blue_1.c **** #endif  /* CYBLE_SHARING_MODE_EXPORT */
  57:Generated_Source\PSoC4/blue_1.c **** 
  58:Generated_Source\PSoC4/blue_1.c **** #if(CYBLE_GAP_ROLE_PERIPHERAL || CYBLE_GAP_ROLE_BROADCASTER)
  59:Generated_Source\PSoC4/blue_1.c **** 
  60:Generated_Source\PSoC4/blue_1.c **** CYBLE_GAPP_DISC_PARAM_T cyBle_discoveryParam =
  61:Generated_Source\PSoC4/blue_1.c **** {
  62:Generated_Source\PSoC4/blue_1.c ****     0x0020u,    /* uint16 advertising_interval_min */
  63:Generated_Source\PSoC4/blue_1.c ****     0x0030u,    /* uint16 advertising_interval_max */
  64:Generated_Source\PSoC4/blue_1.c ****     CYBLE_GAPP_CONNECTABLE_UNDIRECTED_ADV, /* uint8 advertising_type */
  65:Generated_Source\PSoC4/blue_1.c ****     0x00u,      /* uint8 own_addr_type */
  66:Generated_Source\PSoC4/blue_1.c ****     0x00u,      /* uint8 direct_addr_type */
  67:Generated_Source\PSoC4/blue_1.c ****     {0x00u, 0x00u, 0x00u, 0x50u, 0xA0u, 0x00u}, /* uint8* direct_addr */
  68:Generated_Source\PSoC4/blue_1.c ****     0x07u,      /* uint8 advertising_channel_map */
  69:Generated_Source\PSoC4/blue_1.c ****     0x00u,      /* uint8 advertising_filter_policy */
  70:Generated_Source\PSoC4/blue_1.c **** };
  71:Generated_Source\PSoC4/blue_1.c **** 
  72:Generated_Source\PSoC4/blue_1.c **** CYBLE_GAPP_DISC_DATA_T cyBle_discoveryData =
  73:Generated_Source\PSoC4/blue_1.c **** {
  74:Generated_Source\PSoC4/blue_1.c ****     { 0x02u, 0x01u, 0x06u, 0x16u, 0x09u, 0x4Cu, 0x41u,
  75:Generated_Source\PSoC4/blue_1.c ****     0x4Eu, 0x43u, 0x45u, 0x20u, 0x54u, 0x4Fu, 0x55u, 0x50u,
  76:Generated_Source\PSoC4/blue_1.c ****     0x53u, 0x20u, 0x32u, 0x33u, 0x34u, 0x35u, 0x36u, 0x37u,
  77:Generated_Source\PSoC4/blue_1.c ****     0x38u, 0x39u, 0x30u, 0x03u, 0x02u, 0x2Cu, 0xB8u, 0x00u }, /* uint8 advertising_data[CYBLE_MAX_A
  78:Generated_Source\PSoC4/blue_1.c ****     0x1Eu,      /* uint8 adv_data_length */
ARM GAS  C:\Users\alexport\AppData\Local\Temp\ccf6k4ea.s 			page 5


  79:Generated_Source\PSoC4/blue_1.c **** };
  80:Generated_Source\PSoC4/blue_1.c **** 
  81:Generated_Source\PSoC4/blue_1.c **** CYBLE_GAPP_SCAN_RSP_DATA_T cyBle_scanRspData =
  82:Generated_Source\PSoC4/blue_1.c **** {
  83:Generated_Source\PSoC4/blue_1.c ****     { 0x00u, 0x00u, 0x00u, 0x00u, 0x00u, 0x00u, 0x00u,
  84:Generated_Source\PSoC4/blue_1.c ****     0x00u, 0x00u, 0x00u, 0x00u, 0x00u, 0x00u, 0x00u, 0x00u,
  85:Generated_Source\PSoC4/blue_1.c ****     0x00u, 0x00u, 0x00u, 0x00u, 0x00u, 0x00u, 0x00u, 0x00u,
  86:Generated_Source\PSoC4/blue_1.c ****     0x00u, 0x00u, 0x00u, 0x00u, 0x00u, 0x00u, 0x00u, 0x00u }, /* uint8 scan_rsp_data[CYBLE_MAX_SCAN
  87:Generated_Source\PSoC4/blue_1.c ****     0x00u,      /* uint8 scan_rsp_data_length */
  88:Generated_Source\PSoC4/blue_1.c **** };
  89:Generated_Source\PSoC4/blue_1.c **** 
  90:Generated_Source\PSoC4/blue_1.c **** /* This variable of type CYBLE_GAPP_DISC_MODE_INFO_T is present only when 
  91:Generated_Source\PSoC4/blue_1.c ****    the BLE component is configured for Peripheral GAP role or Central and 
  92:Generated_Source\PSoC4/blue_1.c ****    Peripheral GAP role. It contains the Advertisement settings and also the 
  93:Generated_Source\PSoC4/blue_1.c ****    Advertisement and Scan response data parameters entered in the customizer.
  94:Generated_Source\PSoC4/blue_1.c ****    This variable can be used by advanced users to change Advertisement settings,
  95:Generated_Source\PSoC4/blue_1.c ****    Advertisement or Scan response data in runtime. 
  96:Generated_Source\PSoC4/blue_1.c **** */
  97:Generated_Source\PSoC4/blue_1.c **** CYBLE_GAPP_DISC_MODE_INFO_T cyBle_discoveryModeInfo =
  98:Generated_Source\PSoC4/blue_1.c **** {
  99:Generated_Source\PSoC4/blue_1.c ****     0x02u,      /* uint8 discMode */
 100:Generated_Source\PSoC4/blue_1.c ****     &cyBle_discoveryParam,
 101:Generated_Source\PSoC4/blue_1.c ****     &cyBle_discoveryData,
 102:Generated_Source\PSoC4/blue_1.c ****     &cyBle_scanRspData,
 103:Generated_Source\PSoC4/blue_1.c ****     0x0000u,    /* uint16 advTo */
 104:Generated_Source\PSoC4/blue_1.c **** };
 105:Generated_Source\PSoC4/blue_1.c **** 
 106:Generated_Source\PSoC4/blue_1.c **** 
 107:Generated_Source\PSoC4/blue_1.c **** #endif /* CYBLE_GAP_ROLE_PERIPHERAL || CYBLE_GAP_ROLE_BROADCASTER */
 108:Generated_Source\PSoC4/blue_1.c **** 
 109:Generated_Source\PSoC4/blue_1.c **** #if(CYBLE_GAP_ROLE_CENTRAL)
 110:Generated_Source\PSoC4/blue_1.c ****     
 111:Generated_Source\PSoC4/blue_1.c **** CYBLE_GAPC_CONN_PARAM_T cyBle_connectionParameters;
 112:Generated_Source\PSoC4/blue_1.c **** 
 113:Generated_Source\PSoC4/blue_1.c **** /* Connecting timeout is set to 30 seconds in CyBle_Init function. 
 114:Generated_Source\PSoC4/blue_1.c ****    Not zero value starts timer in CyBle_GapcConnectDevice() API fucntion.
 115:Generated_Source\PSoC4/blue_1.c **** */
 116:Generated_Source\PSoC4/blue_1.c **** uint16 cyBle_connectingTimeout;
 117:Generated_Source\PSoC4/blue_1.c ****     
 118:Generated_Source\PSoC4/blue_1.c **** #endif /* CYBLE_GAP_ROLE_CENTRAL */
 119:Generated_Source\PSoC4/blue_1.c **** 
 120:Generated_Source\PSoC4/blue_1.c **** #if(CYBLE_GAP_ROLE_CENTRAL || CYBLE_GAP_ROLE_OBSERVER)
 121:Generated_Source\PSoC4/blue_1.c ****     
 122:Generated_Source\PSoC4/blue_1.c **** 
 123:Generated_Source\PSoC4/blue_1.c ****     
 124:Generated_Source\PSoC4/blue_1.c **** #endif /* CYBLE_GAP_ROLE_CENTRAL || CYBLE_GAP_ROLE_OBSERVER */
 125:Generated_Source\PSoC4/blue_1.c **** 
 126:Generated_Source\PSoC4/blue_1.c **** #if((CYBLE_GAP_ROLE_PERIPHERAL || CYBLE_GAP_ROLE_CENTRAL) && (CYBLE_BONDING_REQUIREMENT == CYBLE_BO
 127:Generated_Source\PSoC4/blue_1.c **** 
 128:Generated_Source\PSoC4/blue_1.c **** uint8 cyBle_peerBonding;
 129:Generated_Source\PSoC4/blue_1.c **** uint8 cyBle_pendingFlashWrite;
 130:Generated_Source\PSoC4/blue_1.c ****     
 131:Generated_Source\PSoC4/blue_1.c **** #if(CYBLE_GATT_DB_CCCD_COUNT != 0u)
 132:Generated_Source\PSoC4/blue_1.c ****     static uint8 cyBle_pendingFlashClearCccdHandle;
 133:Generated_Source\PSoC4/blue_1.c **** #endif /* CYBLE_GATT_DB_CCCD_COUNT != 0u */
 134:Generated_Source\PSoC4/blue_1.c ****     
 135:Generated_Source\PSoC4/blue_1.c **** #endif  /* (CYBLE_BONDING_REQUIREMENT == CYBLE_BONDING_YES) */
ARM GAS  C:\Users\alexport\AppData\Local\Temp\ccf6k4ea.s 			page 6


 136:Generated_Source\PSoC4/blue_1.c **** 
 137:Generated_Source\PSoC4/blue_1.c **** CYBLE_CALLBACK_T CyBle_ApplCallback;
 138:Generated_Source\PSoC4/blue_1.c **** CYBLE_GAP_BD_ADDR_T cyBle_deviceAddress = {{0x00u, 0x00u, 0x00u, 0x50u, 0xA0u, 0x00u}, 0x00u };
 139:Generated_Source\PSoC4/blue_1.c **** CYBLE_GAP_BD_ADDR_T * cyBle_sflashDeviceAddress = CYBLE_SFLASH_DEVICE_ADDRESS_PTR;
 140:Generated_Source\PSoC4/blue_1.c **** 
 141:Generated_Source\PSoC4/blue_1.c **** 
 142:Generated_Source\PSoC4/blue_1.c **** /******************************************************************************
 143:Generated_Source\PSoC4/blue_1.c **** * Function Name: CyBle_Init
 144:Generated_Source\PSoC4/blue_1.c **** ***************************************************************************//**
 145:Generated_Source\PSoC4/blue_1.c **** *
 146:Generated_Source\PSoC4/blue_1.c **** *   Initializes the component with the parameters set in the customizer.
 147:Generated_Source\PSoC4/blue_1.c **** * 
 148:Generated_Source\PSoC4/blue_1.c **** *  \return
 149:Generated_Source\PSoC4/blue_1.c **** *   None
 150:Generated_Source\PSoC4/blue_1.c **** * 
 151:Generated_Source\PSoC4/blue_1.c **** ******************************************************************************/
 152:Generated_Source\PSoC4/blue_1.c **** void CyBle_Init(void)
 153:Generated_Source\PSoC4/blue_1.c **** {
 143              		.loc 1 153 0
 144              		.cfi_startproc
 145              		@ args = 0, pretend = 0, frame = 0
 146              		@ frame_needed = 1, uses_anonymous_args = 0
 147 0000 80B5     		push	{r7, lr}
 148              		.cfi_def_cfa_offset 8
 149              		.cfi_offset 7, -8
 150              		.cfi_offset 14, -4
 151 0002 00AF     		add	r7, sp, #0
 152              		.cfi_def_cfa_register 7
 154:Generated_Source\PSoC4/blue_1.c ****     cyBle_eventHandlerFlag = 0u;
 153              		.loc 1 154 0
 154 0004 094B     		ldr	r3, .L2
 155 0006 0022     		movs	r2, #0
 156 0008 1A70     		strb	r2, [r3]
 155:Generated_Source\PSoC4/blue_1.c ****     cyBle_busyStatus = CYBLE_STACK_STATE_FREE;
 157              		.loc 1 155 0
 158 000a 094B     		ldr	r3, .L2+4
 159 000c 0022     		movs	r2, #0
 160 000e 1A70     		strb	r2, [r3]
 156:Generated_Source\PSoC4/blue_1.c **** 
 157:Generated_Source\PSoC4/blue_1.c ****     #if(CYBLE_GAP_ROLE_PERIPHERAL || CYBLE_GAP_ROLE_BROADCASTER) 
 158:Generated_Source\PSoC4/blue_1.c ****         cyBle_advertisingIntervalType = CYBLE_ADVERTISING_FAST; 
 161              		.loc 1 158 0
 162 0010 084B     		ldr	r3, .L2+8
 163 0012 0022     		movs	r2, #0
 164 0014 1A70     		strb	r2, [r3]
 159:Generated_Source\PSoC4/blue_1.c ****     #endif /* (CYBLE_GAP_ROLE_PERIPHERAL || CYBLE_GAP_ROLE_BROADCASTER)  */
 160:Generated_Source\PSoC4/blue_1.c ****     #if(CYBLE_GAP_ROLE_CENTRAL || CYBLE_GAP_ROLE_OBSERVER)
 161:Generated_Source\PSoC4/blue_1.c ****         cyBle_scanningIntervalType = CYBLE_SCANNING_FAST; 
 162:Generated_Source\PSoC4/blue_1.c ****     #endif /* (CYBLE_GAP_ROLE_CENTRAL || CYBLE_GAP_ROLE_OBSERVER) */
 163:Generated_Source\PSoC4/blue_1.c ****         
 164:Generated_Source\PSoC4/blue_1.c ****     /* Init default connection parameters. 
 165:Generated_Source\PSoC4/blue_1.c ****        Application may change it before initiating a connection */
 166:Generated_Source\PSoC4/blue_1.c ****     #if(CYBLE_GAP_ROLE_CENTRAL)
 167:Generated_Source\PSoC4/blue_1.c ****         cyBle_connectionParameters.scanIntv = cyBle_discoveryInfo.scanIntv;
 168:Generated_Source\PSoC4/blue_1.c ****         cyBle_connectionParameters.scanWindow = cyBle_discoveryInfo.scanWindow;
 169:Generated_Source\PSoC4/blue_1.c ****         cyBle_connectionParameters.ownAddrType = cyBle_discoveryInfo.ownAddrType;
 170:Generated_Source\PSoC4/blue_1.c ****         cyBle_connectionParameters.initiatorFilterPolicy = cyBle_discoveryInfo.scanFilterPolicy;
ARM GAS  C:\Users\alexport\AppData\Local\Temp\ccf6k4ea.s 			page 7


 171:Generated_Source\PSoC4/blue_1.c ****         cyBle_connectionParameters.connIntvMin = CYBLE_GAPC_CONNECTION_INTERVAL_MIN;
 172:Generated_Source\PSoC4/blue_1.c ****         cyBle_connectionParameters.connIntvMax = CYBLE_GAPC_CONNECTION_INTERVAL_MAX;
 173:Generated_Source\PSoC4/blue_1.c ****         cyBle_connectionParameters.connLatency = CYBLE_GAPC_CONNECTION_SLAVE_LATENCY;
 174:Generated_Source\PSoC4/blue_1.c ****         cyBle_connectionParameters.supervisionTO = CYBLE_GAPC_CONNECTION_TIME_OUT;
 175:Generated_Source\PSoC4/blue_1.c ****         cyBle_connectionParameters.minCeLength = 0x0000u;
 176:Generated_Source\PSoC4/blue_1.c ****         cyBle_connectionParameters.maxCeLength = 0xFFFFu;
 177:Generated_Source\PSoC4/blue_1.c ****         
 178:Generated_Source\PSoC4/blue_1.c ****         cyBle_connectingTimeout = CYBLE_GAPC_CONNECTING_TIMEOUT;
 179:Generated_Source\PSoC4/blue_1.c ****     #endif /* CYBLE_GAP_ROLE_CENTRAL */
 180:Generated_Source\PSoC4/blue_1.c **** 
 181:Generated_Source\PSoC4/blue_1.c ****     CyBle_ServiceInit();
 165              		.loc 1 181 0
 166 0016 FFF7FEFF 		bl	CyBle_ServiceInit
 182:Generated_Source\PSoC4/blue_1.c **** 
 183:Generated_Source\PSoC4/blue_1.c ****     #if((CYBLE_GAP_ROLE_PERIPHERAL || CYBLE_GAP_ROLE_CENTRAL) && (CYBLE_BONDING_REQUIREMENT == CYBL
 184:Generated_Source\PSoC4/blue_1.c ****         cyBle_pendingFlashWrite = 0u;
 167              		.loc 1 184 0
 168 001a 074B     		ldr	r3, .L2+12
 169 001c 0022     		movs	r2, #0
 170 001e 1A70     		strb	r2, [r3]
 185:Generated_Source\PSoC4/blue_1.c ****         cyBle_peerBonding = CYBLE_GAP_BONDING_NONE;
 171              		.loc 1 185 0
 172 0020 064B     		ldr	r3, .L2+16
 173 0022 0022     		movs	r2, #0
 174 0024 1A70     		strb	r2, [r3]
 186:Generated_Source\PSoC4/blue_1.c ****     #endif  /* (CYBLE_BONDING_REQUIREMENT == CYBLE_BONDING_YES) */
 187:Generated_Source\PSoC4/blue_1.c **** 
 188:Generated_Source\PSoC4/blue_1.c **** }
 175              		.loc 1 188 0
 176 0026 C046     		nop
 177 0028 BD46     		mov	sp, r7
 178              		@ sp needed
 179 002a 80BD     		pop	{r7, pc}
 180              	.L3:
 181              		.align	2
 182              	.L2:
 183 002c 00000000 		.word	cyBle_eventHandlerFlag
 184 0030 00000000 		.word	cyBle_busyStatus
 185 0034 00000000 		.word	cyBle_advertisingIntervalType
 186 0038 00000000 		.word	cyBle_pendingFlashWrite
 187 003c 00000000 		.word	cyBle_peerBonding
 188              		.cfi_endproc
 189              	.LFE2:
 190              		.size	CyBle_Init, .-CyBle_Init
 191              		.section	.text.CyBle_ServiceInit,"ax",%progbits
 192              		.align	2
 193              		.global	CyBle_ServiceInit
 194              		.code	16
 195              		.thumb_func
 196              		.type	CyBle_ServiceInit, %function
 197              	CyBle_ServiceInit:
 198              	.LFB3:
 189:Generated_Source\PSoC4/blue_1.c **** 
 190:Generated_Source\PSoC4/blue_1.c **** 
 191:Generated_Source\PSoC4/blue_1.c **** /******************************************************************************
 192:Generated_Source\PSoC4/blue_1.c **** * Function Name: CyBle_ServiceInit
 193:Generated_Source\PSoC4/blue_1.c **** ***************************************************************************//**
ARM GAS  C:\Users\alexport\AppData\Local\Temp\ccf6k4ea.s 			page 8


 194:Generated_Source\PSoC4/blue_1.c **** * 
 195:Generated_Source\PSoC4/blue_1.c **** *  Initializes all included services.
 196:Generated_Source\PSoC4/blue_1.c **** * 
 197:Generated_Source\PSoC4/blue_1.c **** * \return
 198:Generated_Source\PSoC4/blue_1.c **** *  None
 199:Generated_Source\PSoC4/blue_1.c **** * 
 200:Generated_Source\PSoC4/blue_1.c **** ******************************************************************************/
 201:Generated_Source\PSoC4/blue_1.c **** void CyBle_ServiceInit(void)
 202:Generated_Source\PSoC4/blue_1.c **** {
 199              		.loc 1 202 0
 200              		.cfi_startproc
 201              		@ args = 0, pretend = 0, frame = 0
 202              		@ frame_needed = 1, uses_anonymous_args = 0
 203 0000 80B5     		push	{r7, lr}
 204              		.cfi_def_cfa_offset 8
 205              		.cfi_offset 7, -8
 206              		.cfi_offset 14, -4
 207 0002 00AF     		add	r7, sp, #0
 208              		.cfi_def_cfa_register 7
 203:Generated_Source\PSoC4/blue_1.c ****     #if(CYBLE_GATT_ROLE_CLIENT)
 204:Generated_Source\PSoC4/blue_1.c ****         /* Check service range before clearing to support partial discovery */
 205:Generated_Source\PSoC4/blue_1.c ****         if(cyBle_serverInfo[CYBLE_SRVI_GAP].range.startHandle == CYBLE_GATT_INVALID_ATTR_HANDLE_VAL
 206:Generated_Source\PSoC4/blue_1.c ****         {
 207:Generated_Source\PSoC4/blue_1.c ****             (void)memset(&cyBle_gapc, 0, sizeof(cyBle_gapc));
 208:Generated_Source\PSoC4/blue_1.c ****         }
 209:Generated_Source\PSoC4/blue_1.c ****         if(cyBle_serverInfo[CYBLE_SRVI_GATT].range.startHandle == CYBLE_GATT_INVALID_ATTR_HANDLE_VA
 210:Generated_Source\PSoC4/blue_1.c ****         {
 211:Generated_Source\PSoC4/blue_1.c ****             (void)memset(&cyBle_gattc, 0, sizeof(cyBle_gattc));
 212:Generated_Source\PSoC4/blue_1.c ****         }
 213:Generated_Source\PSoC4/blue_1.c ****     #endif /* CYBLE_GATT_ROLE_CLIENT */
 214:Generated_Source\PSoC4/blue_1.c **** 
 215:Generated_Source\PSoC4/blue_1.c ****    	#ifdef CYBLE_AIOS
 216:Generated_Source\PSoC4/blue_1.c ****         CyBle_AiosInit();
 217:Generated_Source\PSoC4/blue_1.c ****     #endif /* CYBLE_AIOS */
 218:Generated_Source\PSoC4/blue_1.c **** 
 219:Generated_Source\PSoC4/blue_1.c **** 	#ifdef CYBLE_ANCS
 220:Generated_Source\PSoC4/blue_1.c ****         CyBle_AncsInit();
 221:Generated_Source\PSoC4/blue_1.c ****     #endif /* CYBLE_ANCS */
 222:Generated_Source\PSoC4/blue_1.c **** 	
 223:Generated_Source\PSoC4/blue_1.c ****     #ifdef CYBLE_ANS
 224:Generated_Source\PSoC4/blue_1.c ****         CyBle_AnsInit();
 225:Generated_Source\PSoC4/blue_1.c ****     #endif /* CYBLE_ANS */
 226:Generated_Source\PSoC4/blue_1.c ****     
 227:Generated_Source\PSoC4/blue_1.c ****     #ifdef CYBLE_BAS
 228:Generated_Source\PSoC4/blue_1.c ****         CyBle_BasInit();
 229:Generated_Source\PSoC4/blue_1.c ****     #endif /* CYBLE_BAS */
 230:Generated_Source\PSoC4/blue_1.c ****     
 231:Generated_Source\PSoC4/blue_1.c ****     #ifdef CYBLE_BCS
 232:Generated_Source\PSoC4/blue_1.c ****         CyBle_BcsInit();
 233:Generated_Source\PSoC4/blue_1.c ****     #endif /* CYBLE_BCS */
 234:Generated_Source\PSoC4/blue_1.c **** 
 235:Generated_Source\PSoC4/blue_1.c ****     #ifdef CYBLE_BLS
 236:Generated_Source\PSoC4/blue_1.c ****         CyBle_BlsInit();
 237:Generated_Source\PSoC4/blue_1.c ****     #endif /* CYBLE_BLS */
 238:Generated_Source\PSoC4/blue_1.c ****     
 239:Generated_Source\PSoC4/blue_1.c ****     #ifdef CYBLE_BMS
 240:Generated_Source\PSoC4/blue_1.c ****         CyBle_BmsInit();
ARM GAS  C:\Users\alexport\AppData\Local\Temp\ccf6k4ea.s 			page 9


 241:Generated_Source\PSoC4/blue_1.c ****     #endif /* CYBLE_BMS */
 242:Generated_Source\PSoC4/blue_1.c ****     
 243:Generated_Source\PSoC4/blue_1.c ****     #ifdef CYBLE_CGMS
 244:Generated_Source\PSoC4/blue_1.c ****         CyBle_CgmsInit();
 245:Generated_Source\PSoC4/blue_1.c ****     #endif /* CYBLE_CGMS */
 246:Generated_Source\PSoC4/blue_1.c **** 
 247:Generated_Source\PSoC4/blue_1.c ****     #ifdef CYBLE_CPS
 248:Generated_Source\PSoC4/blue_1.c ****         CyBle_CpsInit();
 249:Generated_Source\PSoC4/blue_1.c ****     #endif /* CYBLE_CPS */
 250:Generated_Source\PSoC4/blue_1.c **** 
 251:Generated_Source\PSoC4/blue_1.c ****     #ifdef CYBLE_CSCS
 252:Generated_Source\PSoC4/blue_1.c ****         CyBle_CscsInit();
 253:Generated_Source\PSoC4/blue_1.c ****     #endif /* CYBLE_CSCS */
 254:Generated_Source\PSoC4/blue_1.c ****     
 255:Generated_Source\PSoC4/blue_1.c ****     #ifdef CYBLE_CTS
 256:Generated_Source\PSoC4/blue_1.c ****         CyBle_CtsInit();
 257:Generated_Source\PSoC4/blue_1.c ****     #endif /* CYBLE_CTS */
 258:Generated_Source\PSoC4/blue_1.c **** 
 259:Generated_Source\PSoC4/blue_1.c ****     #ifdef CYBLE_CUSTOM
 260:Generated_Source\PSoC4/blue_1.c ****         CyBle_CustomInit();
 209              		.loc 1 260 0
 210 0004 FFF7FEFF 		bl	CyBle_CustomInit
 261:Generated_Source\PSoC4/blue_1.c ****     #endif /* CYBLE_CUSTOM */
 262:Generated_Source\PSoC4/blue_1.c **** 
 263:Generated_Source\PSoC4/blue_1.c ****     #ifdef CYBLE_DIS
 264:Generated_Source\PSoC4/blue_1.c ****         CyBle_DisInit();
 211              		.loc 1 264 0
 212 0008 FFF7FEFF 		bl	CyBle_DisInit
 265:Generated_Source\PSoC4/blue_1.c ****     #endif /* CYBLE_DIS */
 266:Generated_Source\PSoC4/blue_1.c **** 
 267:Generated_Source\PSoC4/blue_1.c ****     #ifdef CYBLE_ESS
 268:Generated_Source\PSoC4/blue_1.c ****         CyBle_EssInit();
 269:Generated_Source\PSoC4/blue_1.c ****     #endif /* CYBLE_ESS */
 270:Generated_Source\PSoC4/blue_1.c ****     
 271:Generated_Source\PSoC4/blue_1.c ****     #ifdef CYBLE_GLS
 272:Generated_Source\PSoC4/blue_1.c ****         CyBle_GlsInit();
 273:Generated_Source\PSoC4/blue_1.c ****     #endif /* CYBLE_GLS */
 274:Generated_Source\PSoC4/blue_1.c ****     
 275:Generated_Source\PSoC4/blue_1.c ****     #ifdef CYBLE_HIDS
 276:Generated_Source\PSoC4/blue_1.c ****         CyBle_HidsInit();
 277:Generated_Source\PSoC4/blue_1.c ****     #endif /* CYBLE_HIDS */
 278:Generated_Source\PSoC4/blue_1.c **** 
 279:Generated_Source\PSoC4/blue_1.c ****     #ifdef CYBLE_HPS
 280:Generated_Source\PSoC4/blue_1.c ****         CyBle_HpsInit();
 281:Generated_Source\PSoC4/blue_1.c ****     #endif /* CYBLE_HPS */
 282:Generated_Source\PSoC4/blue_1.c **** 
 283:Generated_Source\PSoC4/blue_1.c ****     #ifdef CYBLE_HRS
 284:Generated_Source\PSoC4/blue_1.c ****         CyBle_HrsInit();
 285:Generated_Source\PSoC4/blue_1.c ****     #endif /* CYBLE_HRS */
 286:Generated_Source\PSoC4/blue_1.c ****     
 287:Generated_Source\PSoC4/blue_1.c ****     #ifdef CYBLE_HTS
 288:Generated_Source\PSoC4/blue_1.c ****         CyBle_HtsInit();
 289:Generated_Source\PSoC4/blue_1.c ****     #endif /* CYBLE_RSCS */
 290:Generated_Source\PSoC4/blue_1.c **** 
 291:Generated_Source\PSoC4/blue_1.c ****     #ifdef CYBLE_IAS
 292:Generated_Source\PSoC4/blue_1.c ****         CyBle_IasInit();
 293:Generated_Source\PSoC4/blue_1.c ****     #endif /* CYBLE_IAS */
ARM GAS  C:\Users\alexport\AppData\Local\Temp\ccf6k4ea.s 			page 10


 294:Generated_Source\PSoC4/blue_1.c **** 
 295:Generated_Source\PSoC4/blue_1.c ****     #ifdef CYBLE_IPS
 296:Generated_Source\PSoC4/blue_1.c ****         CyBle_IpsInit();
 297:Generated_Source\PSoC4/blue_1.c ****     #endif /* CYBLE_IPS */
 298:Generated_Source\PSoC4/blue_1.c ****     
 299:Generated_Source\PSoC4/blue_1.c ****     #ifdef CYBLE_LLS
 300:Generated_Source\PSoC4/blue_1.c ****         CyBle_LlsInit();
 301:Generated_Source\PSoC4/blue_1.c ****     #endif /* CYBLE_LLS */
 302:Generated_Source\PSoC4/blue_1.c **** 
 303:Generated_Source\PSoC4/blue_1.c ****     #ifdef CYBLE_LNS
 304:Generated_Source\PSoC4/blue_1.c ****         CyBle_LnsInit();
 305:Generated_Source\PSoC4/blue_1.c ****     #endif /* CYBLE_LNS */
 306:Generated_Source\PSoC4/blue_1.c ****     
 307:Generated_Source\PSoC4/blue_1.c ****     #ifdef CYBLE_NDCS
 308:Generated_Source\PSoC4/blue_1.c ****         CyBle_NdcsInit();
 309:Generated_Source\PSoC4/blue_1.c ****     #endif /* CYBLE_NDCS */
 310:Generated_Source\PSoC4/blue_1.c ****     
 311:Generated_Source\PSoC4/blue_1.c ****     #ifdef CYBLE_PASS
 312:Generated_Source\PSoC4/blue_1.c ****         CyBle_PassInit();
 313:Generated_Source\PSoC4/blue_1.c ****     #endif /* CYBLE_PASS */
 314:Generated_Source\PSoC4/blue_1.c ****     
 315:Generated_Source\PSoC4/blue_1.c ****     #ifdef CYBLE_PLXS
 316:Generated_Source\PSoC4/blue_1.c ****         CyBle_PlxsInit();
 317:Generated_Source\PSoC4/blue_1.c ****     #endif /* CYBLE_PLXS */
 318:Generated_Source\PSoC4/blue_1.c ****     
 319:Generated_Source\PSoC4/blue_1.c ****     #ifdef CYBLE_RSCS
 320:Generated_Source\PSoC4/blue_1.c ****         CyBle_RscsInit();
 321:Generated_Source\PSoC4/blue_1.c ****     #endif /* CYBLE_RSCS */
 322:Generated_Source\PSoC4/blue_1.c **** 
 323:Generated_Source\PSoC4/blue_1.c ****     #ifdef CYBLE_RTUS
 324:Generated_Source\PSoC4/blue_1.c ****         CyBle_RtusInit();
 325:Generated_Source\PSoC4/blue_1.c ****     #endif /* CYBLE_RTUS */
 326:Generated_Source\PSoC4/blue_1.c **** 
 327:Generated_Source\PSoC4/blue_1.c ****     #ifdef CYBLE_SCPS
 328:Generated_Source\PSoC4/blue_1.c ****         CyBle_ScpsInit();
 329:Generated_Source\PSoC4/blue_1.c ****     #endif /* CYBLE_SCPS */
 330:Generated_Source\PSoC4/blue_1.c ****     
 331:Generated_Source\PSoC4/blue_1.c ****     #ifdef CYBLE_TPS
 332:Generated_Source\PSoC4/blue_1.c ****         CyBle_TpsInit();
 333:Generated_Source\PSoC4/blue_1.c ****     #endif /* CYBLE_TPS */
 334:Generated_Source\PSoC4/blue_1.c ****     
 335:Generated_Source\PSoC4/blue_1.c ****     #ifdef CYBLE_UDS
 336:Generated_Source\PSoC4/blue_1.c ****         CyBle_UdsInit();
 337:Generated_Source\PSoC4/blue_1.c ****     #endif /* CYBLE_UDS */
 338:Generated_Source\PSoC4/blue_1.c **** 
 339:Generated_Source\PSoC4/blue_1.c ****     #ifdef CYBLE_WPTS
 340:Generated_Source\PSoC4/blue_1.c ****         CyBle_WptsInit();
 341:Generated_Source\PSoC4/blue_1.c ****     #endif /* CYBLE_WPTS */
 342:Generated_Source\PSoC4/blue_1.c **** 
 343:Generated_Source\PSoC4/blue_1.c ****     #ifdef CYBLE_WSS
 344:Generated_Source\PSoC4/blue_1.c ****         CyBle_WssInit();
 345:Generated_Source\PSoC4/blue_1.c ****     #endif /* CYBLE_WSS */
 346:Generated_Source\PSoC4/blue_1.c **** }
 213              		.loc 1 346 0
 214 000c C046     		nop
 215 000e BD46     		mov	sp, r7
 216              		@ sp needed
ARM GAS  C:\Users\alexport\AppData\Local\Temp\ccf6k4ea.s 			page 11


 217 0010 80BD     		pop	{r7, pc}
 218              		.cfi_endproc
 219              	.LFE3:
 220              		.size	CyBle_ServiceInit, .-CyBle_ServiceInit
 221 0012 C046     		.section	.rodata
 222              		.align	2
 223              	.LC0:
 224 0000 2400     		.short	36
 225 0002 03       		.byte	3
 226 0003 00       		.space	1
 227 0004 3000     		.short	48
 228 0006 01       		.byte	1
 229 0007 00       		.space	1
 230 0008 2800     		.short	40
 231 000a 02       		.byte	2
 232 000b 00       		.space	1
 233 000c 2400     		.short	36
 234 000e 01       		.byte	1
 235 000f 00       		.space	1
 236 0010 2400     		.short	36
 237 0012 01       		.byte	1
 238 0013 00       		.space	1
 239              		.section	.text.CyBle_Start,"ax",%progbits
 240              		.align	2
 241              		.global	CyBle_Start
 242              		.code	16
 243              		.thumb_func
 244              		.type	CyBle_Start, %function
 245              	CyBle_Start:
 246              	.LFB4:
 347:Generated_Source\PSoC4/blue_1.c **** 
 348:Generated_Source\PSoC4/blue_1.c **** 
 349:Generated_Source\PSoC4/blue_1.c **** /******************************************************************************
 350:Generated_Source\PSoC4/blue_1.c **** * Function Name: CyBle_Start
 351:Generated_Source\PSoC4/blue_1.c **** ***************************************************************************//**
 352:Generated_Source\PSoC4/blue_1.c **** * 
 353:Generated_Source\PSoC4/blue_1.c **** *  This function initializes the BLE Stack, which consists of the BLE Stack 
 354:Generated_Source\PSoC4/blue_1.c **** *  Manager, BLE Controller, and BLE Host modules. It takes care of initializing
 355:Generated_Source\PSoC4/blue_1.c **** *  the Profile layer, schedulers, Timer and other platform related
 356:Generated_Source\PSoC4/blue_1.c **** *  resources required for the BLE component. It also registers the callback 
 357:Generated_Source\PSoC4/blue_1.c **** *  function for BLE events that will be registered in the BLE stack.
 358:Generated_Source\PSoC4/blue_1.c **** * 
 359:Generated_Source\PSoC4/blue_1.c **** *  Note that this function does not reset the BLE Stack.
 360:Generated_Source\PSoC4/blue_1.c **** * 
 361:Generated_Source\PSoC4/blue_1.c **** *  For HCI-Mode of operation, this function will not initialize the BLE Host 
 362:Generated_Source\PSoC4/blue_1.c **** *  module.
 363:Generated_Source\PSoC4/blue_1.c **** * 
 364:Generated_Source\PSoC4/blue_1.c **** *  Calling this function results in the generation of CYBLE_EVT_STACK_ON event
 365:Generated_Source\PSoC4/blue_1.c **** *  on successful initialization of the BLE Stack.
 366:Generated_Source\PSoC4/blue_1.c **** * 
 367:Generated_Source\PSoC4/blue_1.c **** *  \param callbackFunc: Event callback function to receive events from BLE stack.
 368:Generated_Source\PSoC4/blue_1.c **** *   CYBLE_CALLBACK_T is a function pointer type.
 369:Generated_Source\PSoC4/blue_1.c **** * 
 370:Generated_Source\PSoC4/blue_1.c **** * \return
 371:Generated_Source\PSoC4/blue_1.c **** *  CYBLE_API_RESULT_T : Return value indicates if the function succeeded or 
 372:Generated_Source\PSoC4/blue_1.c **** *  failed. Following are the possible error codes.
 373:Generated_Source\PSoC4/blue_1.c **** * 
ARM GAS  C:\Users\alexport\AppData\Local\Temp\ccf6k4ea.s 			page 12


 374:Generated_Source\PSoC4/blue_1.c **** *   <table>
 375:Generated_Source\PSoC4/blue_1.c **** *  	  <tr>
 376:Generated_Source\PSoC4/blue_1.c **** *       <th>Error codes</th>
 377:Generated_Source\PSoC4/blue_1.c **** *       <th>Description</th>
 378:Generated_Source\PSoC4/blue_1.c **** *     </tr>
 379:Generated_Source\PSoC4/blue_1.c **** *     <tr>
 380:Generated_Source\PSoC4/blue_1.c **** *       <td>CYBLE_ERROR_OK</td>
 381:Generated_Source\PSoC4/blue_1.c **** *       <td>On successful operation.</td>
 382:Generated_Source\PSoC4/blue_1.c **** *     </tr>
 383:Generated_Source\PSoC4/blue_1.c **** *     <tr>
 384:Generated_Source\PSoC4/blue_1.c **** *       <td>CYBLE_ERROR_INVALID_PARAMETER</td>
 385:Generated_Source\PSoC4/blue_1.c **** *       <td>On passing a NULL pointer to the function. 
 386:Generated_Source\PSoC4/blue_1.c **** *		</td>
 387:Generated_Source\PSoC4/blue_1.c **** *     </tr>
 388:Generated_Source\PSoC4/blue_1.c **** *     <tr>
 389:Generated_Source\PSoC4/blue_1.c **** *       <td>CYBLE_ERROR_REPEATED_ATTEMPTS</td>
 390:Generated_Source\PSoC4/blue_1.c **** *       <td>On invoking this function more than once without calling CyBle_Shutdown() 
 391:Generated_Source\PSoC4/blue_1.c **** *           function between calls to this function.</td>
 392:Generated_Source\PSoC4/blue_1.c **** *     </tr>
 393:Generated_Source\PSoC4/blue_1.c **** *     <tr>
 394:Generated_Source\PSoC4/blue_1.c **** *       <td>CYBLE_ERROR_MEMORY_ALLOCATION_FAILED</td>
 395:Generated_Source\PSoC4/blue_1.c **** *       <td>There is insufficient memory available.</td>
 396:Generated_Source\PSoC4/blue_1.c **** *     </tr>
 397:Generated_Source\PSoC4/blue_1.c **** *   </table>
 398:Generated_Source\PSoC4/blue_1.c **** * 
 399:Generated_Source\PSoC4/blue_1.c **** *  \globalvars
 400:Generated_Source\PSoC4/blue_1.c **** *   The CyBle_initVar variable is used to indicate initial
 401:Generated_Source\PSoC4/blue_1.c **** *   configuration of this component. The variable is initialized to zero (0u)
 402:Generated_Source\PSoC4/blue_1.c **** *   and set to one (1u) the first time CyBle_Start() is called. This
 403:Generated_Source\PSoC4/blue_1.c **** *   allows for component initialization without re-initialization in all
 404:Generated_Source\PSoC4/blue_1.c **** *   subsequent calls to the CyBle_Start() routine.
 405:Generated_Source\PSoC4/blue_1.c **** * 
 406:Generated_Source\PSoC4/blue_1.c **** ******************************************************************************/
 407:Generated_Source\PSoC4/blue_1.c **** CYBLE_API_RESULT_T CyBle_Start(CYBLE_CALLBACK_T callbackFunc)
 408:Generated_Source\PSoC4/blue_1.c **** {
 247              		.loc 1 408 0
 248              		.cfi_startproc
 249              		@ args = 0, pretend = 0, frame = 64
 250              		@ frame_needed = 1, uses_anonymous_args = 0
 251 0000 B0B5     		push	{r4, r5, r7, lr}
 252              		.cfi_def_cfa_offset 16
 253              		.cfi_offset 4, -16
 254              		.cfi_offset 5, -12
 255              		.cfi_offset 7, -8
 256              		.cfi_offset 14, -4
 257 0002 94B0     		sub	sp, sp, #80
 258              		.cfi_def_cfa_offset 96
 259 0004 04AF     		add	r7, sp, #16
 260              		.cfi_def_cfa 7, 80
 261 0006 7860     		str	r0, [r7, #4]
 409:Generated_Source\PSoC4/blue_1.c ****     CYBLE_API_RESULT_T apiResult = CYBLE_ERROR_OK;
 262              		.loc 1 409 0
 263 0008 3E23     		movs	r3, #62
 264 000a FB18     		adds	r3, r7, r3
 265 000c 0022     		movs	r2, #0
 266 000e 1A80     		strh	r2, [r3]
 410:Generated_Source\PSoC4/blue_1.c ****     
ARM GAS  C:\Users\alexport\AppData\Local\Temp\ccf6k4ea.s 			page 13


 411:Generated_Source\PSoC4/blue_1.c ****     #if(CYBLE_MODE_PROFILE)
 412:Generated_Source\PSoC4/blue_1.c ****     
 413:Generated_Source\PSoC4/blue_1.c ****     CYBLE_STK_APP_DATA_BUFF_T cyBle_stackDataBuff[CYBLE_STACK_APP_MIN_POOL] = 
 267              		.loc 1 413 0
 268 0010 2823     		movs	r3, #40
 269 0012 FA18     		adds	r2, r7, r3
 270 0014 3D4B     		ldr	r3, .L12
 271 0016 1000     		movs	r0, r2
 272 0018 1900     		movs	r1, r3
 273 001a 1423     		movs	r3, #20
 274 001c 1A00     		movs	r2, r3
 275 001e FFF7FEFF 		bl	memcpy
 414:Generated_Source\PSoC4/blue_1.c ****     {
 415:Generated_Source\PSoC4/blue_1.c ****         {CYBLE_GATT_MTU_PLUS_L2CAP_MEM_EXT, CYBLE_GATT_MTU_BUFF_COUNT + CYBLE_GATT_MAX_ATTR_BUFF_CO
 416:Generated_Source\PSoC4/blue_1.c ****         {CYBLE_L2CAP_PSM_PLUS_L2CAP_MEM_EXT, CYBLE_L2CAP_PSM_COUNT},
 417:Generated_Source\PSoC4/blue_1.c ****         {CYBLE_L2CAP_CBFC_PLUS_L2CAP_MEM_EXT, 2u * CYBLE_L2CAP_LOGICAL_CHANNEL_COUNT},
 418:Generated_Source\PSoC4/blue_1.c ****         {CYBLE_L2CAP_MTU_PLUS_L2CAP_MEM_EXT, CYBLE_L2CAP_LOGICAL_CHANNEL_COUNT},
 419:Generated_Source\PSoC4/blue_1.c ****         {CYBLE_L2CAP_MPS_PLUS_L2CAP_MEM_EXT, CYBLE_L2CAP_LOGICAL_CHANNEL_COUNT * (CYBLE_L2CAP_MTU_M
 420:Generated_Source\PSoC4/blue_1.c ****     }; 
 421:Generated_Source\PSoC4/blue_1.c **** 
 422:Generated_Source\PSoC4/blue_1.c ****     #endif /* CYBLE_MODE_PROFILE */
 423:Generated_Source\PSoC4/blue_1.c ****     
 424:Generated_Source\PSoC4/blue_1.c ****     /* If not initialized then initialize all the required hardware and software */
 425:Generated_Source\PSoC4/blue_1.c ****     if(cyBle_initVar == 0u)
 276              		.loc 1 425 0
 277 0022 3B4B     		ldr	r3, .L12+4
 278 0024 1B78     		ldrb	r3, [r3]
 279 0026 002B     		cmp	r3, #0
 280 0028 04D1     		bne	.L6
 426:Generated_Source\PSoC4/blue_1.c ****     {
 427:Generated_Source\PSoC4/blue_1.c ****         CyBle_Init();
 281              		.loc 1 427 0
 282 002a FFF7FEFF 		bl	CyBle_Init
 428:Generated_Source\PSoC4/blue_1.c ****         cyBle_initVar = 1u;
 283              		.loc 1 428 0
 284 002e 384B     		ldr	r3, .L12+4
 285 0030 0122     		movs	r2, #1
 286 0032 1A70     		strb	r2, [r3]
 287              	.L6:
 429:Generated_Source\PSoC4/blue_1.c ****     }
 430:Generated_Source\PSoC4/blue_1.c ****     
 431:Generated_Source\PSoC4/blue_1.c ****     if(callbackFunc != NULL)
 288              		.loc 1 431 0
 289 0034 7B68     		ldr	r3, [r7, #4]
 290 0036 002B     		cmp	r3, #0
 291 0038 5CD0     		beq	.L7
 432:Generated_Source\PSoC4/blue_1.c ****     {
 433:Generated_Source\PSoC4/blue_1.c ****         CyBle_ApplCallback = callbackFunc;
 292              		.loc 1 433 0
 293 003a 364B     		ldr	r3, .L12+8
 294 003c 7A68     		ldr	r2, [r7, #4]
 295 003e 1A60     		str	r2, [r3]
 434:Generated_Source\PSoC4/blue_1.c ****         
 435:Generated_Source\PSoC4/blue_1.c ****     #if(CYBLE_SHARING_MODE_EXPORT)
 436:Generated_Source\PSoC4/blue_1.c ****         if(cyBle_stackMemoryRam == NULL)
 437:Generated_Source\PSoC4/blue_1.c ****         {
 438:Generated_Source\PSoC4/blue_1.c ****             cyBle_stackMemoryRam = (uint8 *)malloc(CYBLE_STACK_RAM_SIZE);
ARM GAS  C:\Users\alexport\AppData\Local\Temp\ccf6k4ea.s 			page 14


 439:Generated_Source\PSoC4/blue_1.c ****             if(cyBle_stackMemoryRam == NULL)
 440:Generated_Source\PSoC4/blue_1.c ****             {
 441:Generated_Source\PSoC4/blue_1.c ****                 apiResult = CYBLE_ERROR_MEMORY_ALLOCATION_FAILED;
 442:Generated_Source\PSoC4/blue_1.c ****             }
 443:Generated_Source\PSoC4/blue_1.c ****         }
 444:Generated_Source\PSoC4/blue_1.c ****     #endif /* CYBLE_SHARING_MODE_EXPORT */
 445:Generated_Source\PSoC4/blue_1.c ****         if(apiResult == CYBLE_ERROR_OK)
 296              		.loc 1 445 0
 297 0040 3E23     		movs	r3, #62
 298 0042 FB18     		adds	r3, r7, r3
 299 0044 1B88     		ldrh	r3, [r3]
 300 0046 002B     		cmp	r3, #0
 301 0048 29D1     		bne	.L8
 302              	.LBB2:
 446:Generated_Source\PSoC4/blue_1.c ****         {
 447:Generated_Source\PSoC4/blue_1.c ****             CYBLE_DLE_CONFIG_PARAM_T dleConfigParams;
 448:Generated_Source\PSoC4/blue_1.c ****             CYBLE_PRIVACY_1_2_CONFIG_PARAM_T privacyConfigParams;
 449:Generated_Source\PSoC4/blue_1.c ****             CYBLE_STACK_CONFIG_PARAM_T stackConfig;
 450:Generated_Source\PSoC4/blue_1.c ****             uint16 featureHeapReq;
 451:Generated_Source\PSoC4/blue_1.c ****             
 452:Generated_Source\PSoC4/blue_1.c ****             stackConfig.privacyConfig = &privacyConfigParams;
 303              		.loc 1 452 0
 304 004a 1023     		movs	r3, #16
 305 004c FB18     		adds	r3, r7, r3
 306 004e 1C22     		movs	r2, #28
 307 0050 BA18     		adds	r2, r7, r2
 308 0052 5A60     		str	r2, [r3, #4]
 453:Generated_Source\PSoC4/blue_1.c ****             stackConfig.dleConfig = &dleConfigParams;
 309              		.loc 1 453 0
 310 0054 1023     		movs	r3, #16
 311 0056 FB18     		adds	r3, r7, r3
 312 0058 2022     		movs	r2, #32
 313 005a BA18     		adds	r2, r7, r2
 314 005c 1A60     		str	r2, [r3]
 454:Generated_Source\PSoC4/blue_1.c ****             
 455:Generated_Source\PSoC4/blue_1.c ****             /* Configure default BLE 4.1 features and enabled 4.2 features */
 456:Generated_Source\PSoC4/blue_1.c ****             stackConfig.feature_mask = CYBLE_DLE_FEATURE | CYBLE_LL_PRIVACY_FEATURE | 
 315              		.loc 1 456 0
 316 005e 1023     		movs	r3, #16
 317 0060 FB18     		adds	r3, r7, r3
 318 0062 0022     		movs	r2, #0
 319 0064 1A81     		strh	r2, [r3, #8]
 457:Generated_Source\PSoC4/blue_1.c ****                                        CYBLE_SECURE_CONN_FEATURE;
 458:Generated_Source\PSoC4/blue_1.c **** 
 459:Generated_Source\PSoC4/blue_1.c ****             /* Configure DLE */
 460:Generated_Source\PSoC4/blue_1.c ****             dleConfigParams.dleMaxTxCapability = CYBLE_LL_MAX_TX_PAYLOAD_SIZE;
 320              		.loc 1 460 0
 321 0066 2023     		movs	r3, #32
 322 0068 FB18     		adds	r3, r7, r3
 323 006a 1B22     		movs	r2, #27
 324 006c 1A80     		strh	r2, [r3]
 461:Generated_Source\PSoC4/blue_1.c ****             dleConfigParams.dleMaxRxCapability = CYBLE_LL_MAX_RX_PAYLOAD_SIZE;
 325              		.loc 1 461 0
 326 006e 2023     		movs	r3, #32
 327 0070 FB18     		adds	r3, r7, r3
 328 0072 1B22     		movs	r2, #27
 329 0074 5A80     		strh	r2, [r3, #2]
ARM GAS  C:\Users\alexport\AppData\Local\Temp\ccf6k4ea.s 			page 15


 462:Generated_Source\PSoC4/blue_1.c ****             dleConfigParams.dleNumTxBuffer = CYBLE_LL_DEFAULT_NUM_ACL_TX_PACKETS;
 330              		.loc 1 462 0
 331 0076 2023     		movs	r3, #32
 332 0078 FB18     		adds	r3, r7, r3
 333 007a 0422     		movs	r2, #4
 334 007c 1A71     		strb	r2, [r3, #4]
 463:Generated_Source\PSoC4/blue_1.c ****         #if(CYBLE_DLE_FEATURE_ENABLED)
 464:Generated_Source\PSoC4/blue_1.c ****             CyBle_EnableDleFeature();              /* Enable DLE code in stack */
 465:Generated_Source\PSoC4/blue_1.c ****         #endif /* CYBLE_DLE_FEATURE_ENABLED */
 466:Generated_Source\PSoC4/blue_1.c ****         
 467:Generated_Source\PSoC4/blue_1.c ****             /* Configure LL Privacy */
 468:Generated_Source\PSoC4/blue_1.c ****             privacyConfigParams.resolvingListSize = CYBLE_MAX_RESOLVABLE_DEVICES;
 335              		.loc 1 468 0
 336 007e 1C23     		movs	r3, #28
 337 0080 FB18     		adds	r3, r7, r3
 338 0082 0822     		movs	r2, #8
 339 0084 1A70     		strb	r2, [r3]
 469:Generated_Source\PSoC4/blue_1.c ****         #if(CYBLE_LL_PRIVACY_FEATURE_ENABLED)
 470:Generated_Source\PSoC4/blue_1.c ****             CyBle_EnablePrivacyFeature();          /* Enable LL Privacy code in stack */
 471:Generated_Source\PSoC4/blue_1.c ****         #endif /* CYBLE_LL_PRIVACY_FEATURE_ENABLED */
 472:Generated_Source\PSoC4/blue_1.c **** 
 473:Generated_Source\PSoC4/blue_1.c ****             apiResult = CyBle_StackSetFeatureConfig(&stackConfig, &featureHeapReq);
 340              		.loc 1 473 0
 341 0086 3E23     		movs	r3, #62
 342 0088 FC18     		adds	r4, r7, r3
 343 008a 0E23     		movs	r3, #14
 344 008c FA18     		adds	r2, r7, r3
 345 008e 1023     		movs	r3, #16
 346 0090 FB18     		adds	r3, r7, r3
 347 0092 1100     		movs	r1, r2
 348 0094 1800     		movs	r0, r3
 349 0096 FFF7FEFF 		bl	CyBle_StackSetFeatureConfig
 350 009a 0300     		movs	r3, r0
 351 009c 2380     		strh	r3, [r4]
 352              	.L8:
 353              	.LBE2:
 474:Generated_Source\PSoC4/blue_1.c ****             }
 475:Generated_Source\PSoC4/blue_1.c ****     
 476:Generated_Source\PSoC4/blue_1.c ****         if(apiResult == CYBLE_ERROR_OK)
 354              		.loc 1 476 0
 355 009e 3E23     		movs	r3, #62
 356 00a0 FB18     		adds	r3, r7, r3
 357 00a2 1B88     		ldrh	r3, [r3]
 358 00a4 002B     		cmp	r3, #0
 359 00a6 29D1     		bne	.L10
 477:Generated_Source\PSoC4/blue_1.c ****         {
 478:Generated_Source\PSoC4/blue_1.c ****         
 479:Generated_Source\PSoC4/blue_1.c ****         #if(CYBLE_MODE_PROFILE)
 480:Generated_Source\PSoC4/blue_1.c ****             #if(CYBLE_BONDING_REQUIREMENT == CYBLE_BONDING_YES)
 481:Generated_Source\PSoC4/blue_1.c ****                 apiResult = CyBle_StackInit(&CyBle_EventHandler, cyBle_stackMemoryRam, 
 360              		.loc 1 481 0
 361 00a8 3E23     		movs	r3, #62
 362 00aa FC18     		adds	r4, r7, r3
 363 00ac 2823     		movs	r3, #40
 364 00ae FD18     		adds	r5, r7, r3
 365 00b0 AE23     		movs	r3, #174
 366 00b2 1A01     		lsls	r2, r3, #4
ARM GAS  C:\Users\alexport\AppData\Local\Temp\ccf6k4ea.s 			page 16


 367 00b4 1849     		ldr	r1, .L12+12
 368 00b6 1948     		ldr	r0, .L12+16
 369 00b8 194B     		ldr	r3, .L12+20
 370 00ba 0293     		str	r3, [sp, #8]
 371 00bc 194B     		ldr	r3, .L12+24
 372 00be 0193     		str	r3, [sp, #4]
 373 00c0 0523     		movs	r3, #5
 374 00c2 0093     		str	r3, [sp]
 375 00c4 2B00     		movs	r3, r5
 376 00c6 FFF7FEFF 		bl	CyBle_StackInit
 377 00ca 0300     		movs	r3, r0
 378 00cc 2380     		strh	r3, [r4]
 482:Generated_Source\PSoC4/blue_1.c ****                     CYBLE_STACK_RAM_SIZE - CYBLE_GATT_PREPARE_WRITE_BUFF_LEN, cyBle_stackDataBuff, 
 483:Generated_Source\PSoC4/blue_1.c ****                     CYBLE_STACK_APP_MIN_POOL, cyBle_flashStorage.stackFlashptr, CYBLE_STACK_FLASH_S
 484:Generated_Source\PSoC4/blue_1.c ****             #else
 485:Generated_Source\PSoC4/blue_1.c ****                 apiResult = CyBle_StackInit(&CyBle_EventHandler, cyBle_stackMemoryRam, 
 486:Generated_Source\PSoC4/blue_1.c ****                     CYBLE_STACK_RAM_SIZE - CYBLE_GATT_PREPARE_WRITE_BUFF_LEN, cyBle_stackDataBuff, 
 487:Generated_Source\PSoC4/blue_1.c ****                     CYBLE_STACK_APP_MIN_POOL, NULL, 0u);
 488:Generated_Source\PSoC4/blue_1.c ****             #endif  /* CYBLE_BONDING_REQUIREMENT == CYBLE_BONDING_YES */
 489:Generated_Source\PSoC4/blue_1.c ****         #else /* HCI mode */
 490:Generated_Source\PSoC4/blue_1.c ****             /* The following will perform preparation to use HCI over UART or over
 491:Generated_Source\PSoC4/blue_1.c ****                software. But the following fucntions will not initialize the HCI
 492:Generated_Source\PSoC4/blue_1.c ****                Transport. This will be done as part of Stack initialization, so
 493:Generated_Source\PSoC4/blue_1.c ****                the functions should be called prior CyBle_StackInit().
 494:Generated_Source\PSoC4/blue_1.c ****             */
 495:Generated_Source\PSoC4/blue_1.c ****             #if (CYBLE_HCI_TYPE == CYBLE_HCI_OVER_UART)
 496:Generated_Source\PSoC4/blue_1.c ****                 CyBle_HciUartTransportEnable();
 497:Generated_Source\PSoC4/blue_1.c ****             #else
 498:Generated_Source\PSoC4/blue_1.c ****                 CyBle_HciSoftTransportEnable();
 499:Generated_Source\PSoC4/blue_1.c ****             #endif /* (CYBLE_HCI_TYPE == CYBLE_HCI_OVER_UART) */
 500:Generated_Source\PSoC4/blue_1.c ****             /* This will initialize BLE stack for HCI mode operation */
 501:Generated_Source\PSoC4/blue_1.c ****             apiResult = CyBle_StackInit(&CyBle_EventHandler, cyBle_stackMemoryRam, CYBLE_STACK_RAM_
 502:Generated_Source\PSoC4/blue_1.c ****                 NULL, 0u, NULL, 0u);
 503:Generated_Source\PSoC4/blue_1.c ****         #endif /* CYBLE_MODE_PROFILE */
 504:Generated_Source\PSoC4/blue_1.c **** 
 505:Generated_Source\PSoC4/blue_1.c ****             if(apiResult == CYBLE_ERROR_OK)
 379              		.loc 1 505 0
 380 00ce 3E23     		movs	r3, #62
 381 00d0 FB18     		adds	r3, r7, r3
 382 00d2 1B88     		ldrh	r3, [r3]
 383 00d4 002B     		cmp	r3, #0
 384 00d6 11D1     		bne	.L10
 506:Generated_Source\PSoC4/blue_1.c ****             {
 507:Generated_Source\PSoC4/blue_1.c ****                 CyBle_SetState(CYBLE_STATE_INITIALIZING);
 385              		.loc 1 507 0
 386 00d8 134B     		ldr	r3, .L12+28
 387 00da 0122     		movs	r2, #1
 388 00dc 1A70     		strb	r2, [r3]
 508:Generated_Source\PSoC4/blue_1.c ****                 
 509:Generated_Source\PSoC4/blue_1.c ****             #if (CYBLE_GATT_ROLE_CLIENT)
 510:Generated_Source\PSoC4/blue_1.c ****                 CyBle_SetClientState(CYBLE_CLIENT_STATE_DISCONNECTED);
 511:Generated_Source\PSoC4/blue_1.c ****             #endif /* CYBLE_GATT_ROLE_CLIENT */
 512:Generated_Source\PSoC4/blue_1.c ****                 
 513:Generated_Source\PSoC4/blue_1.c ****             #if(CYBLE_GATT_ROLE_SERVER)
 514:Generated_Source\PSoC4/blue_1.c ****                 apiResult = CyBle_GattsDbRegister(cyBle_gattDB, CYBLE_GATT_DB_INDEX_COUNT, CYBLE_GA
 389              		.loc 1 514 0
 390 00de 3E23     		movs	r3, #62
ARM GAS  C:\Users\alexport\AppData\Local\Temp\ccf6k4ea.s 			page 17


 391 00e0 FC18     		adds	r4, r7, r3
 392 00e2 124B     		ldr	r3, .L12+32
 393 00e4 1522     		movs	r2, #21
 394 00e6 A621     		movs	r1, #166
 395 00e8 1800     		movs	r0, r3
 396 00ea FFF7FEFF 		bl	CyBle_GattsDbRegister
 397 00ee 0300     		movs	r3, r0
 398 00f0 2380     		strh	r3, [r4]
 399 00f2 03E0     		b	.L10
 400              	.L7:
 515:Generated_Source\PSoC4/blue_1.c ****             #endif /* CYBLE_GATT_ROLE_SERVER */
 516:Generated_Source\PSoC4/blue_1.c ****             }
 517:Generated_Source\PSoC4/blue_1.c ****         }
 518:Generated_Source\PSoC4/blue_1.c ****     }
 519:Generated_Source\PSoC4/blue_1.c ****     else
 520:Generated_Source\PSoC4/blue_1.c ****     {
 521:Generated_Source\PSoC4/blue_1.c ****         apiResult = CYBLE_ERROR_INVALID_PARAMETER;
 401              		.loc 1 521 0
 402 00f4 3E23     		movs	r3, #62
 403 00f6 FB18     		adds	r3, r7, r3
 404 00f8 0122     		movs	r2, #1
 405 00fa 1A80     		strh	r2, [r3]
 406              	.L10:
 522:Generated_Source\PSoC4/blue_1.c ****     }
 523:Generated_Source\PSoC4/blue_1.c **** 
 524:Generated_Source\PSoC4/blue_1.c ****     return (apiResult);
 407              		.loc 1 524 0
 408 00fc 3E23     		movs	r3, #62
 409 00fe FB18     		adds	r3, r7, r3
 410 0100 1B88     		ldrh	r3, [r3]
 525:Generated_Source\PSoC4/blue_1.c **** }
 411              		.loc 1 525 0
 412 0102 1800     		movs	r0, r3
 413 0104 BD46     		mov	sp, r7
 414 0106 10B0     		add	sp, sp, #64
 415              		@ sp needed
 416 0108 B0BD     		pop	{r4, r5, r7, pc}
 417              	.L13:
 418 010a C046     		.align	2
 419              	.L12:
 420 010c 00000000 		.word	.LC0
 421 0110 00000000 		.word	cyBle_initVar
 422 0114 00000000 		.word	CyBle_ApplCallback
 423 0118 00000000 		.word	cyBle_stackMemoryRam
 424 011c 00000000 		.word	CyBle_EventHandler
 425 0120 79020000 		.word	633
 426 0124 00000000 		.word	cyBle_flashStorage
 427 0128 00000000 		.word	cyBle_state
 428 012c 00000000 		.word	cyBle_gattDB
 429              		.cfi_endproc
 430              	.LFE4:
 431              		.size	CyBle_Start, .-CyBle_Start
 432              		.section	.text.CyBle_Stop,"ax",%progbits
 433              		.align	2
 434              		.global	CyBle_Stop
 435              		.code	16
 436              		.thumb_func
ARM GAS  C:\Users\alexport\AppData\Local\Temp\ccf6k4ea.s 			page 18


 437              		.type	CyBle_Stop, %function
 438              	CyBle_Stop:
 439              	.LFB5:
 526:Generated_Source\PSoC4/blue_1.c **** 
 527:Generated_Source\PSoC4/blue_1.c **** 
 528:Generated_Source\PSoC4/blue_1.c **** /******************************************************************************
 529:Generated_Source\PSoC4/blue_1.c **** * Function Name: CyBle_Stop
 530:Generated_Source\PSoC4/blue_1.c **** ***************************************************************************//**
 531:Generated_Source\PSoC4/blue_1.c **** * 
 532:Generated_Source\PSoC4/blue_1.c **** *  This function stops any ongoing operation in the BLE Stack and forces the 
 533:Generated_Source\PSoC4/blue_1.c **** *  BLE Stack to shut down. The only function that can be called after calling
 534:Generated_Source\PSoC4/blue_1.c **** *  this function is CyBle_Start(). 
 535:Generated_Source\PSoC4/blue_1.c **** * 
 536:Generated_Source\PSoC4/blue_1.c **** * \return
 537:Generated_Source\PSoC4/blue_1.c **** *  None
 538:Generated_Source\PSoC4/blue_1.c **** * 
 539:Generated_Source\PSoC4/blue_1.c **** ******************************************************************************/
 540:Generated_Source\PSoC4/blue_1.c **** void CyBle_Stop(void)
 541:Generated_Source\PSoC4/blue_1.c **** {
 440              		.loc 1 541 0
 441              		.cfi_startproc
 442              		@ args = 0, pretend = 0, frame = 0
 443              		@ frame_needed = 1, uses_anonymous_args = 0
 444 0000 80B5     		push	{r7, lr}
 445              		.cfi_def_cfa_offset 8
 446              		.cfi_offset 7, -8
 447              		.cfi_offset 14, -4
 448 0002 00AF     		add	r7, sp, #0
 449              		.cfi_def_cfa_register 7
 542:Generated_Source\PSoC4/blue_1.c ****     CyBle_Shutdown();                         /* Stop all ongoing activities */
 450              		.loc 1 542 0
 451 0004 FFF7FEFF 		bl	CyBle_Shutdown
 543:Generated_Source\PSoC4/blue_1.c ****     CyBle_SetState(CYBLE_STATE_STOPPED);
 452              		.loc 1 543 0
 453 0008 024B     		ldr	r3, .L15
 454 000a 0022     		movs	r2, #0
 455 000c 1A70     		strb	r2, [r3]
 544:Generated_Source\PSoC4/blue_1.c ****     #if(CYBLE_SHARING_MODE_EXPORT)
 545:Generated_Source\PSoC4/blue_1.c ****         if(cyBle_stackMemoryRam != NULL)
 546:Generated_Source\PSoC4/blue_1.c ****         {
 547:Generated_Source\PSoC4/blue_1.c ****             free(cyBle_stackMemoryRam);
 548:Generated_Source\PSoC4/blue_1.c ****         }
 549:Generated_Source\PSoC4/blue_1.c ****     #endif /* CYBLE_SHARING_MODE_EXPORT */
 550:Generated_Source\PSoC4/blue_1.c **** }
 456              		.loc 1 550 0
 457 000e C046     		nop
 458 0010 BD46     		mov	sp, r7
 459              		@ sp needed
 460 0012 80BD     		pop	{r7, pc}
 461              	.L16:
 462              		.align	2
 463              	.L15:
 464 0014 00000000 		.word	cyBle_state
 465              		.cfi_endproc
 466              	.LFE5:
 467              		.size	CyBle_Stop, .-CyBle_Stop
 468              		.section	.text.CyBle_StoreBondingData,"ax",%progbits
ARM GAS  C:\Users\alexport\AppData\Local\Temp\ccf6k4ea.s 			page 19


 469              		.align	2
 470              		.global	CyBle_StoreBondingData
 471              		.code	16
 472              		.thumb_func
 473              		.type	CyBle_StoreBondingData, %function
 474              	CyBle_StoreBondingData:
 475              	.LFB6:
 551:Generated_Source\PSoC4/blue_1.c **** 
 552:Generated_Source\PSoC4/blue_1.c **** 
 553:Generated_Source\PSoC4/blue_1.c **** #if((CYBLE_GAP_ROLE_PERIPHERAL || CYBLE_GAP_ROLE_CENTRAL) && (CYBLE_BONDING_REQUIREMENT == CYBLE_BO
 554:Generated_Source\PSoC4/blue_1.c **** 
 555:Generated_Source\PSoC4/blue_1.c ****     
 556:Generated_Source\PSoC4/blue_1.c **** /******************************************************************************
 557:Generated_Source\PSoC4/blue_1.c **** * Function Name: CyBle_StoreBondingData
 558:Generated_Source\PSoC4/blue_1.c **** ***************************************************************************//**
 559:Generated_Source\PSoC4/blue_1.c **** * 
 560:Generated_Source\PSoC4/blue_1.c **** *  This function writes the new bonding data from RAM to the dedicated Flash 
 561:Generated_Source\PSoC4/blue_1.c **** *  location as defined by the component. It performs data comparing between RAM
 562:Generated_Source\PSoC4/blue_1.c **** *  and Flash before writing to Flash. If there is no change between RAM and Flash
 563:Generated_Source\PSoC4/blue_1.c **** *  data, then no write is performed. It writes only one flash row in one call.
 564:Generated_Source\PSoC4/blue_1.c **** *  Application should keep calling this function till it return CYBLE_ERROR_OK. 
 565:Generated_Source\PSoC4/blue_1.c **** *  This function is available only when Bonding requirement is selected in
 566:Generated_Source\PSoC4/blue_1.c **** *  Security settings.    
 567:Generated_Source\PSoC4/blue_1.c **** * 
 568:Generated_Source\PSoC4/blue_1.c **** *  \param isForceWrite:  If value is set to 0, then stack will check if flash write 
 569:Generated_Source\PSoC4/blue_1.c **** *                 is permissible. 
 570:Generated_Source\PSoC4/blue_1.c **** *  
 571:Generated_Source\PSoC4/blue_1.c **** * \return
 572:Generated_Source\PSoC4/blue_1.c **** *  Return value is of type CYBLE_API_RESULT_T.
 573:Generated_Source\PSoC4/blue_1.c **** *
 574:Generated_Source\PSoC4/blue_1.c **** *   Errors codes                         | Description
 575:Generated_Source\PSoC4/blue_1.c **** *   ----------------------------------   | ------------------------------------
 576:Generated_Source\PSoC4/blue_1.c **** *   CYBLE_ERROR_OK                       | On successful operation
 577:Generated_Source\PSoC4/blue_1.c **** *   CYBLE_ERROR_FLASH_WRITE_NOT_PERMITED | Flash Write is not complete
 578:Generated_Source\PSoC4/blue_1.c **** *   CYBLE_ERROR_INVALID_PARAMETER        | Invalid input parameter  
 579:Generated_Source\PSoC4/blue_1.c **** *   CYBLE_ERROR_FLASH_WRITE              | Error in flash Write	
 580:Generated_Source\PSoC4/blue_1.c ****     
 581:Generated_Source\PSoC4/blue_1.c **** *  \sideeffect
 582:Generated_Source\PSoC4/blue_1.c **** *   For BLE devices with 128K of Flash memory this function will automatically 
 583:Generated_Source\PSoC4/blue_1.c **** *   modify the clock settings for the device.
 584:Generated_Source\PSoC4/blue_1.c **** *   Writing to flash requires changes to be done to the IMO (set to 48 MHz)
 585:Generated_Source\PSoC4/blue_1.c **** *   and HFCLK (source set to IMO) settings. The configuration is restored before
 586:Generated_Source\PSoC4/blue_1.c **** *   returning. This will impact the operation of most of the hardware in the
 587:Generated_Source\PSoC4/blue_1.c **** *   device.
 588:Generated_Source\PSoC4/blue_1.c **** * 
 589:Generated_Source\PSoC4/blue_1.c **** *  \globalvars
 590:Generated_Source\PSoC4/blue_1.c **** *   The cyBle_pendingFlashWrite variable is used to detect status
 591:Generated_Source\PSoC4/blue_1.c **** *   of pending write to flash operation for stack data and CCCD.
 592:Generated_Source\PSoC4/blue_1.c **** *   This function automatically clears pending bits after write operation 
 593:Generated_Source\PSoC4/blue_1.c **** *   complete.
 594:Generated_Source\PSoC4/blue_1.c **** *     
 595:Generated_Source\PSoC4/blue_1.c **** ******************************************************************************/
 596:Generated_Source\PSoC4/blue_1.c **** CYBLE_API_RESULT_T CyBle_StoreBondingData(uint8 isForceWrite)
 597:Generated_Source\PSoC4/blue_1.c **** {
 476              		.loc 1 597 0
 477              		.cfi_startproc
 478              		@ args = 0, pretend = 0, frame = 232
ARM GAS  C:\Users\alexport\AppData\Local\Temp\ccf6k4ea.s 			page 20


 479              		@ frame_needed = 1, uses_anonymous_args = 0
 480 0000 90B5     		push	{r4, r7, lr}
 481              		.cfi_def_cfa_offset 12
 482              		.cfi_offset 4, -12
 483              		.cfi_offset 7, -8
 484              		.cfi_offset 14, -4
 485 0002 BBB0     		sub	sp, sp, #236
 486              		.cfi_def_cfa_offset 248
 487 0004 00AF     		add	r7, sp, #0
 488              		.cfi_def_cfa_register 7
 489 0006 0200     		movs	r2, r0
 490 0008 FB1D     		adds	r3, r7, #7
 491 000a 1A70     		strb	r2, [r3]
 598:Generated_Source\PSoC4/blue_1.c ****     CYBLE_API_RESULT_T apiResult = CYBLE_ERROR_OK;
 492              		.loc 1 598 0
 493 000c E623     		movs	r3, #230
 494 000e FB18     		adds	r3, r7, r3
 495 0010 0022     		movs	r2, #0
 496 0012 1A80     		strh	r2, [r3]
 599:Generated_Source\PSoC4/blue_1.c ****     
 600:Generated_Source\PSoC4/blue_1.c ****     /* Store Stack data */
 601:Generated_Source\PSoC4/blue_1.c ****     if((cyBle_pendingFlashWrite & CYBLE_PENDING_STACK_FLASH_WRITE_BIT) != 0u)
 497              		.loc 1 601 0
 498 0014 5F4B     		ldr	r3, .L27
 499 0016 1B78     		ldrb	r3, [r3]
 500 0018 1A00     		movs	r2, r3
 501 001a 0123     		movs	r3, #1
 502 001c 1340     		ands	r3, r2
 503 001e 1ED0     		beq	.L18
 602:Generated_Source\PSoC4/blue_1.c ****     {
 603:Generated_Source\PSoC4/blue_1.c ****         apiResult = CyBle_StoreStackData(isForceWrite);
 504              		.loc 1 603 0
 505 0020 E623     		movs	r3, #230
 506 0022 FC18     		adds	r4, r7, r3
 507 0024 FB1D     		adds	r3, r7, #7
 508 0026 1B78     		ldrb	r3, [r3]
 509 0028 1800     		movs	r0, r3
 510 002a FFF7FEFF 		bl	CyBle_StoreStackData
 511 002e 0300     		movs	r3, r0
 512 0030 2380     		strh	r3, [r4]
 604:Generated_Source\PSoC4/blue_1.c ****         if(apiResult == CYBLE_ERROR_OK)
 513              		.loc 1 604 0
 514 0032 E623     		movs	r3, #230
 515 0034 FB18     		adds	r3, r7, r3
 516 0036 1B88     		ldrh	r3, [r3]
 517 0038 002B     		cmp	r3, #0
 518 003a 10D1     		bne	.L18
 605:Generated_Source\PSoC4/blue_1.c ****         {
 606:Generated_Source\PSoC4/blue_1.c ****             cyBle_pendingFlashWrite &= (uint8)~CYBLE_PENDING_STACK_FLASH_WRITE_BIT;
 519              		.loc 1 606 0
 520 003c 554B     		ldr	r3, .L27
 521 003e 1B78     		ldrb	r3, [r3]
 522 0040 0122     		movs	r2, #1
 523 0042 9343     		bics	r3, r2
 524 0044 DAB2     		uxtb	r2, r3
 525 0046 534B     		ldr	r3, .L27
 526 0048 1A70     		strb	r2, [r3]
ARM GAS  C:\Users\alexport\AppData\Local\Temp\ccf6k4ea.s 			page 21


 607:Generated_Source\PSoC4/blue_1.c ****             /* Change apiResult if there are more pending data to store */
 608:Generated_Source\PSoC4/blue_1.c ****             if((cyBle_pendingFlashWrite & CYBLE_PENDING_CCCD_FLASH_WRITE_BIT) != 0u)
 527              		.loc 1 608 0
 528 004a 524B     		ldr	r3, .L27
 529 004c 1B78     		ldrb	r3, [r3]
 530 004e 1A00     		movs	r2, r3
 531 0050 0223     		movs	r3, #2
 532 0052 1340     		ands	r3, r2
 533 0054 03D0     		beq	.L18
 609:Generated_Source\PSoC4/blue_1.c ****             {
 610:Generated_Source\PSoC4/blue_1.c ****                 apiResult = CYBLE_ERROR_FLASH_WRITE_NOT_PERMITED;
 534              		.loc 1 610 0
 535 0056 E623     		movs	r3, #230
 536 0058 FB18     		adds	r3, r7, r3
 537 005a 2822     		movs	r2, #40
 538 005c 1A80     		strh	r2, [r3]
 539              	.L18:
 611:Generated_Source\PSoC4/blue_1.c ****             }
 612:Generated_Source\PSoC4/blue_1.c ****         }
 613:Generated_Source\PSoC4/blue_1.c ****     }
 614:Generated_Source\PSoC4/blue_1.c **** #if(CYBLE_GATT_DB_CCCD_COUNT != 0u)
 615:Generated_Source\PSoC4/blue_1.c ****     /* Store CCCD values */
 616:Generated_Source\PSoC4/blue_1.c ****     if( ((apiResult == CYBLE_ERROR_OK) || (isForceWrite != 0u)) && 
 540              		.loc 1 616 0
 541 005e E623     		movs	r3, #230
 542 0060 FB18     		adds	r3, r7, r3
 543 0062 1B88     		ldrh	r3, [r3]
 544 0064 002B     		cmp	r3, #0
 545 0066 03D0     		beq	.L19
 546              		.loc 1 616 0 is_stmt 0 discriminator 2
 547 0068 FB1D     		adds	r3, r7, #7
 548 006a 1B78     		ldrb	r3, [r3]
 549 006c 002B     		cmp	r3, #0
 550 006e 2AD0     		beq	.L20
 551              	.L19:
 617:Generated_Source\PSoC4/blue_1.c ****         ((cyBle_pendingFlashWrite & CYBLE_PENDING_CCCD_FLASH_WRITE_BIT) != 0u) &&
 552              		.loc 1 617 0 is_stmt 1 discriminator 3
 553 0070 484B     		ldr	r3, .L27
 554 0072 1B78     		ldrb	r3, [r3]
 555 0074 1A00     		movs	r2, r3
 556 0076 0223     		movs	r3, #2
 557 0078 1340     		ands	r3, r2
 616:Generated_Source\PSoC4/blue_1.c ****         ((cyBle_pendingFlashWrite & CYBLE_PENDING_CCCD_FLASH_WRITE_BIT) != 0u) &&
 558              		.loc 1 616 0 discriminator 3
 559 007a 24D0     		beq	.L20
 618:Generated_Source\PSoC4/blue_1.c ****         (cyBle_connHandle.bdHandle <= CYBLE_GAP_MAX_BONDED_DEVICE))
 560              		.loc 1 618 0
 561 007c 464B     		ldr	r3, .L27+4
 562 007e 1B78     		ldrb	r3, [r3]
 617:Generated_Source\PSoC4/blue_1.c ****         ((cyBle_pendingFlashWrite & CYBLE_PENDING_CCCD_FLASH_WRITE_BIT) != 0u) &&
 563              		.loc 1 617 0
 564 0080 042B     		cmp	r3, #4
 565 0082 20D8     		bhi	.L20
 619:Generated_Source\PSoC4/blue_1.c ****     {
 620:Generated_Source\PSoC4/blue_1.c ****         apiResult = CyBle_StoreAppData(cyBle_attValuesCCCD, cyBle_flashStorage.attValuesCCCDFlashMe
 621:Generated_Source\PSoC4/blue_1.c ****                         cyBle_connHandle.bdHandle], CYBLE_GATT_DB_CCCD_COUNT, isForceWrite);
 566              		.loc 1 621 0
ARM GAS  C:\Users\alexport\AppData\Local\Temp\ccf6k4ea.s 			page 22


 567 0084 444B     		ldr	r3, .L27+4
 568 0086 1B78     		ldrb	r3, [r3]
 620:Generated_Source\PSoC4/blue_1.c ****                         cyBle_connHandle.bdHandle], CYBLE_GATT_DB_CCCD_COUNT, isForceWrite);
 569              		.loc 1 620 0
 570 0088 1A00     		movs	r2, r3
 571 008a 2C23     		movs	r3, #44
 572 008c 5343     		muls	r3, r2
 573 008e 9E22     		movs	r2, #158
 574 0090 9200     		lsls	r2, r2, #2
 575 0092 9A18     		adds	r2, r3, r2
 576 0094 414B     		ldr	r3, .L27+8
 577 0096 D318     		adds	r3, r2, r3
 578 0098 591C     		adds	r1, r3, #1
 579 009a E623     		movs	r3, #230
 580 009c FC18     		adds	r4, r7, r3
 581 009e FB1D     		adds	r3, r7, #7
 582 00a0 1B78     		ldrb	r3, [r3]
 583 00a2 3F48     		ldr	r0, .L27+12
 584 00a4 2C22     		movs	r2, #44
 585 00a6 FFF7FEFF 		bl	CyBle_StoreAppData
 586 00aa 0300     		movs	r3, r0
 587 00ac 2380     		strh	r3, [r4]
 622:Generated_Source\PSoC4/blue_1.c ****         if(apiResult == CYBLE_ERROR_OK)
 588              		.loc 1 622 0
 589 00ae E623     		movs	r3, #230
 590 00b0 FB18     		adds	r3, r7, r3
 591 00b2 1B88     		ldrh	r3, [r3]
 592 00b4 002B     		cmp	r3, #0
 593 00b6 06D1     		bne	.L20
 623:Generated_Source\PSoC4/blue_1.c ****         {
 624:Generated_Source\PSoC4/blue_1.c ****             cyBle_pendingFlashWrite &= (uint8)~CYBLE_PENDING_CCCD_FLASH_WRITE_BIT;
 594              		.loc 1 624 0
 595 00b8 364B     		ldr	r3, .L27
 596 00ba 1B78     		ldrb	r3, [r3]
 597 00bc 0222     		movs	r2, #2
 598 00be 9343     		bics	r3, r2
 599 00c0 DAB2     		uxtb	r2, r3
 600 00c2 344B     		ldr	r3, .L27
 601 00c4 1A70     		strb	r2, [r3]
 602              	.L20:
 625:Generated_Source\PSoC4/blue_1.c ****         }
 626:Generated_Source\PSoC4/blue_1.c ****     }
 627:Generated_Source\PSoC4/blue_1.c ****     /* Clear requested CCCD values */
 628:Generated_Source\PSoC4/blue_1.c ****     if( ((apiResult == CYBLE_ERROR_OK) || (isForceWrite != 0u)) && 
 603              		.loc 1 628 0
 604 00c6 E623     		movs	r3, #230
 605 00c8 FB18     		adds	r3, r7, r3
 606 00ca 1B88     		ldrh	r3, [r3]
 607 00cc 002B     		cmp	r3, #0
 608 00ce 03D0     		beq	.L21
 609              		.loc 1 628 0 is_stmt 0 discriminator 2
 610 00d0 FB1D     		adds	r3, r7, #7
 611 00d2 1B78     		ldrb	r3, [r3]
 612 00d4 002B     		cmp	r3, #0
 613 00d6 55D0     		beq	.L22
 614              	.L21:
 629:Generated_Source\PSoC4/blue_1.c ****         ((cyBle_pendingFlashWrite & CYBLE_PENDING_CCCD_FLASH_CLEAR_MASK) != 0u) )
ARM GAS  C:\Users\alexport\AppData\Local\Temp\ccf6k4ea.s 			page 23


 615              		.loc 1 629 0 is_stmt 1 discriminator 3
 616 00d8 2E4B     		ldr	r3, .L27
 617 00da 1B78     		ldrb	r3, [r3]
 618 00dc 1A00     		movs	r2, r3
 619 00de 0C23     		movs	r3, #12
 620 00e0 1340     		ands	r3, r2
 628:Generated_Source\PSoC4/blue_1.c ****         ((cyBle_pendingFlashWrite & CYBLE_PENDING_CCCD_FLASH_CLEAR_MASK) != 0u) )
 621              		.loc 1 628 0 discriminator 3
 622 00e2 4FD0     		beq	.L22
 630:Generated_Source\PSoC4/blue_1.c ****     {
 631:Generated_Source\PSoC4/blue_1.c ****         if((cyBle_pendingFlashWrite & CYBLE_PENDING_CCCD_FLASH_CLEAR_ALL_BIT) != 0u)
 623              		.loc 1 631 0
 624 00e4 2B4B     		ldr	r3, .L27
 625 00e6 1B78     		ldrb	r3, [r3]
 626 00e8 1A00     		movs	r2, r3
 627 00ea 0823     		movs	r3, #8
 628 00ec 1340     		ands	r3, r2
 629 00ee 1FD0     		beq	.L23
 630              	.LBB3:
 632:Generated_Source\PSoC4/blue_1.c ****         {
 633:Generated_Source\PSoC4/blue_1.c ****             /* Remove cccd values for all bonded devices */
 634:Generated_Source\PSoC4/blue_1.c ****             uint8 defaultValuesCCCD[CYBLE_GAP_MAX_BONDED_DEVICE + 1u][CYBLE_GATT_DB_CCCD_COUNT];
 635:Generated_Source\PSoC4/blue_1.c ****             
 636:Generated_Source\PSoC4/blue_1.c ****             (void)memset(defaultValuesCCCD, 0, sizeof(defaultValuesCCCD));
 631              		.loc 1 636 0
 632 00f0 0823     		movs	r3, #8
 633 00f2 FB18     		adds	r3, r7, r3
 634 00f4 DC22     		movs	r2, #220
 635 00f6 0021     		movs	r1, #0
 636 00f8 1800     		movs	r0, r3
 637 00fa FFF7FEFF 		bl	memset
 637:Generated_Source\PSoC4/blue_1.c **** 
 638:Generated_Source\PSoC4/blue_1.c ****             apiResult = CyBle_StoreAppData((uint8 *)defaultValuesCCCD, 
 638              		.loc 1 638 0
 639 00fe E623     		movs	r3, #230
 640 0100 FC18     		adds	r4, r7, r3
 641 0102 FB1D     		adds	r3, r7, #7
 642 0104 1B78     		ldrb	r3, [r3]
 643 0106 2749     		ldr	r1, .L27+16
 644 0108 0822     		movs	r2, #8
 645 010a B818     		adds	r0, r7, r2
 646 010c DC22     		movs	r2, #220
 647 010e FFF7FEFF 		bl	CyBle_StoreAppData
 648 0112 0300     		movs	r3, r0
 649 0114 2380     		strh	r3, [r4]
 639:Generated_Source\PSoC4/blue_1.c ****                 (const uint8 *)cyBle_flashStorage.attValuesCCCDFlashMemory, sizeof(defaultValuesCCC
 640:Generated_Source\PSoC4/blue_1.c ****             if(apiResult == CYBLE_ERROR_OK)
 650              		.loc 1 640 0
 651 0116 E623     		movs	r3, #230
 652 0118 FB18     		adds	r3, r7, r3
 653 011a 1B88     		ldrh	r3, [r3]
 654 011c 002B     		cmp	r3, #0
 655 011e 31D1     		bne	.L22
 641:Generated_Source\PSoC4/blue_1.c ****             {
 642:Generated_Source\PSoC4/blue_1.c ****                 cyBle_pendingFlashWrite &= (uint8)~CYBLE_PENDING_CCCD_FLASH_CLEAR_ALL_BIT;
 656              		.loc 1 642 0
 657 0120 1C4B     		ldr	r3, .L27
ARM GAS  C:\Users\alexport\AppData\Local\Temp\ccf6k4ea.s 			page 24


 658 0122 1B78     		ldrb	r3, [r3]
 659 0124 0822     		movs	r2, #8
 660 0126 9343     		bics	r3, r2
 661 0128 DAB2     		uxtb	r2, r3
 662 012a 1A4B     		ldr	r3, .L27
 663 012c 1A70     		strb	r2, [r3]
 664 012e 29E0     		b	.L22
 665              	.L23:
 666              	.LBE3:
 667              	.LBB4:
 643:Generated_Source\PSoC4/blue_1.c ****             }
 644:Generated_Source\PSoC4/blue_1.c ****         }
 645:Generated_Source\PSoC4/blue_1.c ****         else /* Remove cccd values for particular device */
 646:Generated_Source\PSoC4/blue_1.c ****         {
 647:Generated_Source\PSoC4/blue_1.c ****             uint8 defaultValuesCCCD[CYBLE_GATT_DB_CCCD_COUNT] = {0u};
 668              		.loc 1 647 0
 669 0130 0823     		movs	r3, #8
 670 0132 FB18     		adds	r3, r7, r3
 671 0134 1800     		movs	r0, r3
 672 0136 2C23     		movs	r3, #44
 673 0138 1A00     		movs	r2, r3
 674 013a 0021     		movs	r1, #0
 675 013c FFF7FEFF 		bl	memset
 648:Generated_Source\PSoC4/blue_1.c ****             
 649:Generated_Source\PSoC4/blue_1.c ****             apiResult = CyBle_StoreAppData(defaultValuesCCCD, cyBle_flashStorage.attValuesCCCDFlash
 676              		.loc 1 649 0
 677 0140 194B     		ldr	r3, .L27+20
 678 0142 1B78     		ldrb	r3, [r3]
 679 0144 1A00     		movs	r2, r3
 680 0146 2C23     		movs	r3, #44
 681 0148 5343     		muls	r3, r2
 682 014a 9E22     		movs	r2, #158
 683 014c 9200     		lsls	r2, r2, #2
 684 014e 9A18     		adds	r2, r3, r2
 685 0150 124B     		ldr	r3, .L27+8
 686 0152 D318     		adds	r3, r2, r3
 687 0154 591C     		adds	r1, r3, #1
 688 0156 E623     		movs	r3, #230
 689 0158 FC18     		adds	r4, r7, r3
 690 015a FB1D     		adds	r3, r7, #7
 691 015c 1B78     		ldrb	r3, [r3]
 692 015e 0822     		movs	r2, #8
 693 0160 B818     		adds	r0, r7, r2
 694 0162 2C22     		movs	r2, #44
 695 0164 FFF7FEFF 		bl	CyBle_StoreAppData
 696 0168 0300     		movs	r3, r0
 697 016a 2380     		strh	r3, [r4]
 650:Generated_Source\PSoC4/blue_1.c ****                                     cyBle_pendingFlashClearCccdHandle], CYBLE_GATT_DB_CCCD_COUNT, i
 651:Generated_Source\PSoC4/blue_1.c ****             if(apiResult == CYBLE_ERROR_OK)
 698              		.loc 1 651 0
 699 016c E623     		movs	r3, #230
 700 016e FB18     		adds	r3, r7, r3
 701 0170 1B88     		ldrh	r3, [r3]
 702 0172 002B     		cmp	r3, #0
 703 0174 06D1     		bne	.L22
 652:Generated_Source\PSoC4/blue_1.c ****             {
 653:Generated_Source\PSoC4/blue_1.c ****                 cyBle_pendingFlashWrite &= (uint8)~CYBLE_PENDING_CCCD_FLASH_CLEAR_BIT;
ARM GAS  C:\Users\alexport\AppData\Local\Temp\ccf6k4ea.s 			page 25


 704              		.loc 1 653 0
 705 0176 074B     		ldr	r3, .L27
 706 0178 1B78     		ldrb	r3, [r3]
 707 017a 0422     		movs	r2, #4
 708 017c 9343     		bics	r3, r2
 709 017e DAB2     		uxtb	r2, r3
 710 0180 044B     		ldr	r3, .L27
 711 0182 1A70     		strb	r2, [r3]
 712              	.L22:
 713              	.LBE4:
 654:Generated_Source\PSoC4/blue_1.c ****             }
 655:Generated_Source\PSoC4/blue_1.c ****         }
 656:Generated_Source\PSoC4/blue_1.c ****     }
 657:Generated_Source\PSoC4/blue_1.c **** #endif /* CYBLE_GATT_DB_CCCD_COUNT != 0u */
 658:Generated_Source\PSoC4/blue_1.c ****     return(apiResult);
 714              		.loc 1 658 0
 715 0184 E623     		movs	r3, #230
 716 0186 FB18     		adds	r3, r7, r3
 717 0188 1B88     		ldrh	r3, [r3]
 659:Generated_Source\PSoC4/blue_1.c **** }
 718              		.loc 1 659 0
 719 018a 1800     		movs	r0, r3
 720 018c BD46     		mov	sp, r7
 721 018e 3BB0     		add	sp, sp, #236
 722              		@ sp needed
 723 0190 90BD     		pop	{r4, r7, pc}
 724              	.L28:
 725 0192 C046     		.align	2
 726              	.L27:
 727 0194 00000000 		.word	cyBle_pendingFlashWrite
 728 0198 00000000 		.word	cyBle_connHandle
 729 019c 00000000 		.word	cyBle_flashStorage
 730 01a0 00000000 		.word	cyBle_attValuesCCCD
 731 01a4 79020000 		.word	cyBle_flashStorage+633
 732 01a8 24000000 		.word	cyBle_pendingFlashClearCccdHandle
 733              		.cfi_endproc
 734              	.LFE6:
 735              		.size	CyBle_StoreBondingData, .-CyBle_StoreBondingData
 736              		.section	.text.CyBle_GapRemoveBondedDevice,"ax",%progbits
 737              		.align	2
 738              		.global	CyBle_GapRemoveBondedDevice
 739              		.code	16
 740              		.thumb_func
 741              		.type	CyBle_GapRemoveBondedDevice, %function
 742              	CyBle_GapRemoveBondedDevice:
 743              	.LFB7:
 660:Generated_Source\PSoC4/blue_1.c **** 
 661:Generated_Source\PSoC4/blue_1.c **** 
 662:Generated_Source\PSoC4/blue_1.c **** /******************************************************************************
 663:Generated_Source\PSoC4/blue_1.c **** * Function Name: CyBle_GapRemoveBondedDevice
 664:Generated_Source\PSoC4/blue_1.c **** ***************************************************************************//**
 665:Generated_Source\PSoC4/blue_1.c **** * 
 666:Generated_Source\PSoC4/blue_1.c **** *  This function marks the device untrusted. It removes the bonding information
 667:Generated_Source\PSoC4/blue_1.c **** *  of the device including CCCD values. This function removes device from the
 668:Generated_Source\PSoC4/blue_1.c **** *  white list also when autopopulate white list with bonded devices option is
 669:Generated_Source\PSoC4/blue_1.c **** *  enabled.
 670:Generated_Source\PSoC4/blue_1.c **** * 
ARM GAS  C:\Users\alexport\AppData\Local\Temp\ccf6k4ea.s 			page 26


 671:Generated_Source\PSoC4/blue_1.c **** *  This function is available only when Bonding requirement is selected in
 672:Generated_Source\PSoC4/blue_1.c **** *  Security settings.    
 673:Generated_Source\PSoC4/blue_1.c **** *
 674:Generated_Source\PSoC4/blue_1.c **** *  \param bdAddr: Pointer to peer device address, of type CYBLE_GAP_BD_ADDR_T.
 675:Generated_Source\PSoC4/blue_1.c **** *                 If device address is set to 0, then all devices shall be
 676:Generated_Source\PSoC4/blue_1.c **** *                 removed from trusted list and white list.
 677:Generated_Source\PSoC4/blue_1.c **** *
 678:Generated_Source\PSoC4/blue_1.c **** * \return
 679:Generated_Source\PSoC4/blue_1.c **** *  CYBLE_API_RESULT_T : Return value indicates if the function succeeded or
 680:Generated_Source\PSoC4/blue_1.c **** *  failed. Following are the possible error codes.
 681:Generated_Source\PSoC4/blue_1.c **** *
 682:Generated_Source\PSoC4/blue_1.c **** *   Errors codes                     | Description
 683:Generated_Source\PSoC4/blue_1.c **** *   ---------------------------------| ------------------------------------
 684:Generated_Source\PSoC4/blue_1.c **** *   CYBLE_ERROR_OK                   | On successful operation.
 685:Generated_Source\PSoC4/blue_1.c **** *   CYBLE_ERROR_INVALID_PARAMETER    | On specifying NULL as input parameter for 'bdAddr'.
 686:Generated_Source\PSoC4/blue_1.c **** *   CYBLE_ERROR_INVALID_OPERATION    | Whitelist is already in use or there is pending write to fla
 687:Generated_Source\PSoC4/blue_1.c **** *   CYBLE_ERROR_NO_DEVICE_ENTITY     | Device does not exist in the bond list.
 688:Generated_Source\PSoC4/blue_1.c **** *
 689:Generated_Source\PSoC4/blue_1.c **** *  \globalvars
 690:Generated_Source\PSoC4/blue_1.c **** *   The bdHandle is set in cyBle_pendingFlashWrite variable to indicate that
 691:Generated_Source\PSoC4/blue_1.c **** *   data should be stored to flash by CyBle_StoreBondingData() afterwards. 
 692:Generated_Source\PSoC4/blue_1.c **** *     
 693:Generated_Source\PSoC4/blue_1.c **** ******************************************************************************/
 694:Generated_Source\PSoC4/blue_1.c **** CYBLE_API_RESULT_T CyBle_GapRemoveBondedDevice(CYBLE_GAP_BD_ADDR_T* bdAddr)
 695:Generated_Source\PSoC4/blue_1.c **** {
 744              		.loc 1 695 0
 745              		.cfi_startproc
 746              		@ args = 0, pretend = 0, frame = 24
 747              		@ frame_needed = 1, uses_anonymous_args = 0
 748 0000 90B5     		push	{r4, r7, lr}
 749              		.cfi_def_cfa_offset 12
 750              		.cfi_offset 4, -12
 751              		.cfi_offset 7, -8
 752              		.cfi_offset 14, -4
 753 0002 87B0     		sub	sp, sp, #28
 754              		.cfi_def_cfa_offset 40
 755 0004 00AF     		add	r7, sp, #0
 756              		.cfi_def_cfa_register 7
 757 0006 7860     		str	r0, [r7, #4]
 696:Generated_Source\PSoC4/blue_1.c ****     CYBLE_API_RESULT_T apiResult = CYBLE_ERROR_OK;
 758              		.loc 1 696 0
 759 0008 1623     		movs	r3, #22
 760 000a FB18     		adds	r3, r7, r3
 761 000c 0022     		movs	r2, #0
 762 000e 1A80     		strh	r2, [r3]
 697:Generated_Source\PSoC4/blue_1.c ****     
 698:Generated_Source\PSoC4/blue_1.c ****     if(cyBle_pendingFlashWrite == 0u)
 763              		.loc 1 698 0
 764 0010 284B     		ldr	r3, .L36
 765 0012 1B78     		ldrb	r3, [r3]
 766 0014 002B     		cmp	r3, #0
 767 0016 42D1     		bne	.L30
 768              	.LBB5:
 699:Generated_Source\PSoC4/blue_1.c ****     {
 700:Generated_Source\PSoC4/blue_1.c ****         
 701:Generated_Source\PSoC4/blue_1.c ****     #if(CYBLE_GATT_DB_CCCD_COUNT != 0u)
 702:Generated_Source\PSoC4/blue_1.c ****         /* Request to clear CCCD values which will be done by CyBle_StoreBondingData() */
ARM GAS  C:\Users\alexport\AppData\Local\Temp\ccf6k4ea.s 			page 27


 703:Generated_Source\PSoC4/blue_1.c ****         uint8 bDevHandle;
 704:Generated_Source\PSoC4/blue_1.c ****         CYBLE_GAP_BD_ADDR_T invalidBdAddr = {{0u,0u,0u,0u,0u,0u}, 0u};
 769              		.loc 1 704 0
 770 0018 0C23     		movs	r3, #12
 771 001a FB18     		adds	r3, r7, r3
 772 001c 1800     		movs	r0, r3
 773 001e 0723     		movs	r3, #7
 774 0020 1A00     		movs	r2, r3
 775 0022 0021     		movs	r1, #0
 776 0024 FFF7FEFF 		bl	memset
 705:Generated_Source\PSoC4/blue_1.c **** 
 706:Generated_Source\PSoC4/blue_1.c ****         if(memcmp(((uint8 *) &(bdAddr->bdAddr)), ((uint8 *) &(invalidBdAddr.bdAddr)), CYBLE_GAP_BD_
 777              		.loc 1 706 0
 778 0028 7B68     		ldr	r3, [r7, #4]
 779 002a 0C22     		movs	r2, #12
 780 002c B918     		adds	r1, r7, r2
 781 002e 0622     		movs	r2, #6
 782 0030 1800     		movs	r0, r3
 783 0032 FFF7FEFF 		bl	memcmp
 784 0036 031E     		subs	r3, r0, #0
 785 0038 07D1     		bne	.L31
 707:Generated_Source\PSoC4/blue_1.c **** 	    {
 708:Generated_Source\PSoC4/blue_1.c ****             /* Request to remove all bonded devices by CyBle_StoreBondingData() */
 709:Generated_Source\PSoC4/blue_1.c ****             cyBle_pendingFlashWrite |= CYBLE_PENDING_CCCD_FLASH_CLEAR_ALL_BIT;
 786              		.loc 1 709 0
 787 003a 1E4B     		ldr	r3, .L36
 788 003c 1B78     		ldrb	r3, [r3]
 789 003e 0822     		movs	r2, #8
 790 0040 1343     		orrs	r3, r2
 791 0042 DAB2     		uxtb	r2, r3
 792 0044 1B4B     		ldr	r3, .L36
 793 0046 1A70     		strb	r2, [r3]
 794 0048 1BE0     		b	.L32
 795              	.L31:
 710:Generated_Source\PSoC4/blue_1.c ****         }
 711:Generated_Source\PSoC4/blue_1.c ****         else
 712:Generated_Source\PSoC4/blue_1.c ****         {
 713:Generated_Source\PSoC4/blue_1.c ****             /* Get the BD handle from Address */
 714:Generated_Source\PSoC4/blue_1.c ****             apiResult = CyBle_GapGetPeerBdHandle(&bDevHandle, bdAddr);
 796              		.loc 1 714 0
 797 004a 1623     		movs	r3, #22
 798 004c FC18     		adds	r4, r7, r3
 799 004e 7A68     		ldr	r2, [r7, #4]
 800 0050 1523     		movs	r3, #21
 801 0052 FB18     		adds	r3, r7, r3
 802 0054 1100     		movs	r1, r2
 803 0056 1800     		movs	r0, r3
 804 0058 FFF7FEFF 		bl	CyBle_GapGetPeerBdHandle
 805 005c 0300     		movs	r3, r0
 806 005e 2380     		strh	r3, [r4]
 715:Generated_Source\PSoC4/blue_1.c ****             if(apiResult == CYBLE_ERROR_OK)
 807              		.loc 1 715 0
 808 0060 1623     		movs	r3, #22
 809 0062 FB18     		adds	r3, r7, r3
 810 0064 1B88     		ldrh	r3, [r3]
 811 0066 002B     		cmp	r3, #0
 812 0068 0BD1     		bne	.L32
ARM GAS  C:\Users\alexport\AppData\Local\Temp\ccf6k4ea.s 			page 28


 716:Generated_Source\PSoC4/blue_1.c ****             {
 717:Generated_Source\PSoC4/blue_1.c ****                 /* Store BD handle to clear cccd values by CyBle_StoreBondingData() */
 718:Generated_Source\PSoC4/blue_1.c ****                 cyBle_pendingFlashWrite |= CYBLE_PENDING_CCCD_FLASH_CLEAR_BIT;
 813              		.loc 1 718 0
 814 006a 124B     		ldr	r3, .L36
 815 006c 1B78     		ldrb	r3, [r3]
 816 006e 0422     		movs	r2, #4
 817 0070 1343     		orrs	r3, r2
 818 0072 DAB2     		uxtb	r2, r3
 819 0074 0F4B     		ldr	r3, .L36
 820 0076 1A70     		strb	r2, [r3]
 719:Generated_Source\PSoC4/blue_1.c ****                 cyBle_pendingFlashClearCccdHandle = bDevHandle;
 821              		.loc 1 719 0
 822 0078 1523     		movs	r3, #21
 823 007a FB18     		adds	r3, r7, r3
 824 007c 1A78     		ldrb	r2, [r3]
 825 007e 0E4B     		ldr	r3, .L36+4
 826 0080 1A70     		strb	r2, [r3]
 827              	.L32:
 720:Generated_Source\PSoC4/blue_1.c ****             }
 721:Generated_Source\PSoC4/blue_1.c ****         }
 722:Generated_Source\PSoC4/blue_1.c ****     #endif /* CYBLE_GATT_DB_CCCD_COUNT != 0u */
 723:Generated_Source\PSoC4/blue_1.c ****         if(apiResult == CYBLE_ERROR_OK)
 828              		.loc 1 723 0
 829 0082 1623     		movs	r3, #22
 830 0084 FB18     		adds	r3, r7, r3
 831 0086 1B88     		ldrh	r3, [r3]
 832 0088 002B     		cmp	r3, #0
 833 008a 0CD1     		bne	.L34
 724:Generated_Source\PSoC4/blue_1.c ****         {
 725:Generated_Source\PSoC4/blue_1.c ****             apiResult = CyBle_GapRemoveDeviceFromWhiteList(bdAddr);
 834              		.loc 1 725 0
 835 008c 1623     		movs	r3, #22
 836 008e FC18     		adds	r4, r7, r3
 837 0090 7B68     		ldr	r3, [r7, #4]
 838 0092 1800     		movs	r0, r3
 839 0094 FFF7FEFF 		bl	CyBle_GapRemoveDeviceFromWhiteList
 840 0098 0300     		movs	r3, r0
 841 009a 2380     		strh	r3, [r4]
 842 009c 03E0     		b	.L34
 843              	.L30:
 844              	.LBE5:
 726:Generated_Source\PSoC4/blue_1.c ****         }
 727:Generated_Source\PSoC4/blue_1.c ****     }
 728:Generated_Source\PSoC4/blue_1.c ****     else
 729:Generated_Source\PSoC4/blue_1.c ****     {
 730:Generated_Source\PSoC4/blue_1.c ****         apiResult = CYBLE_ERROR_INVALID_OPERATION;
 845              		.loc 1 730 0
 846 009e 1623     		movs	r3, #22
 847 00a0 FB18     		adds	r3, r7, r3
 848 00a2 0222     		movs	r2, #2
 849 00a4 1A80     		strh	r2, [r3]
 850              	.L34:
 731:Generated_Source\PSoC4/blue_1.c ****     }
 732:Generated_Source\PSoC4/blue_1.c ****     
 733:Generated_Source\PSoC4/blue_1.c ****     return(apiResult);
 851              		.loc 1 733 0
ARM GAS  C:\Users\alexport\AppData\Local\Temp\ccf6k4ea.s 			page 29


 852 00a6 1623     		movs	r3, #22
 853 00a8 FB18     		adds	r3, r7, r3
 854 00aa 1B88     		ldrh	r3, [r3]
 734:Generated_Source\PSoC4/blue_1.c **** }
 855              		.loc 1 734 0
 856 00ac 1800     		movs	r0, r3
 857 00ae BD46     		mov	sp, r7
 858 00b0 07B0     		add	sp, sp, #28
 859              		@ sp needed
 860 00b2 90BD     		pop	{r4, r7, pc}
 861              	.L37:
 862              		.align	2
 863              	.L36:
 864 00b4 00000000 		.word	cyBle_pendingFlashWrite
 865 00b8 24000000 		.word	cyBle_pendingFlashClearCccdHandle
 866              		.cfi_endproc
 867              	.LFE7:
 868              		.size	CyBle_GapRemoveBondedDevice, .-CyBle_GapRemoveBondedDevice
 869              		.section	.text.CyBle_GappStartAdvertisement,"ax",%progbits
 870              		.align	2
 871              		.global	CyBle_GappStartAdvertisement
 872              		.code	16
 873              		.thumb_func
 874              		.type	CyBle_GappStartAdvertisement, %function
 875              	CyBle_GappStartAdvertisement:
 876              	.LFB8:
 735:Generated_Source\PSoC4/blue_1.c **** 
 736:Generated_Source\PSoC4/blue_1.c **** 
 737:Generated_Source\PSoC4/blue_1.c **** #endif /* (CYBLE_GAP_ROLE_PERIPHERAL || CYBLE_GAP_ROLE_CENTRAL) && (CYBLE_BONDING_REQUIREMENT == CY
 738:Generated_Source\PSoC4/blue_1.c **** 
 739:Generated_Source\PSoC4/blue_1.c **** 
 740:Generated_Source\PSoC4/blue_1.c **** #if(CYBLE_GAP_ROLE_PERIPHERAL || CYBLE_GAP_ROLE_BROADCASTER)
 741:Generated_Source\PSoC4/blue_1.c **** 
 742:Generated_Source\PSoC4/blue_1.c ****     /******************************************************************************
 743:Generated_Source\PSoC4/blue_1.c ****     *  Function Name: CyBle_GappStartAdvertisement
 744:Generated_Source\PSoC4/blue_1.c ****     ***************************************************************************//**
 745:Generated_Source\PSoC4/blue_1.c ****     *     
 746:Generated_Source\PSoC4/blue_1.c ****     *  This function is used to start the advertisement using the advertisement data 
 747:Generated_Source\PSoC4/blue_1.c ****     *  set in the component customizer's GUI. After invoking this function, the 
 748:Generated_Source\PSoC4/blue_1.c ****     *  device will be available for connection by the devices configured for GAP 
 749:Generated_Source\PSoC4/blue_1.c ****     *  central role. It is only included if the device is configured for GAP 
 750:Generated_Source\PSoC4/blue_1.c ****     *  Peripheral or GAP Peripheral + Central role.
 751:Generated_Source\PSoC4/blue_1.c ****     *  
 752:Generated_Source\PSoC4/blue_1.c ****     *  On start of advertisement, GAP Peripheral receives the
 753:Generated_Source\PSoC4/blue_1.c ****     *  CYBLE_EVT_GAPP_ADVERTISEMENT_START_STOP event. The following events are 
 754:Generated_Source\PSoC4/blue_1.c ****     *  possible on invoking this function:
 755:Generated_Source\PSoC4/blue_1.c ****     *  
 756:Generated_Source\PSoC4/blue_1.c ****     *  * CYBLE_EVT_GAP_DEVICE_CONNECTED - If the device connects to a GAP Central and 
 757:Generated_Source\PSoC4/blue_1.c ****     *    Link Layer Privacy is disabled in component customizer.
 758:Generated_Source\PSoC4/blue_1.c ****     *  * CYBLE_EVT_GAP_ENHANCE_CONN_COMPLETE - If the device connects to a GAP Central and 
 759:Generated_Source\PSoC4/blue_1.c ****     *    Link Layer Privacy is enabled in component customizer.
 760:Generated_Source\PSoC4/blue_1.c ****     *  * CYBLE_EVT_TIMEOUT: If no device in GAP Central mode connects to this 
 761:Generated_Source\PSoC4/blue_1.c ****     *                       device within the specified timeout limit. Stack 
 762:Generated_Source\PSoC4/blue_1.c ****     *                       automatically initiate stop advertising when Slow 
 763:Generated_Source\PSoC4/blue_1.c ****     *                       advertising was initiated, or starts Slow advertising
 764:Generated_Source\PSoC4/blue_1.c ****     *                       after Fast advertising timeout occur.
 765:Generated_Source\PSoC4/blue_1.c ****     *  * CYBLE_EVT_GAPP_ADVERTISEMENT_START_STOP: If device started or stopped
ARM GAS  C:\Users\alexport\AppData\Local\Temp\ccf6k4ea.s 			page 30


 766:Generated_Source\PSoC4/blue_1.c ****     *                                               advertising. Use CyBle_GetState()
 767:Generated_Source\PSoC4/blue_1.c ****     *                                               to determine the state. Sequential 
 768:Generated_Source\PSoC4/blue_1.c ****     *                                               advertising could be started when
 769:Generated_Source\PSoC4/blue_1.c ****     *                                               CYBLE_STATE_DISCONNECTED state is
 770:Generated_Source\PSoC4/blue_1.c ****     *                                               returned.
 771:Generated_Source\PSoC4/blue_1.c ****     * 
 772:Generated_Source\PSoC4/blue_1.c ****     *  \param advertisingIntervalType: Fast or slow advertising interval with timings
 773:Generated_Source\PSoC4/blue_1.c ****     *                                 entered in Advertising settings section of the
 774:Generated_Source\PSoC4/blue_1.c ****     *                                 customizer.
 775:Generated_Source\PSoC4/blue_1.c ****     *  * CYBLE_ADVERTISING_FAST   0x00u
 776:Generated_Source\PSoC4/blue_1.c ****     *  * CYBLE_ADVERTISING_SLOW   0x01u
 777:Generated_Source\PSoC4/blue_1.c ****     *  * CYBLE_ADVERTISING_CUSTOM 0x02u
 778:Generated_Source\PSoC4/blue_1.c ****     * 
 779:Generated_Source\PSoC4/blue_1.c ****     * \return
 780:Generated_Source\PSoC4/blue_1.c ****     *  CYBLE_API_RESULT_T : Return value indicates if the function succeeded or
 781:Generated_Source\PSoC4/blue_1.c ****     *  failed. Following are the possible error codes.
 782:Generated_Source\PSoC4/blue_1.c ****     * 
 783:Generated_Source\PSoC4/blue_1.c ****     *   Errors codes                      |  Description
 784:Generated_Source\PSoC4/blue_1.c ****     *   --------------------------------- |  --------------------------------
 785:Generated_Source\PSoC4/blue_1.c ****     *   CYBLE_ERROR_OK                    |  On successful operation.
 786:Generated_Source\PSoC4/blue_1.c ****     *   CYBLE_ERROR_INVALID_PARAMETER     |  On passing an invalid parameter.
 787:Generated_Source\PSoC4/blue_1.c ****     *   CYBLE_ERROR_INVALID_STATE         |  On calling this function not in Disconnected state.
 788:Generated_Source\PSoC4/blue_1.c ****     *
 789:Generated_Source\PSoC4/blue_1.c ****     * 
 790:Generated_Source\PSoC4/blue_1.c ****     *******************************************************************************/
 791:Generated_Source\PSoC4/blue_1.c ****     CYBLE_API_RESULT_T CyBle_GappStartAdvertisement(uint8 advertisingIntervalType)
 792:Generated_Source\PSoC4/blue_1.c ****     {
 877              		.loc 1 792 0
 878              		.cfi_startproc
 879              		@ args = 0, pretend = 0, frame = 16
 880              		@ frame_needed = 1, uses_anonymous_args = 0
 881 0000 90B5     		push	{r4, r7, lr}
 882              		.cfi_def_cfa_offset 12
 883              		.cfi_offset 4, -12
 884              		.cfi_offset 7, -8
 885              		.cfi_offset 14, -4
 886 0002 85B0     		sub	sp, sp, #20
 887              		.cfi_def_cfa_offset 32
 888 0004 00AF     		add	r7, sp, #0
 889              		.cfi_def_cfa_register 7
 890 0006 0200     		movs	r2, r0
 891 0008 FB1D     		adds	r3, r7, #7
 892 000a 1A70     		strb	r2, [r3]
 793:Generated_Source\PSoC4/blue_1.c ****         CYBLE_API_RESULT_T apiResult;
 794:Generated_Source\PSoC4/blue_1.c ****         
 795:Generated_Source\PSoC4/blue_1.c ****         if(advertisingIntervalType > CYBLE_ADVERTISING_CUSTOM)
 893              		.loc 1 795 0
 894 000c FB1D     		adds	r3, r7, #7
 895 000e 1B78     		ldrb	r3, [r3]
 896 0010 022B     		cmp	r3, #2
 897 0012 04D9     		bls	.L39
 796:Generated_Source\PSoC4/blue_1.c ****         {
 797:Generated_Source\PSoC4/blue_1.c ****             apiResult = CYBLE_ERROR_INVALID_PARAMETER;
 898              		.loc 1 797 0
 899 0014 0E23     		movs	r3, #14
 900 0016 FB18     		adds	r3, r7, r3
 901 0018 0122     		movs	r2, #1
ARM GAS  C:\Users\alexport\AppData\Local\Temp\ccf6k4ea.s 			page 31


 902 001a 1A80     		strh	r2, [r3]
 903 001c 4AE0     		b	.L40
 904              	.L39:
 798:Generated_Source\PSoC4/blue_1.c ****         }
 799:Generated_Source\PSoC4/blue_1.c ****         else if((CYBLE_STATE_DISCONNECTED == CyBle_GetState()) && ((cyBle_eventHandlerFlag & CYBLE_
 905              		.loc 1 799 0
 906 001e 294B     		ldr	r3, .L46
 907 0020 1B78     		ldrb	r3, [r3]
 908 0022 042B     		cmp	r3, #4
 909 0024 41D1     		bne	.L41
 910              		.loc 1 799 0 is_stmt 0 discriminator 1
 911 0026 284B     		ldr	r3, .L46+4
 912 0028 1B78     		ldrb	r3, [r3]
 913 002a DBB2     		uxtb	r3, r3
 914 002c 1A00     		movs	r2, r3
 915 002e 0423     		movs	r3, #4
 916 0030 1340     		ands	r3, r2
 917 0032 3AD1     		bne	.L41
 800:Generated_Source\PSoC4/blue_1.c ****         {   
 801:Generated_Source\PSoC4/blue_1.c ****             if(advertisingIntervalType == CYBLE_ADVERTISING_FAST)
 918              		.loc 1 801 0 is_stmt 1
 919 0034 FB1D     		adds	r3, r7, #7
 920 0036 1B78     		ldrb	r3, [r3]
 921 0038 002B     		cmp	r3, #0
 922 003a 0BD1     		bne	.L42
 802:Generated_Source\PSoC4/blue_1.c ****             {
 803:Generated_Source\PSoC4/blue_1.c ****                 cyBle_discoveryModeInfo.advTo = CYBLE_FAST_ADV_TIMEOUT;
 923              		.loc 1 803 0
 924 003c 234B     		ldr	r3, .L46+8
 925 003e 0022     		movs	r2, #0
 926 0040 1A82     		strh	r2, [r3, #16]
 804:Generated_Source\PSoC4/blue_1.c ****                 cyBle_discoveryModeInfo.advParam->advIntvMin = CYBLE_FAST_ADV_INT_MIN;
 927              		.loc 1 804 0
 928 0042 224B     		ldr	r3, .L46+8
 929 0044 5B68     		ldr	r3, [r3, #4]
 930 0046 2022     		movs	r2, #32
 931 0048 1A80     		strh	r2, [r3]
 805:Generated_Source\PSoC4/blue_1.c ****                 cyBle_discoveryModeInfo.advParam->advIntvMax = CYBLE_FAST_ADV_INT_MAX;
 932              		.loc 1 805 0
 933 004a 204B     		ldr	r3, .L46+8
 934 004c 5B68     		ldr	r3, [r3, #4]
 935 004e 3022     		movs	r2, #48
 936 0050 5A80     		strh	r2, [r3, #2]
 937 0052 10E0     		b	.L43
 938              	.L42:
 806:Generated_Source\PSoC4/blue_1.c ****             }
 807:Generated_Source\PSoC4/blue_1.c ****             else if(advertisingIntervalType == CYBLE_ADVERTISING_SLOW)
 939              		.loc 1 807 0
 940 0054 FB1D     		adds	r3, r7, #7
 941 0056 1B78     		ldrb	r3, [r3]
 942 0058 012B     		cmp	r3, #1
 943 005a 0CD1     		bne	.L43
 808:Generated_Source\PSoC4/blue_1.c ****             {
 809:Generated_Source\PSoC4/blue_1.c ****                 cyBle_discoveryModeInfo.advTo = CYBLE_SLOW_ADV_TIMEOUT;
 944              		.loc 1 809 0
 945 005c 1B4B     		ldr	r3, .L46+8
 946 005e 9622     		movs	r2, #150
ARM GAS  C:\Users\alexport\AppData\Local\Temp\ccf6k4ea.s 			page 32


 947 0060 1A82     		strh	r2, [r3, #16]
 810:Generated_Source\PSoC4/blue_1.c ****                 cyBle_discoveryModeInfo.advParam->advIntvMin = CYBLE_SLOW_ADV_INT_MIN;
 948              		.loc 1 810 0
 949 0062 1A4B     		ldr	r3, .L46+8
 950 0064 5B68     		ldr	r3, [r3, #4]
 951 0066 C822     		movs	r2, #200
 952 0068 D200     		lsls	r2, r2, #3
 953 006a 1A80     		strh	r2, [r3]
 811:Generated_Source\PSoC4/blue_1.c ****                 cyBle_discoveryModeInfo.advParam->advIntvMax = CYBLE_SLOW_ADV_INT_MAX;
 954              		.loc 1 811 0
 955 006c 174B     		ldr	r3, .L46+8
 956 006e 5B68     		ldr	r3, [r3, #4]
 957 0070 8022     		movs	r2, #128
 958 0072 D201     		lsls	r2, r2, #7
 959 0074 5A80     		strh	r2, [r3, #2]
 960              	.L43:
 812:Generated_Source\PSoC4/blue_1.c ****             }       
 813:Generated_Source\PSoC4/blue_1.c ****             else /* Do not update advertising intervals */
 814:Generated_Source\PSoC4/blue_1.c ****             {
 815:Generated_Source\PSoC4/blue_1.c ****             }
 816:Generated_Source\PSoC4/blue_1.c ****             cyBle_advertisingIntervalType = advertisingIntervalType;
 961              		.loc 1 816 0
 962 0076 164B     		ldr	r3, .L46+12
 963 0078 FA1D     		adds	r2, r7, #7
 964 007a 1278     		ldrb	r2, [r2]
 965 007c 1A70     		strb	r2, [r3]
 817:Generated_Source\PSoC4/blue_1.c ****             apiResult = CyBle_GappEnterDiscoveryMode(&cyBle_discoveryModeInfo);
 966              		.loc 1 817 0
 967 007e 0E23     		movs	r3, #14
 968 0080 FC18     		adds	r4, r7, r3
 969 0082 124B     		ldr	r3, .L46+8
 970 0084 1800     		movs	r0, r3
 971 0086 FFF7FEFF 		bl	CyBle_GappEnterDiscoveryMode
 972 008a 0300     		movs	r3, r0
 973 008c 2380     		strh	r3, [r4]
 818:Generated_Source\PSoC4/blue_1.c ****         
 819:Generated_Source\PSoC4/blue_1.c ****             if(apiResult == CYBLE_ERROR_OK)
 974              		.loc 1 819 0
 975 008e 0E23     		movs	r3, #14
 976 0090 FB18     		adds	r3, r7, r3
 977 0092 1B88     		ldrh	r3, [r3]
 978 0094 002B     		cmp	r3, #0
 979 0096 0DD1     		bne	.L40
 820:Generated_Source\PSoC4/blue_1.c ****             {
 821:Generated_Source\PSoC4/blue_1.c ****                 cyBle_eventHandlerFlag |= CYBLE_START_FLAG;
 980              		.loc 1 821 0
 981 0098 0B4B     		ldr	r3, .L46+4
 982 009a 1B78     		ldrb	r3, [r3]
 983 009c DBB2     		uxtb	r3, r3
 984 009e 0422     		movs	r2, #4
 985 00a0 1343     		orrs	r3, r2
 986 00a2 DAB2     		uxtb	r2, r3
 987 00a4 084B     		ldr	r3, .L46+4
 988 00a6 1A70     		strb	r2, [r3]
 819:Generated_Source\PSoC4/blue_1.c ****             {
 989              		.loc 1 819 0
 990 00a8 04E0     		b	.L40
ARM GAS  C:\Users\alexport\AppData\Local\Temp\ccf6k4ea.s 			page 33


 991              	.L41:
 822:Generated_Source\PSoC4/blue_1.c ****             }
 823:Generated_Source\PSoC4/blue_1.c ****         }
 824:Generated_Source\PSoC4/blue_1.c ****         else
 825:Generated_Source\PSoC4/blue_1.c ****         {
 826:Generated_Source\PSoC4/blue_1.c ****             apiResult = CYBLE_ERROR_INVALID_STATE;
 992              		.loc 1 826 0
 993 00aa 0E23     		movs	r3, #14
 994 00ac FB18     		adds	r3, r7, r3
 995 00ae 0422     		movs	r2, #4
 996 00b0 FF32     		adds	r2, r2, #255
 997 00b2 1A80     		strh	r2, [r3]
 998              	.L40:
 827:Generated_Source\PSoC4/blue_1.c ****         }
 828:Generated_Source\PSoC4/blue_1.c **** 
 829:Generated_Source\PSoC4/blue_1.c ****         return (apiResult);
 999              		.loc 1 829 0
 1000 00b4 0E23     		movs	r3, #14
 1001 00b6 FB18     		adds	r3, r7, r3
 1002 00b8 1B88     		ldrh	r3, [r3]
 830:Generated_Source\PSoC4/blue_1.c ****     }
 1003              		.loc 1 830 0
 1004 00ba 1800     		movs	r0, r3
 1005 00bc BD46     		mov	sp, r7
 1006 00be 05B0     		add	sp, sp, #20
 1007              		@ sp needed
 1008 00c0 90BD     		pop	{r4, r7, pc}
 1009              	.L47:
 1010 00c2 C046     		.align	2
 1011              	.L46:
 1012 00c4 00000000 		.word	cyBle_state
 1013 00c8 00000000 		.word	cyBle_eventHandlerFlag
 1014 00cc 00000000 		.word	cyBle_discoveryModeInfo
 1015 00d0 00000000 		.word	cyBle_advertisingIntervalType
 1016              		.cfi_endproc
 1017              	.LFE8:
 1018              		.size	CyBle_GappStartAdvertisement, .-CyBle_GappStartAdvertisement
 1019              		.section	.text.CyBle_GappStopAdvertisement,"ax",%progbits
 1020              		.align	2
 1021              		.global	CyBle_GappStopAdvertisement
 1022              		.code	16
 1023              		.thumb_func
 1024              		.type	CyBle_GappStopAdvertisement, %function
 1025              	CyBle_GappStopAdvertisement:
 1026              	.LFB9:
 831:Generated_Source\PSoC4/blue_1.c **** 
 832:Generated_Source\PSoC4/blue_1.c ****     
 833:Generated_Source\PSoC4/blue_1.c ****     /******************************************************************************
 834:Generated_Source\PSoC4/blue_1.c ****     * Function Name: CyBle_GappStopAdvertisement
 835:Generated_Source\PSoC4/blue_1.c ****     ***************************************************************************//**
 836:Generated_Source\PSoC4/blue_1.c ****     * 
 837:Generated_Source\PSoC4/blue_1.c ****     *   This function can be used to exit from discovery mode. After the execution 
 838:Generated_Source\PSoC4/blue_1.c ****     *   of this function, there will no longer be any advertisements. On stopping 
 839:Generated_Source\PSoC4/blue_1.c ****     *   advertising, GAP Peripheral receives CYBLE_EVT_GAPP_ADVERTISEMENT_START_STOP
 840:Generated_Source\PSoC4/blue_1.c ****     *   event. It is expected that the application layer tracks the function call 
 841:Generated_Source\PSoC4/blue_1.c ****     *   performed before occurrence of this event as this event can occur on making 
 842:Generated_Source\PSoC4/blue_1.c ****     *   a call to Cy_BleGappStartAdvertisement(), CyBle_GappEnterDiscoveryMode(), 
ARM GAS  C:\Users\alexport\AppData\Local\Temp\ccf6k4ea.s 			page 34


 843:Generated_Source\PSoC4/blue_1.c ****     *   or CyBle_GappStartAdvertisement() functions as well.
 844:Generated_Source\PSoC4/blue_1.c ****     *   
 845:Generated_Source\PSoC4/blue_1.c ****     *   The following event occurs on invoking this function:
 846:Generated_Source\PSoC4/blue_1.c ****     *   * CYBLE_EVT_GAPP_ADVERTISEMENT_START_STOP
 847:Generated_Source\PSoC4/blue_1.c ****     * 
 848:Generated_Source\PSoC4/blue_1.c ****     *  \return
 849:Generated_Source\PSoC4/blue_1.c ****     *   None
 850:Generated_Source\PSoC4/blue_1.c ****     * 
 851:Generated_Source\PSoC4/blue_1.c ****     *******************************************************************************/
 852:Generated_Source\PSoC4/blue_1.c ****     void CyBle_GappStopAdvertisement(void)
 853:Generated_Source\PSoC4/blue_1.c ****     {
 1027              		.loc 1 853 0
 1028              		.cfi_startproc
 1029              		@ args = 0, pretend = 0, frame = 0
 1030              		@ frame_needed = 1, uses_anonymous_args = 0
 1031 0000 80B5     		push	{r7, lr}
 1032              		.cfi_def_cfa_offset 8
 1033              		.cfi_offset 7, -8
 1034              		.cfi_offset 14, -4
 1035 0002 00AF     		add	r7, sp, #0
 1036              		.cfi_def_cfa_register 7
 854:Generated_Source\PSoC4/blue_1.c ****         CyBle_GappExitDiscoveryMode();
 1037              		.loc 1 854 0
 1038 0004 FFF7FEFF 		bl	CyBle_GappExitDiscoveryMode
 855:Generated_Source\PSoC4/blue_1.c ****         cyBle_eventHandlerFlag |= CYBLE_STOP_FLAG;
 1039              		.loc 1 855 0
 1040 0008 054B     		ldr	r3, .L49
 1041 000a 1B78     		ldrb	r3, [r3]
 1042 000c DBB2     		uxtb	r3, r3
 1043 000e 0822     		movs	r2, #8
 1044 0010 1343     		orrs	r3, r2
 1045 0012 DAB2     		uxtb	r2, r3
 1046 0014 024B     		ldr	r3, .L49
 1047 0016 1A70     		strb	r2, [r3]
 856:Generated_Source\PSoC4/blue_1.c ****     }
 1048              		.loc 1 856 0
 1049 0018 C046     		nop
 1050 001a BD46     		mov	sp, r7
 1051              		@ sp needed
 1052 001c 80BD     		pop	{r7, pc}
 1053              	.L50:
 1054 001e C046     		.align	2
 1055              	.L49:
 1056 0020 00000000 		.word	cyBle_eventHandlerFlag
 1057              		.cfi_endproc
 1058              	.LFE9:
 1059              		.size	CyBle_GappStopAdvertisement, .-CyBle_GappStopAdvertisement
 1060              		.section	.text.CyBle_ChangeAdDeviceAddress,"ax",%progbits
 1061              		.align	2
 1062              		.global	CyBle_ChangeAdDeviceAddress
 1063              		.code	16
 1064              		.thumb_func
 1065              		.type	CyBle_ChangeAdDeviceAddress, %function
 1066              	CyBle_ChangeAdDeviceAddress:
 1067              	.LFB10:
 857:Generated_Source\PSoC4/blue_1.c ****     
 858:Generated_Source\PSoC4/blue_1.c ****     
ARM GAS  C:\Users\alexport\AppData\Local\Temp\ccf6k4ea.s 			page 35


 859:Generated_Source\PSoC4/blue_1.c ****     /******************************************************************************
 860:Generated_Source\PSoC4/blue_1.c ****     * Function Name: CyBle_ChangeAdDeviceAddress
 861:Generated_Source\PSoC4/blue_1.c ****     ***************************************************************************//**
 862:Generated_Source\PSoC4/blue_1.c ****     * 
 863:Generated_Source\PSoC4/blue_1.c ****     *  This function is used to set the Bluetooth device address into the 
 864:Generated_Source\PSoC4/blue_1.c ****     *  advertisement or scan response data structure.
 865:Generated_Source\PSoC4/blue_1.c ****     * 
 866:Generated_Source\PSoC4/blue_1.c ****     *  \param bdAddr: Bluetooth Device address. The variable is of type CYBLE_GAP_BD_ADDR_T
 867:Generated_Source\PSoC4/blue_1.c ****     *  \param dest: 0 - selects advertisement structure, not zero value selects scan 
 868:Generated_Source\PSoC4/blue_1.c ****     *               response structure.
 869:Generated_Source\PSoC4/blue_1.c ****     * 
 870:Generated_Source\PSoC4/blue_1.c ****     * \return
 871:Generated_Source\PSoC4/blue_1.c ****     *  None
 872:Generated_Source\PSoC4/blue_1.c ****     *  
 873:Generated_Source\PSoC4/blue_1.c ****     *******************************************************************************/
 874:Generated_Source\PSoC4/blue_1.c ****     void CyBle_ChangeAdDeviceAddress(const CYBLE_GAP_BD_ADDR_T* bdAddr, uint8 dest)
 875:Generated_Source\PSoC4/blue_1.c ****     {
 1068              		.loc 1 875 0
 1069              		.cfi_startproc
 1070              		@ args = 0, pretend = 0, frame = 16
 1071              		@ frame_needed = 1, uses_anonymous_args = 0
 1072 0000 80B5     		push	{r7, lr}
 1073              		.cfi_def_cfa_offset 8
 1074              		.cfi_offset 7, -8
 1075              		.cfi_offset 14, -4
 1076 0002 84B0     		sub	sp, sp, #16
 1077              		.cfi_def_cfa_offset 24
 1078 0004 00AF     		add	r7, sp, #0
 1079              		.cfi_def_cfa_register 7
 1080 0006 7860     		str	r0, [r7, #4]
 1081 0008 0A00     		movs	r2, r1
 1082 000a FB1C     		adds	r3, r7, #3
 1083 000c 1A70     		strb	r2, [r3]
 876:Generated_Source\PSoC4/blue_1.c ****         uint8 i;
 877:Generated_Source\PSoC4/blue_1.c ****         uint8 *destBuffer = NULL;
 1084              		.loc 1 877 0
 1085 000e 0023     		movs	r3, #0
 1086 0010 BB60     		str	r3, [r7, #8]
 878:Generated_Source\PSoC4/blue_1.c ****         
 879:Generated_Source\PSoC4/blue_1.c ****         if(dest == 0u)      /* Destination - advertising structure */
 880:Generated_Source\PSoC4/blue_1.c ****         {
 881:Generated_Source\PSoC4/blue_1.c ****             #ifdef CYBLE_ADV_PKT_INDEX_BLUETOOTH_DEVICE_ADDRESS
 882:Generated_Source\PSoC4/blue_1.c ****                 destBuffer = &cyBle_discoveryData.advData[CYBLE_ADV_PKT_INDEX_BLUETOOTH_DEVICE_ADDR
 883:Generated_Source\PSoC4/blue_1.c ****             #endif /* CYBLE_ADV_PKT_INDEX_BLUETOOTH_DEVICE_ADDRESS */
 884:Generated_Source\PSoC4/blue_1.c ****         }
 885:Generated_Source\PSoC4/blue_1.c ****         else                /* Destination - scan response structure */
 886:Generated_Source\PSoC4/blue_1.c ****         {
 887:Generated_Source\PSoC4/blue_1.c ****             #ifdef CYBLE_SCN_PKT_INDEX_BLUETOOTH_DEVICE_ADDRESS
 888:Generated_Source\PSoC4/blue_1.c ****                 destBuffer = &cyBle_scanRspData.scanRspData[CYBLE_SCN_PKT_INDEX_BLUETOOTH_DEVICE_AD
 889:Generated_Source\PSoC4/blue_1.c ****             #endif /* CYBLE_SCN_PKT_INDEX_BLUETOOTH_DEVICE_ADDRESS */    
 890:Generated_Source\PSoC4/blue_1.c ****         }
 891:Generated_Source\PSoC4/blue_1.c ****         
 892:Generated_Source\PSoC4/blue_1.c ****         if(destBuffer != NULL)
 1087              		.loc 1 892 0
 1088 0012 BB68     		ldr	r3, [r7, #8]
 1089 0014 002B     		cmp	r3, #0
 1090 0016 20D0     		beq	.L55
ARM GAS  C:\Users\alexport\AppData\Local\Temp\ccf6k4ea.s 			page 36


 893:Generated_Source\PSoC4/blue_1.c ****         {
 894:Generated_Source\PSoC4/blue_1.c ****             /* Update Device Address type */
 895:Generated_Source\PSoC4/blue_1.c ****             destBuffer[0u] = bdAddr->type;
 1091              		.loc 1 895 0
 1092 0018 7B68     		ldr	r3, [r7, #4]
 1093 001a 9A79     		ldrb	r2, [r3, #6]
 1094 001c BB68     		ldr	r3, [r7, #8]
 1095 001e 1A70     		strb	r2, [r3]
 896:Generated_Source\PSoC4/blue_1.c ****             
 897:Generated_Source\PSoC4/blue_1.c ****             for(i = 0u; i < CYBLE_GAP_BD_ADDR_SIZE; i++)
 1096              		.loc 1 897 0
 1097 0020 0F23     		movs	r3, #15
 1098 0022 FB18     		adds	r3, r7, r3
 1099 0024 0022     		movs	r2, #0
 1100 0026 1A70     		strb	r2, [r3]
 1101 0028 12E0     		b	.L53
 1102              	.L54:
 898:Generated_Source\PSoC4/blue_1.c ****             {
 899:Generated_Source\PSoC4/blue_1.c ****                 destBuffer[i + 1u] = bdAddr->bdAddr[i];
 1103              		.loc 1 899 0 discriminator 3
 1104 002a 0F23     		movs	r3, #15
 1105 002c FB18     		adds	r3, r7, r3
 1106 002e 1B78     		ldrb	r3, [r3]
 1107 0030 0133     		adds	r3, r3, #1
 1108 0032 BA68     		ldr	r2, [r7, #8]
 1109 0034 D318     		adds	r3, r2, r3
 1110 0036 0F22     		movs	r2, #15
 1111 0038 BA18     		adds	r2, r7, r2
 1112 003a 1278     		ldrb	r2, [r2]
 1113 003c 7968     		ldr	r1, [r7, #4]
 1114 003e 8A5C     		ldrb	r2, [r1, r2]
 1115 0040 1A70     		strb	r2, [r3]
 897:Generated_Source\PSoC4/blue_1.c ****             {
 1116              		.loc 1 897 0 discriminator 3
 1117 0042 0F23     		movs	r3, #15
 1118 0044 FB18     		adds	r3, r7, r3
 1119 0046 1A78     		ldrb	r2, [r3]
 1120 0048 0F23     		movs	r3, #15
 1121 004a FB18     		adds	r3, r7, r3
 1122 004c 0132     		adds	r2, r2, #1
 1123 004e 1A70     		strb	r2, [r3]
 1124              	.L53:
 897:Generated_Source\PSoC4/blue_1.c ****             {
 1125              		.loc 1 897 0 is_stmt 0 discriminator 1
 1126 0050 0F23     		movs	r3, #15
 1127 0052 FB18     		adds	r3, r7, r3
 1128 0054 1B78     		ldrb	r3, [r3]
 1129 0056 052B     		cmp	r3, #5
 1130 0058 E7D9     		bls	.L54
 1131              	.L55:
 900:Generated_Source\PSoC4/blue_1.c ****             }
 901:Generated_Source\PSoC4/blue_1.c ****         }
 902:Generated_Source\PSoC4/blue_1.c ****     }
 1132              		.loc 1 902 0 is_stmt 1
 1133 005a C046     		nop
 1134 005c BD46     		mov	sp, r7
 1135 005e 04B0     		add	sp, sp, #16
ARM GAS  C:\Users\alexport\AppData\Local\Temp\ccf6k4ea.s 			page 37


 1136              		@ sp needed
 1137 0060 80BD     		pop	{r7, pc}
 1138              		.cfi_endproc
 1139              	.LFE10:
 1140              		.size	CyBle_ChangeAdDeviceAddress, .-CyBle_ChangeAdDeviceAddress
 1141 0062 C046     		.section	.text.CyBle_ChangeAdLocalName,"ax",%progbits
 1142              		.align	2
 1143              		.code	16
 1144              		.thumb_func
 1145              		.type	CyBle_ChangeAdLocalName, %function
 1146              	CyBle_ChangeAdLocalName:
 1147              	.LFB11:
 903:Generated_Source\PSoC4/blue_1.c ****   
 904:Generated_Source\PSoC4/blue_1.c **** #endif /* CYBLE_GAP_ROLE_PERIPHERAL || CYBLE_GAP_ROLE_BROADCASTER */
 905:Generated_Source\PSoC4/blue_1.c **** 
 906:Generated_Source\PSoC4/blue_1.c **** 
 907:Generated_Source\PSoC4/blue_1.c **** #if(CYBLE_GAP_ROLE_CENTRAL || CYBLE_GAP_ROLE_OBSERVER)
 908:Generated_Source\PSoC4/blue_1.c **** 
 909:Generated_Source\PSoC4/blue_1.c ****     /******************************************************************************
 910:Generated_Source\PSoC4/blue_1.c ****     * Function Name: CyBle_GapcStartScan
 911:Generated_Source\PSoC4/blue_1.c ****     ***************************************************************************//**
 912:Generated_Source\PSoC4/blue_1.c ****     * 
 913:Generated_Source\PSoC4/blue_1.c ****     *   This function is used for discovering GAP peripheral devices that are 
 914:Generated_Source\PSoC4/blue_1.c ****     *   available for connection. It performs the scanning routine using the 
 915:Generated_Source\PSoC4/blue_1.c ****     *   parameters entered in the component's customizer.
 916:Generated_Source\PSoC4/blue_1.c ****     *   
 917:Generated_Source\PSoC4/blue_1.c ****     *   As soon as the discovery operation starts, CYBLE_EVT_GAPC_SCAN_START_STOP 
 918:Generated_Source\PSoC4/blue_1.c ****     *   event is generated. The CYBLE_EVT_GAPC_SCAN_PROGRESS_RESULT event is 
 919:Generated_Source\PSoC4/blue_1.c ****     *   generated when a GAP peripheral device is located. There are three discovery
 920:Generated_Source\PSoC4/blue_1.c ****     *   procedures can be selected in the customizer's GUI:
 921:Generated_Source\PSoC4/blue_1.c ****     *   
 922:Generated_Source\PSoC4/blue_1.c ****     *   * Observation procedure: A device performing the observer role receives only
 923:Generated_Source\PSoC4/blue_1.c ****     *                            advertisement data from devices irrespective of 
 924:Generated_Source\PSoC4/blue_1.c ****     *                            their discoverable mode settings. Advertisement 
 925:Generated_Source\PSoC4/blue_1.c ****     *                            data received is provided by the event,      
 926:Generated_Source\PSoC4/blue_1.c ****     *                            CYBLE_EVT_GAPC_SCAN_PROGRESS_RESULT. This procedure
 927:Generated_Source\PSoC4/blue_1.c ****     *                            requires the scanType sub parameter to be passive
 928:Generated_Source\PSoC4/blue_1.c ****     *                            scanning. 
 929:Generated_Source\PSoC4/blue_1.c ****     *   
 930:Generated_Source\PSoC4/blue_1.c ****     *   * Limited Discovery procedure: A device performing the limited discovery
 931:Generated_Source\PSoC4/blue_1.c ****     *                                  procedure receives advertisement data and 
 932:Generated_Source\PSoC4/blue_1.c ****     *                                  scan# response data from devices in the 
 933:Generated_Source\PSoC4/blue_1.c ****     *                                  limited discoverable mode only. Received data
 934:Generated_Source\PSoC4/blue_1.c ****     *                                  is provided by the event, 
 935:Generated_Source\PSoC4/blue_1.c ****     *                                  CYBLE_EVT_GAPC_SCAN_PROGRESS_RESULT. This 
 936:Generated_Source\PSoC4/blue_1.c ****     *                                  procedure requires the scanType sub-parameter 
 937:Generated_Source\PSoC4/blue_1.c ****     *                                  to be active scanning.
 938:Generated_Source\PSoC4/blue_1.c ****     *   
 939:Generated_Source\PSoC4/blue_1.c ****     *   * General Discovery procedure: A device performing the general discovery 
 940:Generated_Source\PSoC4/blue_1.c ****     *                                  procedure receives the advertisement data and
 941:Generated_Source\PSoC4/blue_1.c ****     *                                  scan response data from devices in both 
 942:Generated_Source\PSoC4/blue_1.c ****     *                                  limited discoverable mode and the general 
 943:Generated_Source\PSoC4/blue_1.c ****     *                                  discoverable mode. Received data is provided
 944:Generated_Source\PSoC4/blue_1.c ****     *                                  by the event,
 945:Generated_Source\PSoC4/blue_1.c ****     *                                  CYBLE_EVT_GAPC_SCAN_PROGRESS_RESULT. This 
 946:Generated_Source\PSoC4/blue_1.c ****     *                                  procedure requires the scanType sub-parameter
 947:Generated_Source\PSoC4/blue_1.c ****     *                                  to be active scanning.
ARM GAS  C:\Users\alexport\AppData\Local\Temp\ccf6k4ea.s 			page 38


 948:Generated_Source\PSoC4/blue_1.c ****     *   
 949:Generated_Source\PSoC4/blue_1.c ****     *   Every Advertisement / Scan response packet received results in a new event, 
 950:Generated_Source\PSoC4/blue_1.c ****     *   CYBLE_EVT_GAPC_SCAN_PROGRESS_RESULT.
 951:Generated_Source\PSoC4/blue_1.c ****     *   If 'scanTo' sub-parameter is a non-zero value, then upon commencement of 
 952:Generated_Source\PSoC4/blue_1.c ****     *   discovery procedure and elapsed time = 'scanTo', CYBLE_EVT_TIMEOUT event
 953:Generated_Source\PSoC4/blue_1.c ****     *   is generated with the event parameter indicating CYBLE_GAP_SCAN_TO.
 954:Generated_Source\PSoC4/blue_1.c ****     *   Possible generated events are:
 955:Generated_Source\PSoC4/blue_1.c ****     *   * CYBLE_EVT_GAPC_SCAN_START_STOP: If a device started or stopped scanning. 
 956:Generated_Source\PSoC4/blue_1.c ****     *                                     Use CyBle_GetState() to determine the 
 957:Generated_Source\PSoC4/blue_1.c ****     *                                     state. Sequential scanning could be 
 958:Generated_Source\PSoC4/blue_1.c ****     *                                     started when CYBLE_STATE_DISCONNECTED 
 959:Generated_Source\PSoC4/blue_1.c ****     *                                     state is returned. 
 960:Generated_Source\PSoC4/blue_1.c ****     *   * CYBLE_EVT_GAPC_SCAN_PROGRESS_RESULT 
 961:Generated_Source\PSoC4/blue_1.c ****     *   * CYBLE_EVT_TIMEOUT (CYBLE_GAP_SCAN_TO)
 962:Generated_Source\PSoC4/blue_1.c ****     * 
 963:Generated_Source\PSoC4/blue_1.c ****     *   \param scanningIntervalType:  Fast or slow scanning interval with
 964:Generated_Source\PSoC4/blue_1.c ****     *       timings entered in Scan settings section of the customizer.
 965:Generated_Source\PSoC4/blue_1.c ****     * 	  * CYBLE_SCANNING_FAST   0x00u
 966:Generated_Source\PSoC4/blue_1.c ****     * 	  * CYBLE_SCANNING_SLOW   0x01u
 967:Generated_Source\PSoC4/blue_1.c ****     * 	  * CYBLE_SCANNING_CUSTOM 0x02u
 968:Generated_Source\PSoC4/blue_1.c ****     * 
 969:Generated_Source\PSoC4/blue_1.c ****     * \return
 970:Generated_Source\PSoC4/blue_1.c ****     *  CYBLE_API_RESULT_T : Return value indicates if the function succeeded or
 971:Generated_Source\PSoC4/blue_1.c ****     *  failed. Following are the possible error codes.
 972:Generated_Source\PSoC4/blue_1.c ****     *
 973:Generated_Source\PSoC4/blue_1.c ****     *   Errors codes                       | Description
 974:Generated_Source\PSoC4/blue_1.c ****     *   ---------------------------------- | -----------------------------------
 975:Generated_Source\PSoC4/blue_1.c ****     *   CYBLE_ERROR_OK                     | On successful operation.
 976:Generated_Source\PSoC4/blue_1.c ****     *   CYBLE_ERROR_STACK_INTERNAL         | An error occurred in the BLE stack.
 977:Generated_Source\PSoC4/blue_1.c ****     *   CYBLE_ERROR_INVALID_PARAMETER      | On passing an invalid parameter.
 978:Generated_Source\PSoC4/blue_1.c ****     *  
 979:Generated_Source\PSoC4/blue_1.c ****     *******************************************************************************/
 980:Generated_Source\PSoC4/blue_1.c ****     CYBLE_API_RESULT_T CyBle_GapcStartScan(uint8 scanningIntervalType)
 981:Generated_Source\PSoC4/blue_1.c ****     {
 982:Generated_Source\PSoC4/blue_1.c ****         CYBLE_API_RESULT_T apiResult;
 983:Generated_Source\PSoC4/blue_1.c **** 
 984:Generated_Source\PSoC4/blue_1.c ****         if(scanningIntervalType > CYBLE_SCANNING_CUSTOM)
 985:Generated_Source\PSoC4/blue_1.c ****         {
 986:Generated_Source\PSoC4/blue_1.c ****             apiResult = CYBLE_ERROR_INVALID_PARAMETER;
 987:Generated_Source\PSoC4/blue_1.c ****         }
 988:Generated_Source\PSoC4/blue_1.c ****         else
 989:Generated_Source\PSoC4/blue_1.c ****         {
 990:Generated_Source\PSoC4/blue_1.c ****             if(scanningIntervalType == CYBLE_SCANNING_FAST)
 991:Generated_Source\PSoC4/blue_1.c ****             {
 992:Generated_Source\PSoC4/blue_1.c ****                 cyBle_discoveryInfo.scanTo = CYBLE_FAST_SCAN_TIMEOUT;
 993:Generated_Source\PSoC4/blue_1.c ****                 cyBle_discoveryInfo.scanIntv = CYBLE_FAST_SCAN_INTERVAL;
 994:Generated_Source\PSoC4/blue_1.c ****                 cyBle_discoveryInfo.scanWindow = CYBLE_FAST_SCAN_WINDOW;
 995:Generated_Source\PSoC4/blue_1.c ****             }
 996:Generated_Source\PSoC4/blue_1.c ****             else if(scanningIntervalType == CYBLE_SCANNING_SLOW)
 997:Generated_Source\PSoC4/blue_1.c ****             {
 998:Generated_Source\PSoC4/blue_1.c ****                 cyBle_discoveryInfo.scanTo = CYBLE_SLOW_SCAN_TIMEOUT;
 999:Generated_Source\PSoC4/blue_1.c ****                 cyBle_discoveryInfo.scanIntv = CYBLE_SLOW_SCAN_INTERVAL;
1000:Generated_Source\PSoC4/blue_1.c ****                 cyBle_discoveryInfo.scanWindow = CYBLE_SLOW_SCAN_WINDOW;
1001:Generated_Source\PSoC4/blue_1.c ****             }       
1002:Generated_Source\PSoC4/blue_1.c ****             else /* Do not update scanning intervals */
1003:Generated_Source\PSoC4/blue_1.c ****             {
1004:Generated_Source\PSoC4/blue_1.c ****             }
ARM GAS  C:\Users\alexport\AppData\Local\Temp\ccf6k4ea.s 			page 39


1005:Generated_Source\PSoC4/blue_1.c ****             
1006:Generated_Source\PSoC4/blue_1.c ****             cyBle_scanningIntervalType = scanningIntervalType;
1007:Generated_Source\PSoC4/blue_1.c ****             apiResult = CyBle_GapcStartDiscovery(&cyBle_discoveryInfo);
1008:Generated_Source\PSoC4/blue_1.c ****         
1009:Generated_Source\PSoC4/blue_1.c ****             if(apiResult == CYBLE_ERROR_OK)
1010:Generated_Source\PSoC4/blue_1.c ****             {
1011:Generated_Source\PSoC4/blue_1.c ****                 cyBle_eventHandlerFlag |= CYBLE_START_FLAG;
1012:Generated_Source\PSoC4/blue_1.c ****             }
1013:Generated_Source\PSoC4/blue_1.c ****         }
1014:Generated_Source\PSoC4/blue_1.c ****        
1015:Generated_Source\PSoC4/blue_1.c ****         return (apiResult);
1016:Generated_Source\PSoC4/blue_1.c ****     }
1017:Generated_Source\PSoC4/blue_1.c ****     
1018:Generated_Source\PSoC4/blue_1.c ****     
1019:Generated_Source\PSoC4/blue_1.c ****     /******************************************************************************
1020:Generated_Source\PSoC4/blue_1.c ****     * Function Name: CyBle_GapcStopScan
1021:Generated_Source\PSoC4/blue_1.c ****     ***************************************************************************//**
1022:Generated_Source\PSoC4/blue_1.c ****     * 
1023:Generated_Source\PSoC4/blue_1.c ****     *   This function used to stop the discovery of devices. On stopping discovery
1024:Generated_Source\PSoC4/blue_1.c ****     *   operation, CYBLE_EVT_GAPC_SCAN_START_STOP event is generated. Application
1025:Generated_Source\PSoC4/blue_1.c ****     *   layer needs to keep track of the function call made before receiving this
1026:Generated_Source\PSoC4/blue_1.c ****     *   event to associate this event with either the start or stop discovery
1027:Generated_Source\PSoC4/blue_1.c ****     *   function.
1028:Generated_Source\PSoC4/blue_1.c ****     * 
1029:Generated_Source\PSoC4/blue_1.c ****     *   Possible events generated are:
1030:Generated_Source\PSoC4/blue_1.c ****     *    * CYBLE_EVT_GAPC_SCAN_START_STOP
1031:Generated_Source\PSoC4/blue_1.c ****     * 
1032:Generated_Source\PSoC4/blue_1.c ****     *  \return
1033:Generated_Source\PSoC4/blue_1.c ****     *   None
1034:Generated_Source\PSoC4/blue_1.c ****     * 
1035:Generated_Source\PSoC4/blue_1.c ****     *******************************************************************************/
1036:Generated_Source\PSoC4/blue_1.c ****     void CyBle_GapcStopScan(void)
1037:Generated_Source\PSoC4/blue_1.c ****     {
1038:Generated_Source\PSoC4/blue_1.c ****         CyBle_GapcStopDiscovery();
1039:Generated_Source\PSoC4/blue_1.c ****         
1040:Generated_Source\PSoC4/blue_1.c ****         cyBle_eventHandlerFlag |= CYBLE_STOP_FLAG;
1041:Generated_Source\PSoC4/blue_1.c ****     }
1042:Generated_Source\PSoC4/blue_1.c **** 
1043:Generated_Source\PSoC4/blue_1.c ****     
1044:Generated_Source\PSoC4/blue_1.c **** #endif /* CYBLE_GAP_ROLE_CENTRAL || CYBLE_GAP_ROLE_OBSERVER */
1045:Generated_Source\PSoC4/blue_1.c **** 
1046:Generated_Source\PSoC4/blue_1.c **** 
1047:Generated_Source\PSoC4/blue_1.c **** #if(CYBLE_GAP_ROLE_CENTRAL)
1048:Generated_Source\PSoC4/blue_1.c **** 
1049:Generated_Source\PSoC4/blue_1.c ****     /******************************************************************************
1050:Generated_Source\PSoC4/blue_1.c ****     * Function Name: CyBle_GapcConnectDevice
1051:Generated_Source\PSoC4/blue_1.c ****     ***************************************************************************//**
1052:Generated_Source\PSoC4/blue_1.c ****     * 
1053:Generated_Source\PSoC4/blue_1.c ****     *  This function is used to send a connection request to the remote device with
1054:Generated_Source\PSoC4/blue_1.c ****     *  the connection parameters set in the component customizer. This function needs
1055:Generated_Source\PSoC4/blue_1.c ****     *  to be called only once after the target device is discovered by 
1056:Generated_Source\PSoC4/blue_1.c ****     *  CyBle_GapcStartScan() and further scanning has stopped. Scanning is 
1057:Generated_Source\PSoC4/blue_1.c ****     *  successfully stopped on invoking CyBle_GapcStopScan() and then receiving the
1058:Generated_Source\PSoC4/blue_1.c ****     *  event CYBLE_EVT_GAPC_SCAN_START_STOP with sub-parameter 'success' = 0x01u.
1059:Generated_Source\PSoC4/blue_1.c ****     *  
1060:Generated_Source\PSoC4/blue_1.c ****     *  On successful connection, the following events are generated at the GAP 
1061:Generated_Source\PSoC4/blue_1.c ****     *  Central device (as well as the GAP Peripheral device), in the following order.
ARM GAS  C:\Users\alexport\AppData\Local\Temp\ccf6k4ea.s 			page 40


1062:Generated_Source\PSoC4/blue_1.c ****     *  * CYBLE_EVT_GATT_CONNECT_IND
1063:Generated_Source\PSoC4/blue_1.c ****     *  * CYBLE_EVT_GAP_DEVICE_CONNECTED - If the device connects to a GAP Central and 
1064:Generated_Source\PSoC4/blue_1.c ****     *    Link Layer Privacy is disabled in component customizer.
1065:Generated_Source\PSoC4/blue_1.c ****     *  * CYBLE_EVT_GAP_ENHANCE_CONN_COMPLETE - If the device connects to a GAP Central and 
1066:Generated_Source\PSoC4/blue_1.c ****     *    Link Layer Privacy is enabled in component customizer.
1067:Generated_Source\PSoC4/blue_1.c ****     *  * CYBLE_EVT_GAP_DEVICE_CONNECTED
1068:Generated_Source\PSoC4/blue_1.c ****     *  
1069:Generated_Source\PSoC4/blue_1.c ****     *  A procedure is considered to have timed out if a connection response packet is 
1070:Generated_Source\PSoC4/blue_1.c ****     *  not received within time set by cyBle_connectingTimeout global variable
1071:Generated_Source\PSoC4/blue_1.c ****     *  (30 seconds by default). CYBLE_EVT_TIMEOUT event with CYBLE_GENERIC_TO parameter
1072:Generated_Source\PSoC4/blue_1.c ****     *  will indicate about connection procedure timeout. Connection will automatically
1073:Generated_Source\PSoC4/blue_1.c ****     *  be canceled and state will be changed to CYBLE_STATE_DISCONNECTED.
1074:Generated_Source\PSoC4/blue_1.c ****     * 
1075:Generated_Source\PSoC4/blue_1.c ****     *  \param address: The device address of the remote device to connect to. 
1076:Generated_Source\PSoC4/blue_1.c ****     *  
1077:Generated_Source\PSoC4/blue_1.c ****     * \return
1078:Generated_Source\PSoC4/blue_1.c ****     *  CYBLE_API_RESULT_T : Return value indicates if the function succeeded or 
1079:Generated_Source\PSoC4/blue_1.c ****     *  failed. Following are the possible error codes.
1080:Generated_Source\PSoC4/blue_1.c ****     *
1081:Generated_Source\PSoC4/blue_1.c ****     *   Errors codes                       | Description
1082:Generated_Source\PSoC4/blue_1.c ****     *   ------------                       | -----------
1083:Generated_Source\PSoC4/blue_1.c ****     *   CYBLE_ERROR_OK                     | On successful operation.
1084:Generated_Source\PSoC4/blue_1.c ****     *   CYBLE_ERROR_STACK_INTERNAL         | On error occurred in the BLE stack.
1085:Generated_Source\PSoC4/blue_1.c ****     *   CYBLE_ERROR_INVALID_PARAMETER      | On passing an invalid parameter.
1086:Generated_Source\PSoC4/blue_1.c ****     *   CYBLE_ERROR_INVALID_STATE          | On calling this function not in Disconnected state.
1087:Generated_Source\PSoC4/blue_1.c ****     *  
1088:Generated_Source\PSoC4/blue_1.c ****     ******************************************************************************/
1089:Generated_Source\PSoC4/blue_1.c ****     CYBLE_API_RESULT_T CyBle_GapcConnectDevice(const CYBLE_GAP_BD_ADDR_T * address)
1090:Generated_Source\PSoC4/blue_1.c ****     {
1091:Generated_Source\PSoC4/blue_1.c ****         CYBLE_API_RESULT_T apiResult;
1092:Generated_Source\PSoC4/blue_1.c ****         uint8 i;
1093:Generated_Source\PSoC4/blue_1.c **** 
1094:Generated_Source\PSoC4/blue_1.c ****         if(CyBle_GetState() != CYBLE_STATE_DISCONNECTED)
1095:Generated_Source\PSoC4/blue_1.c ****         {
1096:Generated_Source\PSoC4/blue_1.c ****             apiResult = CYBLE_ERROR_INVALID_STATE;
1097:Generated_Source\PSoC4/blue_1.c ****         }
1098:Generated_Source\PSoC4/blue_1.c ****         else if(address == NULL)
1099:Generated_Source\PSoC4/blue_1.c ****         {
1100:Generated_Source\PSoC4/blue_1.c ****             apiResult = CYBLE_ERROR_INVALID_PARAMETER;
1101:Generated_Source\PSoC4/blue_1.c ****         }
1102:Generated_Source\PSoC4/blue_1.c ****         else
1103:Generated_Source\PSoC4/blue_1.c ****         {
1104:Generated_Source\PSoC4/blue_1.c ****             for(i = 0u; i < CYBLE_GAP_BD_ADDR_SIZE; i++)
1105:Generated_Source\PSoC4/blue_1.c ****             {
1106:Generated_Source\PSoC4/blue_1.c ****                 cyBle_connectionParameters.peerBdAddr[i] = address->bdAddr[i];
1107:Generated_Source\PSoC4/blue_1.c ****             }
1108:Generated_Source\PSoC4/blue_1.c ****             cyBle_connectionParameters.peerAddrType = address -> type;
1109:Generated_Source\PSoC4/blue_1.c ****             apiResult = CyBle_GapcInitConnection(&cyBle_connectionParameters);
1110:Generated_Source\PSoC4/blue_1.c ****             
1111:Generated_Source\PSoC4/blue_1.c ****             if(apiResult == CYBLE_ERROR_OK)
1112:Generated_Source\PSoC4/blue_1.c ****             {
1113:Generated_Source\PSoC4/blue_1.c ****                 CyBle_SetState(CYBLE_STATE_CONNECTING);
1114:Generated_Source\PSoC4/blue_1.c ****                 if(cyBle_connectingTimeout != 0u)
1115:Generated_Source\PSoC4/blue_1.c ****                 {
1116:Generated_Source\PSoC4/blue_1.c ****                     (void)CyBle_StartTimer(cyBle_connectingTimeout);
1117:Generated_Source\PSoC4/blue_1.c ****                 }
1118:Generated_Source\PSoC4/blue_1.c ****             }
ARM GAS  C:\Users\alexport\AppData\Local\Temp\ccf6k4ea.s 			page 41


1119:Generated_Source\PSoC4/blue_1.c ****         }
1120:Generated_Source\PSoC4/blue_1.c ****         return (apiResult);
1121:Generated_Source\PSoC4/blue_1.c ****     }
1122:Generated_Source\PSoC4/blue_1.c ****     
1123:Generated_Source\PSoC4/blue_1.c **** 
1124:Generated_Source\PSoC4/blue_1.c ****     /******************************************************************************
1125:Generated_Source\PSoC4/blue_1.c ****     * Function Name: CyBle_GapcCancelDeviceConnection
1126:Generated_Source\PSoC4/blue_1.c ****     ***************************************************************************//**
1127:Generated_Source\PSoC4/blue_1.c ****     * 
1128:Generated_Source\PSoC4/blue_1.c ****     *  This function cancels a previously initiated connection with the remote 
1129:Generated_Source\PSoC4/blue_1.c ****     *  device. It is a blocking function. No event is generated on calling this 
1130:Generated_Source\PSoC4/blue_1.c ****     *  function. If the devices are already connected then this function should not
1131:Generated_Source\PSoC4/blue_1.c ****     *  be used. If you intend to disconnect from an existing connection, the function
1132:Generated_Source\PSoC4/blue_1.c ****     *  CyBle_GapDisconnect() should be used.
1133:Generated_Source\PSoC4/blue_1.c ****     * 
1134:Generated_Source\PSoC4/blue_1.c ****     * \return
1135:Generated_Source\PSoC4/blue_1.c ****     *  CYBLE_API_RESULT_T : Return value indicates if the function succeeded or 
1136:Generated_Source\PSoC4/blue_1.c ****     *  failed. Following are the possible error codes.
1137:Generated_Source\PSoC4/blue_1.c ****     *
1138:Generated_Source\PSoC4/blue_1.c ****     *   Errors codes                       | Description
1139:Generated_Source\PSoC4/blue_1.c ****     *   ---------------------------------- | --------------------------------------
1140:Generated_Source\PSoC4/blue_1.c ****     *   CYBLE_ERROR_OK                     | On successful operation.
1141:Generated_Source\PSoC4/blue_1.c ****     *   CYBLE_ERROR_STACK_INTERNAL         | An error occurred in the BLE stack.
1142:Generated_Source\PSoC4/blue_1.c ****     *   CYBLE_ERROR_INVALID_STATE          | On calling this function not in Connecting state.
1143:Generated_Source\PSoC4/blue_1.c ****     *  
1144:Generated_Source\PSoC4/blue_1.c ****     *******************************************************************************/
1145:Generated_Source\PSoC4/blue_1.c ****     CYBLE_API_RESULT_T CyBle_GapcCancelDeviceConnection(void)
1146:Generated_Source\PSoC4/blue_1.c ****     {
1147:Generated_Source\PSoC4/blue_1.c ****         CYBLE_API_RESULT_T apiResult;
1148:Generated_Source\PSoC4/blue_1.c ****         
1149:Generated_Source\PSoC4/blue_1.c ****         if(CyBle_GetState() != CYBLE_STATE_CONNECTING)
1150:Generated_Source\PSoC4/blue_1.c ****         {
1151:Generated_Source\PSoC4/blue_1.c ****             apiResult = CYBLE_ERROR_INVALID_STATE;
1152:Generated_Source\PSoC4/blue_1.c ****         }
1153:Generated_Source\PSoC4/blue_1.c ****         else 
1154:Generated_Source\PSoC4/blue_1.c ****         {
1155:Generated_Source\PSoC4/blue_1.c ****             apiResult = CyBle_GapcCancelConnection();
1156:Generated_Source\PSoC4/blue_1.c ****             
1157:Generated_Source\PSoC4/blue_1.c ****             if(cyBle_connectingTimeout != 0u)
1158:Generated_Source\PSoC4/blue_1.c ****             {
1159:Generated_Source\PSoC4/blue_1.c ****                 (void)CyBle_StopTimer();
1160:Generated_Source\PSoC4/blue_1.c ****             }
1161:Generated_Source\PSoC4/blue_1.c **** 
1162:Generated_Source\PSoC4/blue_1.c ****             if(apiResult == CYBLE_ERROR_OK)
1163:Generated_Source\PSoC4/blue_1.c ****             {
1164:Generated_Source\PSoC4/blue_1.c ****                 CyBle_SetState(CYBLE_STATE_DISCONNECTED);
1165:Generated_Source\PSoC4/blue_1.c ****             }
1166:Generated_Source\PSoC4/blue_1.c ****         }
1167:Generated_Source\PSoC4/blue_1.c ****         return (apiResult);
1168:Generated_Source\PSoC4/blue_1.c ****     }    
1169:Generated_Source\PSoC4/blue_1.c **** 
1170:Generated_Source\PSoC4/blue_1.c ****     
1171:Generated_Source\PSoC4/blue_1.c **** #endif /* CYBLE_GAP_ROLE_CENTRAL */
1172:Generated_Source\PSoC4/blue_1.c **** 
1173:Generated_Source\PSoC4/blue_1.c **** 
1174:Generated_Source\PSoC4/blue_1.c **** #if(CYBLE_GATT_ROLE_SERVER)
1175:Generated_Source\PSoC4/blue_1.c **** 
ARM GAS  C:\Users\alexport\AppData\Local\Temp\ccf6k4ea.s 			page 42


1176:Generated_Source\PSoC4/blue_1.c **** #if(CYBLE_GAP_ROLE_PERIPHERAL)
1177:Generated_Source\PSoC4/blue_1.c **** 
1178:Generated_Source\PSoC4/blue_1.c ****         /******************************************************************************
1179:Generated_Source\PSoC4/blue_1.c ****         * Function Name: CyBle_ChangeAdLocalName
1180:Generated_Source\PSoC4/blue_1.c ****         ***************************************************************************//**
1181:Generated_Source\PSoC4/blue_1.c ****         *  This function is used to set the local device name in the advertisement or 
1182:Generated_Source\PSoC4/blue_1.c ****         *  scan response data structure.
1183:Generated_Source\PSoC4/blue_1.c ****         * 
1184:Generated_Source\PSoC4/blue_1.c ****         *  \param name: The local device name string to be set in advertisement data 
1185:Generated_Source\PSoC4/blue_1.c ****         *            structure.
1186:Generated_Source\PSoC4/blue_1.c ****         *  \param dest: 0 - advertisement structure, not zero value selects scan response
1187:Generated_Source\PSoC4/blue_1.c ****         *              structure.
1188:Generated_Source\PSoC4/blue_1.c ****         * 
1189:Generated_Source\PSoC4/blue_1.c ****         * \return
1190:Generated_Source\PSoC4/blue_1.c ****         *  None
1191:Generated_Source\PSoC4/blue_1.c ****         *  
1192:Generated_Source\PSoC4/blue_1.c ****         *******************************************************************************/
1193:Generated_Source\PSoC4/blue_1.c ****         static void CyBle_ChangeAdLocalName(const char8 name[], uint8 dest)
1194:Generated_Source\PSoC4/blue_1.c ****         {
 1148              		.loc 1 1194 0
 1149              		.cfi_startproc
 1150              		@ args = 0, pretend = 0, frame = 24
 1151              		@ frame_needed = 1, uses_anonymous_args = 0
 1152 0000 80B5     		push	{r7, lr}
 1153              		.cfi_def_cfa_offset 8
 1154              		.cfi_offset 7, -8
 1155              		.cfi_offset 14, -4
 1156 0002 86B0     		sub	sp, sp, #24
 1157              		.cfi_def_cfa_offset 32
 1158 0004 00AF     		add	r7, sp, #0
 1159              		.cfi_def_cfa_register 7
 1160 0006 7860     		str	r0, [r7, #4]
 1161 0008 0A00     		movs	r2, r1
 1162 000a FB1C     		adds	r3, r7, #3
 1163 000c 1A70     		strb	r2, [r3]
1195:Generated_Source\PSoC4/blue_1.c ****             uint8 i;
1196:Generated_Source\PSoC4/blue_1.c ****             uint8 flag = 0u;
 1164              		.loc 1 1196 0
 1165 000e 1623     		movs	r3, #22
 1166 0010 FB18     		adds	r3, r7, r3
 1167 0012 0022     		movs	r2, #0
 1168 0014 1A70     		strb	r2, [r3]
1197:Generated_Source\PSoC4/blue_1.c ****             uint8 adLength = 0u;
 1169              		.loc 1 1197 0
 1170 0016 1523     		movs	r3, #21
 1171 0018 FB18     		adds	r3, r7, r3
 1172 001a 0022     		movs	r2, #0
 1173 001c 1A70     		strb	r2, [r3]
1198:Generated_Source\PSoC4/blue_1.c ****             uint8 byteCounter = 0u;
 1174              		.loc 1 1198 0
 1175 001e 1423     		movs	r3, #20
 1176 0020 FB18     		adds	r3, r7, r3
 1177 0022 0022     		movs	r2, #0
 1178 0024 1A70     		strb	r2, [r3]
1199:Generated_Source\PSoC4/blue_1.c ****             uint8 *destBuffer;
1200:Generated_Source\PSoC4/blue_1.c ****             uint8 maxLength;
1201:Generated_Source\PSoC4/blue_1.c ****             
ARM GAS  C:\Users\alexport\AppData\Local\Temp\ccf6k4ea.s 			page 43


1202:Generated_Source\PSoC4/blue_1.c ****             if(dest == 0u)      /* Destination - advertising structure */
 1179              		.loc 1 1202 0
 1180 0026 FB1C     		adds	r3, r7, #3
 1181 0028 1B78     		ldrb	r3, [r3]
 1182 002a 002B     		cmp	r3, #0
 1183 002c 07D1     		bne	.L57
1203:Generated_Source\PSoC4/blue_1.c ****             {
1204:Generated_Source\PSoC4/blue_1.c ****                 destBuffer = cyBle_discoveryData.advData;
 1184              		.loc 1 1204 0
 1185 002e 5C4B     		ldr	r3, .L74
 1186 0030 3B61     		str	r3, [r7, #16]
1205:Generated_Source\PSoC4/blue_1.c ****                 maxLength = cyBle_discoveryData.advDataLen;
 1187              		.loc 1 1205 0
 1188 0032 0F23     		movs	r3, #15
 1189 0034 FB18     		adds	r3, r7, r3
 1190 0036 5A4A     		ldr	r2, .L74
 1191 0038 D27F     		ldrb	r2, [r2, #31]
 1192 003a 1A70     		strb	r2, [r3]
 1193 003c 3BE0     		b	.L59
 1194              	.L57:
1206:Generated_Source\PSoC4/blue_1.c ****             }
1207:Generated_Source\PSoC4/blue_1.c ****             else                /* Destination - scan response structure */
1208:Generated_Source\PSoC4/blue_1.c ****             {
1209:Generated_Source\PSoC4/blue_1.c ****                 destBuffer = cyBle_scanRspData.scanRspData;
 1195              		.loc 1 1209 0
 1196 003e 594B     		ldr	r3, .L74+4
 1197 0040 3B61     		str	r3, [r7, #16]
1210:Generated_Source\PSoC4/blue_1.c ****                 maxLength = cyBle_scanRspData.scanRspDataLen;
 1198              		.loc 1 1210 0
 1199 0042 0F23     		movs	r3, #15
 1200 0044 FB18     		adds	r3, r7, r3
 1201 0046 574A     		ldr	r2, .L74+4
 1202 0048 D27F     		ldrb	r2, [r2, #31]
 1203 004a 1A70     		strb	r2, [r3]
1211:Generated_Source\PSoC4/blue_1.c ****             }
1212:Generated_Source\PSoC4/blue_1.c ****             
1213:Generated_Source\PSoC4/blue_1.c ****             while((byteCounter < maxLength) && (flag == 0u))
 1204              		.loc 1 1213 0
 1205 004c 33E0     		b	.L59
 1206              	.L65:
1214:Generated_Source\PSoC4/blue_1.c ****             {
1215:Generated_Source\PSoC4/blue_1.c ****                 adLength = destBuffer[byteCounter];
 1207              		.loc 1 1215 0
 1208 004e 1423     		movs	r3, #20
 1209 0050 FB18     		adds	r3, r7, r3
 1210 0052 1B78     		ldrb	r3, [r3]
 1211 0054 3A69     		ldr	r2, [r7, #16]
 1212 0056 D218     		adds	r2, r2, r3
 1213 0058 1523     		movs	r3, #21
 1214 005a FB18     		adds	r3, r7, r3
 1215 005c 1278     		ldrb	r2, [r2]
 1216 005e 1A70     		strb	r2, [r3]
1216:Generated_Source\PSoC4/blue_1.c ****                 
1217:Generated_Source\PSoC4/blue_1.c ****                 if(0u != adLength)
 1217              		.loc 1 1217 0
 1218 0060 1523     		movs	r3, #21
 1219 0062 FB18     		adds	r3, r7, r3
ARM GAS  C:\Users\alexport\AppData\Local\Temp\ccf6k4ea.s 			page 44


 1220 0064 1B78     		ldrb	r3, [r3]
 1221 0066 002B     		cmp	r3, #0
 1222 0068 33D0     		beq	.L72
1218:Generated_Source\PSoC4/blue_1.c ****                 {
1219:Generated_Source\PSoC4/blue_1.c ****                     /* Increment byte counter so it can point to AD type */
1220:Generated_Source\PSoC4/blue_1.c ****                     byteCounter++;
 1223              		.loc 1 1220 0
 1224 006a 1423     		movs	r3, #20
 1225 006c FB18     		adds	r3, r7, r3
 1226 006e 1A78     		ldrb	r2, [r3]
 1227 0070 1423     		movs	r3, #20
 1228 0072 FB18     		adds	r3, r7, r3
 1229 0074 0132     		adds	r2, r2, #1
 1230 0076 1A70     		strb	r2, [r3]
1221:Generated_Source\PSoC4/blue_1.c ****                     
1222:Generated_Source\PSoC4/blue_1.c ****                     if((destBuffer[byteCounter] == CYBLE_SHORT_LOCAL_NAME) || 
 1231              		.loc 1 1222 0
 1232 0078 1423     		movs	r3, #20
 1233 007a FB18     		adds	r3, r7, r3
 1234 007c 1B78     		ldrb	r3, [r3]
 1235 007e 3A69     		ldr	r2, [r7, #16]
 1236 0080 D318     		adds	r3, r2, r3
 1237 0082 1B78     		ldrb	r3, [r3]
 1238 0084 082B     		cmp	r3, #8
 1239 0086 07D0     		beq	.L61
1223:Generated_Source\PSoC4/blue_1.c ****                        (destBuffer[byteCounter] == CYBLE_COMPLETE_LOCAL_NAME))
 1240              		.loc 1 1223 0 discriminator 1
 1241 0088 1423     		movs	r3, #20
 1242 008a FB18     		adds	r3, r7, r3
 1243 008c 1B78     		ldrb	r3, [r3]
 1244 008e 3A69     		ldr	r2, [r7, #16]
 1245 0090 D318     		adds	r3, r2, r3
 1246 0092 1B78     		ldrb	r3, [r3]
1222:Generated_Source\PSoC4/blue_1.c ****                        (destBuffer[byteCounter] == CYBLE_COMPLETE_LOCAL_NAME))
 1247              		.loc 1 1222 0 discriminator 1
 1248 0094 092B     		cmp	r3, #9
 1249 0096 04D1     		bne	.L62
 1250              	.L61:
1224:Generated_Source\PSoC4/blue_1.c ****                     {
1225:Generated_Source\PSoC4/blue_1.c ****                         /* Start of the Local Name AD type was fount. Set flag and exit the loop. *
1226:Generated_Source\PSoC4/blue_1.c ****                         flag = 1u;
 1251              		.loc 1 1226 0
 1252 0098 1623     		movs	r3, #22
 1253 009a FB18     		adds	r3, r7, r3
 1254 009c 0122     		movs	r2, #1
 1255 009e 1A70     		strb	r2, [r3]
 1256 00a0 09E0     		b	.L59
 1257              	.L62:
1227:Generated_Source\PSoC4/blue_1.c ****                     }
1228:Generated_Source\PSoC4/blue_1.c ****                     else
1229:Generated_Source\PSoC4/blue_1.c ****                     {
1230:Generated_Source\PSoC4/blue_1.c ****                         byteCounter += adLength;
 1258              		.loc 1 1230 0
 1259 00a2 1423     		movs	r3, #20
 1260 00a4 FB18     		adds	r3, r7, r3
 1261 00a6 1422     		movs	r2, #20
 1262 00a8 B918     		adds	r1, r7, r2
ARM GAS  C:\Users\alexport\AppData\Local\Temp\ccf6k4ea.s 			page 45


 1263 00aa 1522     		movs	r2, #21
 1264 00ac BA18     		adds	r2, r7, r2
 1265 00ae 0978     		ldrb	r1, [r1]
 1266 00b0 1278     		ldrb	r2, [r2]
 1267 00b2 8A18     		adds	r2, r1, r2
 1268 00b4 1A70     		strb	r2, [r3]
 1269              	.L59:
1213:Generated_Source\PSoC4/blue_1.c ****             {
 1270              		.loc 1 1213 0
 1271 00b6 1423     		movs	r3, #20
 1272 00b8 FA18     		adds	r2, r7, r3
 1273 00ba 0F23     		movs	r3, #15
 1274 00bc FB18     		adds	r3, r7, r3
 1275 00be 1278     		ldrb	r2, [r2]
 1276 00c0 1B78     		ldrb	r3, [r3]
 1277 00c2 9A42     		cmp	r2, r3
 1278 00c4 06D2     		bcs	.L64
1213:Generated_Source\PSoC4/blue_1.c ****             {
 1279              		.loc 1 1213 0 is_stmt 0 discriminator 1
 1280 00c6 1623     		movs	r3, #22
 1281 00c8 FB18     		adds	r3, r7, r3
 1282 00ca 1B78     		ldrb	r3, [r3]
 1283 00cc 002B     		cmp	r3, #0
 1284 00ce BED0     		beq	.L65
 1285 00d0 00E0     		b	.L64
 1286              	.L72:
1231:Generated_Source\PSoC4/blue_1.c ****                     }
1232:Generated_Source\PSoC4/blue_1.c ****                 }
1233:Generated_Source\PSoC4/blue_1.c ****                 else
1234:Generated_Source\PSoC4/blue_1.c ****                 {
1235:Generated_Source\PSoC4/blue_1.c ****                     /* The end of advertisement data structure was encountered though exit the loop
1236:Generated_Source\PSoC4/blue_1.c ****                     break;
 1287              		.loc 1 1236 0 is_stmt 1
 1288 00d2 C046     		nop
 1289              	.L64:
1237:Generated_Source\PSoC4/blue_1.c ****                 }
1238:Generated_Source\PSoC4/blue_1.c ****             }
1239:Generated_Source\PSoC4/blue_1.c ****             
1240:Generated_Source\PSoC4/blue_1.c ****             if(0u != flag)
 1290              		.loc 1 1240 0
 1291 00d4 1623     		movs	r3, #22
 1292 00d6 FB18     		adds	r3, r7, r3
 1293 00d8 1B78     		ldrb	r3, [r3]
 1294 00da 002B     		cmp	r3, #0
 1295 00dc 5BD0     		beq	.L73
1241:Generated_Source\PSoC4/blue_1.c ****             {
1242:Generated_Source\PSoC4/blue_1.c ****                 /* Reuse "adLength" to hold location of the last character of local name in 
1243:Generated_Source\PSoC4/blue_1.c ****                    AD structure. */
1244:Generated_Source\PSoC4/blue_1.c ****                 adLength += byteCounter;
 1296              		.loc 1 1244 0
 1297 00de 1523     		movs	r3, #21
 1298 00e0 FB18     		adds	r3, r7, r3
 1299 00e2 1522     		movs	r2, #21
 1300 00e4 B918     		adds	r1, r7, r2
 1301 00e6 1422     		movs	r2, #20
 1302 00e8 BA18     		adds	r2, r7, r2
 1303 00ea 0978     		ldrb	r1, [r1]
ARM GAS  C:\Users\alexport\AppData\Local\Temp\ccf6k4ea.s 			page 46


 1304 00ec 1278     		ldrb	r2, [r2]
 1305 00ee 8A18     		adds	r2, r1, r2
 1306 00f0 1A70     		strb	r2, [r3]
1245:Generated_Source\PSoC4/blue_1.c ****                 
1246:Generated_Source\PSoC4/blue_1.c ****                 /* Increment byte counter to point to start of the local Name string */
1247:Generated_Source\PSoC4/blue_1.c ****                 byteCounter++;
 1307              		.loc 1 1247 0
 1308 00f2 1423     		movs	r3, #20
 1309 00f4 FB18     		adds	r3, r7, r3
 1310 00f6 1A78     		ldrb	r2, [r3]
 1311 00f8 1423     		movs	r3, #20
 1312 00fa FB18     		adds	r3, r7, r3
 1313 00fc 0132     		adds	r2, r2, #1
 1314 00fe 1A70     		strb	r2, [r3]
1248:Generated_Source\PSoC4/blue_1.c ****                 
1249:Generated_Source\PSoC4/blue_1.c ****                 for(i = byteCounter; ((i < (adLength)) && (CYBLE_NULL_CHARCTER != name[i - byteCoun
 1315              		.loc 1 1249 0
 1316 0100 1723     		movs	r3, #23
 1317 0102 FB18     		adds	r3, r7, r3
 1318 0104 1422     		movs	r2, #20
 1319 0106 BA18     		adds	r2, r7, r2
 1320 0108 1278     		ldrb	r2, [r2]
 1321 010a 1A70     		strb	r2, [r3]
 1322 010c 17E0     		b	.L67
 1323              	.L69:
1250:Generated_Source\PSoC4/blue_1.c ****                 {
1251:Generated_Source\PSoC4/blue_1.c ****                     destBuffer[i] = (uint8)name[i - byteCounter];
 1324              		.loc 1 1251 0 discriminator 4
 1325 010e 1723     		movs	r3, #23
 1326 0110 FB18     		adds	r3, r7, r3
 1327 0112 1B78     		ldrb	r3, [r3]
 1328 0114 3A69     		ldr	r2, [r7, #16]
 1329 0116 D318     		adds	r3, r2, r3
 1330 0118 1722     		movs	r2, #23
 1331 011a BA18     		adds	r2, r7, r2
 1332 011c 1178     		ldrb	r1, [r2]
 1333 011e 1422     		movs	r2, #20
 1334 0120 BA18     		adds	r2, r7, r2
 1335 0122 1278     		ldrb	r2, [r2]
 1336 0124 8A1A     		subs	r2, r1, r2
 1337 0126 1100     		movs	r1, r2
 1338 0128 7A68     		ldr	r2, [r7, #4]
 1339 012a 5218     		adds	r2, r2, r1
 1340 012c 1278     		ldrb	r2, [r2]
 1341 012e 1A70     		strb	r2, [r3]
1249:Generated_Source\PSoC4/blue_1.c ****                 {
 1342              		.loc 1 1249 0 discriminator 4
 1343 0130 1723     		movs	r3, #23
 1344 0132 FB18     		adds	r3, r7, r3
 1345 0134 1A78     		ldrb	r2, [r3]
 1346 0136 1723     		movs	r3, #23
 1347 0138 FB18     		adds	r3, r7, r3
 1348 013a 0132     		adds	r2, r2, #1
 1349 013c 1A70     		strb	r2, [r3]
 1350              	.L67:
1249:Generated_Source\PSoC4/blue_1.c ****                 {
 1351              		.loc 1 1249 0 is_stmt 0 discriminator 1
ARM GAS  C:\Users\alexport\AppData\Local\Temp\ccf6k4ea.s 			page 47


 1352 013e 1723     		movs	r3, #23
 1353 0140 FA18     		adds	r2, r7, r3
 1354 0142 1523     		movs	r3, #21
 1355 0144 FB18     		adds	r3, r7, r3
 1356 0146 1278     		ldrb	r2, [r2]
 1357 0148 1B78     		ldrb	r3, [r3]
 1358 014a 9A42     		cmp	r2, r3
 1359 014c 1BD2     		bcs	.L70
1249:Generated_Source\PSoC4/blue_1.c ****                 {
 1360              		.loc 1 1249 0 discriminator 3
 1361 014e 1723     		movs	r3, #23
 1362 0150 FB18     		adds	r3, r7, r3
 1363 0152 1A78     		ldrb	r2, [r3]
 1364 0154 1423     		movs	r3, #20
 1365 0156 FB18     		adds	r3, r7, r3
 1366 0158 1B78     		ldrb	r3, [r3]
 1367 015a D31A     		subs	r3, r2, r3
 1368 015c 1A00     		movs	r2, r3
 1369 015e 7B68     		ldr	r3, [r7, #4]
 1370 0160 9B18     		adds	r3, r3, r2
 1371 0162 1B78     		ldrb	r3, [r3]
 1372 0164 002B     		cmp	r3, #0
 1373 0166 D2D1     		bne	.L69
1252:Generated_Source\PSoC4/blue_1.c ****                 }
1253:Generated_Source\PSoC4/blue_1.c ****                 
1254:Generated_Source\PSoC4/blue_1.c ****                 /* This loop handles the case when new local name is shorted than old one.
1255:Generated_Source\PSoC4/blue_1.c ****                    In this case all remaining characters should be null characters. */
1256:Generated_Source\PSoC4/blue_1.c ****                 while(adLength > i)
 1374              		.loc 1 1256 0 is_stmt 1
 1375 0168 0DE0     		b	.L70
 1376              	.L71:
1257:Generated_Source\PSoC4/blue_1.c ****                 {
1258:Generated_Source\PSoC4/blue_1.c ****                     /* Terminate string */
1259:Generated_Source\PSoC4/blue_1.c ****                     destBuffer[i] = (uint8)CYBLE_NULL_CHARCTER;
 1377              		.loc 1 1259 0
 1378 016a 1723     		movs	r3, #23
 1379 016c FB18     		adds	r3, r7, r3
 1380 016e 1B78     		ldrb	r3, [r3]
 1381 0170 3A69     		ldr	r2, [r7, #16]
 1382 0172 D318     		adds	r3, r2, r3
 1383 0174 0022     		movs	r2, #0
 1384 0176 1A70     		strb	r2, [r3]
1260:Generated_Source\PSoC4/blue_1.c ****                     i++;
 1385              		.loc 1 1260 0
 1386 0178 1723     		movs	r3, #23
 1387 017a FB18     		adds	r3, r7, r3
 1388 017c 1A78     		ldrb	r2, [r3]
 1389 017e 1723     		movs	r3, #23
 1390 0180 FB18     		adds	r3, r7, r3
 1391 0182 0132     		adds	r2, r2, #1
 1392 0184 1A70     		strb	r2, [r3]
 1393              	.L70:
1256:Generated_Source\PSoC4/blue_1.c ****                 {
 1394              		.loc 1 1256 0
 1395 0186 1523     		movs	r3, #21
 1396 0188 FA18     		adds	r2, r7, r3
 1397 018a 1723     		movs	r3, #23
ARM GAS  C:\Users\alexport\AppData\Local\Temp\ccf6k4ea.s 			page 48


 1398 018c FB18     		adds	r3, r7, r3
 1399 018e 1278     		ldrb	r2, [r2]
 1400 0190 1B78     		ldrb	r3, [r3]
 1401 0192 9A42     		cmp	r2, r3
 1402 0194 E9D8     		bhi	.L71
 1403              	.L73:
1261:Generated_Source\PSoC4/blue_1.c ****                 }
1262:Generated_Source\PSoC4/blue_1.c ****             }
1263:Generated_Source\PSoC4/blue_1.c ****         }
 1404              		.loc 1 1263 0
 1405 0196 C046     		nop
 1406 0198 BD46     		mov	sp, r7
 1407 019a 06B0     		add	sp, sp, #24
 1408              		@ sp needed
 1409 019c 80BD     		pop	{r7, pc}
 1410              	.L75:
 1411 019e C046     		.align	2
 1412              	.L74:
 1413 01a0 00000000 		.word	cyBle_discoveryData
 1414 01a4 00000000 		.word	cyBle_scanRspData
 1415              		.cfi_endproc
 1416              	.LFE11:
 1417              		.size	CyBle_ChangeAdLocalName, .-CyBle_ChangeAdLocalName
 1418              		.section	.text.CyBle_GapSetLocalName,"ax",%progbits
 1419              		.align	2
 1420              		.global	CyBle_GapSetLocalName
 1421              		.code	16
 1422              		.thumb_func
 1423              		.type	CyBle_GapSetLocalName, %function
 1424              	CyBle_GapSetLocalName:
 1425              	.LFB12:
1264:Generated_Source\PSoC4/blue_1.c ****         
1265:Generated_Source\PSoC4/blue_1.c **** #endif /* (CYBLE_GAP_ROLE_PERIPHERAL) */  
1266:Generated_Source\PSoC4/blue_1.c ****     
1267:Generated_Source\PSoC4/blue_1.c ****     
1268:Generated_Source\PSoC4/blue_1.c ****     /******************************************************************************
1269:Generated_Source\PSoC4/blue_1.c ****     * Function Name: CyBle_GapSetLocalName
1270:Generated_Source\PSoC4/blue_1.c ****     ***************************************************************************//**
1271:Generated_Source\PSoC4/blue_1.c ****     *  This function is used to set the local device name - a Characteristic of the 
1272:Generated_Source\PSoC4/blue_1.c ****     *  GAP Service. If the characteristic length entered in the component customizer
1273:Generated_Source\PSoC4/blue_1.c ****     *  is shorter than the string specified by the "name" parameter, the local device
1274:Generated_Source\PSoC4/blue_1.c ****     *  name will be cut to the length specified in the customizer.
1275:Generated_Source\PSoC4/blue_1.c ****     * 
1276:Generated_Source\PSoC4/blue_1.c ****     *  \param name: The local device name string. The name string to be written as
1277:Generated_Source\PSoC4/blue_1.c ****     *              the local device name. It represents a UTF-8 encoded User
1278:Generated_Source\PSoC4/blue_1.c ****     *              Friendly Descriptive Name for the device. The length of the local
1279:Generated_Source\PSoC4/blue_1.c ****     *              device string is entered into the component customizer and it can
1280:Generated_Source\PSoC4/blue_1.c ****     *              be set to a value from 0 to 248 bytes. If the name contained in
1281:Generated_Source\PSoC4/blue_1.c ****     *              the parameter is shorter than the length from the customizer, the
1282:Generated_Source\PSoC4/blue_1.c ****     *              end of the name is indicated by a NULL octet (0x00).
1283:Generated_Source\PSoC4/blue_1.c ****     * 
1284:Generated_Source\PSoC4/blue_1.c ****     * \return
1285:Generated_Source\PSoC4/blue_1.c ****     *  CYBLE_API_RESULT_T : Return value indicates if the function succeeded or 
1286:Generated_Source\PSoC4/blue_1.c ****     *  failed. Following are the possible error codes.
1287:Generated_Source\PSoC4/blue_1.c ****     *
1288:Generated_Source\PSoC4/blue_1.c ****     *   Errors codes                       | Description
1289:Generated_Source\PSoC4/blue_1.c ****     *   ------------                       | -----------
ARM GAS  C:\Users\alexport\AppData\Local\Temp\ccf6k4ea.s 			page 49


1290:Generated_Source\PSoC4/blue_1.c ****     *   CYBLE_ERROR_OK                     | Function completed successfully.
1291:Generated_Source\PSoC4/blue_1.c ****     *   CYBLE_ERROR_INVALID_PARAMETER      | On specifying NULL as input parameter
1292:Generated_Source\PSoC4/blue_1.c ****     *  
1293:Generated_Source\PSoC4/blue_1.c ****     *******************************************************************************/
1294:Generated_Source\PSoC4/blue_1.c ****     CYBLE_API_RESULT_T CyBle_GapSetLocalName(const char8 name[])
1295:Generated_Source\PSoC4/blue_1.c ****     {
 1426              		.loc 1 1295 0
 1427              		.cfi_startproc
 1428              		@ args = 0, pretend = 0, frame = 24
 1429              		@ frame_needed = 1, uses_anonymous_args = 0
 1430 0000 80B5     		push	{r7, lr}
 1431              		.cfi_def_cfa_offset 8
 1432              		.cfi_offset 7, -8
 1433              		.cfi_offset 14, -4
 1434 0002 86B0     		sub	sp, sp, #24
 1435              		.cfi_def_cfa_offset 32
 1436 0004 00AF     		add	r7, sp, #0
 1437              		.cfi_def_cfa_register 7
 1438 0006 7860     		str	r0, [r7, #4]
1296:Generated_Source\PSoC4/blue_1.c ****         CYBLE_API_RESULT_T apiResult = CYBLE_ERROR_OK;
 1439              		.loc 1 1296 0
 1440 0008 1623     		movs	r3, #22
 1441 000a FB18     		adds	r3, r7, r3
 1442 000c 0022     		movs	r2, #0
 1443 000e 1A80     		strh	r2, [r3]
1297:Generated_Source\PSoC4/blue_1.c ****         uint8 i;
1298:Generated_Source\PSoC4/blue_1.c ****         char8 *ptr;
1299:Generated_Source\PSoC4/blue_1.c ****         uint8 charLen;
1300:Generated_Source\PSoC4/blue_1.c **** 
1301:Generated_Source\PSoC4/blue_1.c ****         if(NULL != name)
 1444              		.loc 1 1301 0
 1445 0010 7B68     		ldr	r3, [r7, #4]
 1446 0012 002B     		cmp	r3, #0
 1447 0014 5CD0     		beq	.L77
1302:Generated_Source\PSoC4/blue_1.c ****         {
1303:Generated_Source\PSoC4/blue_1.c ****             /* Get the pointer to the Device Name characteristic  */
1304:Generated_Source\PSoC4/blue_1.c ****             ptr = (char8 *) CYBLE_GATT_DB_ATTR_GET_ATTR_GEN_PTR(cyBle_gaps.deviceNameCharHandle);
 1448              		.loc 1 1304 0
 1449 0016 344B     		ldr	r3, .L84
 1450 0018 5B88     		ldrh	r3, [r3, #2]
 1451 001a 5A1E     		subs	r2, r3, #1
 1452 001c 3349     		ldr	r1, .L84+4
 1453 001e 1300     		movs	r3, r2
 1454 0020 9B00     		lsls	r3, r3, #2
 1455 0022 9B18     		adds	r3, r3, r2
 1456 0024 9B00     		lsls	r3, r3, #2
 1457 0026 CB18     		adds	r3, r1, r3
 1458 0028 1033     		adds	r3, r3, #16
 1459 002a 1B68     		ldr	r3, [r3]
 1460 002c 5B68     		ldr	r3, [r3, #4]
 1461 002e 3B61     		str	r3, [r7, #16]
1305:Generated_Source\PSoC4/blue_1.c **** 
1306:Generated_Source\PSoC4/blue_1.c ****             /* First need to get the maximum length of the characteristic data in the GATT
1307:Generated_Source\PSoC4/blue_1.c ****                 database to make sure there is enough place for the data. The length
1308:Generated_Source\PSoC4/blue_1.c ****                 can't be longer than 248, so only the LSB of 16 bit of length is to
1309:Generated_Source\PSoC4/blue_1.c ****                 be used. */
1310:Generated_Source\PSoC4/blue_1.c ****             charLen = (uint8)CYBLE_GATT_DB_ATTR_GET_ATTR_GEN_MAX_LEN(cyBle_gaps.deviceNameCharHandl
ARM GAS  C:\Users\alexport\AppData\Local\Temp\ccf6k4ea.s 			page 50


 1462              		.loc 1 1310 0
 1463 0030 2D4B     		ldr	r3, .L84
 1464 0032 5B88     		ldrh	r3, [r3, #2]
 1465 0034 5A1E     		subs	r2, r3, #1
 1466 0036 2D49     		ldr	r1, .L84+4
 1467 0038 1300     		movs	r3, r2
 1468 003a 9B00     		lsls	r3, r3, #2
 1469 003c 9B18     		adds	r3, r3, r2
 1470 003e 9B00     		lsls	r3, r3, #2
 1471 0040 CB18     		adds	r3, r1, r3
 1472 0042 0C33     		adds	r3, r3, #12
 1473 0044 1A88     		ldrh	r2, [r3]
 1474 0046 0F23     		movs	r3, #15
 1475 0048 FB18     		adds	r3, r7, r3
 1476 004a 1A70     		strb	r2, [r3]
1311:Generated_Source\PSoC4/blue_1.c **** 
1312:Generated_Source\PSoC4/blue_1.c ****             /* Copy name into characteristic */
1313:Generated_Source\PSoC4/blue_1.c ****             for(i = 0u; ((i < charLen) && (CYBLE_NULL_CHARCTER != name[i])); i++)
 1477              		.loc 1 1313 0
 1478 004c 1523     		movs	r3, #21
 1479 004e FB18     		adds	r3, r7, r3
 1480 0050 0022     		movs	r2, #0
 1481 0052 1A70     		strb	r2, [r3]
 1482 0054 12E0     		b	.L78
 1483              	.L80:
1314:Generated_Source\PSoC4/blue_1.c ****             {
1315:Generated_Source\PSoC4/blue_1.c ****                 ptr[i] = name[i];
 1484              		.loc 1 1315 0 discriminator 4
 1485 0056 1523     		movs	r3, #21
 1486 0058 FB18     		adds	r3, r7, r3
 1487 005a 1B78     		ldrb	r3, [r3]
 1488 005c 3A69     		ldr	r2, [r7, #16]
 1489 005e D318     		adds	r3, r2, r3
 1490 0060 1522     		movs	r2, #21
 1491 0062 BA18     		adds	r2, r7, r2
 1492 0064 1278     		ldrb	r2, [r2]
 1493 0066 7968     		ldr	r1, [r7, #4]
 1494 0068 8A18     		adds	r2, r1, r2
 1495 006a 1278     		ldrb	r2, [r2]
 1496 006c 1A70     		strb	r2, [r3]
1313:Generated_Source\PSoC4/blue_1.c ****             {
 1497              		.loc 1 1313 0 discriminator 4
 1498 006e 1523     		movs	r3, #21
 1499 0070 FB18     		adds	r3, r7, r3
 1500 0072 1A78     		ldrb	r2, [r3]
 1501 0074 1523     		movs	r3, #21
 1502 0076 FB18     		adds	r3, r7, r3
 1503 0078 0132     		adds	r2, r2, #1
 1504 007a 1A70     		strb	r2, [r3]
 1505              	.L78:
1313:Generated_Source\PSoC4/blue_1.c ****             {
 1506              		.loc 1 1313 0 is_stmt 0 discriminator 1
 1507 007c 1523     		movs	r3, #21
 1508 007e FA18     		adds	r2, r7, r3
 1509 0080 0F23     		movs	r3, #15
 1510 0082 FB18     		adds	r3, r7, r3
 1511 0084 1278     		ldrb	r2, [r2]
ARM GAS  C:\Users\alexport\AppData\Local\Temp\ccf6k4ea.s 			page 51


 1512 0086 1B78     		ldrb	r3, [r3]
 1513 0088 9A42     		cmp	r2, r3
 1514 008a 07D2     		bcs	.L79
1313:Generated_Source\PSoC4/blue_1.c ****             {
 1515              		.loc 1 1313 0 discriminator 3
 1516 008c 1523     		movs	r3, #21
 1517 008e FB18     		adds	r3, r7, r3
 1518 0090 1B78     		ldrb	r3, [r3]
 1519 0092 7A68     		ldr	r2, [r7, #4]
 1520 0094 D318     		adds	r3, r2, r3
 1521 0096 1B78     		ldrb	r3, [r3]
 1522 0098 002B     		cmp	r3, #0
 1523 009a DCD1     		bne	.L80
 1524              	.L79:
1316:Generated_Source\PSoC4/blue_1.c ****             }
1317:Generated_Source\PSoC4/blue_1.c **** 
1318:Generated_Source\PSoC4/blue_1.c ****             if(i < charLen)
 1525              		.loc 1 1318 0 is_stmt 1
 1526 009c 1523     		movs	r3, #21
 1527 009e FA18     		adds	r2, r7, r3
 1528 00a0 0F23     		movs	r3, #15
 1529 00a2 FB18     		adds	r3, r7, r3
 1530 00a4 1278     		ldrb	r2, [r2]
 1531 00a6 1B78     		ldrb	r3, [r3]
 1532 00a8 9A42     		cmp	r2, r3
 1533 00aa 06D2     		bcs	.L81
1319:Generated_Source\PSoC4/blue_1.c ****             {
1320:Generated_Source\PSoC4/blue_1.c ****                 /* Terminate string */
1321:Generated_Source\PSoC4/blue_1.c ****                 ptr[i] = CYBLE_NULL_CHARCTER;
 1534              		.loc 1 1321 0
 1535 00ac 1523     		movs	r3, #21
 1536 00ae FB18     		adds	r3, r7, r3
 1537 00b0 1B78     		ldrb	r3, [r3]
 1538 00b2 3A69     		ldr	r2, [r7, #16]
 1539 00b4 D318     		adds	r3, r2, r3
 1540 00b6 0022     		movs	r2, #0
 1541 00b8 1A70     		strb	r2, [r3]
 1542              	.L81:
1322:Generated_Source\PSoC4/blue_1.c ****             }
1323:Generated_Source\PSoC4/blue_1.c ****             
1324:Generated_Source\PSoC4/blue_1.c ****             /* Set new actual length */
1325:Generated_Source\PSoC4/blue_1.c ****             
1326:Generated_Source\PSoC4/blue_1.c ****             /* Update device name in advertising and scan response structure */
1327:Generated_Source\PSoC4/blue_1.c ****             #if(CYBLE_GAP_ROLE_PERIPHERAL)
1328:Generated_Source\PSoC4/blue_1.c ****                 CyBle_ChangeAdLocalName(name, 0u);
 1543              		.loc 1 1328 0
 1544 00ba 7B68     		ldr	r3, [r7, #4]
 1545 00bc 0021     		movs	r1, #0
 1546 00be 1800     		movs	r0, r3
 1547 00c0 FFF7FEFF 		bl	CyBle_ChangeAdLocalName
1329:Generated_Source\PSoC4/blue_1.c ****                 CyBle_ChangeAdLocalName(name, 1u);
 1548              		.loc 1 1329 0
 1549 00c4 7B68     		ldr	r3, [r7, #4]
 1550 00c6 0121     		movs	r1, #1
 1551 00c8 1800     		movs	r0, r3
 1552 00ca FFF7FEFF 		bl	CyBle_ChangeAdLocalName
 1553 00ce 03E0     		b	.L82
ARM GAS  C:\Users\alexport\AppData\Local\Temp\ccf6k4ea.s 			page 52


 1554              	.L77:
1330:Generated_Source\PSoC4/blue_1.c ****             #endif /* (CYBLE_GAP_ROLE_PERIPHERAL) */
1331:Generated_Source\PSoC4/blue_1.c ****         }
1332:Generated_Source\PSoC4/blue_1.c ****         else
1333:Generated_Source\PSoC4/blue_1.c ****         {
1334:Generated_Source\PSoC4/blue_1.c ****             apiResult = CYBLE_ERROR_INVALID_PARAMETER;
 1555              		.loc 1 1334 0
 1556 00d0 1623     		movs	r3, #22
 1557 00d2 FB18     		adds	r3, r7, r3
 1558 00d4 0122     		movs	r2, #1
 1559 00d6 1A80     		strh	r2, [r3]
 1560              	.L82:
1335:Generated_Source\PSoC4/blue_1.c ****         }
1336:Generated_Source\PSoC4/blue_1.c ****         
1337:Generated_Source\PSoC4/blue_1.c ****         return(apiResult);
 1561              		.loc 1 1337 0
 1562 00d8 1623     		movs	r3, #22
 1563 00da FB18     		adds	r3, r7, r3
 1564 00dc 1B88     		ldrh	r3, [r3]
1338:Generated_Source\PSoC4/blue_1.c ****     }
 1565              		.loc 1 1338 0
 1566 00de 1800     		movs	r0, r3
 1567 00e0 BD46     		mov	sp, r7
 1568 00e2 06B0     		add	sp, sp, #24
 1569              		@ sp needed
 1570 00e4 80BD     		pop	{r7, pc}
 1571              	.L85:
 1572 00e6 C046     		.align	2
 1573              	.L84:
 1574 00e8 00000000 		.word	cyBle_gaps
 1575 00ec 00000000 		.word	cyBle_gattDB
 1576              		.cfi_endproc
 1577              	.LFE12:
 1578              		.size	CyBle_GapSetLocalName, .-CyBle_GapSetLocalName
 1579              		.section	.text.CyBle_GapGetLocalName,"ax",%progbits
 1580              		.align	2
 1581              		.global	CyBle_GapGetLocalName
 1582              		.code	16
 1583              		.thumb_func
 1584              		.type	CyBle_GapGetLocalName, %function
 1585              	CyBle_GapGetLocalName:
 1586              	.LFB13:
1339:Generated_Source\PSoC4/blue_1.c **** 
1340:Generated_Source\PSoC4/blue_1.c **** 
1341:Generated_Source\PSoC4/blue_1.c ****     /******************************************************************************
1342:Generated_Source\PSoC4/blue_1.c ****     * Function Name: CyBle_GapGetLocalName
1343:Generated_Source\PSoC4/blue_1.c ****     ***************************************************************************//**
1344:Generated_Source\PSoC4/blue_1.c ****     *  
1345:Generated_Source\PSoC4/blue_1.c ****     *  This function is used to read the local device name - a Characteristic of the 
1346:Generated_Source\PSoC4/blue_1.c ****     *  GAP Service.
1347:Generated_Source\PSoC4/blue_1.c ****     * 
1348:Generated_Source\PSoC4/blue_1.c ****     * \param name: The local device name string. Used to read the local name to the
1349:Generated_Source\PSoC4/blue_1.c ****     *             given string array. It represents a UTF-8 encoded User Friendly 
1350:Generated_Source\PSoC4/blue_1.c ****     *             Descriptive Name for the device. The length of the local device
1351:Generated_Source\PSoC4/blue_1.c ****     *             string is entered into the component customizer and it can be set
1352:Generated_Source\PSoC4/blue_1.c ****     *             to a value from 0 to 248 bytes. If the name contained in the
1353:Generated_Source\PSoC4/blue_1.c ****     *             parameter is shorter than the length from the customizer, the end
ARM GAS  C:\Users\alexport\AppData\Local\Temp\ccf6k4ea.s 			page 53


1354:Generated_Source\PSoC4/blue_1.c ****     *             of the name is indicated by a NULL octet (0x00).
1355:Generated_Source\PSoC4/blue_1.c ****     * 
1356:Generated_Source\PSoC4/blue_1.c ****     * \return
1357:Generated_Source\PSoC4/blue_1.c ****     *  CYBLE_API_RESULT_T : Return value indicates if the function succeeded or 
1358:Generated_Source\PSoC4/blue_1.c ****     *  failed. Following are the possible error codes.
1359:Generated_Source\PSoC4/blue_1.c ****     *
1360:Generated_Source\PSoC4/blue_1.c ****     *   Errors codes                       | Description
1361:Generated_Source\PSoC4/blue_1.c ****     *   ------------                       | -----------
1362:Generated_Source\PSoC4/blue_1.c ****     *   CYBLE_ERROR_OK                     | Function completed successfully.
1363:Generated_Source\PSoC4/blue_1.c ****     *   CYBLE_ERROR_INVALID_PARAMETER      | On specifying NULL as input parameter
1364:Generated_Source\PSoC4/blue_1.c ****     *
1365:Generated_Source\PSoC4/blue_1.c ****     *******************************************************************************/
1366:Generated_Source\PSoC4/blue_1.c ****     CYBLE_API_RESULT_T CyBle_GapGetLocalName(char8 name[])
1367:Generated_Source\PSoC4/blue_1.c ****     {
 1587              		.loc 1 1367 0
 1588              		.cfi_startproc
 1589              		@ args = 0, pretend = 0, frame = 24
 1590              		@ frame_needed = 1, uses_anonymous_args = 0
 1591 0000 80B5     		push	{r7, lr}
 1592              		.cfi_def_cfa_offset 8
 1593              		.cfi_offset 7, -8
 1594              		.cfi_offset 14, -4
 1595 0002 86B0     		sub	sp, sp, #24
 1596              		.cfi_def_cfa_offset 32
 1597 0004 00AF     		add	r7, sp, #0
 1598              		.cfi_def_cfa_register 7
 1599 0006 7860     		str	r0, [r7, #4]
1368:Generated_Source\PSoC4/blue_1.c ****         CYBLE_API_RESULT_T apiResult = CYBLE_ERROR_OK;
 1600              		.loc 1 1368 0
 1601 0008 1623     		movs	r3, #22
 1602 000a FB18     		adds	r3, r7, r3
 1603 000c 0022     		movs	r2, #0
 1604 000e 1A80     		strh	r2, [r3]
1369:Generated_Source\PSoC4/blue_1.c ****         uint8 charLen;
1370:Generated_Source\PSoC4/blue_1.c ****         uint8 i;
1371:Generated_Source\PSoC4/blue_1.c ****         char8 *ptr;
1372:Generated_Source\PSoC4/blue_1.c **** 
1373:Generated_Source\PSoC4/blue_1.c ****         if(NULL != name)
 1605              		.loc 1 1373 0
 1606 0010 7B68     		ldr	r3, [r7, #4]
 1607 0012 002B     		cmp	r3, #0
 1608 0014 4BD0     		beq	.L87
1374:Generated_Source\PSoC4/blue_1.c ****         {
1375:Generated_Source\PSoC4/blue_1.c ****             /* Get the pointer to the Device Name characteristic  */
1376:Generated_Source\PSoC4/blue_1.c ****             ptr = (char8 *) CYBLE_GATT_DB_ATTR_GET_ATTR_GEN_PTR(cyBle_gaps.deviceNameCharHandle);
 1609              		.loc 1 1376 0
 1610 0016 2B4B     		ldr	r3, .L93
 1611 0018 5B88     		ldrh	r3, [r3, #2]
 1612 001a 5A1E     		subs	r2, r3, #1
 1613 001c 2A49     		ldr	r1, .L93+4
 1614 001e 1300     		movs	r3, r2
 1615 0020 9B00     		lsls	r3, r3, #2
 1616 0022 9B18     		adds	r3, r3, r2
 1617 0024 9B00     		lsls	r3, r3, #2
 1618 0026 CB18     		adds	r3, r1, r3
 1619 0028 1033     		adds	r3, r3, #16
 1620 002a 1B68     		ldr	r3, [r3]
ARM GAS  C:\Users\alexport\AppData\Local\Temp\ccf6k4ea.s 			page 54


 1621 002c 5B68     		ldr	r3, [r3, #4]
 1622 002e 3B61     		str	r3, [r7, #16]
1377:Generated_Source\PSoC4/blue_1.c **** 
1378:Generated_Source\PSoC4/blue_1.c ****             /* First need to get the length of the characteristic data in the GATT
1379:Generated_Source\PSoC4/blue_1.c ****                 database to make sure there is enough place for the data. The length
1380:Generated_Source\PSoC4/blue_1.c ****                 can't be longer than 248, so only the LSB of 16 bit of length is to
1381:Generated_Source\PSoC4/blue_1.c ****                 be used. */
1382:Generated_Source\PSoC4/blue_1.c ****             charLen = (uint8)CYBLE_GATT_DB_ATTR_GET_ATTR_GEN_LEN(cyBle_gaps.deviceNameCharHandle);
 1623              		.loc 1 1382 0
 1624 0030 244B     		ldr	r3, .L93
 1625 0032 5B88     		ldrh	r3, [r3, #2]
 1626 0034 5A1E     		subs	r2, r3, #1
 1627 0036 2449     		ldr	r1, .L93+4
 1628 0038 1300     		movs	r3, r2
 1629 003a 9B00     		lsls	r3, r3, #2
 1630 003c 9B18     		adds	r3, r3, r2
 1631 003e 9B00     		lsls	r3, r3, #2
 1632 0040 CB18     		adds	r3, r1, r3
 1633 0042 1033     		adds	r3, r3, #16
 1634 0044 1B68     		ldr	r3, [r3]
 1635 0046 1A88     		ldrh	r2, [r3]
 1636 0048 0F23     		movs	r3, #15
 1637 004a FB18     		adds	r3, r7, r3
 1638 004c 1A70     		strb	r2, [r3]
1383:Generated_Source\PSoC4/blue_1.c **** 
1384:Generated_Source\PSoC4/blue_1.c ****             /* Copy name from characteristic */
1385:Generated_Source\PSoC4/blue_1.c ****             for(i = 0u; ((i < charLen) && (CYBLE_NULL_CHARCTER != ptr[i])); i++)
 1639              		.loc 1 1385 0
 1640 004e 1523     		movs	r3, #21
 1641 0050 FB18     		adds	r3, r7, r3
 1642 0052 0022     		movs	r2, #0
 1643 0054 1A70     		strb	r2, [r3]
 1644 0056 12E0     		b	.L88
 1645              	.L90:
1386:Generated_Source\PSoC4/blue_1.c ****             {
1387:Generated_Source\PSoC4/blue_1.c ****                 name[i] = ptr[i];
 1646              		.loc 1 1387 0 discriminator 4
 1647 0058 1523     		movs	r3, #21
 1648 005a FB18     		adds	r3, r7, r3
 1649 005c 1B78     		ldrb	r3, [r3]
 1650 005e 7A68     		ldr	r2, [r7, #4]
 1651 0060 D318     		adds	r3, r2, r3
 1652 0062 1522     		movs	r2, #21
 1653 0064 BA18     		adds	r2, r7, r2
 1654 0066 1278     		ldrb	r2, [r2]
 1655 0068 3969     		ldr	r1, [r7, #16]
 1656 006a 8A18     		adds	r2, r1, r2
 1657 006c 1278     		ldrb	r2, [r2]
 1658 006e 1A70     		strb	r2, [r3]
1385:Generated_Source\PSoC4/blue_1.c ****             {
 1659              		.loc 1 1385 0 discriminator 4
 1660 0070 1523     		movs	r3, #21
 1661 0072 FB18     		adds	r3, r7, r3
 1662 0074 1A78     		ldrb	r2, [r3]
 1663 0076 1523     		movs	r3, #21
 1664 0078 FB18     		adds	r3, r7, r3
 1665 007a 0132     		adds	r2, r2, #1
ARM GAS  C:\Users\alexport\AppData\Local\Temp\ccf6k4ea.s 			page 55


 1666 007c 1A70     		strb	r2, [r3]
 1667              	.L88:
1385:Generated_Source\PSoC4/blue_1.c ****             {
 1668              		.loc 1 1385 0 is_stmt 0 discriminator 1
 1669 007e 1523     		movs	r3, #21
 1670 0080 FA18     		adds	r2, r7, r3
 1671 0082 0F23     		movs	r3, #15
 1672 0084 FB18     		adds	r3, r7, r3
 1673 0086 1278     		ldrb	r2, [r2]
 1674 0088 1B78     		ldrb	r3, [r3]
 1675 008a 9A42     		cmp	r2, r3
 1676 008c 07D2     		bcs	.L89
1385:Generated_Source\PSoC4/blue_1.c ****             {
 1677              		.loc 1 1385 0 discriminator 3
 1678 008e 1523     		movs	r3, #21
 1679 0090 FB18     		adds	r3, r7, r3
 1680 0092 1B78     		ldrb	r3, [r3]
 1681 0094 3A69     		ldr	r2, [r7, #16]
 1682 0096 D318     		adds	r3, r2, r3
 1683 0098 1B78     		ldrb	r3, [r3]
 1684 009a 002B     		cmp	r3, #0
 1685 009c DCD1     		bne	.L90
 1686              	.L89:
1388:Generated_Source\PSoC4/blue_1.c ****             }
1389:Generated_Source\PSoC4/blue_1.c **** 
1390:Generated_Source\PSoC4/blue_1.c ****             /* Terminate string */
1391:Generated_Source\PSoC4/blue_1.c ****             name[i] = CYBLE_NULL_CHARCTER;
 1687              		.loc 1 1391 0 is_stmt 1
 1688 009e 1523     		movs	r3, #21
 1689 00a0 FB18     		adds	r3, r7, r3
 1690 00a2 1B78     		ldrb	r3, [r3]
 1691 00a4 7A68     		ldr	r2, [r7, #4]
 1692 00a6 D318     		adds	r3, r2, r3
 1693 00a8 0022     		movs	r2, #0
 1694 00aa 1A70     		strb	r2, [r3]
 1695 00ac 03E0     		b	.L91
 1696              	.L87:
1392:Generated_Source\PSoC4/blue_1.c ****         }
1393:Generated_Source\PSoC4/blue_1.c ****         else
1394:Generated_Source\PSoC4/blue_1.c ****         {
1395:Generated_Source\PSoC4/blue_1.c ****             apiResult = CYBLE_ERROR_INVALID_PARAMETER;
 1697              		.loc 1 1395 0
 1698 00ae 1623     		movs	r3, #22
 1699 00b0 FB18     		adds	r3, r7, r3
 1700 00b2 0122     		movs	r2, #1
 1701 00b4 1A80     		strh	r2, [r3]
 1702              	.L91:
1396:Generated_Source\PSoC4/blue_1.c ****         }
1397:Generated_Source\PSoC4/blue_1.c ****         
1398:Generated_Source\PSoC4/blue_1.c ****         return(apiResult);
 1703              		.loc 1 1398 0
 1704 00b6 1623     		movs	r3, #22
 1705 00b8 FB18     		adds	r3, r7, r3
 1706 00ba 1B88     		ldrh	r3, [r3]
1399:Generated_Source\PSoC4/blue_1.c ****     }
 1707              		.loc 1 1399 0
 1708 00bc 1800     		movs	r0, r3
ARM GAS  C:\Users\alexport\AppData\Local\Temp\ccf6k4ea.s 			page 56


 1709 00be BD46     		mov	sp, r7
 1710 00c0 06B0     		add	sp, sp, #24
 1711              		@ sp needed
 1712 00c2 80BD     		pop	{r7, pc}
 1713              	.L94:
 1714              		.align	2
 1715              	.L93:
 1716 00c4 00000000 		.word	cyBle_gaps
 1717 00c8 00000000 		.word	cyBle_gattDB
 1718              		.cfi_endproc
 1719              	.LFE13:
 1720              		.size	CyBle_GapGetLocalName, .-CyBle_GapGetLocalName
 1721              		.section	.text.CyBle_Get16ByPtr,"ax",%progbits
 1722              		.align	2
 1723              		.global	CyBle_Get16ByPtr
 1724              		.code	16
 1725              		.thumb_func
 1726              		.type	CyBle_Get16ByPtr, %function
 1727              	CyBle_Get16ByPtr:
 1728              	.LFB14:
1400:Generated_Source\PSoC4/blue_1.c **** 
1401:Generated_Source\PSoC4/blue_1.c **** #endif /* (CYBLE_GATT_ROLE_SERVER) */
1402:Generated_Source\PSoC4/blue_1.c **** 
1403:Generated_Source\PSoC4/blue_1.c **** 
1404:Generated_Source\PSoC4/blue_1.c **** /******************************************************************************
1405:Generated_Source\PSoC4/blue_1.c **** * Function Name: CyBle_Get16ByPtr
1406:Generated_Source\PSoC4/blue_1.c **** ***************************************************************************//**
1407:Generated_Source\PSoC4/blue_1.c **** * 
1408:Generated_Source\PSoC4/blue_1.c **** *  Returns the two-bytes value by using a pointer to the LSB.
1409:Generated_Source\PSoC4/blue_1.c **** * 
1410:Generated_Source\PSoC4/blue_1.c **** *  \param ptr: Pointer to the LSB of two-bytes data (little endian).
1411:Generated_Source\PSoC4/blue_1.c **** * 
1412:Generated_Source\PSoC4/blue_1.c **** *  \return
1413:Generated_Source\PSoC4/blue_1.c **** *  uint16: Two-bytes data.
1414:Generated_Source\PSoC4/blue_1.c **** * 
1415:Generated_Source\PSoC4/blue_1.c **** ******************************************************************************/
1416:Generated_Source\PSoC4/blue_1.c **** uint16 CyBle_Get16ByPtr(const uint8 ptr[])
1417:Generated_Source\PSoC4/blue_1.c **** {
 1729              		.loc 1 1417 0
 1730              		.cfi_startproc
 1731              		@ args = 0, pretend = 0, frame = 8
 1732              		@ frame_needed = 1, uses_anonymous_args = 0
 1733 0000 80B5     		push	{r7, lr}
 1734              		.cfi_def_cfa_offset 8
 1735              		.cfi_offset 7, -8
 1736              		.cfi_offset 14, -4
 1737 0002 82B0     		sub	sp, sp, #8
 1738              		.cfi_def_cfa_offset 16
 1739 0004 00AF     		add	r7, sp, #0
 1740              		.cfi_def_cfa_register 7
 1741 0006 7860     		str	r0, [r7, #4]
1418:Generated_Source\PSoC4/blue_1.c ****     return ((uint16) ptr[0u] | ((uint16) (((uint16) ptr[1u]) << 8u)));
 1742              		.loc 1 1418 0
 1743 0008 7B68     		ldr	r3, [r7, #4]
 1744 000a 1B78     		ldrb	r3, [r3]
 1745 000c 9AB2     		uxth	r2, r3
 1746 000e 7B68     		ldr	r3, [r7, #4]
ARM GAS  C:\Users\alexport\AppData\Local\Temp\ccf6k4ea.s 			page 57


 1747 0010 0133     		adds	r3, r3, #1
 1748 0012 1B78     		ldrb	r3, [r3]
 1749 0014 9BB2     		uxth	r3, r3
 1750 0016 1B02     		lsls	r3, r3, #8
 1751 0018 9BB2     		uxth	r3, r3
 1752 001a 1343     		orrs	r3, r2
 1753 001c 9BB2     		uxth	r3, r3
1419:Generated_Source\PSoC4/blue_1.c **** }
 1754              		.loc 1 1419 0
 1755 001e 1800     		movs	r0, r3
 1756 0020 BD46     		mov	sp, r7
 1757 0022 02B0     		add	sp, sp, #8
 1758              		@ sp needed
 1759 0024 80BD     		pop	{r7, pc}
 1760              		.cfi_endproc
 1761              	.LFE14:
 1762              		.size	CyBle_Get16ByPtr, .-CyBle_Get16ByPtr
 1763 0026 C046     		.section	.text.CyBle_Set16ByPtr,"ax",%progbits
 1764              		.align	2
 1765              		.global	CyBle_Set16ByPtr
 1766              		.code	16
 1767              		.thumb_func
 1768              		.type	CyBle_Set16ByPtr, %function
 1769              	CyBle_Set16ByPtr:
 1770              	.LFB15:
1420:Generated_Source\PSoC4/blue_1.c **** 
1421:Generated_Source\PSoC4/blue_1.c **** 
1422:Generated_Source\PSoC4/blue_1.c **** /******************************************************************************
1423:Generated_Source\PSoC4/blue_1.c **** * Function Name: CyBle_Set16ByPtr
1424:Generated_Source\PSoC4/blue_1.c **** ***************************************************************************//**
1425:Generated_Source\PSoC4/blue_1.c **** * 
1426:Generated_Source\PSoC4/blue_1.c **** *  Sets the two-bytes value by using a pointer to the LSB.
1427:Generated_Source\PSoC4/blue_1.c **** * 
1428:Generated_Source\PSoC4/blue_1.c **** *  \param ptr:    Pointer to the LSB of two-bytes data (little endian).
1429:Generated_Source\PSoC4/blue_1.c **** *  \param value:  Two-bytes data to be written.
1430:Generated_Source\PSoC4/blue_1.c **** * 
1431:Generated_Source\PSoC4/blue_1.c **** *  \return
1432:Generated_Source\PSoC4/blue_1.c **** *  None
1433:Generated_Source\PSoC4/blue_1.c **** * 
1434:Generated_Source\PSoC4/blue_1.c **** ******************************************************************************/
1435:Generated_Source\PSoC4/blue_1.c **** void CyBle_Set16ByPtr(uint8 ptr[], uint16 value)
1436:Generated_Source\PSoC4/blue_1.c **** {
 1771              		.loc 1 1436 0
 1772              		.cfi_startproc
 1773              		@ args = 0, pretend = 0, frame = 8
 1774              		@ frame_needed = 1, uses_anonymous_args = 0
 1775 0000 80B5     		push	{r7, lr}
 1776              		.cfi_def_cfa_offset 8
 1777              		.cfi_offset 7, -8
 1778              		.cfi_offset 14, -4
 1779 0002 82B0     		sub	sp, sp, #8
 1780              		.cfi_def_cfa_offset 16
 1781 0004 00AF     		add	r7, sp, #0
 1782              		.cfi_def_cfa_register 7
 1783 0006 7860     		str	r0, [r7, #4]
 1784 0008 0A00     		movs	r2, r1
 1785 000a BB1C     		adds	r3, r7, #2
ARM GAS  C:\Users\alexport\AppData\Local\Temp\ccf6k4ea.s 			page 58


 1786 000c 1A80     		strh	r2, [r3]
1437:Generated_Source\PSoC4/blue_1.c ****     ptr[0u] = (uint8) value;
 1787              		.loc 1 1437 0
 1788 000e BB1C     		adds	r3, r7, #2
 1789 0010 1B88     		ldrh	r3, [r3]
 1790 0012 DAB2     		uxtb	r2, r3
 1791 0014 7B68     		ldr	r3, [r7, #4]
 1792 0016 1A70     		strb	r2, [r3]
1438:Generated_Source\PSoC4/blue_1.c ****     ptr[1u] = (uint8) (value >> 8u);
 1793              		.loc 1 1438 0
 1794 0018 7B68     		ldr	r3, [r7, #4]
 1795 001a 0133     		adds	r3, r3, #1
 1796 001c BA1C     		adds	r2, r7, #2
 1797 001e 1288     		ldrh	r2, [r2]
 1798 0020 120A     		lsrs	r2, r2, #8
 1799 0022 92B2     		uxth	r2, r2
 1800 0024 D2B2     		uxtb	r2, r2
 1801 0026 1A70     		strb	r2, [r3]
1439:Generated_Source\PSoC4/blue_1.c **** }
 1802              		.loc 1 1439 0
 1803 0028 C046     		nop
 1804 002a BD46     		mov	sp, r7
 1805 002c 02B0     		add	sp, sp, #8
 1806              		@ sp needed
 1807 002e 80BD     		pop	{r7, pc}
 1808              		.cfi_endproc
 1809              	.LFE15:
 1810              		.size	CyBle_Set16ByPtr, .-CyBle_Set16ByPtr
 1811              		.text
 1812              	.Letext0:
 1813              		.file 2 "Generated_Source\\PSoC4\\cytypes.h"
 1814              		.file 3 "Generated_Source\\PSoC4\\blue_1_Stack.h"
 1815              		.file 4 "Generated_Source\\PSoC4\\blue_1_StackGap.h"
 1816              		.file 5 "Generated_Source\\PSoC4\\blue_1_StackGatt.h"
 1817              		.file 6 "Generated_Source\\PSoC4\\blue_1_StackGattDb.h"
 1818              		.file 7 "Generated_Source\\PSoC4\\blue_1.h"
 1819              		.file 8 "Generated_Source\\PSoC4\\blue_1_gatt.h"
 1820              		.file 9 "Generated_Source\\PSoC4\\blue_1_dis.h"
 1821              		.file 10 "Generated_Source\\PSoC4\\blue_1_eventHandler.h"