ARM GAS  C:\Users\alexport\AppData\Local\Temp\ccdq65cU.s 			page 1


   1              		.syntax unified
   2              		.cpu cortex-m0
   3              		.fpu softvfp
   4              		.eabi_attribute 20, 1
   5              		.eabi_attribute 21, 1
   6              		.eabi_attribute 23, 3
   7              		.eabi_attribute 24, 1
   8              		.eabi_attribute 25, 1
   9              		.eabi_attribute 26, 1
  10              		.eabi_attribute 30, 6
  11              		.eabi_attribute 34, 0
  12              		.eabi_attribute 18, 4
  13              		.thumb
  14              		.syntax unified
  15              		.file	"cyfitter_cfg.c"
  16              		.text
  17              	.Ltext0:
  18              		.cfi_sections	.debug_frame
  19              		.section	.text.CYMEMZERO,"ax",%progbits
  20              		.align	2
  21              		.code	16
  22              		.thumb_func
  23              		.type	CYMEMZERO, %function
  24              	CYMEMZERO:
  25              	.LFB2:
  26              		.file 1 "Generated_Source\\PSoC4\\cyfitter_cfg.c"
   1:Generated_Source\PSoC4/cyfitter_cfg.c **** 
   2:Generated_Source\PSoC4/cyfitter_cfg.c **** /*******************************************************************************
   3:Generated_Source\PSoC4/cyfitter_cfg.c **** * File Name: cyfitter_cfg.c
   4:Generated_Source\PSoC4/cyfitter_cfg.c **** * 
   5:Generated_Source\PSoC4/cyfitter_cfg.c **** * PSoC Creator  4.4
   6:Generated_Source\PSoC4/cyfitter_cfg.c **** *
   7:Generated_Source\PSoC4/cyfitter_cfg.c **** * Description:
   8:Generated_Source\PSoC4/cyfitter_cfg.c **** * This file contains device initialization code.
   9:Generated_Source\PSoC4/cyfitter_cfg.c **** * Except for the user defined sections in CyClockStartupError(), this file should not be modified.
  10:Generated_Source\PSoC4/cyfitter_cfg.c **** * This file is automatically generated by PSoC Creator.
  11:Generated_Source\PSoC4/cyfitter_cfg.c **** *
  12:Generated_Source\PSoC4/cyfitter_cfg.c **** ********************************************************************************
  13:Generated_Source\PSoC4/cyfitter_cfg.c **** * Copyright (c) 2007-2020 Cypress Semiconductor.  All rights reserved.
  14:Generated_Source\PSoC4/cyfitter_cfg.c **** * You may use this file only in accordance with the license, terms, conditions, 
  15:Generated_Source\PSoC4/cyfitter_cfg.c **** * disclaimers, and limitations in the end user license agreement accompanying 
  16:Generated_Source\PSoC4/cyfitter_cfg.c **** * the software package with which this file was provided.
  17:Generated_Source\PSoC4/cyfitter_cfg.c **** ********************************************************************************/
  18:Generated_Source\PSoC4/cyfitter_cfg.c **** 
  19:Generated_Source\PSoC4/cyfitter_cfg.c **** #include <string.h>
  20:Generated_Source\PSoC4/cyfitter_cfg.c **** #include "cytypes.h"
  21:Generated_Source\PSoC4/cyfitter_cfg.c **** #include "cydevice_trm.h"
  22:Generated_Source\PSoC4/cyfitter_cfg.c **** #include "cyfitter.h"
  23:Generated_Source\PSoC4/cyfitter_cfg.c **** #include "CyLib.h"
  24:Generated_Source\PSoC4/cyfitter_cfg.c **** #include "cyfitter_cfg.h"
  25:Generated_Source\PSoC4/cyfitter_cfg.c **** #include "cyapicallbacks.h"
  26:Generated_Source\PSoC4/cyfitter_cfg.c **** 
  27:Generated_Source\PSoC4/cyfitter_cfg.c **** 
  28:Generated_Source\PSoC4/cyfitter_cfg.c **** #if defined(__GNUC__) || defined(__ARMCC_VERSION)
  29:Generated_Source\PSoC4/cyfitter_cfg.c ****     #define CYPACKED 
  30:Generated_Source\PSoC4/cyfitter_cfg.c ****     #define CYPACKED_ATTR __attribute__ ((packed))
  31:Generated_Source\PSoC4/cyfitter_cfg.c ****     #define CYALIGNED __attribute__ ((aligned))
ARM GAS  C:\Users\alexport\AppData\Local\Temp\ccdq65cU.s 			page 2


  32:Generated_Source\PSoC4/cyfitter_cfg.c ****     #define CY_CFG_UNUSED __attribute__ ((unused))
  33:Generated_Source\PSoC4/cyfitter_cfg.c ****     #ifndef CY_CFG_SECTION
  34:Generated_Source\PSoC4/cyfitter_cfg.c ****         #define CY_CFG_SECTION __attribute__ ((section(".psocinit")))
  35:Generated_Source\PSoC4/cyfitter_cfg.c ****     #endif
  36:Generated_Source\PSoC4/cyfitter_cfg.c ****     
  37:Generated_Source\PSoC4/cyfitter_cfg.c ****     #if defined(__ARMCC_VERSION)
  38:Generated_Source\PSoC4/cyfitter_cfg.c ****         #define CY_CFG_MEMORY_BARRIER() __memory_changed()
  39:Generated_Source\PSoC4/cyfitter_cfg.c ****     #else
  40:Generated_Source\PSoC4/cyfitter_cfg.c ****         #define CY_CFG_MEMORY_BARRIER() __sync_synchronize()
  41:Generated_Source\PSoC4/cyfitter_cfg.c ****     #endif
  42:Generated_Source\PSoC4/cyfitter_cfg.c ****     
  43:Generated_Source\PSoC4/cyfitter_cfg.c **** #elif defined(__ICCARM__)
  44:Generated_Source\PSoC4/cyfitter_cfg.c ****     #include <intrinsics.h>
  45:Generated_Source\PSoC4/cyfitter_cfg.c **** 
  46:Generated_Source\PSoC4/cyfitter_cfg.c ****     #define CYPACKED __packed
  47:Generated_Source\PSoC4/cyfitter_cfg.c ****     #define CYPACKED_ATTR 
  48:Generated_Source\PSoC4/cyfitter_cfg.c ****     #define CYALIGNED _Pragma("data_alignment=4")
  49:Generated_Source\PSoC4/cyfitter_cfg.c ****     #define CY_CFG_UNUSED _Pragma("diag_suppress=Pe177")
  50:Generated_Source\PSoC4/cyfitter_cfg.c ****     #define CY_CFG_SECTION _Pragma("location=\".psocinit\"")
  51:Generated_Source\PSoC4/cyfitter_cfg.c ****     
  52:Generated_Source\PSoC4/cyfitter_cfg.c ****     #define CY_CFG_MEMORY_BARRIER() __DMB()
  53:Generated_Source\PSoC4/cyfitter_cfg.c ****     
  54:Generated_Source\PSoC4/cyfitter_cfg.c **** #else
  55:Generated_Source\PSoC4/cyfitter_cfg.c ****     #error Unsupported toolchain
  56:Generated_Source\PSoC4/cyfitter_cfg.c **** #endif
  57:Generated_Source\PSoC4/cyfitter_cfg.c **** 
  58:Generated_Source\PSoC4/cyfitter_cfg.c **** #ifndef CYCODE
  59:Generated_Source\PSoC4/cyfitter_cfg.c ****     #define CYCODE
  60:Generated_Source\PSoC4/cyfitter_cfg.c **** #endif
  61:Generated_Source\PSoC4/cyfitter_cfg.c **** #ifndef CYDATA
  62:Generated_Source\PSoC4/cyfitter_cfg.c ****     #define CYDATA
  63:Generated_Source\PSoC4/cyfitter_cfg.c **** #endif
  64:Generated_Source\PSoC4/cyfitter_cfg.c **** #ifndef CYFAR
  65:Generated_Source\PSoC4/cyfitter_cfg.c ****     #define CYFAR
  66:Generated_Source\PSoC4/cyfitter_cfg.c **** #endif
  67:Generated_Source\PSoC4/cyfitter_cfg.c **** #ifndef CYXDATA
  68:Generated_Source\PSoC4/cyfitter_cfg.c ****     #define CYXDATA
  69:Generated_Source\PSoC4/cyfitter_cfg.c **** #endif
  70:Generated_Source\PSoC4/cyfitter_cfg.c **** 
  71:Generated_Source\PSoC4/cyfitter_cfg.c **** 
  72:Generated_Source\PSoC4/cyfitter_cfg.c **** CY_CFG_UNUSED
  73:Generated_Source\PSoC4/cyfitter_cfg.c **** static void CYMEMZERO(void *s, size_t n);
  74:Generated_Source\PSoC4/cyfitter_cfg.c **** CY_CFG_UNUSED
  75:Generated_Source\PSoC4/cyfitter_cfg.c **** static void CYMEMZERO(void *s, size_t n)
  76:Generated_Source\PSoC4/cyfitter_cfg.c **** {
  27              		.loc 1 76 0
  28              		.cfi_startproc
  29              		@ args = 0, pretend = 0, frame = 8
  30              		@ frame_needed = 1, uses_anonymous_args = 0
  31 0000 80B5     		push	{r7, lr}
  32              		.cfi_def_cfa_offset 8
  33              		.cfi_offset 7, -8
  34              		.cfi_offset 14, -4
  35 0002 82B0     		sub	sp, sp, #8
  36              		.cfi_def_cfa_offset 16
  37 0004 00AF     		add	r7, sp, #0
  38              		.cfi_def_cfa_register 7
ARM GAS  C:\Users\alexport\AppData\Local\Temp\ccdq65cU.s 			page 3


  39 0006 7860     		str	r0, [r7, #4]
  40 0008 3960     		str	r1, [r7]
  77:Generated_Source\PSoC4/cyfitter_cfg.c **** 	(void)memset(s, 0, n);
  41              		.loc 1 77 0
  42 000a 3A68     		ldr	r2, [r7]
  43 000c 7B68     		ldr	r3, [r7, #4]
  44 000e 0021     		movs	r1, #0
  45 0010 1800     		movs	r0, r3
  46 0012 FFF7FEFF 		bl	memset
  78:Generated_Source\PSoC4/cyfitter_cfg.c **** }
  47              		.loc 1 78 0
  48 0016 C046     		nop
  49 0018 BD46     		mov	sp, r7
  50 001a 02B0     		add	sp, sp, #8
  51              		@ sp needed
  52 001c 80BD     		pop	{r7, pc}
  53              		.cfi_endproc
  54              	.LFE2:
  55              		.size	CYMEMZERO, .-CYMEMZERO
  56 001e C046     		.section	.text.CYCONFIGCPY,"ax",%progbits
  57              		.align	2
  58              		.code	16
  59              		.thumb_func
  60              		.type	CYCONFIGCPY, %function
  61              	CYCONFIGCPY:
  62              	.LFB3:
  79:Generated_Source\PSoC4/cyfitter_cfg.c **** CY_CFG_UNUSED
  80:Generated_Source\PSoC4/cyfitter_cfg.c **** static void CYCONFIGCPY(void *dest, const void *src, size_t n);
  81:Generated_Source\PSoC4/cyfitter_cfg.c **** CY_CFG_UNUSED
  82:Generated_Source\PSoC4/cyfitter_cfg.c **** static void CYCONFIGCPY(void *dest, const void *src, size_t n)
  83:Generated_Source\PSoC4/cyfitter_cfg.c **** {
  63              		.loc 1 83 0
  64              		.cfi_startproc
  65              		@ args = 0, pretend = 0, frame = 16
  66              		@ frame_needed = 1, uses_anonymous_args = 0
  67 0000 80B5     		push	{r7, lr}
  68              		.cfi_def_cfa_offset 8
  69              		.cfi_offset 7, -8
  70              		.cfi_offset 14, -4
  71 0002 84B0     		sub	sp, sp, #16
  72              		.cfi_def_cfa_offset 24
  73 0004 00AF     		add	r7, sp, #0
  74              		.cfi_def_cfa_register 7
  75 0006 F860     		str	r0, [r7, #12]
  76 0008 B960     		str	r1, [r7, #8]
  77 000a 7A60     		str	r2, [r7, #4]
  84:Generated_Source\PSoC4/cyfitter_cfg.c **** 	(void)memcpy(dest, src, n);
  78              		.loc 1 84 0
  79 000c 7A68     		ldr	r2, [r7, #4]
  80 000e B968     		ldr	r1, [r7, #8]
  81 0010 FB68     		ldr	r3, [r7, #12]
  82 0012 1800     		movs	r0, r3
  83 0014 FFF7FEFF 		bl	memcpy
  85:Generated_Source\PSoC4/cyfitter_cfg.c **** }
  84              		.loc 1 85 0
  85 0018 C046     		nop
  86 001a BD46     		mov	sp, r7
ARM GAS  C:\Users\alexport\AppData\Local\Temp\ccdq65cU.s 			page 4


  87 001c 04B0     		add	sp, sp, #16
  88              		@ sp needed
  89 001e 80BD     		pop	{r7, pc}
  90              		.cfi_endproc
  91              	.LFE3:
  92              		.size	CYCONFIGCPY, .-CYCONFIGCPY
  93              		.section	.text.CYCONFIGCPYCODE,"ax",%progbits
  94              		.align	2
  95              		.code	16
  96              		.thumb_func
  97              		.type	CYCONFIGCPYCODE, %function
  98              	CYCONFIGCPYCODE:
  99              	.LFB4:
  86:Generated_Source\PSoC4/cyfitter_cfg.c **** CY_CFG_UNUSED
  87:Generated_Source\PSoC4/cyfitter_cfg.c **** static void CYCONFIGCPYCODE(void *dest, const void *src, size_t n);
  88:Generated_Source\PSoC4/cyfitter_cfg.c **** CY_CFG_UNUSED
  89:Generated_Source\PSoC4/cyfitter_cfg.c **** static void CYCONFIGCPYCODE(void *dest, const void *src, size_t n)
  90:Generated_Source\PSoC4/cyfitter_cfg.c **** {
 100              		.loc 1 90 0
 101              		.cfi_startproc
 102              		@ args = 0, pretend = 0, frame = 16
 103              		@ frame_needed = 1, uses_anonymous_args = 0
 104 0000 80B5     		push	{r7, lr}
 105              		.cfi_def_cfa_offset 8
 106              		.cfi_offset 7, -8
 107              		.cfi_offset 14, -4
 108 0002 84B0     		sub	sp, sp, #16
 109              		.cfi_def_cfa_offset 24
 110 0004 00AF     		add	r7, sp, #0
 111              		.cfi_def_cfa_register 7
 112 0006 F860     		str	r0, [r7, #12]
 113 0008 B960     		str	r1, [r7, #8]
 114 000a 7A60     		str	r2, [r7, #4]
  91:Generated_Source\PSoC4/cyfitter_cfg.c **** 	(void)memcpy(dest, src, n);
 115              		.loc 1 91 0
 116 000c 7A68     		ldr	r2, [r7, #4]
 117 000e B968     		ldr	r1, [r7, #8]
 118 0010 FB68     		ldr	r3, [r7, #12]
 119 0012 1800     		movs	r0, r3
 120 0014 FFF7FEFF 		bl	memcpy
  92:Generated_Source\PSoC4/cyfitter_cfg.c **** }
 121              		.loc 1 92 0
 122 0018 C046     		nop
 123 001a BD46     		mov	sp, r7
 124 001c 04B0     		add	sp, sp, #16
 125              		@ sp needed
 126 001e 80BD     		pop	{r7, pc}
 127              		.cfi_endproc
 128              	.LFE4:
 129              		.size	CYCONFIGCPYCODE, .-CYCONFIGCPYCODE
 130              		.section	.text.cfg_write_bytes32,"ax",%progbits
 131              		.align	2
 132              		.code	16
 133              		.thumb_func
 134              		.type	cfg_write_bytes32, %function
 135              	cfg_write_bytes32:
 136              	.LFB5:
ARM GAS  C:\Users\alexport\AppData\Local\Temp\ccdq65cU.s 			page 5


  93:Generated_Source\PSoC4/cyfitter_cfg.c **** 
  94:Generated_Source\PSoC4/cyfitter_cfg.c **** 
  95:Generated_Source\PSoC4/cyfitter_cfg.c **** 
  96:Generated_Source\PSoC4/cyfitter_cfg.c **** 
  97:Generated_Source\PSoC4/cyfitter_cfg.c **** /* Clock startup error codes                                                   */
  98:Generated_Source\PSoC4/cyfitter_cfg.c **** #define CYCLOCKSTART_NO_ERROR    0u
  99:Generated_Source\PSoC4/cyfitter_cfg.c **** #define CYCLOCKSTART_XTAL_ERROR  1u
 100:Generated_Source\PSoC4/cyfitter_cfg.c **** #define CYCLOCKSTART_32KHZ_ERROR 2u
 101:Generated_Source\PSoC4/cyfitter_cfg.c **** #define CYCLOCKSTART_PLL_ERROR   3u
 102:Generated_Source\PSoC4/cyfitter_cfg.c **** #define CYCLOCKSTART_FLL_ERROR   4u
 103:Generated_Source\PSoC4/cyfitter_cfg.c **** #define CYCLOCKSTART_WCO_ERROR   5u
 104:Generated_Source\PSoC4/cyfitter_cfg.c **** 
 105:Generated_Source\PSoC4/cyfitter_cfg.c **** 
 106:Generated_Source\PSoC4/cyfitter_cfg.c **** #ifdef CY_NEED_CYCLOCKSTARTUPERROR
 107:Generated_Source\PSoC4/cyfitter_cfg.c **** /*******************************************************************************
 108:Generated_Source\PSoC4/cyfitter_cfg.c **** * Function Name: CyClockStartupError
 109:Generated_Source\PSoC4/cyfitter_cfg.c **** ********************************************************************************
 110:Generated_Source\PSoC4/cyfitter_cfg.c **** * Summary:
 111:Generated_Source\PSoC4/cyfitter_cfg.c **** *  If an error is encountered during clock configuration (crystal startup error,
 112:Generated_Source\PSoC4/cyfitter_cfg.c **** *  PLL lock error, etc.), the system will end up here.  Unless reimplemented by
 113:Generated_Source\PSoC4/cyfitter_cfg.c **** *  the customer, this function will stop in an infinite loop.
 114:Generated_Source\PSoC4/cyfitter_cfg.c **** *
 115:Generated_Source\PSoC4/cyfitter_cfg.c **** * Parameters:
 116:Generated_Source\PSoC4/cyfitter_cfg.c **** *   void
 117:Generated_Source\PSoC4/cyfitter_cfg.c **** *
 118:Generated_Source\PSoC4/cyfitter_cfg.c **** * Return:
 119:Generated_Source\PSoC4/cyfitter_cfg.c **** *   void
 120:Generated_Source\PSoC4/cyfitter_cfg.c **** *
 121:Generated_Source\PSoC4/cyfitter_cfg.c **** *******************************************************************************/
 122:Generated_Source\PSoC4/cyfitter_cfg.c **** CY_CFG_UNUSED
 123:Generated_Source\PSoC4/cyfitter_cfg.c **** static void CyClockStartupError(uint8 errorCode);
 124:Generated_Source\PSoC4/cyfitter_cfg.c **** CY_CFG_UNUSED
 125:Generated_Source\PSoC4/cyfitter_cfg.c **** static void CyClockStartupError(uint8 errorCode)
 126:Generated_Source\PSoC4/cyfitter_cfg.c **** {
 127:Generated_Source\PSoC4/cyfitter_cfg.c ****     /* To remove the compiler warning if errorCode not used.                */
 128:Generated_Source\PSoC4/cyfitter_cfg.c ****     errorCode = errorCode;
 129:Generated_Source\PSoC4/cyfitter_cfg.c **** 
 130:Generated_Source\PSoC4/cyfitter_cfg.c ****     /* If we have a clock startup error (bad MHz crystal, PLL lock, etc.),  */
 131:Generated_Source\PSoC4/cyfitter_cfg.c ****     /* we will end up here to allow the customer to implement something to  */
 132:Generated_Source\PSoC4/cyfitter_cfg.c ****     /* deal with the clock condition.                                       */
 133:Generated_Source\PSoC4/cyfitter_cfg.c **** 
 134:Generated_Source\PSoC4/cyfitter_cfg.c **** #ifdef CY_CFG_CLOCK_STARTUP_ERROR_CALLBACK
 135:Generated_Source\PSoC4/cyfitter_cfg.c ****     CY_CFG_Clock_Startup_ErrorCallback();
 136:Generated_Source\PSoC4/cyfitter_cfg.c **** #else
 137:Generated_Source\PSoC4/cyfitter_cfg.c ****     /*  If not using CY_CFG_CLOCK_STARTUP_ERROR_CALLBACK, place your clock startup code here. */
 138:Generated_Source\PSoC4/cyfitter_cfg.c ****     /* `#START CyClockStartupError` */
 139:Generated_Source\PSoC4/cyfitter_cfg.c **** 
 140:Generated_Source\PSoC4/cyfitter_cfg.c **** 
 141:Generated_Source\PSoC4/cyfitter_cfg.c **** 
 142:Generated_Source\PSoC4/cyfitter_cfg.c ****     /* `#END` */
 143:Generated_Source\PSoC4/cyfitter_cfg.c **** 
 144:Generated_Source\PSoC4/cyfitter_cfg.c ****     while(1) {}
 145:Generated_Source\PSoC4/cyfitter_cfg.c **** #endif /* CY_CFG_CLOCK_STARTUP_ERROR_CALLBACK */
 146:Generated_Source\PSoC4/cyfitter_cfg.c **** }
 147:Generated_Source\PSoC4/cyfitter_cfg.c **** #endif
 148:Generated_Source\PSoC4/cyfitter_cfg.c **** 
 149:Generated_Source\PSoC4/cyfitter_cfg.c **** #define CY_CFG_BASE_ADDR_COUNT 8u
ARM GAS  C:\Users\alexport\AppData\Local\Temp\ccdq65cU.s 			page 6


 150:Generated_Source\PSoC4/cyfitter_cfg.c **** CYPACKED typedef struct
 151:Generated_Source\PSoC4/cyfitter_cfg.c **** {
 152:Generated_Source\PSoC4/cyfitter_cfg.c **** 	uint8 offset;
 153:Generated_Source\PSoC4/cyfitter_cfg.c **** 	uint8 value;
 154:Generated_Source\PSoC4/cyfitter_cfg.c **** } CYPACKED_ATTR cy_cfg_addrvalue_t;
 155:Generated_Source\PSoC4/cyfitter_cfg.c **** 
 156:Generated_Source\PSoC4/cyfitter_cfg.c **** 
 157:Generated_Source\PSoC4/cyfitter_cfg.c **** 
 158:Generated_Source\PSoC4/cyfitter_cfg.c **** /*******************************************************************************
 159:Generated_Source\PSoC4/cyfitter_cfg.c **** * Function Name: cfg_write_bytes32
 160:Generated_Source\PSoC4/cyfitter_cfg.c **** ********************************************************************************
 161:Generated_Source\PSoC4/cyfitter_cfg.c **** * Summary:
 162:Generated_Source\PSoC4/cyfitter_cfg.c **** *  This function is used for setting up the chip configuration areas that
 163:Generated_Source\PSoC4/cyfitter_cfg.c **** *  contain relatively sparse data.
 164:Generated_Source\PSoC4/cyfitter_cfg.c **** *
 165:Generated_Source\PSoC4/cyfitter_cfg.c **** * Parameters:
 166:Generated_Source\PSoC4/cyfitter_cfg.c **** *   void
 167:Generated_Source\PSoC4/cyfitter_cfg.c **** *
 168:Generated_Source\PSoC4/cyfitter_cfg.c **** * Return:
 169:Generated_Source\PSoC4/cyfitter_cfg.c **** *   void
 170:Generated_Source\PSoC4/cyfitter_cfg.c **** *
 171:Generated_Source\PSoC4/cyfitter_cfg.c **** *******************************************************************************/
 172:Generated_Source\PSoC4/cyfitter_cfg.c **** static void cfg_write_bytes32(const uint32 addr_table[], const cy_cfg_addrvalue_t data_table[]);
 173:Generated_Source\PSoC4/cyfitter_cfg.c **** static void cfg_write_bytes32(const uint32 addr_table[], const cy_cfg_addrvalue_t data_table[])
 174:Generated_Source\PSoC4/cyfitter_cfg.c **** {
 137              		.loc 1 174 0
 138              		.cfi_startproc
 139              		@ args = 0, pretend = 0, frame = 24
 140              		@ frame_needed = 1, uses_anonymous_args = 0
 141 0000 80B5     		push	{r7, lr}
 142              		.cfi_def_cfa_offset 8
 143              		.cfi_offset 7, -8
 144              		.cfi_offset 14, -4
 145 0002 86B0     		sub	sp, sp, #24
 146              		.cfi_def_cfa_offset 32
 147 0004 00AF     		add	r7, sp, #0
 148              		.cfi_def_cfa_register 7
 149 0006 7860     		str	r0, [r7, #4]
 150 0008 3960     		str	r1, [r7]
 175:Generated_Source\PSoC4/cyfitter_cfg.c **** 	/* For 32-bit little-endian architectures */
 176:Generated_Source\PSoC4/cyfitter_cfg.c **** 	uint32 i, j = 0u;
 151              		.loc 1 176 0
 152 000a 0023     		movs	r3, #0
 153 000c 3B61     		str	r3, [r7, #16]
 177:Generated_Source\PSoC4/cyfitter_cfg.c **** 	for (i = 0u; i < CY_CFG_BASE_ADDR_COUNT; i++)
 154              		.loc 1 177 0
 155 000e 0023     		movs	r3, #0
 156 0010 7B61     		str	r3, [r7, #20]
 157 0012 2FE0     		b	.L5
 158              	.L8:
 159              	.LBB2:
 178:Generated_Source\PSoC4/cyfitter_cfg.c **** 	{
 179:Generated_Source\PSoC4/cyfitter_cfg.c **** 		uint32 baseAddr = addr_table[i];
 160              		.loc 1 179 0
 161 0014 7B69     		ldr	r3, [r7, #20]
 162 0016 9B00     		lsls	r3, r3, #2
 163 0018 7A68     		ldr	r2, [r7, #4]
ARM GAS  C:\Users\alexport\AppData\Local\Temp\ccdq65cU.s 			page 7


 164 001a D318     		adds	r3, r2, r3
 165 001c 1B68     		ldr	r3, [r3]
 166 001e BB60     		str	r3, [r7, #8]
 180:Generated_Source\PSoC4/cyfitter_cfg.c **** 		uint8 count = (uint8)baseAddr;
 167              		.loc 1 180 0
 168 0020 0F23     		movs	r3, #15
 169 0022 FB18     		adds	r3, r7, r3
 170 0024 BA68     		ldr	r2, [r7, #8]
 171 0026 1A70     		strb	r2, [r3]
 181:Generated_Source\PSoC4/cyfitter_cfg.c **** 		baseAddr &= 0xFFFFFF00u;
 172              		.loc 1 181 0
 173 0028 BB68     		ldr	r3, [r7, #8]
 174 002a FF22     		movs	r2, #255
 175 002c 9343     		bics	r3, r2
 176 002e BB60     		str	r3, [r7, #8]
 182:Generated_Source\PSoC4/cyfitter_cfg.c **** 		while (count != 0u)
 177              		.loc 1 182 0
 178 0030 18E0     		b	.L6
 179              	.L7:
 183:Generated_Source\PSoC4/cyfitter_cfg.c **** 		{
 184:Generated_Source\PSoC4/cyfitter_cfg.c **** 			CY_SET_REG8((void *)(baseAddr + data_table[j].offset), data_table[j].value);
 180              		.loc 1 184 0
 181 0032 3B69     		ldr	r3, [r7, #16]
 182 0034 5B00     		lsls	r3, r3, #1
 183 0036 3A68     		ldr	r2, [r7]
 184 0038 D318     		adds	r3, r2, r3
 185 003a 1B78     		ldrb	r3, [r3]
 186 003c 1A00     		movs	r2, r3
 187 003e BB68     		ldr	r3, [r7, #8]
 188 0040 D318     		adds	r3, r2, r3
 189 0042 1900     		movs	r1, r3
 190 0044 3B69     		ldr	r3, [r7, #16]
 191 0046 5B00     		lsls	r3, r3, #1
 192 0048 3A68     		ldr	r2, [r7]
 193 004a D318     		adds	r3, r2, r3
 194 004c 5B78     		ldrb	r3, [r3, #1]
 195 004e 0B70     		strb	r3, [r1]
 185:Generated_Source\PSoC4/cyfitter_cfg.c **** 			j++;
 196              		.loc 1 185 0
 197 0050 3B69     		ldr	r3, [r7, #16]
 198 0052 0133     		adds	r3, r3, #1
 199 0054 3B61     		str	r3, [r7, #16]
 186:Generated_Source\PSoC4/cyfitter_cfg.c **** 			count--;
 200              		.loc 1 186 0
 201 0056 0F23     		movs	r3, #15
 202 0058 FB18     		adds	r3, r7, r3
 203 005a 1A78     		ldrb	r2, [r3]
 204 005c 0F23     		movs	r3, #15
 205 005e FB18     		adds	r3, r7, r3
 206 0060 013A     		subs	r2, r2, #1
 207 0062 1A70     		strb	r2, [r3]
 208              	.L6:
 182:Generated_Source\PSoC4/cyfitter_cfg.c **** 		{
 209              		.loc 1 182 0
 210 0064 0F23     		movs	r3, #15
 211 0066 FB18     		adds	r3, r7, r3
 212 0068 1B78     		ldrb	r3, [r3]
ARM GAS  C:\Users\alexport\AppData\Local\Temp\ccdq65cU.s 			page 8


 213 006a 002B     		cmp	r3, #0
 214 006c E1D1     		bne	.L7
 215              	.LBE2:
 177:Generated_Source\PSoC4/cyfitter_cfg.c **** 	{
 216              		.loc 1 177 0 discriminator 2
 217 006e 7B69     		ldr	r3, [r7, #20]
 218 0070 0133     		adds	r3, r3, #1
 219 0072 7B61     		str	r3, [r7, #20]
 220              	.L5:
 177:Generated_Source\PSoC4/cyfitter_cfg.c **** 	{
 221              		.loc 1 177 0 is_stmt 0 discriminator 1
 222 0074 7B69     		ldr	r3, [r7, #20]
 223 0076 072B     		cmp	r3, #7
 224 0078 CCD9     		bls	.L8
 187:Generated_Source\PSoC4/cyfitter_cfg.c **** 		}
 188:Generated_Source\PSoC4/cyfitter_cfg.c **** 	}
 189:Generated_Source\PSoC4/cyfitter_cfg.c **** }
 225              		.loc 1 189 0 is_stmt 1
 226 007a C046     		nop
 227 007c BD46     		mov	sp, r7
 228 007e 06B0     		add	sp, sp, #24
 229              		@ sp needed
 230 0080 80BD     		pop	{r7, pc}
 231              		.cfi_endproc
 232              	.LFE5:
 233              		.size	cfg_write_bytes32, .-cfg_write_bytes32
 234 0082 C046     		.section	.psocinit,"ax",%progbits
 235              		.align	2
 236              		.code	16
 237              		.thumb_func
 238              		.type	ClockSetup, %function
 239              	ClockSetup:
 240              	.LFB6:
 190:Generated_Source\PSoC4/cyfitter_cfg.c **** 
 191:Generated_Source\PSoC4/cyfitter_cfg.c **** 
 192:Generated_Source\PSoC4/cyfitter_cfg.c **** /*******************************************************************************
 193:Generated_Source\PSoC4/cyfitter_cfg.c **** * Function Name: ClockSetup
 194:Generated_Source\PSoC4/cyfitter_cfg.c **** ********************************************************************************
 195:Generated_Source\PSoC4/cyfitter_cfg.c **** *
 196:Generated_Source\PSoC4/cyfitter_cfg.c **** * Summary:
 197:Generated_Source\PSoC4/cyfitter_cfg.c **** *   Performs the initialization of all of the clocks in the device based on the
 198:Generated_Source\PSoC4/cyfitter_cfg.c **** *   settings in the Clock tab of the DWR.  This includes enabling the requested
 199:Generated_Source\PSoC4/cyfitter_cfg.c **** *   clocks and setting the necessary dividers to produce the desired frequency. 
 200:Generated_Source\PSoC4/cyfitter_cfg.c **** *
 201:Generated_Source\PSoC4/cyfitter_cfg.c **** * Parameters:
 202:Generated_Source\PSoC4/cyfitter_cfg.c **** *   void
 203:Generated_Source\PSoC4/cyfitter_cfg.c **** *
 204:Generated_Source\PSoC4/cyfitter_cfg.c **** * Return:
 205:Generated_Source\PSoC4/cyfitter_cfg.c **** *   void
 206:Generated_Source\PSoC4/cyfitter_cfg.c **** *
 207:Generated_Source\PSoC4/cyfitter_cfg.c **** *******************************************************************************/
 208:Generated_Source\PSoC4/cyfitter_cfg.c **** static void ClockSetup(void);
 209:Generated_Source\PSoC4/cyfitter_cfg.c **** CY_CFG_SECTION
 210:Generated_Source\PSoC4/cyfitter_cfg.c **** static void ClockSetup(void)
 211:Generated_Source\PSoC4/cyfitter_cfg.c **** {
 241              		.loc 1 211 0
 242              		.cfi_startproc
ARM GAS  C:\Users\alexport\AppData\Local\Temp\ccdq65cU.s 			page 9


 243              		@ args = 0, pretend = 0, frame = 0
 244              		@ frame_needed = 1, uses_anonymous_args = 0
 245 0000 80B5     		push	{r7, lr}
 246              		.cfi_def_cfa_offset 8
 247              		.cfi_offset 7, -8
 248              		.cfi_offset 14, -4
 249 0002 00AF     		add	r7, sp, #0
 250              		.cfi_def_cfa_register 7
 212:Generated_Source\PSoC4/cyfitter_cfg.c **** 
 213:Generated_Source\PSoC4/cyfitter_cfg.c **** 	/* Set Flash Cycles based on max possible frequency in case a glitch occurs during ClockSetup(). *
 214:Generated_Source\PSoC4/cyfitter_cfg.c **** 	CY_SET_REG32((void CYXDATA *)(CYREG_CPUSS_FLASH_CTL), (0x0012u));
 251              		.loc 1 214 0
 252 0004 374B     		ldr	r3, .L10
 253 0006 1222     		movs	r2, #18
 254 0008 1A60     		str	r2, [r3]
 215:Generated_Source\PSoC4/cyfitter_cfg.c **** 
 216:Generated_Source\PSoC4/cyfitter_cfg.c **** 	/* Start the WCO */
 217:Generated_Source\PSoC4/cyfitter_cfg.c **** 	CySysClkWcoStart();
 255              		.loc 1 217 0
 256 000a FFF7FEFF 		bl	CySysClkWcoStart
 218:Generated_Source\PSoC4/cyfitter_cfg.c **** 	CyDelayCycles(12000000u); /* WCO may take up to 500ms to start */
 257              		.loc 1 218 0
 258 000e 364B     		ldr	r3, .L10+4
 259 0010 1800     		movs	r0, r3
 260 0012 FFF7FEFF 		bl	CyDelayCycles
 219:Generated_Source\PSoC4/cyfitter_cfg.c **** 	(void)CySysClkWcoSetPowerMode(CY_SYS_CLK_WCO_LPM);    /* Switch to the low power mode */
 261              		.loc 1 219 0
 262 0016 0120     		movs	r0, #1
 263 0018 FFF7FEFF 		bl	CySysClkWcoSetPowerMode
 220:Generated_Source\PSoC4/cyfitter_cfg.c **** 
 221:Generated_Source\PSoC4/cyfitter_cfg.c **** 	/* Setup and trim IMO based on desired frequency. */
 222:Generated_Source\PSoC4/cyfitter_cfg.c **** 	CySysClkWriteImoFreq(48u);
 264              		.loc 1 222 0
 265 001c 3020     		movs	r0, #48
 266 001e FFF7FEFF 		bl	CySysClkWriteImoFreq
 223:Generated_Source\PSoC4/cyfitter_cfg.c **** 	/* CYDEV_CLK_ILO_CONFIG Starting address: CYDEV_CLK_ILO_CONFIG */
 224:Generated_Source\PSoC4/cyfitter_cfg.c **** 	CY_SET_REG32((void *)(CYREG_CLK_ILO_CONFIG), 0x80000006u);
 267              		.loc 1 224 0
 268 0022 324B     		ldr	r3, .L10+8
 269 0024 324A     		ldr	r2, .L10+12
 270 0026 1A60     		str	r2, [r3]
 225:Generated_Source\PSoC4/cyfitter_cfg.c **** 
 226:Generated_Source\PSoC4/cyfitter_cfg.c **** 	/* CYDEV_WDT_CONFIG Starting address: CYDEV_WDT_CONFIG */
 227:Generated_Source\PSoC4/cyfitter_cfg.c **** 	CY_SET_REG32((void *)(CYREG_WDT_CONFIG), 0x40000000u);
 271              		.loc 1 227 0
 272 0028 324B     		ldr	r3, .L10+16
 273 002a 8022     		movs	r2, #128
 274 002c D205     		lsls	r2, r2, #23
 275 002e 1A60     		str	r2, [r3]
 228:Generated_Source\PSoC4/cyfitter_cfg.c **** 
 229:Generated_Source\PSoC4/cyfitter_cfg.c **** 
 230:Generated_Source\PSoC4/cyfitter_cfg.c **** 	/* Enable fast start mode for XO */
 231:Generated_Source\PSoC4/cyfitter_cfg.c **** 	CY_SET_REG32((void*)CYREG_BLE_BLERD_BB_XO, CY_GET_REG32((void*)CYREG_BLE_BLERD_BB_XO) | (uint32)0x
 276              		.loc 1 231 0
 277 0030 314B     		ldr	r3, .L10+20
 278 0032 314A     		ldr	r2, .L10+20
 279 0034 1268     		ldr	r2, [r2]
ARM GAS  C:\Users\alexport\AppData\Local\Temp\ccdq65cU.s 			page 10


 280 0036 0221     		movs	r1, #2
 281 0038 0A43     		orrs	r2, r1
 282 003a 1A60     		str	r2, [r3]
 232:Generated_Source\PSoC4/cyfitter_cfg.c **** 	CY_SET_REG32((void *)(CYREG_BLE_BLERD_BB_XO_CAPTRIM), 0x00005555u);
 283              		.loc 1 232 0
 284 003c 2F4B     		ldr	r3, .L10+24
 285 003e 304A     		ldr	r2, .L10+28
 286 0040 1A60     		str	r2, [r3]
 233:Generated_Source\PSoC4/cyfitter_cfg.c **** 	/*Set XTAL(ECO) divider*/
 234:Generated_Source\PSoC4/cyfitter_cfg.c **** 	CY_SET_REG32((void *)(CYREG_BLE_BLESS_XTAL_CLK_DIV_CONFIG), 0x00000000u);
 287              		.loc 1 234 0
 288 0042 304B     		ldr	r3, .L10+32
 289 0044 0022     		movs	r2, #0
 290 0046 1A60     		str	r2, [r3]
 235:Generated_Source\PSoC4/cyfitter_cfg.c **** 	/* Disable Crystal Stable Interrupt before enabling ECO */
 236:Generated_Source\PSoC4/cyfitter_cfg.c **** 	CY_SET_REG32((void*)CYREG_BLE_BLESS_LL_DSM_CTRL, CY_GET_REG32((void*)CYREG_BLE_BLESS_LL_DSM_CTRL) 
 291              		.loc 1 236 0
 292 0048 2F4B     		ldr	r3, .L10+36
 293 004a 2F4A     		ldr	r2, .L10+36
 294 004c 1268     		ldr	r2, [r2]
 295 004e 0821     		movs	r1, #8
 296 0050 8A43     		bics	r2, r1
 297 0052 1A60     		str	r2, [r3]
 237:Generated_Source\PSoC4/cyfitter_cfg.c **** 	/* Start the ECO and do not check status since it is not needed for HFCLK */
 238:Generated_Source\PSoC4/cyfitter_cfg.c **** 	(void)CySysClkEcoStart(2000u);
 298              		.loc 1 238 0
 299 0054 FA23     		movs	r3, #250
 300 0056 DB00     		lsls	r3, r3, #3
 301 0058 1800     		movs	r0, r3
 302 005a FFF7FEFF 		bl	CySysClkEcoStart
 239:Generated_Source\PSoC4/cyfitter_cfg.c **** 	CyDelayUs(1500u); /* Wait to stabilize */
 303              		.loc 1 239 0
 304 005e 2B4B     		ldr	r3, .L10+40
 305 0060 1800     		movs	r0, r3
 306 0062 FFF7FEFF 		bl	CyDelayUs
 240:Generated_Source\PSoC4/cyfitter_cfg.c **** 
 241:Generated_Source\PSoC4/cyfitter_cfg.c **** 	/* Setup phase aligned clocks */
 242:Generated_Source\PSoC4/cyfitter_cfg.c **** 	CY_SET_REG32((void *)CYREG_PERI_DIV_16_CTL1, 0x00003300u);
 307              		.loc 1 242 0
 308 0066 2A4B     		ldr	r3, .L10+44
 309 0068 CC22     		movs	r2, #204
 310 006a 9201     		lsls	r2, r2, #6
 311 006c 1A60     		str	r2, [r3]
 243:Generated_Source\PSoC4/cyfitter_cfg.c **** 	CY_SET_REG32((void *)CYREG_PERI_DIV_CMD, 0x8000FF41u);
 312              		.loc 1 243 0
 313 006e 294B     		ldr	r3, .L10+48
 314 0070 294A     		ldr	r2, .L10+52
 315 0072 1A60     		str	r2, [r3]
 244:Generated_Source\PSoC4/cyfitter_cfg.c **** 	CY_SET_REG32((void *)CYREG_PERI_DIV_16_CTL3, 0x00BB7F00u);
 316              		.loc 1 244 0
 317 0074 294B     		ldr	r3, .L10+56
 318 0076 2A4A     		ldr	r2, .L10+60
 319 0078 1A60     		str	r2, [r3]
 245:Generated_Source\PSoC4/cyfitter_cfg.c **** 	CY_SET_REG32((void *)CYREG_PERI_DIV_CMD, 0x8000FF43u);
 320              		.loc 1 245 0
 321 007a 264B     		ldr	r3, .L10+48
 322 007c 294A     		ldr	r2, .L10+64
ARM GAS  C:\Users\alexport\AppData\Local\Temp\ccdq65cU.s 			page 11


 323 007e 1A60     		str	r2, [r3]
 246:Generated_Source\PSoC4/cyfitter_cfg.c **** 	CY_SET_REG32((void *)CYREG_PERI_DIV_16_CTL2, 0x0001F300u);
 324              		.loc 1 246 0
 325 0080 294B     		ldr	r3, .L10+68
 326 0082 2A4A     		ldr	r2, .L10+72
 327 0084 1A60     		str	r2, [r3]
 247:Generated_Source\PSoC4/cyfitter_cfg.c **** 	CY_SET_REG32((void *)CYREG_PERI_DIV_CMD, 0x8000FF42u);
 328              		.loc 1 247 0
 329 0086 234B     		ldr	r3, .L10+48
 330 0088 294A     		ldr	r2, .L10+76
 331 008a 1A60     		str	r2, [r3]
 248:Generated_Source\PSoC4/cyfitter_cfg.c **** 	CY_SET_REG32((void *)CYREG_PERI_DIV_16_CTL0, 0x00001D00u);
 332              		.loc 1 248 0
 333 008c 294B     		ldr	r3, .L10+80
 334 008e E822     		movs	r2, #232
 335 0090 5201     		lsls	r2, r2, #5
 336 0092 1A60     		str	r2, [r3]
 249:Generated_Source\PSoC4/cyfitter_cfg.c **** 	CY_SET_REG32((void *)CYREG_PERI_DIV_CMD, 0x8000FF40u);
 337              		.loc 1 249 0
 338 0094 1F4B     		ldr	r3, .L10+48
 339 0096 284A     		ldr	r2, .L10+84
 340 0098 1A60     		str	r2, [r3]
 250:Generated_Source\PSoC4/cyfitter_cfg.c **** 
 251:Generated_Source\PSoC4/cyfitter_cfg.c **** 	/* CYDEV_CLK_IMO_CONFIG Starting address: CYDEV_CLK_IMO_CONFIG */
 252:Generated_Source\PSoC4/cyfitter_cfg.c **** 	CY_SET_REG32((void *)(CYREG_CLK_IMO_CONFIG), 0x80000000u);
 341              		.loc 1 252 0
 342 009a 284B     		ldr	r3, .L10+88
 343 009c 8022     		movs	r2, #128
 344 009e 1206     		lsls	r2, r2, #24
 345 00a0 1A60     		str	r2, [r3]
 253:Generated_Source\PSoC4/cyfitter_cfg.c **** 
 254:Generated_Source\PSoC4/cyfitter_cfg.c **** 	/* CYDEV_CLK_SELECT Starting address: CYDEV_CLK_SELECT */
 255:Generated_Source\PSoC4/cyfitter_cfg.c **** 	CY_SET_REG32((void *)(CYREG_CLK_SELECT), 0x00040000u);
 346              		.loc 1 255 0
 347 00a2 274B     		ldr	r3, .L10+92
 348 00a4 8022     		movs	r2, #128
 349 00a6 D202     		lsls	r2, r2, #11
 350 00a8 1A60     		str	r2, [r3]
 256:Generated_Source\PSoC4/cyfitter_cfg.c **** 
 257:Generated_Source\PSoC4/cyfitter_cfg.c **** 	/* CYDEV_PERI_PCLK_CTL11 Starting address: CYDEV_PERI_PCLK_CTL11 */
 258:Generated_Source\PSoC4/cyfitter_cfg.c **** 	CY_SET_REG32((void *)(CYREG_PERI_PCLK_CTL11), 0x00000041u);
 351              		.loc 1 258 0
 352 00aa 264B     		ldr	r3, .L10+96
 353 00ac 4122     		movs	r2, #65
 354 00ae 1A60     		str	r2, [r3]
 259:Generated_Source\PSoC4/cyfitter_cfg.c **** 
 260:Generated_Source\PSoC4/cyfitter_cfg.c **** 	/* CYDEV_PERI_PCLK_CTL10 Starting address: CYDEV_PERI_PCLK_CTL10 */
 261:Generated_Source\PSoC4/cyfitter_cfg.c **** 	CY_SET_REG32((void *)(CYREG_PERI_PCLK_CTL10), 0x00000043u);
 355              		.loc 1 261 0
 356 00b0 254B     		ldr	r3, .L10+100
 357 00b2 4322     		movs	r2, #67
 358 00b4 1A60     		str	r2, [r3]
 262:Generated_Source\PSoC4/cyfitter_cfg.c **** 
 263:Generated_Source\PSoC4/cyfitter_cfg.c **** 	/* CYDEV_PERI_PCLK_CTL9 Starting address: CYDEV_PERI_PCLK_CTL9 */
 264:Generated_Source\PSoC4/cyfitter_cfg.c **** 	CY_SET_REG32((void *)(CYREG_PERI_PCLK_CTL9), 0x00000043u);
 359              		.loc 1 264 0
 360 00b6 254B     		ldr	r3, .L10+104
ARM GAS  C:\Users\alexport\AppData\Local\Temp\ccdq65cU.s 			page 12


 361 00b8 4322     		movs	r2, #67
 362 00ba 1A60     		str	r2, [r3]
 265:Generated_Source\PSoC4/cyfitter_cfg.c **** 
 266:Generated_Source\PSoC4/cyfitter_cfg.c **** 	/* CYDEV_PERI_PCLK_CTL8 Starting address: CYDEV_PERI_PCLK_CTL8 */
 267:Generated_Source\PSoC4/cyfitter_cfg.c **** 	CY_SET_REG32((void *)(CYREG_PERI_PCLK_CTL8), 0x00000043u);
 363              		.loc 1 267 0
 364 00bc 244B     		ldr	r3, .L10+108
 365 00be 4322     		movs	r2, #67
 366 00c0 1A60     		str	r2, [r3]
 268:Generated_Source\PSoC4/cyfitter_cfg.c **** 
 269:Generated_Source\PSoC4/cyfitter_cfg.c **** 	/* CYDEV_PERI_PCLK_CTL7 Starting address: CYDEV_PERI_PCLK_CTL7 */
 270:Generated_Source\PSoC4/cyfitter_cfg.c **** 	CY_SET_REG32((void *)(CYREG_PERI_PCLK_CTL7), 0x00000043u);
 367              		.loc 1 270 0
 368 00c2 244B     		ldr	r3, .L10+112
 369 00c4 4322     		movs	r2, #67
 370 00c6 1A60     		str	r2, [r3]
 271:Generated_Source\PSoC4/cyfitter_cfg.c **** 
 272:Generated_Source\PSoC4/cyfitter_cfg.c **** 	/* CYDEV_PERI_PCLK_CTL2 Starting address: CYDEV_PERI_PCLK_CTL2 */
 273:Generated_Source\PSoC4/cyfitter_cfg.c **** 	CY_SET_REG32((void *)(CYREG_PERI_PCLK_CTL2), 0x00000042u);
 371              		.loc 1 273 0
 372 00c8 234B     		ldr	r3, .L10+116
 373 00ca 4222     		movs	r2, #66
 374 00cc 1A60     		str	r2, [r3]
 274:Generated_Source\PSoC4/cyfitter_cfg.c **** 
 275:Generated_Source\PSoC4/cyfitter_cfg.c **** 	/* CYDEV_PERI_PCLK_CTL1 Starting address: CYDEV_PERI_PCLK_CTL1 */
 276:Generated_Source\PSoC4/cyfitter_cfg.c **** 	CY_SET_REG32((void *)(CYREG_PERI_PCLK_CTL1), 0x00000040u);
 375              		.loc 1 276 0
 376 00ce 234B     		ldr	r3, .L10+120
 377 00d0 4022     		movs	r2, #64
 378 00d2 1A60     		str	r2, [r3]
 277:Generated_Source\PSoC4/cyfitter_cfg.c **** 
 278:Generated_Source\PSoC4/cyfitter_cfg.c **** 	CY_SET_REG32((void *)(CYREG_WDT_CONFIG), 0x40000000u);
 379              		.loc 1 278 0
 380 00d4 074B     		ldr	r3, .L10+16
 381 00d6 8022     		movs	r2, #128
 382 00d8 D205     		lsls	r2, r2, #23
 383 00da 1A60     		str	r2, [r3]
 279:Generated_Source\PSoC4/cyfitter_cfg.c **** }
 384              		.loc 1 279 0
 385 00dc C046     		nop
 386 00de BD46     		mov	sp, r7
 387              		@ sp needed
 388 00e0 80BD     		pop	{r7, pc}
 389              	.L11:
 390 00e2 C046     		.align	2
 391              	.L10:
 392 00e4 30001040 		.word	1074790448
 393 00e8 001BB700 		.word	12000000
 394 00ec 04010B40 		.word	1074462980
 395 00f0 06000080 		.word	-2147483642
 396 00f4 0C020B40 		.word	1074463244
 397 00f8 78002E40 		.word	1076756600
 398 00fc 7C002E40 		.word	1076756604
 399 0100 55550000 		.word	21845
 400 0104 64F02E40 		.word	1076818020
 401 0108 6CF02E40 		.word	1076818028
 402 010c DC050000 		.word	1500
ARM GAS  C:\Users\alexport\AppData\Local\Temp\ccdq65cU.s 			page 13


 403 0110 04030140 		.word	1073808132
 404 0114 00000140 		.word	1073807360
 405 0118 41FF0080 		.word	-2147418303
 406 011c 0C030140 		.word	1073808140
 407 0120 007FBB00 		.word	12287744
 408 0124 43FF0080 		.word	-2147418301
 409 0128 08030140 		.word	1073808136
 410 012c 00F30100 		.word	127744
 411 0130 42FF0080 		.word	-2147418302
 412 0134 00030140 		.word	1073808128
 413 0138 40FF0080 		.word	-2147418304
 414 013c 08010B40 		.word	1074462984
 415 0140 00010B40 		.word	1074462976
 416 0144 2C010140 		.word	1073807660
 417 0148 28010140 		.word	1073807656
 418 014c 24010140 		.word	1073807652
 419 0150 20010140 		.word	1073807648
 420 0154 1C010140 		.word	1073807644
 421 0158 08010140 		.word	1073807624
 422 015c 04010140 		.word	1073807620
 423              		.cfi_endproc
 424              	.LFE6:
 425              		.size	ClockSetup, .-ClockSetup
 426              		.section	.text.AnalogSetDefault,"ax",%progbits
 427              		.align	2
 428              		.code	16
 429              		.thumb_func
 430              		.type	AnalogSetDefault, %function
 431              	AnalogSetDefault:
 432              	.LFB7:
 280:Generated_Source\PSoC4/cyfitter_cfg.c **** 
 281:Generated_Source\PSoC4/cyfitter_cfg.c **** 
 282:Generated_Source\PSoC4/cyfitter_cfg.c **** /* Analog API Functions */
 283:Generated_Source\PSoC4/cyfitter_cfg.c **** 
 284:Generated_Source\PSoC4/cyfitter_cfg.c **** 
 285:Generated_Source\PSoC4/cyfitter_cfg.c **** /*******************************************************************************
 286:Generated_Source\PSoC4/cyfitter_cfg.c **** * Function Name: AnalogSetDefault
 287:Generated_Source\PSoC4/cyfitter_cfg.c **** ********************************************************************************
 288:Generated_Source\PSoC4/cyfitter_cfg.c **** *
 289:Generated_Source\PSoC4/cyfitter_cfg.c **** * Summary:
 290:Generated_Source\PSoC4/cyfitter_cfg.c **** *  Sets up the analog portions of the chip to default values based on chip
 291:Generated_Source\PSoC4/cyfitter_cfg.c **** *  configuration options from the project.
 292:Generated_Source\PSoC4/cyfitter_cfg.c **** *
 293:Generated_Source\PSoC4/cyfitter_cfg.c **** * Parameters:
 294:Generated_Source\PSoC4/cyfitter_cfg.c **** *  void
 295:Generated_Source\PSoC4/cyfitter_cfg.c **** *
 296:Generated_Source\PSoC4/cyfitter_cfg.c **** * Return:
 297:Generated_Source\PSoC4/cyfitter_cfg.c **** *  void
 298:Generated_Source\PSoC4/cyfitter_cfg.c **** *
 299:Generated_Source\PSoC4/cyfitter_cfg.c **** *******************************************************************************/
 300:Generated_Source\PSoC4/cyfitter_cfg.c **** static void AnalogSetDefault(void);
 301:Generated_Source\PSoC4/cyfitter_cfg.c **** static void AnalogSetDefault(void)
 302:Generated_Source\PSoC4/cyfitter_cfg.c **** {
 433              		.loc 1 302 0
 434              		.cfi_startproc
 435              		@ args = 0, pretend = 0, frame = 0
 436              		@ frame_needed = 1, uses_anonymous_args = 0
ARM GAS  C:\Users\alexport\AppData\Local\Temp\ccdq65cU.s 			page 14


 437 0000 80B5     		push	{r7, lr}
 438              		.cfi_def_cfa_offset 8
 439              		.cfi_offset 7, -8
 440              		.cfi_offset 14, -4
 441 0002 00AF     		add	r7, sp, #0
 442              		.cfi_def_cfa_register 7
 303:Generated_Source\PSoC4/cyfitter_cfg.c **** 	CY_SET_XTND_REG32((void CYFAR *)CYREG_CTBM0_DFT_CTRL, 0x00000003u);
 443              		.loc 1 303 0
 444 0004 054B     		ldr	r3, .L13
 445 0006 0322     		movs	r2, #3
 446 0008 1A60     		str	r2, [r3]
 304:Generated_Source\PSoC4/cyfitter_cfg.c **** 	CY_SET_XTND_REG32((void CYFAR *)CYREG_CTBM1_DFT_CTRL, 0x00000003u);
 447              		.loc 1 304 0
 448 000a 054B     		ldr	r3, .L13+4
 449 000c 0322     		movs	r2, #3
 450 000e 1A60     		str	r2, [r3]
 305:Generated_Source\PSoC4/cyfitter_cfg.c **** 	CY_SET_XTND_REG32((void CYFAR *)CYREG_PASS_DSAB_DSAB_CTRL, 0x00000000u);
 451              		.loc 1 305 0
 452 0010 044B     		ldr	r3, .L13+8
 453 0012 0022     		movs	r2, #0
 454 0014 1A60     		str	r2, [r3]
 306:Generated_Source\PSoC4/cyfitter_cfg.c **** }
 455              		.loc 1 306 0
 456 0016 C046     		nop
 457 0018 BD46     		mov	sp, r7
 458              		@ sp needed
 459 001a 80BD     		pop	{r7, pc}
 460              	.L14:
 461              		.align	2
 462              	.L13:
 463 001c 30003040 		.word	1076887600
 464 0020 30003140 		.word	1076953136
 465 0024 000E3F40 		.word	1077874176
 466              		.cfi_endproc
 467              	.LFE7:
 468              		.size	AnalogSetDefault, .-AnalogSetDefault
 469              		.section	.psocinit
 470              		.align	2
 471              		.global	cyfitter_cfg
 472              		.code	16
 473              		.thumb_func
 474              		.type	cyfitter_cfg, %function
 475              	cyfitter_cfg:
 476              	.LFB8:
 307:Generated_Source\PSoC4/cyfitter_cfg.c **** 
 308:Generated_Source\PSoC4/cyfitter_cfg.c **** 
 309:Generated_Source\PSoC4/cyfitter_cfg.c **** 
 310:Generated_Source\PSoC4/cyfitter_cfg.c **** 
 311:Generated_Source\PSoC4/cyfitter_cfg.c **** /*******************************************************************************
 312:Generated_Source\PSoC4/cyfitter_cfg.c **** * Function Name: cyfitter_cfg
 313:Generated_Source\PSoC4/cyfitter_cfg.c **** ********************************************************************************
 314:Generated_Source\PSoC4/cyfitter_cfg.c **** * Summary:
 315:Generated_Source\PSoC4/cyfitter_cfg.c **** *  This function is called by the start-up code for the selected device. It
 316:Generated_Source\PSoC4/cyfitter_cfg.c **** *  performs all of the necessary device configuration based on the design
 317:Generated_Source\PSoC4/cyfitter_cfg.c **** *  settings.  This includes settings from the Design Wide Resources (DWR) such
 318:Generated_Source\PSoC4/cyfitter_cfg.c **** *  as Clocks and Pins as well as any component configuration that is necessary.
 319:Generated_Source\PSoC4/cyfitter_cfg.c **** *
ARM GAS  C:\Users\alexport\AppData\Local\Temp\ccdq65cU.s 			page 15


 320:Generated_Source\PSoC4/cyfitter_cfg.c **** * Parameters:
 321:Generated_Source\PSoC4/cyfitter_cfg.c **** *   void
 322:Generated_Source\PSoC4/cyfitter_cfg.c **** *
 323:Generated_Source\PSoC4/cyfitter_cfg.c **** * Return:
 324:Generated_Source\PSoC4/cyfitter_cfg.c **** *   void
 325:Generated_Source\PSoC4/cyfitter_cfg.c **** *
 326:Generated_Source\PSoC4/cyfitter_cfg.c **** *******************************************************************************/
 327:Generated_Source\PSoC4/cyfitter_cfg.c **** CY_CFG_SECTION
 328:Generated_Source\PSoC4/cyfitter_cfg.c **** void cyfitter_cfg(void)
 329:Generated_Source\PSoC4/cyfitter_cfg.c **** {
 477              		.loc 1 329 0
 478              		.cfi_startproc
 479              		@ args = 0, pretend = 0, frame = 24
 480              		@ frame_needed = 1, uses_anonymous_args = 0
 481 0160 80B5     		push	{r7, lr}
 482              		.cfi_def_cfa_offset 8
 483              		.cfi_offset 7, -8
 484              		.cfi_offset 14, -4
 485 0162 86B0     		sub	sp, sp, #24
 486              		.cfi_def_cfa_offset 32
 487 0164 00AF     		add	r7, sp, #0
 488              		.cfi_def_cfa_register 7
 330:Generated_Source\PSoC4/cyfitter_cfg.c **** 	/* Disable interrupts by default. Let user enable if/when they want. */
 331:Generated_Source\PSoC4/cyfitter_cfg.c **** 	CyGlobalIntDisable;
 489              		.loc 1 331 0
 490              		.syntax divided
 491              	@ 331 "Generated_Source\PSoC4\cyfitter_cfg.c" 1
 492 0166 72B6     		CPSID   i
 493              	@ 0 "" 2
 332:Generated_Source\PSoC4/cyfitter_cfg.c **** 
 333:Generated_Source\PSoC4/cyfitter_cfg.c **** 	CY_SET_REG32((void *)(CYREG_BLE_BLESS_LL_DSM_CTRL), 0x00000000u);
 494              		.loc 1 333 0
 495              		.thumb
 496              		.syntax unified
 497 0168 764B     		ldr	r3, .L20
 498 016a 0022     		movs	r2, #0
 499 016c 1A60     		str	r2, [r3]
 334:Generated_Source\PSoC4/cyfitter_cfg.c **** 
 335:Generated_Source\PSoC4/cyfitter_cfg.c **** 	/* Enable the clock in the interrupt controller for the routed interrupts */
 336:Generated_Source\PSoC4/cyfitter_cfg.c **** 	CY_SET_REG8((void *)CYREG_UDB_UDBIF_INT_CLK_CTL, 0x01u);
 500              		.loc 1 336 0
 501 016e 764B     		ldr	r3, .L20+4
 502 0170 0122     		movs	r2, #1
 503 0172 1A70     		strb	r2, [r3]
 504              	.LBB3:
 337:Generated_Source\PSoC4/cyfitter_cfg.c **** 	{
 338:Generated_Source\PSoC4/cyfitter_cfg.c **** 		static const uint32 CYCODE cy_cfg_addr_table[] = {
 339:Generated_Source\PSoC4/cyfitter_cfg.c **** 			0x400F0003u, /* Base address: 0x400F0000 Count: 3 */
 340:Generated_Source\PSoC4/cyfitter_cfg.c **** 			0x400F3014u, /* Base address: 0x400F3000 Count: 20 */
 341:Generated_Source\PSoC4/cyfitter_cfg.c **** 			0x400F313Bu, /* Base address: 0x400F3100 Count: 59 */
 342:Generated_Source\PSoC4/cyfitter_cfg.c **** 			0x400F326Au, /* Base address: 0x400F3200 Count: 106 */
 343:Generated_Source\PSoC4/cyfitter_cfg.c **** 			0x400F3351u, /* Base address: 0x400F3300 Count: 81 */
 344:Generated_Source\PSoC4/cyfitter_cfg.c **** 			0x400F4104u, /* Base address: 0x400F4100 Count: 4 */
 345:Generated_Source\PSoC4/cyfitter_cfg.c **** 			0x400F4307u, /* Base address: 0x400F4300 Count: 7 */
 346:Generated_Source\PSoC4/cyfitter_cfg.c **** 			0x400F6002u, /* Base address: 0x400F6000 Count: 2 */
 347:Generated_Source\PSoC4/cyfitter_cfg.c **** 		};
 348:Generated_Source\PSoC4/cyfitter_cfg.c **** 
ARM GAS  C:\Users\alexport\AppData\Local\Temp\ccdq65cU.s 			page 16


 349:Generated_Source\PSoC4/cyfitter_cfg.c **** 		static const cy_cfg_addrvalue_t CYCODE cy_cfg_data_table[] = {
 350:Generated_Source\PSoC4/cyfitter_cfg.c **** 			{0x80u, 0x38u},
 351:Generated_Source\PSoC4/cyfitter_cfg.c **** 			{0x81u, 0x72u},
 352:Generated_Source\PSoC4/cyfitter_cfg.c **** 			{0x82u, 0x0Fu},
 353:Generated_Source\PSoC4/cyfitter_cfg.c **** 			{0x06u, 0x08u},
 354:Generated_Source\PSoC4/cyfitter_cfg.c **** 			{0x0Cu, 0x04u},
 355:Generated_Source\PSoC4/cyfitter_cfg.c **** 			{0x0Du, 0x01u},
 356:Generated_Source\PSoC4/cyfitter_cfg.c **** 			{0x12u, 0x02u},
 357:Generated_Source\PSoC4/cyfitter_cfg.c **** 			{0x16u, 0x01u},
 358:Generated_Source\PSoC4/cyfitter_cfg.c **** 			{0x26u, 0x02u},
 359:Generated_Source\PSoC4/cyfitter_cfg.c **** 			{0x2Eu, 0x01u},
 360:Generated_Source\PSoC4/cyfitter_cfg.c **** 			{0x30u, 0x08u},
 361:Generated_Source\PSoC4/cyfitter_cfg.c **** 			{0x32u, 0x04u},
 362:Generated_Source\PSoC4/cyfitter_cfg.c **** 			{0x34u, 0x01u},
 363:Generated_Source\PSoC4/cyfitter_cfg.c **** 			{0x35u, 0x01u},
 364:Generated_Source\PSoC4/cyfitter_cfg.c **** 			{0x36u, 0x02u},
 365:Generated_Source\PSoC4/cyfitter_cfg.c **** 			{0x3Eu, 0x54u},
 366:Generated_Source\PSoC4/cyfitter_cfg.c **** 			{0x3Fu, 0x10u},
 367:Generated_Source\PSoC4/cyfitter_cfg.c **** 			{0x54u, 0x18u},
 368:Generated_Source\PSoC4/cyfitter_cfg.c **** 			{0x56u, 0x04u},
 369:Generated_Source\PSoC4/cyfitter_cfg.c **** 			{0x58u, 0x04u},
 370:Generated_Source\PSoC4/cyfitter_cfg.c **** 			{0x59u, 0x04u},
 371:Generated_Source\PSoC4/cyfitter_cfg.c **** 			{0x5Bu, 0x04u},
 372:Generated_Source\PSoC4/cyfitter_cfg.c **** 			{0x5Fu, 0x01u},
 373:Generated_Source\PSoC4/cyfitter_cfg.c **** 			{0x00u, 0x80u},
 374:Generated_Source\PSoC4/cyfitter_cfg.c **** 			{0x02u, 0x20u},
 375:Generated_Source\PSoC4/cyfitter_cfg.c **** 			{0x04u, 0xA8u},
 376:Generated_Source\PSoC4/cyfitter_cfg.c **** 			{0x05u, 0x23u},
 377:Generated_Source\PSoC4/cyfitter_cfg.c **** 			{0x07u, 0x01u},
 378:Generated_Source\PSoC4/cyfitter_cfg.c **** 			{0x09u, 0x08u},
 379:Generated_Source\PSoC4/cyfitter_cfg.c **** 			{0x0Bu, 0x80u},
 380:Generated_Source\PSoC4/cyfitter_cfg.c **** 			{0x0Eu, 0x6Au},
 381:Generated_Source\PSoC4/cyfitter_cfg.c **** 			{0x10u, 0x20u},
 382:Generated_Source\PSoC4/cyfitter_cfg.c **** 			{0x11u, 0x80u},
 383:Generated_Source\PSoC4/cyfitter_cfg.c **** 			{0x16u, 0x82u},
 384:Generated_Source\PSoC4/cyfitter_cfg.c **** 			{0x17u, 0x1Au},
 385:Generated_Source\PSoC4/cyfitter_cfg.c **** 			{0x18u, 0x04u},
 386:Generated_Source\PSoC4/cyfitter_cfg.c **** 			{0x19u, 0x48u},
 387:Generated_Source\PSoC4/cyfitter_cfg.c **** 			{0x1Bu, 0x02u},
 388:Generated_Source\PSoC4/cyfitter_cfg.c **** 			{0x1Cu, 0x10u},
 389:Generated_Source\PSoC4/cyfitter_cfg.c **** 			{0x1Du, 0x20u},
 390:Generated_Source\PSoC4/cyfitter_cfg.c **** 			{0x1Eu, 0xC8u},
 391:Generated_Source\PSoC4/cyfitter_cfg.c **** 			{0x1Fu, 0x50u},
 392:Generated_Source\PSoC4/cyfitter_cfg.c **** 			{0x22u, 0x10u},
 393:Generated_Source\PSoC4/cyfitter_cfg.c **** 			{0x24u, 0xA0u},
 394:Generated_Source\PSoC4/cyfitter_cfg.c **** 			{0x25u, 0x40u},
 395:Generated_Source\PSoC4/cyfitter_cfg.c **** 			{0x26u, 0x10u},
 396:Generated_Source\PSoC4/cyfitter_cfg.c **** 			{0x27u, 0x04u},
 397:Generated_Source\PSoC4/cyfitter_cfg.c **** 			{0x2Du, 0x22u},
 398:Generated_Source\PSoC4/cyfitter_cfg.c **** 			{0x2Fu, 0x12u},
 399:Generated_Source\PSoC4/cyfitter_cfg.c **** 			{0x36u, 0x51u},
 400:Generated_Source\PSoC4/cyfitter_cfg.c **** 			{0x37u, 0x08u},
 401:Generated_Source\PSoC4/cyfitter_cfg.c **** 			{0x38u, 0x40u},
 402:Generated_Source\PSoC4/cyfitter_cfg.c **** 			{0x3Cu, 0x08u},
 403:Generated_Source\PSoC4/cyfitter_cfg.c **** 			{0x3Eu, 0x82u},
 404:Generated_Source\PSoC4/cyfitter_cfg.c **** 			{0x3Fu, 0x20u},
 405:Generated_Source\PSoC4/cyfitter_cfg.c **** 			{0x45u, 0x20u},
ARM GAS  C:\Users\alexport\AppData\Local\Temp\ccdq65cU.s 			page 17


 406:Generated_Source\PSoC4/cyfitter_cfg.c **** 			{0x47u, 0x44u},
 407:Generated_Source\PSoC4/cyfitter_cfg.c **** 			{0x49u, 0x80u},
 408:Generated_Source\PSoC4/cyfitter_cfg.c **** 			{0x4Bu, 0x80u},
 409:Generated_Source\PSoC4/cyfitter_cfg.c **** 			{0x4Cu, 0x24u},
 410:Generated_Source\PSoC4/cyfitter_cfg.c **** 			{0x4Du, 0x80u},
 411:Generated_Source\PSoC4/cyfitter_cfg.c **** 			{0x4Fu, 0x20u},
 412:Generated_Source\PSoC4/cyfitter_cfg.c **** 			{0x55u, 0x08u},
 413:Generated_Source\PSoC4/cyfitter_cfg.c **** 			{0x5Bu, 0x01u},
 414:Generated_Source\PSoC4/cyfitter_cfg.c **** 			{0x5Cu, 0x10u},
 415:Generated_Source\PSoC4/cyfitter_cfg.c **** 			{0x60u, 0x04u},
 416:Generated_Source\PSoC4/cyfitter_cfg.c **** 			{0x61u, 0x40u},
 417:Generated_Source\PSoC4/cyfitter_cfg.c **** 			{0x62u, 0x02u},
 418:Generated_Source\PSoC4/cyfitter_cfg.c **** 			{0x6Du, 0x50u},
 419:Generated_Source\PSoC4/cyfitter_cfg.c **** 			{0x6Eu, 0x04u},
 420:Generated_Source\PSoC4/cyfitter_cfg.c **** 			{0x74u, 0x04u},
 421:Generated_Source\PSoC4/cyfitter_cfg.c **** 			{0x77u, 0x1Au},
 422:Generated_Source\PSoC4/cyfitter_cfg.c **** 			{0xC0u, 0x75u},
 423:Generated_Source\PSoC4/cyfitter_cfg.c **** 			{0xC2u, 0xFCu},
 424:Generated_Source\PSoC4/cyfitter_cfg.c **** 			{0xC4u, 0xF5u},
 425:Generated_Source\PSoC4/cyfitter_cfg.c **** 			{0xCAu, 0xF0u},
 426:Generated_Source\PSoC4/cyfitter_cfg.c **** 			{0xCCu, 0xF0u},
 427:Generated_Source\PSoC4/cyfitter_cfg.c **** 			{0xCEu, 0xF8u},
 428:Generated_Source\PSoC4/cyfitter_cfg.c **** 			{0xD0u, 0x70u},
 429:Generated_Source\PSoC4/cyfitter_cfg.c **** 			{0xD2u, 0x30u},
 430:Generated_Source\PSoC4/cyfitter_cfg.c **** 			{0xD6u, 0x21u},
 431:Generated_Source\PSoC4/cyfitter_cfg.c **** 			{0xD8u, 0x0Du},
 432:Generated_Source\PSoC4/cyfitter_cfg.c **** 			{0x00u, 0x0Au},
 433:Generated_Source\PSoC4/cyfitter_cfg.c **** 			{0x02u, 0x14u},
 434:Generated_Source\PSoC4/cyfitter_cfg.c **** 			{0x04u, 0x80u},
 435:Generated_Source\PSoC4/cyfitter_cfg.c **** 			{0x05u, 0x13u},
 436:Generated_Source\PSoC4/cyfitter_cfg.c **** 			{0x06u, 0x40u},
 437:Generated_Source\PSoC4/cyfitter_cfg.c **** 			{0x09u, 0x13u},
 438:Generated_Source\PSoC4/cyfitter_cfg.c **** 			{0x0Au, 0x15u},
 439:Generated_Source\PSoC4/cyfitter_cfg.c **** 			{0x0Cu, 0x03u},
 440:Generated_Source\PSoC4/cyfitter_cfg.c **** 			{0x0Eu, 0x14u},
 441:Generated_Source\PSoC4/cyfitter_cfg.c **** 			{0x11u, 0x01u},
 442:Generated_Source\PSoC4/cyfitter_cfg.c **** 			{0x12u, 0x08u},
 443:Generated_Source\PSoC4/cyfitter_cfg.c **** 			{0x13u, 0x06u},
 444:Generated_Source\PSoC4/cyfitter_cfg.c **** 			{0x18u, 0xE0u},
 445:Generated_Source\PSoC4/cyfitter_cfg.c **** 			{0x19u, 0x02u},
 446:Generated_Source\PSoC4/cyfitter_cfg.c **** 			{0x1Bu, 0x05u},
 447:Generated_Source\PSoC4/cyfitter_cfg.c **** 			{0x1Cu, 0x20u},
 448:Generated_Source\PSoC4/cyfitter_cfg.c **** 			{0x1Eu, 0x40u},
 449:Generated_Source\PSoC4/cyfitter_cfg.c **** 			{0x20u, 0x13u},
 450:Generated_Source\PSoC4/cyfitter_cfg.c **** 			{0x22u, 0x0Cu},
 451:Generated_Source\PSoC4/cyfitter_cfg.c **** 			{0x24u, 0x13u},
 452:Generated_Source\PSoC4/cyfitter_cfg.c **** 			{0x26u, 0x04u},
 453:Generated_Source\PSoC4/cyfitter_cfg.c **** 			{0x28u, 0xE0u},
 454:Generated_Source\PSoC4/cyfitter_cfg.c **** 			{0x2Bu, 0x08u},
 455:Generated_Source\PSoC4/cyfitter_cfg.c **** 			{0x2Cu, 0x40u},
 456:Generated_Source\PSoC4/cyfitter_cfg.c **** 			{0x2Du, 0x10u},
 457:Generated_Source\PSoC4/cyfitter_cfg.c **** 			{0x2Eu, 0xA0u},
 458:Generated_Source\PSoC4/cyfitter_cfg.c **** 			{0x30u, 0x10u},
 459:Generated_Source\PSoC4/cyfitter_cfg.c **** 			{0x31u, 0x0Cu},
 460:Generated_Source\PSoC4/cyfitter_cfg.c **** 			{0x32u, 0xE0u},
 461:Generated_Source\PSoC4/cyfitter_cfg.c **** 			{0x33u, 0x03u},
 462:Generated_Source\PSoC4/cyfitter_cfg.c **** 			{0x34u, 0x0Fu},
ARM GAS  C:\Users\alexport\AppData\Local\Temp\ccdq65cU.s 			page 18


 463:Generated_Source\PSoC4/cyfitter_cfg.c **** 			{0x35u, 0x10u},
 464:Generated_Source\PSoC4/cyfitter_cfg.c **** 			{0x3Au, 0x20u},
 465:Generated_Source\PSoC4/cyfitter_cfg.c **** 			{0x3Eu, 0x01u},
 466:Generated_Source\PSoC4/cyfitter_cfg.c **** 			{0x3Fu, 0x01u},
 467:Generated_Source\PSoC4/cyfitter_cfg.c **** 			{0x40u, 0x32u},
 468:Generated_Source\PSoC4/cyfitter_cfg.c **** 			{0x41u, 0x06u},
 469:Generated_Source\PSoC4/cyfitter_cfg.c **** 			{0x45u, 0xB0u},
 470:Generated_Source\PSoC4/cyfitter_cfg.c **** 			{0x46u, 0x0Eu},
 471:Generated_Source\PSoC4/cyfitter_cfg.c **** 			{0x47u, 0xC0u},
 472:Generated_Source\PSoC4/cyfitter_cfg.c **** 			{0x48u, 0x26u},
 473:Generated_Source\PSoC4/cyfitter_cfg.c **** 			{0x49u, 0xFFu},
 474:Generated_Source\PSoC4/cyfitter_cfg.c **** 			{0x4Au, 0xFFu},
 475:Generated_Source\PSoC4/cyfitter_cfg.c **** 			{0x4Bu, 0xFFu},
 476:Generated_Source\PSoC4/cyfitter_cfg.c **** 			{0x4Eu, 0xF0u},
 477:Generated_Source\PSoC4/cyfitter_cfg.c **** 			{0x4Fu, 0x44u},
 478:Generated_Source\PSoC4/cyfitter_cfg.c **** 			{0x50u, 0x0Cu},
 479:Generated_Source\PSoC4/cyfitter_cfg.c **** 			{0x54u, 0x01u},
 480:Generated_Source\PSoC4/cyfitter_cfg.c **** 			{0x58u, 0x04u},
 481:Generated_Source\PSoC4/cyfitter_cfg.c **** 			{0x59u, 0x04u},
 482:Generated_Source\PSoC4/cyfitter_cfg.c **** 			{0x5Au, 0x04u},
 483:Generated_Source\PSoC4/cyfitter_cfg.c **** 			{0x5Bu, 0x04u},
 484:Generated_Source\PSoC4/cyfitter_cfg.c **** 			{0x5Fu, 0x01u},
 485:Generated_Source\PSoC4/cyfitter_cfg.c **** 			{0x66u, 0xC0u},
 486:Generated_Source\PSoC4/cyfitter_cfg.c **** 			{0x6Au, 0x40u},
 487:Generated_Source\PSoC4/cyfitter_cfg.c **** 			{0x6Bu, 0x02u},
 488:Generated_Source\PSoC4/cyfitter_cfg.c **** 			{0x84u, 0xDCu},
 489:Generated_Source\PSoC4/cyfitter_cfg.c **** 			{0x86u, 0x22u},
 490:Generated_Source\PSoC4/cyfitter_cfg.c **** 			{0x89u, 0x2Cu},
 491:Generated_Source\PSoC4/cyfitter_cfg.c **** 			{0x8Bu, 0x43u},
 492:Generated_Source\PSoC4/cyfitter_cfg.c **** 			{0x8Eu, 0x03u},
 493:Generated_Source\PSoC4/cyfitter_cfg.c **** 			{0x8Fu, 0x0Cu},
 494:Generated_Source\PSoC4/cyfitter_cfg.c **** 			{0x90u, 0x09u},
 495:Generated_Source\PSoC4/cyfitter_cfg.c **** 			{0x92u, 0xD0u},
 496:Generated_Source\PSoC4/cyfitter_cfg.c **** 			{0x94u, 0x0Cu},
 497:Generated_Source\PSoC4/cyfitter_cfg.c **** 			{0x95u, 0x80u},
 498:Generated_Source\PSoC4/cyfitter_cfg.c **** 			{0x96u, 0x71u},
 499:Generated_Source\PSoC4/cyfitter_cfg.c **** 			{0x97u, 0x13u},
 500:Generated_Source\PSoC4/cyfitter_cfg.c **** 			{0x98u, 0x10u},
 501:Generated_Source\PSoC4/cyfitter_cfg.c **** 			{0x99u, 0x71u},
 502:Generated_Source\PSoC4/cyfitter_cfg.c **** 			{0x9Au, 0xACu},
 503:Generated_Source\PSoC4/cyfitter_cfg.c **** 			{0x9Bu, 0x06u},
 504:Generated_Source\PSoC4/cyfitter_cfg.c **** 			{0x9Cu, 0x14u},
 505:Generated_Source\PSoC4/cyfitter_cfg.c **** 			{0x9Fu, 0x08u},
 506:Generated_Source\PSoC4/cyfitter_cfg.c **** 			{0xA0u, 0x10u},
 507:Generated_Source\PSoC4/cyfitter_cfg.c **** 			{0xA2u, 0x40u},
 508:Generated_Source\PSoC4/cyfitter_cfg.c **** 			{0xA9u, 0x71u},
 509:Generated_Source\PSoC4/cyfitter_cfg.c **** 			{0xAAu, 0x20u},
 510:Generated_Source\PSoC4/cyfitter_cfg.c **** 			{0xABu, 0x0Eu},
 511:Generated_Source\PSoC4/cyfitter_cfg.c **** 			{0xB0u, 0x1Fu},
 512:Generated_Source\PSoC4/cyfitter_cfg.c **** 			{0xB1u, 0xC0u},
 513:Generated_Source\PSoC4/cyfitter_cfg.c **** 			{0xB3u, 0x30u},
 514:Generated_Source\PSoC4/cyfitter_cfg.c **** 			{0xB4u, 0xE0u},
 515:Generated_Source\PSoC4/cyfitter_cfg.c **** 			{0xB5u, 0x0Fu},
 516:Generated_Source\PSoC4/cyfitter_cfg.c **** 			{0xB9u, 0x0Au},
 517:Generated_Source\PSoC4/cyfitter_cfg.c **** 			{0xBAu, 0x20u},
 518:Generated_Source\PSoC4/cyfitter_cfg.c **** 			{0xBBu, 0x20u},
 519:Generated_Source\PSoC4/cyfitter_cfg.c **** 			{0xBFu, 0x04u},
ARM GAS  C:\Users\alexport\AppData\Local\Temp\ccdq65cU.s 			page 19


 520:Generated_Source\PSoC4/cyfitter_cfg.c **** 			{0xC0u, 0x03u},
 521:Generated_Source\PSoC4/cyfitter_cfg.c **** 			{0xC5u, 0x40u},
 522:Generated_Source\PSoC4/cyfitter_cfg.c **** 			{0xC9u, 0xFFu},
 523:Generated_Source\PSoC4/cyfitter_cfg.c **** 			{0xCAu, 0x07u},
 524:Generated_Source\PSoC4/cyfitter_cfg.c **** 			{0xCBu, 0xFFu},
 525:Generated_Source\PSoC4/cyfitter_cfg.c **** 			{0xCCu, 0x40u},
 526:Generated_Source\PSoC4/cyfitter_cfg.c **** 			{0xCDu, 0x20u},
 527:Generated_Source\PSoC4/cyfitter_cfg.c **** 			{0xCEu, 0xF0u},
 528:Generated_Source\PSoC4/cyfitter_cfg.c **** 			{0xCFu, 0x05u},
 529:Generated_Source\PSoC4/cyfitter_cfg.c **** 			{0xD0u, 0x08u},
 530:Generated_Source\PSoC4/cyfitter_cfg.c **** 			{0xD8u, 0x04u},
 531:Generated_Source\PSoC4/cyfitter_cfg.c **** 			{0xD9u, 0x04u},
 532:Generated_Source\PSoC4/cyfitter_cfg.c **** 			{0xDAu, 0x04u},
 533:Generated_Source\PSoC4/cyfitter_cfg.c **** 			{0xDFu, 0x01u},
 534:Generated_Source\PSoC4/cyfitter_cfg.c **** 			{0xE0u, 0x40u},
 535:Generated_Source\PSoC4/cyfitter_cfg.c **** 			{0xE1u, 0xA8u},
 536:Generated_Source\PSoC4/cyfitter_cfg.c **** 			{0xE2u, 0x40u},
 537:Generated_Source\PSoC4/cyfitter_cfg.c **** 			{0xE3u, 0x20u},
 538:Generated_Source\PSoC4/cyfitter_cfg.c **** 			{0x00u, 0x48u},
 539:Generated_Source\PSoC4/cyfitter_cfg.c **** 			{0x06u, 0x81u},
 540:Generated_Source\PSoC4/cyfitter_cfg.c **** 			{0x07u, 0x14u},
 541:Generated_Source\PSoC4/cyfitter_cfg.c **** 			{0x08u, 0x08u},
 542:Generated_Source\PSoC4/cyfitter_cfg.c **** 			{0x09u, 0x20u},
 543:Generated_Source\PSoC4/cyfitter_cfg.c **** 			{0x0Bu, 0x41u},
 544:Generated_Source\PSoC4/cyfitter_cfg.c **** 			{0x0Eu, 0x06u},
 545:Generated_Source\PSoC4/cyfitter_cfg.c **** 			{0x0Fu, 0x40u},
 546:Generated_Source\PSoC4/cyfitter_cfg.c **** 			{0x10u, 0x84u},
 547:Generated_Source\PSoC4/cyfitter_cfg.c **** 			{0x15u, 0x11u},
 548:Generated_Source\PSoC4/cyfitter_cfg.c **** 			{0x16u, 0x12u},
 549:Generated_Source\PSoC4/cyfitter_cfg.c **** 			{0x18u, 0x40u},
 550:Generated_Source\PSoC4/cyfitter_cfg.c **** 			{0x19u, 0x10u},
 551:Generated_Source\PSoC4/cyfitter_cfg.c **** 			{0x1Au, 0x08u},
 552:Generated_Source\PSoC4/cyfitter_cfg.c **** 			{0x1Du, 0x20u},
 553:Generated_Source\PSoC4/cyfitter_cfg.c **** 			{0x1Eu, 0x40u},
 554:Generated_Source\PSoC4/cyfitter_cfg.c **** 			{0x1Fu, 0x04u},
 555:Generated_Source\PSoC4/cyfitter_cfg.c **** 			{0x20u, 0x08u},
 556:Generated_Source\PSoC4/cyfitter_cfg.c **** 			{0x21u, 0x14u},
 557:Generated_Source\PSoC4/cyfitter_cfg.c **** 			{0x23u, 0x40u},
 558:Generated_Source\PSoC4/cyfitter_cfg.c **** 			{0x24u, 0x08u},
 559:Generated_Source\PSoC4/cyfitter_cfg.c **** 			{0x27u, 0x50u},
 560:Generated_Source\PSoC4/cyfitter_cfg.c **** 			{0x28u, 0x08u},
 561:Generated_Source\PSoC4/cyfitter_cfg.c **** 			{0x29u, 0x10u},
 562:Generated_Source\PSoC4/cyfitter_cfg.c **** 			{0x2Au, 0x10u},
 563:Generated_Source\PSoC4/cyfitter_cfg.c **** 			{0x2Du, 0x40u},
 564:Generated_Source\PSoC4/cyfitter_cfg.c **** 			{0x2Fu, 0x04u},
 565:Generated_Source\PSoC4/cyfitter_cfg.c **** 			{0x30u, 0x94u},
 566:Generated_Source\PSoC4/cyfitter_cfg.c **** 			{0x31u, 0x24u},
 567:Generated_Source\PSoC4/cyfitter_cfg.c **** 			{0x33u, 0x04u},
 568:Generated_Source\PSoC4/cyfitter_cfg.c **** 			{0x36u, 0x01u},
 569:Generated_Source\PSoC4/cyfitter_cfg.c **** 			{0x37u, 0x10u},
 570:Generated_Source\PSoC4/cyfitter_cfg.c **** 			{0x39u, 0x20u},
 571:Generated_Source\PSoC4/cyfitter_cfg.c **** 			{0x3Bu, 0x40u},
 572:Generated_Source\PSoC4/cyfitter_cfg.c **** 			{0x3Du, 0x10u},
 573:Generated_Source\PSoC4/cyfitter_cfg.c **** 			{0x3Eu, 0x04u},
 574:Generated_Source\PSoC4/cyfitter_cfg.c **** 			{0x41u, 0x04u},
 575:Generated_Source\PSoC4/cyfitter_cfg.c **** 			{0x44u, 0x14u},
 576:Generated_Source\PSoC4/cyfitter_cfg.c **** 			{0x48u, 0x80u},
ARM GAS  C:\Users\alexport\AppData\Local\Temp\ccdq65cU.s 			page 20


 577:Generated_Source\PSoC4/cyfitter_cfg.c **** 			{0x49u, 0x04u},
 578:Generated_Source\PSoC4/cyfitter_cfg.c **** 			{0x4Eu, 0x04u},
 579:Generated_Source\PSoC4/cyfitter_cfg.c **** 			{0x4Fu, 0x01u},
 580:Generated_Source\PSoC4/cyfitter_cfg.c **** 			{0x54u, 0x40u},
 581:Generated_Source\PSoC4/cyfitter_cfg.c **** 			{0x55u, 0x01u},
 582:Generated_Source\PSoC4/cyfitter_cfg.c **** 			{0x56u, 0x41u},
 583:Generated_Source\PSoC4/cyfitter_cfg.c **** 			{0x5Cu, 0x02u},
 584:Generated_Source\PSoC4/cyfitter_cfg.c **** 			{0x5Du, 0x28u},
 585:Generated_Source\PSoC4/cyfitter_cfg.c **** 			{0x5Eu, 0x40u},
 586:Generated_Source\PSoC4/cyfitter_cfg.c **** 			{0x60u, 0x02u},
 587:Generated_Source\PSoC4/cyfitter_cfg.c **** 			{0x62u, 0x40u},
 588:Generated_Source\PSoC4/cyfitter_cfg.c **** 			{0x81u, 0x21u},
 589:Generated_Source\PSoC4/cyfitter_cfg.c **** 			{0x82u, 0x10u},
 590:Generated_Source\PSoC4/cyfitter_cfg.c **** 			{0x85u, 0x10u},
 591:Generated_Source\PSoC4/cyfitter_cfg.c **** 			{0x86u, 0x82u},
 592:Generated_Source\PSoC4/cyfitter_cfg.c **** 			{0x87u, 0x04u},
 593:Generated_Source\PSoC4/cyfitter_cfg.c **** 			{0x89u, 0x21u},
 594:Generated_Source\PSoC4/cyfitter_cfg.c **** 			{0x8Au, 0x02u},
 595:Generated_Source\PSoC4/cyfitter_cfg.c **** 			{0x8Du, 0x01u},
 596:Generated_Source\PSoC4/cyfitter_cfg.c **** 			{0x8Eu, 0x21u},
 597:Generated_Source\PSoC4/cyfitter_cfg.c **** 			{0x8Fu, 0x10u},
 598:Generated_Source\PSoC4/cyfitter_cfg.c **** 			{0x91u, 0x50u},
 599:Generated_Source\PSoC4/cyfitter_cfg.c **** 			{0x92u, 0x24u},
 600:Generated_Source\PSoC4/cyfitter_cfg.c **** 			{0x94u, 0x48u},
 601:Generated_Source\PSoC4/cyfitter_cfg.c **** 			{0x99u, 0x08u},
 602:Generated_Source\PSoC4/cyfitter_cfg.c **** 			{0x9Du, 0x01u},
 603:Generated_Source\PSoC4/cyfitter_cfg.c **** 			{0x9Eu, 0x02u},
 604:Generated_Source\PSoC4/cyfitter_cfg.c **** 			{0x9Fu, 0x40u},
 605:Generated_Source\PSoC4/cyfitter_cfg.c **** 			{0xA2u, 0x02u},
 606:Generated_Source\PSoC4/cyfitter_cfg.c **** 			{0xA4u, 0x40u},
 607:Generated_Source\PSoC4/cyfitter_cfg.c **** 			{0xA6u, 0x21u},
 608:Generated_Source\PSoC4/cyfitter_cfg.c **** 			{0xC0u, 0xF5u},
 609:Generated_Source\PSoC4/cyfitter_cfg.c **** 			{0xC2u, 0xDFu},
 610:Generated_Source\PSoC4/cyfitter_cfg.c **** 			{0xC4u, 0xFAu},
 611:Generated_Source\PSoC4/cyfitter_cfg.c **** 			{0xCAu, 0x34u},
 612:Generated_Source\PSoC4/cyfitter_cfg.c **** 			{0xCCu, 0xAEu},
 613:Generated_Source\PSoC4/cyfitter_cfg.c **** 			{0xCEu, 0x6Cu},
 614:Generated_Source\PSoC4/cyfitter_cfg.c **** 			{0xD0u, 0x62u},
 615:Generated_Source\PSoC4/cyfitter_cfg.c **** 			{0xD2u, 0x20u},
 616:Generated_Source\PSoC4/cyfitter_cfg.c **** 			{0xD6u, 0xF0u},
 617:Generated_Source\PSoC4/cyfitter_cfg.c **** 			{0xE4u, 0x04u},
 618:Generated_Source\PSoC4/cyfitter_cfg.c **** 			{0xE6u, 0x20u},
 619:Generated_Source\PSoC4/cyfitter_cfg.c **** 			{0x70u, 0x08u},
 620:Generated_Source\PSoC4/cyfitter_cfg.c **** 			{0x74u, 0x40u},
 621:Generated_Source\PSoC4/cyfitter_cfg.c **** 			{0x88u, 0x48u},
 622:Generated_Source\PSoC4/cyfitter_cfg.c **** 			{0xDCu, 0xC0u},
 623:Generated_Source\PSoC4/cyfitter_cfg.c **** 			{0x09u, 0x01u},
 624:Generated_Source\PSoC4/cyfitter_cfg.c **** 			{0x67u, 0x02u},
 625:Generated_Source\PSoC4/cyfitter_cfg.c **** 			{0x83u, 0x01u},
 626:Generated_Source\PSoC4/cyfitter_cfg.c **** 			{0x8Du, 0x01u},
 627:Generated_Source\PSoC4/cyfitter_cfg.c **** 			{0xC2u, 0x08u},
 628:Generated_Source\PSoC4/cyfitter_cfg.c **** 			{0xD6u, 0x01u},
 629:Generated_Source\PSoC4/cyfitter_cfg.c **** 			{0xE2u, 0x08u},
 630:Generated_Source\PSoC4/cyfitter_cfg.c **** 			{0x10u, 0x01u},
 631:Generated_Source\PSoC4/cyfitter_cfg.c **** 			{0x11u, 0x01u},
 632:Generated_Source\PSoC4/cyfitter_cfg.c **** 		};
 633:Generated_Source\PSoC4/cyfitter_cfg.c **** 
ARM GAS  C:\Users\alexport\AppData\Local\Temp\ccdq65cU.s 			page 21


 634:Generated_Source\PSoC4/cyfitter_cfg.c **** 
 635:Generated_Source\PSoC4/cyfitter_cfg.c **** 
 636:Generated_Source\PSoC4/cyfitter_cfg.c **** 		CYPACKED typedef struct {
 637:Generated_Source\PSoC4/cyfitter_cfg.c **** 			void CYFAR *address;
 638:Generated_Source\PSoC4/cyfitter_cfg.c **** 			uint16 size;
 639:Generated_Source\PSoC4/cyfitter_cfg.c **** 		} CYPACKED_ATTR cfg_memset_t;
 640:Generated_Source\PSoC4/cyfitter_cfg.c **** 
 641:Generated_Source\PSoC4/cyfitter_cfg.c **** 
 642:Generated_Source\PSoC4/cyfitter_cfg.c **** 		CYPACKED typedef struct {
 643:Generated_Source\PSoC4/cyfitter_cfg.c **** 			void CYFAR *dest;
 644:Generated_Source\PSoC4/cyfitter_cfg.c **** 			const void CYCODE *src;
 645:Generated_Source\PSoC4/cyfitter_cfg.c **** 			uint16 size;
 646:Generated_Source\PSoC4/cyfitter_cfg.c **** 		} CYPACKED_ATTR cfg_memcpy_t;
 647:Generated_Source\PSoC4/cyfitter_cfg.c **** 
 648:Generated_Source\PSoC4/cyfitter_cfg.c **** 		static const cfg_memset_t CYCODE cfg_memset_list[] = {
 649:Generated_Source\PSoC4/cyfitter_cfg.c **** 			/* address, size */
 650:Generated_Source\PSoC4/cyfitter_cfg.c **** 			{(void CYFAR *)(CYDEV_UDB_P0_U0_BASE), 128u},
 651:Generated_Source\PSoC4/cyfitter_cfg.c **** 			{(void CYFAR *)(CYDEV_UDB_P0_ROUTE_BASE), 768u},
 652:Generated_Source\PSoC4/cyfitter_cfg.c **** 			{(void CYFAR *)(CYDEV_UDB_DSI0_BASE), 1024u},
 653:Generated_Source\PSoC4/cyfitter_cfg.c **** 		};
 654:Generated_Source\PSoC4/cyfitter_cfg.c **** 
 655:Generated_Source\PSoC4/cyfitter_cfg.c **** 		/* UDB_0_1_1_CONFIG Address: CYDEV_UDB_P0_U1_BASE Size (bytes): 128 */
 656:Generated_Source\PSoC4/cyfitter_cfg.c **** 		static const uint8 CYCODE BS_UDB_0_1_1_CONFIG_VAL[] = {
 657:Generated_Source\PSoC4/cyfitter_cfg.c **** 			0x02u, 0x60u, 0x00u, 0x00u, 0x00u, 0x18u, 0x63u, 0x00u, 0x5Cu, 0x00u, 0x23u, 0x66u, 0x00u, 0x10u
 658:Generated_Source\PSoC4/cyfitter_cfg.c **** 			0x1Fu, 0x21u, 0x60u, 0x00u, 0x7Fu, 0x08u, 0x00u, 0x00u, 0x73u, 0xFFu, 0x0Cu, 0x00u, 0x01u, 0x19u
 659:Generated_Source\PSoC4/cyfitter_cfg.c **** 			0x08u, 0x40u, 0x00u, 0x00u, 0x04u, 0xE7u, 0x00u, 0x18u, 0x0Cu, 0x19u, 0x00u, 0xE4u, 0x03u, 0x00u
 660:Generated_Source\PSoC4/cyfitter_cfg.c **** 			0x2Cu, 0x60u, 0x10u, 0x1Fu, 0x0Fu, 0x00u, 0x4Cu, 0x80u, 0x00u, 0x80u, 0x22u, 0x28u, 0x00u, 0x00u
 661:Generated_Source\PSoC4/cyfitter_cfg.c **** 			0x26u, 0x03u, 0x05u, 0x00u, 0x01u, 0x0Cu, 0x00u, 0x0Eu, 0x11u, 0xFFu, 0xFFu, 0xFFu, 0x62u, 0xA0u
 662:Generated_Source\PSoC4/cyfitter_cfg.c **** 			0x0Cu, 0x00u, 0x00u, 0x00u, 0x00u, 0x00u, 0x02u, 0x11u, 0x04u, 0x04u, 0x04u, 0x04u, 0x00u, 0x00u
 663:Generated_Source\PSoC4/cyfitter_cfg.c **** 			0x00u, 0x00u, 0x00u, 0x00u, 0x00u, 0x00u, 0x40u, 0x02u, 0x00u, 0x10u, 0x30u, 0x10u, 0x00u, 0x10u
 664:Generated_Source\PSoC4/cyfitter_cfg.c **** 			0x00u, 0x00u, 0x00u, 0x00u, 0x00u, 0x00u, 0x00u, 0x00u, 0x00u, 0x00u, 0x00u, 0x00u, 0x00u, 0x00u
 665:Generated_Source\PSoC4/cyfitter_cfg.c **** 
 666:Generated_Source\PSoC4/cyfitter_cfg.c **** 		static const cfg_memcpy_t CYCODE cfg_memcpy_list [] = {
 667:Generated_Source\PSoC4/cyfitter_cfg.c **** 			/* dest, src, size */
 668:Generated_Source\PSoC4/cyfitter_cfg.c **** 			{(void CYFAR *)(CYDEV_UDB_P0_U1_BASE), BS_UDB_0_1_1_CONFIG_VAL, 128u},
 669:Generated_Source\PSoC4/cyfitter_cfg.c **** 		};
 670:Generated_Source\PSoC4/cyfitter_cfg.c **** 
 671:Generated_Source\PSoC4/cyfitter_cfg.c **** 		uint8 CYDATA i;
 672:Generated_Source\PSoC4/cyfitter_cfg.c **** 
 673:Generated_Source\PSoC4/cyfitter_cfg.c **** 		/* Zero out critical memory blocks before beginning configuration */
 674:Generated_Source\PSoC4/cyfitter_cfg.c **** 		for (i = 0u; i < (sizeof(cfg_memset_list)/sizeof(cfg_memset_list[0])); i++)
 505              		.loc 1 674 0
 506 0174 1723     		movs	r3, #23
 507 0176 FB18     		adds	r3, r7, r3
 508 0178 0022     		movs	r2, #0
 509 017a 1A70     		strb	r2, [r3]
 510 017c 25E0     		b	.L16
 511              	.L17:
 512              	.LBB4:
 675:Generated_Source\PSoC4/cyfitter_cfg.c **** 		{
 676:Generated_Source\PSoC4/cyfitter_cfg.c **** 			const cfg_memset_t CYCODE * CYDATA ms = &cfg_memset_list[i];
 513              		.loc 1 676 0 discriminator 3
 514 017e 1723     		movs	r3, #23
 515 0180 FB18     		adds	r3, r7, r3
 516 0182 1A78     		ldrb	r2, [r3]
 517 0184 1300     		movs	r3, r2
 518 0186 5B00     		lsls	r3, r3, #1
ARM GAS  C:\Users\alexport\AppData\Local\Temp\ccdq65cU.s 			page 22


 519 0188 9B18     		adds	r3, r3, r2
 520 018a 5B00     		lsls	r3, r3, #1
 521 018c 6F4A     		ldr	r2, .L20+8
 522 018e 9B18     		adds	r3, r3, r2
 523 0190 3B61     		str	r3, [r7, #16]
 677:Generated_Source\PSoC4/cyfitter_cfg.c **** 			CYMEMZERO(ms->address, (size_t)(uint32)(ms->size));
 524              		.loc 1 677 0 discriminator 3
 525 0192 3B69     		ldr	r3, [r7, #16]
 526 0194 1A78     		ldrb	r2, [r3]
 527 0196 5978     		ldrb	r1, [r3, #1]
 528 0198 0902     		lsls	r1, r1, #8
 529 019a 0A43     		orrs	r2, r1
 530 019c 9978     		ldrb	r1, [r3, #2]
 531 019e 0904     		lsls	r1, r1, #16
 532 01a0 0A43     		orrs	r2, r1
 533 01a2 DB78     		ldrb	r3, [r3, #3]
 534 01a4 1B06     		lsls	r3, r3, #24
 535 01a6 1343     		orrs	r3, r2
 536 01a8 1800     		movs	r0, r3
 537 01aa 3B69     		ldr	r3, [r7, #16]
 538 01ac 1A79     		ldrb	r2, [r3, #4]
 539 01ae 5B79     		ldrb	r3, [r3, #5]
 540 01b0 1B02     		lsls	r3, r3, #8
 541 01b2 1343     		orrs	r3, r2
 542 01b4 9BB2     		uxth	r3, r3
 543 01b6 1900     		movs	r1, r3
 544 01b8 FFF7FEFF 		bl	CYMEMZERO
 545              	.LBE4:
 674:Generated_Source\PSoC4/cyfitter_cfg.c **** 		{
 546              		.loc 1 674 0 discriminator 3
 547 01bc 1723     		movs	r3, #23
 548 01be FB18     		adds	r3, r7, r3
 549 01c0 1A78     		ldrb	r2, [r3]
 550 01c2 1723     		movs	r3, #23
 551 01c4 FB18     		adds	r3, r7, r3
 552 01c6 0132     		adds	r2, r2, #1
 553 01c8 1A70     		strb	r2, [r3]
 554              	.L16:
 674:Generated_Source\PSoC4/cyfitter_cfg.c **** 		{
 555              		.loc 1 674 0 is_stmt 0 discriminator 1
 556 01ca 1723     		movs	r3, #23
 557 01cc FB18     		adds	r3, r7, r3
 558 01ce 1B78     		ldrb	r3, [r3]
 559 01d0 022B     		cmp	r3, #2
 560 01d2 D4D9     		bls	.L17
 678:Generated_Source\PSoC4/cyfitter_cfg.c **** 		}
 679:Generated_Source\PSoC4/cyfitter_cfg.c **** 
 680:Generated_Source\PSoC4/cyfitter_cfg.c **** 		/* Copy device configuration data into registers */
 681:Generated_Source\PSoC4/cyfitter_cfg.c **** 		for (i = 0u; i < (sizeof(cfg_memcpy_list)/sizeof(cfg_memcpy_list[0])); i++)
 561              		.loc 1 681 0 is_stmt 1
 562 01d4 1723     		movs	r3, #23
 563 01d6 FB18     		adds	r3, r7, r3
 564 01d8 0022     		movs	r2, #0
 565 01da 1A70     		strb	r2, [r3]
 566 01dc 36E0     		b	.L18
 567              	.L19:
 568              	.LBB5:
ARM GAS  C:\Users\alexport\AppData\Local\Temp\ccdq65cU.s 			page 23


 682:Generated_Source\PSoC4/cyfitter_cfg.c **** 		{
 683:Generated_Source\PSoC4/cyfitter_cfg.c **** 			const cfg_memcpy_t CYCODE * CYDATA mc = &cfg_memcpy_list[i];
 569              		.loc 1 683 0 discriminator 3
 570 01de 1723     		movs	r3, #23
 571 01e0 FB18     		adds	r3, r7, r3
 572 01e2 1A78     		ldrb	r2, [r3]
 573 01e4 1300     		movs	r3, r2
 574 01e6 9B00     		lsls	r3, r3, #2
 575 01e8 9B18     		adds	r3, r3, r2
 576 01ea 5B00     		lsls	r3, r3, #1
 577 01ec 584A     		ldr	r2, .L20+12
 578 01ee 9B18     		adds	r3, r3, r2
 579 01f0 FB60     		str	r3, [r7, #12]
 684:Generated_Source\PSoC4/cyfitter_cfg.c **** 			void * CYDATA destPtr = mc->dest;
 580              		.loc 1 684 0 discriminator 3
 581 01f2 FB68     		ldr	r3, [r7, #12]
 582 01f4 1A78     		ldrb	r2, [r3]
 583 01f6 5978     		ldrb	r1, [r3, #1]
 584 01f8 0902     		lsls	r1, r1, #8
 585 01fa 0A43     		orrs	r2, r1
 586 01fc 9978     		ldrb	r1, [r3, #2]
 587 01fe 0904     		lsls	r1, r1, #16
 588 0200 0A43     		orrs	r2, r1
 589 0202 DB78     		ldrb	r3, [r3, #3]
 590 0204 1B06     		lsls	r3, r3, #24
 591 0206 1343     		orrs	r3, r2
 592 0208 BB60     		str	r3, [r7, #8]
 685:Generated_Source\PSoC4/cyfitter_cfg.c **** 			const void CYCODE * CYDATA srcPtr = mc->src;
 593              		.loc 1 685 0 discriminator 3
 594 020a FB68     		ldr	r3, [r7, #12]
 595 020c 1A79     		ldrb	r2, [r3, #4]
 596 020e 5979     		ldrb	r1, [r3, #5]
 597 0210 0902     		lsls	r1, r1, #8
 598 0212 0A43     		orrs	r2, r1
 599 0214 9979     		ldrb	r1, [r3, #6]
 600 0216 0904     		lsls	r1, r1, #16
 601 0218 0A43     		orrs	r2, r1
 602 021a DB79     		ldrb	r3, [r3, #7]
 603 021c 1B06     		lsls	r3, r3, #24
 604 021e 1343     		orrs	r3, r2
 605 0220 7B60     		str	r3, [r7, #4]
 686:Generated_Source\PSoC4/cyfitter_cfg.c **** 			uint16 CYDATA numBytes = mc->size;
 606              		.loc 1 686 0 discriminator 3
 607 0222 BA1C     		adds	r2, r7, #2
 608 0224 FB68     		ldr	r3, [r7, #12]
 609 0226 197A     		ldrb	r1, [r3, #8]
 610 0228 5B7A     		ldrb	r3, [r3, #9]
 611 022a 1B02     		lsls	r3, r3, #8
 612 022c 0B43     		orrs	r3, r1
 613 022e 1380     		strh	r3, [r2]
 687:Generated_Source\PSoC4/cyfitter_cfg.c **** 			CYCONFIGCPYCODE(destPtr, srcPtr, numBytes);
 614              		.loc 1 687 0 discriminator 3
 615 0230 BB1C     		adds	r3, r7, #2
 616 0232 1A88     		ldrh	r2, [r3]
 617 0234 7968     		ldr	r1, [r7, #4]
 618 0236 BB68     		ldr	r3, [r7, #8]
 619 0238 1800     		movs	r0, r3
ARM GAS  C:\Users\alexport\AppData\Local\Temp\ccdq65cU.s 			page 24


 620 023a FFF7FEFF 		bl	CYCONFIGCPYCODE
 621              	.LBE5:
 681:Generated_Source\PSoC4/cyfitter_cfg.c **** 		{
 622              		.loc 1 681 0 discriminator 3
 623 023e 1723     		movs	r3, #23
 624 0240 FB18     		adds	r3, r7, r3
 625 0242 1A78     		ldrb	r2, [r3]
 626 0244 1723     		movs	r3, #23
 627 0246 FB18     		adds	r3, r7, r3
 628 0248 0132     		adds	r2, r2, #1
 629 024a 1A70     		strb	r2, [r3]
 630              	.L18:
 681:Generated_Source\PSoC4/cyfitter_cfg.c **** 		{
 631              		.loc 1 681 0 is_stmt 0 discriminator 1
 632 024c 1723     		movs	r3, #23
 633 024e FB18     		adds	r3, r7, r3
 634 0250 1B78     		ldrb	r3, [r3]
 635 0252 002B     		cmp	r3, #0
 636 0254 C3D0     		beq	.L19
 688:Generated_Source\PSoC4/cyfitter_cfg.c **** 		}
 689:Generated_Source\PSoC4/cyfitter_cfg.c **** 
 690:Generated_Source\PSoC4/cyfitter_cfg.c **** 		cfg_write_bytes32(cy_cfg_addr_table, cy_cfg_data_table);
 637              		.loc 1 690 0 is_stmt 1
 638 0256 3F4A     		ldr	r2, .L20+16
 639 0258 3F4B     		ldr	r3, .L20+20
 640 025a 1100     		movs	r1, r2
 641 025c 1800     		movs	r0, r3
 642 025e FFF7FEFF 		bl	cfg_write_bytes32
 691:Generated_Source\PSoC4/cyfitter_cfg.c **** 
 692:Generated_Source\PSoC4/cyfitter_cfg.c **** 		/* Perform normal device configuration. Order is not critical for these items. */
 693:Generated_Source\PSoC4/cyfitter_cfg.c **** 		CY_SET_REG16((void *)(CYREG_UDB_BCTL0_DRV), 0x0100u);
 643              		.loc 1 693 0
 644 0262 3E4B     		ldr	r3, .L20+24
 645 0264 8022     		movs	r2, #128
 646 0266 5200     		lsls	r2, r2, #1
 647 0268 1A80     		strh	r2, [r3]
 694:Generated_Source\PSoC4/cyfitter_cfg.c **** 		CY_SET_REG8((void *)(CYREG_UDB_BCTL0_DRV + 0x2u), 0x01u);
 648              		.loc 1 694 0
 649 026a 3D4B     		ldr	r3, .L20+28
 650 026c 0122     		movs	r2, #1
 651 026e 1A70     		strb	r2, [r3]
 695:Generated_Source\PSoC4/cyfitter_cfg.c **** 
 696:Generated_Source\PSoC4/cyfitter_cfg.c **** 		/* HSIOM Starting address: CYDEV_HSIOM_BASE */
 697:Generated_Source\PSoC4/cyfitter_cfg.c **** 		CY_SET_REG32((void *)(CYDEV_HSIOM_BASE), 0xEEEE0090u);
 652              		.loc 1 697 0
 653 0270 3C4B     		ldr	r3, .L20+32
 654 0272 3D4A     		ldr	r2, .L20+36
 655 0274 1A60     		str	r2, [r3]
 698:Generated_Source\PSoC4/cyfitter_cfg.c **** 		CY_SET_REG32((void *)(CYREG_HSIOM_PORT_SEL3), 0x00300000u);
 656              		.loc 1 698 0
 657 0276 3D4B     		ldr	r3, .L20+40
 658 0278 C022     		movs	r2, #192
 659 027a 9203     		lsls	r2, r2, #14
 660 027c 1A60     		str	r2, [r3]
 699:Generated_Source\PSoC4/cyfitter_cfg.c **** 		CY_SET_REG32((void *)(CYREG_HSIOM_PORT_SEL5), 0x00000009u);
 661              		.loc 1 699 0
 662 027e 3C4B     		ldr	r3, .L20+44
ARM GAS  C:\Users\alexport\AppData\Local\Temp\ccdq65cU.s 			page 25


 663 0280 0922     		movs	r2, #9
 664 0282 1A60     		str	r2, [r3]
 700:Generated_Source\PSoC4/cyfitter_cfg.c **** 
 701:Generated_Source\PSoC4/cyfitter_cfg.c **** 		/* UDB_PA_0 Starting address: CYDEV_UDB_PA0_BASE */
 702:Generated_Source\PSoC4/cyfitter_cfg.c **** 		CY_SET_REG32((void *)(CYDEV_UDB_PA0_BASE), 0x00990000u);
 665              		.loc 1 702 0
 666 0284 3B4B     		ldr	r3, .L20+48
 667 0286 9922     		movs	r2, #153
 668 0288 1204     		lsls	r2, r2, #16
 669 028a 1A60     		str	r2, [r3]
 703:Generated_Source\PSoC4/cyfitter_cfg.c **** 
 704:Generated_Source\PSoC4/cyfitter_cfg.c **** 		/* UDB_PA_1 Starting address: CYDEV_UDB_PA1_BASE */
 705:Generated_Source\PSoC4/cyfitter_cfg.c **** 		CY_SET_REG32((void *)(CYDEV_UDB_PA1_BASE), 0x00990000u);
 670              		.loc 1 705 0
 671 028c 3A4B     		ldr	r3, .L20+52
 672 028e 9922     		movs	r2, #153
 673 0290 1204     		lsls	r2, r2, #16
 674 0292 1A60     		str	r2, [r3]
 706:Generated_Source\PSoC4/cyfitter_cfg.c **** 
 707:Generated_Source\PSoC4/cyfitter_cfg.c **** 		/* UDB_PA_2 Starting address: CYDEV_UDB_PA2_BASE */
 708:Generated_Source\PSoC4/cyfitter_cfg.c **** 		CY_SET_REG32((void *)(CYDEV_UDB_PA2_BASE), 0x00990000u);
 675              		.loc 1 708 0
 676 0294 394B     		ldr	r3, .L20+56
 677 0296 9922     		movs	r2, #153
 678 0298 1204     		lsls	r2, r2, #16
 679 029a 1A60     		str	r2, [r3]
 709:Generated_Source\PSoC4/cyfitter_cfg.c **** 
 710:Generated_Source\PSoC4/cyfitter_cfg.c **** 		/* UDB_PA_3 Starting address: CYDEV_UDB_PA3_BASE */
 711:Generated_Source\PSoC4/cyfitter_cfg.c **** 		CY_SET_REG32((void *)(CYDEV_UDB_PA3_BASE), 0x00990004u);
 680              		.loc 1 711 0
 681 029c 384B     		ldr	r3, .L20+60
 682 029e 394A     		ldr	r2, .L20+64
 683 02a0 1A60     		str	r2, [r3]
 712:Generated_Source\PSoC4/cyfitter_cfg.c **** 		CY_SET_REG32((void *)(CYREG_UDB_PA3_CFG4), 0x02000000u);
 684              		.loc 1 712 0
 685 02a2 394B     		ldr	r3, .L20+68
 686 02a4 8022     		movs	r2, #128
 687 02a6 9204     		lsls	r2, r2, #18
 688 02a8 1A60     		str	r2, [r3]
 713:Generated_Source\PSoC4/cyfitter_cfg.c **** 		CY_SET_REG32((void *)(CYREG_UDB_PA3_CFG8), 0x04000000u);
 689              		.loc 1 713 0
 690 02aa 384B     		ldr	r3, .L20+72
 691 02ac 8022     		movs	r2, #128
 692 02ae D204     		lsls	r2, r2, #19
 693 02b0 1A60     		str	r2, [r3]
 714:Generated_Source\PSoC4/cyfitter_cfg.c **** 
 715:Generated_Source\PSoC4/cyfitter_cfg.c **** 		/* INT_SELECT Starting address: CYDEV_CPUSS_INT_SEL */
 716:Generated_Source\PSoC4/cyfitter_cfg.c **** 		CY_SET_REG32((void *)(CYREG_CPUSS_INT_SEL), 0x00000018u);
 694              		.loc 1 716 0
 695 02b2 374B     		ldr	r3, .L20+76
 696 02b4 1822     		movs	r2, #24
 697 02b6 1A60     		str	r2, [r3]
 717:Generated_Source\PSoC4/cyfitter_cfg.c **** 
 718:Generated_Source\PSoC4/cyfitter_cfg.c **** 		/* INT_CONFIG Starting address: CYDEV_UDB_INT_CFG */
 719:Generated_Source\PSoC4/cyfitter_cfg.c **** 		CY_SET_REG32((void *)(CYREG_UDB_INT_CFG), 0x00000018u);
 698              		.loc 1 719 0
 699 02b8 364B     		ldr	r3, .L20+80
ARM GAS  C:\Users\alexport\AppData\Local\Temp\ccdq65cU.s 			page 26


 700 02ba 1822     		movs	r2, #24
 701 02bc 1A60     		str	r2, [r3]
 720:Generated_Source\PSoC4/cyfitter_cfg.c **** 
 721:Generated_Source\PSoC4/cyfitter_cfg.c **** 		/* Enable UDB array and digital routing */
 722:Generated_Source\PSoC4/cyfitter_cfg.c **** 		CY_SET_XTND_REG8((void *)CYREG_UDB_UDBIF_WAIT_CFG, (uint8)((CY_GET_XTND_REG8((void *)CYREG_UDB_UD
 702              		.loc 1 722 0
 703 02be 364A     		ldr	r2, .L20+84
 704 02c0 354B     		ldr	r3, .L20+84
 705 02c2 1B78     		ldrb	r3, [r3]
 706 02c4 DBB2     		uxtb	r3, r3
 707 02c6 3C21     		movs	r1, #60
 708 02c8 8B43     		bics	r3, r1
 709 02ca DBB2     		uxtb	r3, r3
 710 02cc 1421     		movs	r1, #20
 711 02ce 0B43     		orrs	r3, r1
 712 02d0 DBB2     		uxtb	r3, r3
 713 02d2 1370     		strb	r3, [r2]
 723:Generated_Source\PSoC4/cyfitter_cfg.c **** 		CY_SET_XTND_REG8((void *)CYREG_UDB_UDBIF_BANK_CTL, (uint8)(CY_GET_XTND_REG8((void *)CYREG_UDB_UDB
 714              		.loc 1 723 0
 715 02d4 314A     		ldr	r2, .L20+88
 716 02d6 314B     		ldr	r3, .L20+88
 717 02d8 1B78     		ldrb	r3, [r3]
 718 02da DBB2     		uxtb	r3, r3
 719 02dc 1621     		movs	r1, #22
 720 02de 0B43     		orrs	r3, r1
 721 02e0 DBB2     		uxtb	r3, r3
 722 02e2 1370     		strb	r3, [r2]
 723              	.LBE3:
 724:Generated_Source\PSoC4/cyfitter_cfg.c **** 	}
 725:Generated_Source\PSoC4/cyfitter_cfg.c **** 
 726:Generated_Source\PSoC4/cyfitter_cfg.c **** 	/* Perform second pass device configuration. These items must be configured in specific order afte
 727:Generated_Source\PSoC4/cyfitter_cfg.c **** 	/* IOPINS0_0 Starting address: CYDEV_GPIO_PRT0_BASE */
 728:Generated_Source\PSoC4/cyfitter_cfg.c **** 	CY_SET_REG32((void *)(CYDEV_GPIO_PRT0_BASE), 0x00000032u);
 724              		.loc 1 728 0
 725 02e4 2E4B     		ldr	r3, .L20+92
 726 02e6 3222     		movs	r2, #50
 727 02e8 1A60     		str	r2, [r3]
 729:Generated_Source\PSoC4/cyfitter_cfg.c **** 	CY_SET_REG32((void *)(CYREG_GPIO_PRT0_PC), 0x00DA4DB0u);
 728              		.loc 1 729 0
 729 02ea 2E4B     		ldr	r3, .L20+96
 730 02ec 2E4A     		ldr	r2, .L20+100
 731 02ee 1A60     		str	r2, [r3]
 730:Generated_Source\PSoC4/cyfitter_cfg.c **** 	CY_SET_REG32((void *)(CYREG_GPIO_PRT0_PC2), 0x00000002u);
 732              		.loc 1 730 0
 733 02f0 2E4B     		ldr	r3, .L20+104
 734 02f2 0222     		movs	r2, #2
 735 02f4 1A60     		str	r2, [r3]
 731:Generated_Source\PSoC4/cyfitter_cfg.c **** 
 732:Generated_Source\PSoC4/cyfitter_cfg.c **** 	/* IOPINS0_1 Starting address: CYDEV_GPIO_PRT1_BASE */
 733:Generated_Source\PSoC4/cyfitter_cfg.c **** 	CY_SET_REG32((void *)(CYDEV_GPIO_PRT1_BASE), 0x00000031u);
 736              		.loc 1 733 0
 737 02f6 2E4B     		ldr	r3, .L20+108
 738 02f8 3122     		movs	r2, #49
 739 02fa 1A60     		str	r2, [r3]
 734:Generated_Source\PSoC4/cyfitter_cfg.c **** 	CY_SET_REG32((void *)(CYREG_GPIO_PRT1_PC), 0x000120C1u);
 740              		.loc 1 734 0
 741 02fc 2D4B     		ldr	r3, .L20+112
ARM GAS  C:\Users\alexport\AppData\Local\Temp\ccdq65cU.s 			page 27


 742 02fe 2E4A     		ldr	r2, .L20+116
 743 0300 1A60     		str	r2, [r3]
 735:Generated_Source\PSoC4/cyfitter_cfg.c **** 	CY_SET_REG32((void *)(CYREG_GPIO_PRT1_INTR_CFG), 0x00000F00u);
 744              		.loc 1 735 0
 745 0302 2E4B     		ldr	r3, .L20+120
 746 0304 F022     		movs	r2, #240
 747 0306 1201     		lsls	r2, r2, #4
 748 0308 1A60     		str	r2, [r3]
 736:Generated_Source\PSoC4/cyfitter_cfg.c **** 
 737:Generated_Source\PSoC4/cyfitter_cfg.c **** 	/* IOPINS0_2 Starting address: CYDEV_GPIO_PRT2_BASE */
 738:Generated_Source\PSoC4/cyfitter_cfg.c **** 	CY_SET_REG32((void *)(CYDEV_GPIO_PRT2_BASE), 0x00000006u);
 749              		.loc 1 738 0
 750 030a 2D4B     		ldr	r3, .L20+124
 751 030c 0622     		movs	r2, #6
 752 030e 1A60     		str	r2, [r3]
 739:Generated_Source\PSoC4/cyfitter_cfg.c **** 	CY_SET_REG32((void *)(CYREG_GPIO_PRT2_PC), 0x00181290u);
 753              		.loc 1 739 0
 754 0310 2C4B     		ldr	r3, .L20+128
 755 0312 2D4A     		ldr	r2, .L20+132
 756 0314 1A60     		str	r2, [r3]
 740:Generated_Source\PSoC4/cyfitter_cfg.c **** 	CY_SET_REG32((void *)(CYREG_GPIO_PRT2_INTR_CFG), 0x0000003Cu);
 757              		.loc 1 740 0
 758 0316 2D4B     		ldr	r3, .L20+136
 759 0318 3C22     		movs	r2, #60
 760 031a 1A60     		str	r2, [r3]
 741:Generated_Source\PSoC4/cyfitter_cfg.c **** 
 742:Generated_Source\PSoC4/cyfitter_cfg.c **** 	/* IOPINS0_3 Starting address: CYDEV_GPIO_PRT3_BASE */
 743:Generated_Source\PSoC4/cyfitter_cfg.c **** 	CY_SET_REG32((void *)(CYDEV_GPIO_PRT3_BASE), 0x00000020u);
 761              		.loc 1 743 0
 762 031c 2C4B     		ldr	r3, .L20+140
 763 031e 2022     		movs	r2, #32
 764 0320 1A60     		str	r2, [r3]
 744:Generated_Source\PSoC4/cyfitter_cfg.c **** 	CY_SET_REG32((void *)(CYREG_GPIO_PRT3_PC), 0x00DB1001u);
 765              		.loc 1 744 0
 766 0322 2C4B     		ldr	r3, .L20+144
 767 0324 2C4A     		ldr	r2, .L20+148
 768 0326 1A60     		str	r2, [r3]
 745:Generated_Source\PSoC4/cyfitter_cfg.c **** 
 746:Generated_Source\PSoC4/cyfitter_cfg.c **** 	/* IOPINS0_5 Starting address: CYDEV_GPIO_PRT5_BASE */
 747:Generated_Source\PSoC4/cyfitter_cfg.c **** 	CY_SET_REG32((void *)(CYREG_GPIO_PRT5_PC), 0x00000001u);
 769              		.loc 1 747 0
 770 0328 2C4B     		ldr	r3, .L20+152
 771 032a 0122     		movs	r2, #1
 772 032c 1A60     		str	r2, [r3]
 748:Generated_Source\PSoC4/cyfitter_cfg.c **** 	CY_SET_REG32((void *)(CYREG_GPIO_PRT5_INTR_CFG), 0x00000002u);
 773              		.loc 1 748 0
 774 032e 2C4B     		ldr	r3, .L20+156
 775 0330 0222     		movs	r2, #2
 776 0332 1A60     		str	r2, [r3]
 749:Generated_Source\PSoC4/cyfitter_cfg.c **** 
 750:Generated_Source\PSoC4/cyfitter_cfg.c **** 
 751:Generated_Source\PSoC4/cyfitter_cfg.c **** 	/* Setup clocks based on selections from Clock DWR */
 752:Generated_Source\PSoC4/cyfitter_cfg.c **** 	ClockSetup();
 777              		.loc 1 752 0
 778 0334 FFF764FE 		bl	ClockSetup
 753:Generated_Source\PSoC4/cyfitter_cfg.c **** 
 754:Generated_Source\PSoC4/cyfitter_cfg.c **** 	/* Perform basic analog initialization to defaults */
ARM GAS  C:\Users\alexport\AppData\Local\Temp\ccdq65cU.s 			page 28


 755:Generated_Source\PSoC4/cyfitter_cfg.c **** 	AnalogSetDefault();
 779              		.loc 1 755 0
 780 0338 FFF7FEFF 		bl	AnalogSetDefault
 756:Generated_Source\PSoC4/cyfitter_cfg.c **** 
 757:Generated_Source\PSoC4/cyfitter_cfg.c **** }
 781              		.loc 1 757 0
 782 033c C046     		nop
 783 033e BD46     		mov	sp, r7
 784 0340 06B0     		add	sp, sp, #24
 785              		@ sp needed
 786 0342 80BD     		pop	{r7, pc}
 787              	.L21:
 788              		.align	2
 789              	.L20:
 790 0344 6CF02E40 		.word	1076818028
 791 0348 1C700F40 		.word	1074753564
 792 034c 00000000 		.word	cfg_memset_list.4921
 793 0350 14000000 		.word	cfg_memcpy_list.4923
 794 0354 40000000 		.word	cy_cfg_data_table.4911
 795 0358 20000000 		.word	cy_cfg_addr_table.4910
 796 035c 00600F40 		.word	1074749440
 797 0360 02600F40 		.word	1074749442
 798 0364 00000240 		.word	1073872896
 799 0368 9000EEEE 		.word	-286392176
 800 036c 00030240 		.word	1073873664
 801 0370 00050240 		.word	1073874176
 802 0374 00500F40 		.word	1074745344
 803 0378 10500F40 		.word	1074745360
 804 037c 20500F40 		.word	1074745376
 805 0380 30500F40 		.word	1074745392
 806 0384 04009900 		.word	10027012
 807 0388 34500F40 		.word	1074745396
 808 038c 38500F40 		.word	1074745400
 809 0390 20001040 		.word	1074790432
 810 0394 00800F40 		.word	1074757632
 811 0398 01700F40 		.word	1074753537
 812 039c 00700F40 		.word	1074753536
 813 03a0 00000440 		.word	1074003968
 814 03a4 08000440 		.word	1074003976
 815 03a8 B04DDA00 		.word	14306736
 816 03ac 18000440 		.word	1074003992
 817 03b0 00010440 		.word	1074004224
 818 03b4 08010440 		.word	1074004232
 819 03b8 C1200100 		.word	73921
 820 03bc 0C010440 		.word	1074004236
 821 03c0 00020440 		.word	1074004480
 822 03c4 08020440 		.word	1074004488
 823 03c8 90121800 		.word	1577616
 824 03cc 0C020440 		.word	1074004492
 825 03d0 00030440 		.word	1074004736
 826 03d4 08030440 		.word	1074004744
 827 03d8 0110DB00 		.word	14356481
 828 03dc 08050440 		.word	1074005256
 829 03e0 0C050440 		.word	1074005260
 830              		.cfi_endproc
 831              	.LFE8:
 832              		.size	cyfitter_cfg, .-cyfitter_cfg
ARM GAS  C:\Users\alexport\AppData\Local\Temp\ccdq65cU.s 			page 29


 833              		.section	.rodata
 834              		.align	2
 835              		.type	cfg_memset_list.4921, %object
 836              		.size	cfg_memset_list.4921, 18
 837              	cfg_memset_list.4921:
 838 0000 00300F40 		.word	1074737152
 839 0004 8000     		.short	128
 840 0006 00310F40 		.4byte	1074737408
 841 000a 0003     		.short	768
 842 000c 00400F40 		.word	1074741248
 843 0010 0004     		.short	1024
 844 0012 0000     		.align	2
 845              		.type	cfg_memcpy_list.4923, %object
 846              		.size	cfg_memcpy_list.4923, 10
 847              	cfg_memcpy_list.4923:
 848 0014 80300F40 		.word	1074737280
 849 0018 74020000 		.word	BS_UDB_0_1_1_CONFIG_VAL.4922
 850 001c 8000     		.short	128
 851 001e 0000     		.align	2
 852              		.type	cy_cfg_addr_table.4910, %object
 853              		.size	cy_cfg_addr_table.4910, 32
 854              	cy_cfg_addr_table.4910:
 855 0020 03000F40 		.word	1074724867
 856 0024 14300F40 		.word	1074737172
 857 0028 3B310F40 		.word	1074737467
 858 002c 6A320F40 		.word	1074737770
 859 0030 51330F40 		.word	1074738001
 860 0034 04410F40 		.word	1074741508
 861 0038 07430F40 		.word	1074742023
 862 003c 02600F40 		.word	1074749442
 863              		.align	2
 864              		.type	cy_cfg_data_table.4911, %object
 865              		.size	cy_cfg_data_table.4911, 564
 866              	cy_cfg_data_table.4911:
 867 0040 80       		.byte	-128
 868 0041 38       		.byte	56
 869 0042 81       		.byte	-127
 870 0043 72       		.byte	114
 871 0044 82       		.byte	-126
 872 0045 0F       		.byte	15
 873 0046 06       		.byte	6
 874 0047 08       		.byte	8
 875 0048 0C       		.byte	12
 876 0049 04       		.byte	4
 877 004a 0D       		.byte	13
 878 004b 01       		.byte	1
 879 004c 12       		.byte	18
 880 004d 02       		.byte	2
 881 004e 16       		.byte	22
 882 004f 01       		.byte	1
 883 0050 26       		.byte	38
 884 0051 02       		.byte	2
 885 0052 2E       		.byte	46
 886 0053 01       		.byte	1
 887 0054 30       		.byte	48
 888 0055 08       		.byte	8
 889 0056 32       		.byte	50
ARM GAS  C:\Users\alexport\AppData\Local\Temp\ccdq65cU.s 			page 30


 890 0057 04       		.byte	4
 891 0058 34       		.byte	52
 892 0059 01       		.byte	1
 893 005a 35       		.byte	53
 894 005b 01       		.byte	1
 895 005c 36       		.byte	54
 896 005d 02       		.byte	2
 897 005e 3E       		.byte	62
 898 005f 54       		.byte	84
 899 0060 3F       		.byte	63
 900 0061 10       		.byte	16
 901 0062 54       		.byte	84
 902 0063 18       		.byte	24
 903 0064 56       		.byte	86
 904 0065 04       		.byte	4
 905 0066 58       		.byte	88
 906 0067 04       		.byte	4
 907 0068 59       		.byte	89
 908 0069 04       		.byte	4
 909 006a 5B       		.byte	91
 910 006b 04       		.byte	4
 911 006c 5F       		.byte	95
 912 006d 01       		.byte	1
 913 006e 00       		.byte	0
 914 006f 80       		.byte	-128
 915 0070 02       		.byte	2
 916 0071 20       		.byte	32
 917 0072 04       		.byte	4
 918 0073 A8       		.byte	-88
 919 0074 05       		.byte	5
 920 0075 23       		.byte	35
 921 0076 07       		.byte	7
 922 0077 01       		.byte	1
 923 0078 09       		.byte	9
 924 0079 08       		.byte	8
 925 007a 0B       		.byte	11
 926 007b 80       		.byte	-128
 927 007c 0E       		.byte	14
 928 007d 6A       		.byte	106
 929 007e 10       		.byte	16
 930 007f 20       		.byte	32
 931 0080 11       		.byte	17
 932 0081 80       		.byte	-128
 933 0082 16       		.byte	22
 934 0083 82       		.byte	-126
 935 0084 17       		.byte	23
 936 0085 1A       		.byte	26
 937 0086 18       		.byte	24
 938 0087 04       		.byte	4
 939 0088 19       		.byte	25
 940 0089 48       		.byte	72
 941 008a 1B       		.byte	27
 942 008b 02       		.byte	2
 943 008c 1C       		.byte	28
 944 008d 10       		.byte	16
 945 008e 1D       		.byte	29
 946 008f 20       		.byte	32
ARM GAS  C:\Users\alexport\AppData\Local\Temp\ccdq65cU.s 			page 31


 947 0090 1E       		.byte	30
 948 0091 C8       		.byte	-56
 949 0092 1F       		.byte	31
 950 0093 50       		.byte	80
 951 0094 22       		.byte	34
 952 0095 10       		.byte	16
 953 0096 24       		.byte	36
 954 0097 A0       		.byte	-96
 955 0098 25       		.byte	37
 956 0099 40       		.byte	64
 957 009a 26       		.byte	38
 958 009b 10       		.byte	16
 959 009c 27       		.byte	39
 960 009d 04       		.byte	4
 961 009e 2D       		.byte	45
 962 009f 22       		.byte	34
 963 00a0 2F       		.byte	47
 964 00a1 12       		.byte	18
 965 00a2 36       		.byte	54
 966 00a3 51       		.byte	81
 967 00a4 37       		.byte	55
 968 00a5 08       		.byte	8
 969 00a6 38       		.byte	56
 970 00a7 40       		.byte	64
 971 00a8 3C       		.byte	60
 972 00a9 08       		.byte	8
 973 00aa 3E       		.byte	62
 974 00ab 82       		.byte	-126
 975 00ac 3F       		.byte	63
 976 00ad 20       		.byte	32
 977 00ae 45       		.byte	69
 978 00af 20       		.byte	32
 979 00b0 47       		.byte	71
 980 00b1 44       		.byte	68
 981 00b2 49       		.byte	73
 982 00b3 80       		.byte	-128
 983 00b4 4B       		.byte	75
 984 00b5 80       		.byte	-128
 985 00b6 4C       		.byte	76
 986 00b7 24       		.byte	36
 987 00b8 4D       		.byte	77
 988 00b9 80       		.byte	-128
 989 00ba 4F       		.byte	79
 990 00bb 20       		.byte	32
 991 00bc 55       		.byte	85
 992 00bd 08       		.byte	8
 993 00be 5B       		.byte	91
 994 00bf 01       		.byte	1
 995 00c0 5C       		.byte	92
 996 00c1 10       		.byte	16
 997 00c2 60       		.byte	96
 998 00c3 04       		.byte	4
 999 00c4 61       		.byte	97
 1000 00c5 40       		.byte	64
 1001 00c6 62       		.byte	98
 1002 00c7 02       		.byte	2
 1003 00c8 6D       		.byte	109
ARM GAS  C:\Users\alexport\AppData\Local\Temp\ccdq65cU.s 			page 32


 1004 00c9 50       		.byte	80
 1005 00ca 6E       		.byte	110
 1006 00cb 04       		.byte	4
 1007 00cc 74       		.byte	116
 1008 00cd 04       		.byte	4
 1009 00ce 77       		.byte	119
 1010 00cf 1A       		.byte	26
 1011 00d0 C0       		.byte	-64
 1012 00d1 75       		.byte	117
 1013 00d2 C2       		.byte	-62
 1014 00d3 FC       		.byte	-4
 1015 00d4 C4       		.byte	-60
 1016 00d5 F5       		.byte	-11
 1017 00d6 CA       		.byte	-54
 1018 00d7 F0       		.byte	-16
 1019 00d8 CC       		.byte	-52
 1020 00d9 F0       		.byte	-16
 1021 00da CE       		.byte	-50
 1022 00db F8       		.byte	-8
 1023 00dc D0       		.byte	-48
 1024 00dd 70       		.byte	112
 1025 00de D2       		.byte	-46
 1026 00df 30       		.byte	48
 1027 00e0 D6       		.byte	-42
 1028 00e1 21       		.byte	33
 1029 00e2 D8       		.byte	-40
 1030 00e3 0D       		.byte	13
 1031 00e4 00       		.byte	0
 1032 00e5 0A       		.byte	10
 1033 00e6 02       		.byte	2
 1034 00e7 14       		.byte	20
 1035 00e8 04       		.byte	4
 1036 00e9 80       		.byte	-128
 1037 00ea 05       		.byte	5
 1038 00eb 13       		.byte	19
 1039 00ec 06       		.byte	6
 1040 00ed 40       		.byte	64
 1041 00ee 09       		.byte	9
 1042 00ef 13       		.byte	19
 1043 00f0 0A       		.byte	10
 1044 00f1 15       		.byte	21
 1045 00f2 0C       		.byte	12
 1046 00f3 03       		.byte	3
 1047 00f4 0E       		.byte	14
 1048 00f5 14       		.byte	20
 1049 00f6 11       		.byte	17
 1050 00f7 01       		.byte	1
 1051 00f8 12       		.byte	18
 1052 00f9 08       		.byte	8
 1053 00fa 13       		.byte	19
 1054 00fb 06       		.byte	6
 1055 00fc 18       		.byte	24
 1056 00fd E0       		.byte	-32
 1057 00fe 19       		.byte	25
 1058 00ff 02       		.byte	2
 1059 0100 1B       		.byte	27
 1060 0101 05       		.byte	5
ARM GAS  C:\Users\alexport\AppData\Local\Temp\ccdq65cU.s 			page 33


 1061 0102 1C       		.byte	28
 1062 0103 20       		.byte	32
 1063 0104 1E       		.byte	30
 1064 0105 40       		.byte	64
 1065 0106 20       		.byte	32
 1066 0107 13       		.byte	19
 1067 0108 22       		.byte	34
 1068 0109 0C       		.byte	12
 1069 010a 24       		.byte	36
 1070 010b 13       		.byte	19
 1071 010c 26       		.byte	38
 1072 010d 04       		.byte	4
 1073 010e 28       		.byte	40
 1074 010f E0       		.byte	-32
 1075 0110 2B       		.byte	43
 1076 0111 08       		.byte	8
 1077 0112 2C       		.byte	44
 1078 0113 40       		.byte	64
 1079 0114 2D       		.byte	45
 1080 0115 10       		.byte	16
 1081 0116 2E       		.byte	46
 1082 0117 A0       		.byte	-96
 1083 0118 30       		.byte	48
 1084 0119 10       		.byte	16
 1085 011a 31       		.byte	49
 1086 011b 0C       		.byte	12
 1087 011c 32       		.byte	50
 1088 011d E0       		.byte	-32
 1089 011e 33       		.byte	51
 1090 011f 03       		.byte	3
 1091 0120 34       		.byte	52
 1092 0121 0F       		.byte	15
 1093 0122 35       		.byte	53
 1094 0123 10       		.byte	16
 1095 0124 3A       		.byte	58
 1096 0125 20       		.byte	32
 1097 0126 3E       		.byte	62
 1098 0127 01       		.byte	1
 1099 0128 3F       		.byte	63
 1100 0129 01       		.byte	1
 1101 012a 40       		.byte	64
 1102 012b 32       		.byte	50
 1103 012c 41       		.byte	65
 1104 012d 06       		.byte	6
 1105 012e 45       		.byte	69
 1106 012f B0       		.byte	-80
 1107 0130 46       		.byte	70
 1108 0131 0E       		.byte	14
 1109 0132 47       		.byte	71
 1110 0133 C0       		.byte	-64
 1111 0134 48       		.byte	72
 1112 0135 26       		.byte	38
 1113 0136 49       		.byte	73
 1114 0137 FF       		.byte	-1
 1115 0138 4A       		.byte	74
 1116 0139 FF       		.byte	-1
 1117 013a 4B       		.byte	75
ARM GAS  C:\Users\alexport\AppData\Local\Temp\ccdq65cU.s 			page 34


 1118 013b FF       		.byte	-1
 1119 013c 4E       		.byte	78
 1120 013d F0       		.byte	-16
 1121 013e 4F       		.byte	79
 1122 013f 44       		.byte	68
 1123 0140 50       		.byte	80
 1124 0141 0C       		.byte	12
 1125 0142 54       		.byte	84
 1126 0143 01       		.byte	1
 1127 0144 58       		.byte	88
 1128 0145 04       		.byte	4
 1129 0146 59       		.byte	89
 1130 0147 04       		.byte	4
 1131 0148 5A       		.byte	90
 1132 0149 04       		.byte	4
 1133 014a 5B       		.byte	91
 1134 014b 04       		.byte	4
 1135 014c 5F       		.byte	95
 1136 014d 01       		.byte	1
 1137 014e 66       		.byte	102
 1138 014f C0       		.byte	-64
 1139 0150 6A       		.byte	106
 1140 0151 40       		.byte	64
 1141 0152 6B       		.byte	107
 1142 0153 02       		.byte	2
 1143 0154 84       		.byte	-124
 1144 0155 DC       		.byte	-36
 1145 0156 86       		.byte	-122
 1146 0157 22       		.byte	34
 1147 0158 89       		.byte	-119
 1148 0159 2C       		.byte	44
 1149 015a 8B       		.byte	-117
 1150 015b 43       		.byte	67
 1151 015c 8E       		.byte	-114
 1152 015d 03       		.byte	3
 1153 015e 8F       		.byte	-113
 1154 015f 0C       		.byte	12
 1155 0160 90       		.byte	-112
 1156 0161 09       		.byte	9
 1157 0162 92       		.byte	-110
 1158 0163 D0       		.byte	-48
 1159 0164 94       		.byte	-108
 1160 0165 0C       		.byte	12
 1161 0166 95       		.byte	-107
 1162 0167 80       		.byte	-128
 1163 0168 96       		.byte	-106
 1164 0169 71       		.byte	113
 1165 016a 97       		.byte	-105
 1166 016b 13       		.byte	19
 1167 016c 98       		.byte	-104
 1168 016d 10       		.byte	16
 1169 016e 99       		.byte	-103
 1170 016f 71       		.byte	113
 1171 0170 9A       		.byte	-102
 1172 0171 AC       		.byte	-84
 1173 0172 9B       		.byte	-101
 1174 0173 06       		.byte	6
ARM GAS  C:\Users\alexport\AppData\Local\Temp\ccdq65cU.s 			page 35


 1175 0174 9C       		.byte	-100
 1176 0175 14       		.byte	20
 1177 0176 9F       		.byte	-97
 1178 0177 08       		.byte	8
 1179 0178 A0       		.byte	-96
 1180 0179 10       		.byte	16
 1181 017a A2       		.byte	-94
 1182 017b 40       		.byte	64
 1183 017c A9       		.byte	-87
 1184 017d 71       		.byte	113
 1185 017e AA       		.byte	-86
 1186 017f 20       		.byte	32
 1187 0180 AB       		.byte	-85
 1188 0181 0E       		.byte	14
 1189 0182 B0       		.byte	-80
 1190 0183 1F       		.byte	31
 1191 0184 B1       		.byte	-79
 1192 0185 C0       		.byte	-64
 1193 0186 B3       		.byte	-77
 1194 0187 30       		.byte	48
 1195 0188 B4       		.byte	-76
 1196 0189 E0       		.byte	-32
 1197 018a B5       		.byte	-75
 1198 018b 0F       		.byte	15
 1199 018c B9       		.byte	-71
 1200 018d 0A       		.byte	10
 1201 018e BA       		.byte	-70
 1202 018f 20       		.byte	32
 1203 0190 BB       		.byte	-69
 1204 0191 20       		.byte	32
 1205 0192 BF       		.byte	-65
 1206 0193 04       		.byte	4
 1207 0194 C0       		.byte	-64
 1208 0195 03       		.byte	3
 1209 0196 C5       		.byte	-59
 1210 0197 40       		.byte	64
 1211 0198 C9       		.byte	-55
 1212 0199 FF       		.byte	-1
 1213 019a CA       		.byte	-54
 1214 019b 07       		.byte	7
 1215 019c CB       		.byte	-53
 1216 019d FF       		.byte	-1
 1217 019e CC       		.byte	-52
 1218 019f 40       		.byte	64
 1219 01a0 CD       		.byte	-51
 1220 01a1 20       		.byte	32
 1221 01a2 CE       		.byte	-50
 1222 01a3 F0       		.byte	-16
 1223 01a4 CF       		.byte	-49
 1224 01a5 05       		.byte	5
 1225 01a6 D0       		.byte	-48
 1226 01a7 08       		.byte	8
 1227 01a8 D8       		.byte	-40
 1228 01a9 04       		.byte	4
 1229 01aa D9       		.byte	-39
 1230 01ab 04       		.byte	4
 1231 01ac DA       		.byte	-38
ARM GAS  C:\Users\alexport\AppData\Local\Temp\ccdq65cU.s 			page 36


 1232 01ad 04       		.byte	4
 1233 01ae DF       		.byte	-33
 1234 01af 01       		.byte	1
 1235 01b0 E0       		.byte	-32
 1236 01b1 40       		.byte	64
 1237 01b2 E1       		.byte	-31
 1238 01b3 A8       		.byte	-88
 1239 01b4 E2       		.byte	-30
 1240 01b5 40       		.byte	64
 1241 01b6 E3       		.byte	-29
 1242 01b7 20       		.byte	32
 1243 01b8 00       		.byte	0
 1244 01b9 48       		.byte	72
 1245 01ba 06       		.byte	6
 1246 01bb 81       		.byte	-127
 1247 01bc 07       		.byte	7
 1248 01bd 14       		.byte	20
 1249 01be 08       		.byte	8
 1250 01bf 08       		.byte	8
 1251 01c0 09       		.byte	9
 1252 01c1 20       		.byte	32
 1253 01c2 0B       		.byte	11
 1254 01c3 41       		.byte	65
 1255 01c4 0E       		.byte	14
 1256 01c5 06       		.byte	6
 1257 01c6 0F       		.byte	15
 1258 01c7 40       		.byte	64
 1259 01c8 10       		.byte	16
 1260 01c9 84       		.byte	-124
 1261 01ca 15       		.byte	21
 1262 01cb 11       		.byte	17
 1263 01cc 16       		.byte	22
 1264 01cd 12       		.byte	18
 1265 01ce 18       		.byte	24
 1266 01cf 40       		.byte	64
 1267 01d0 19       		.byte	25
 1268 01d1 10       		.byte	16
 1269 01d2 1A       		.byte	26
 1270 01d3 08       		.byte	8
 1271 01d4 1D       		.byte	29
 1272 01d5 20       		.byte	32
 1273 01d6 1E       		.byte	30
 1274 01d7 40       		.byte	64
 1275 01d8 1F       		.byte	31
 1276 01d9 04       		.byte	4
 1277 01da 20       		.byte	32
 1278 01db 08       		.byte	8
 1279 01dc 21       		.byte	33
 1280 01dd 14       		.byte	20
 1281 01de 23       		.byte	35
 1282 01df 40       		.byte	64
 1283 01e0 24       		.byte	36
 1284 01e1 08       		.byte	8
 1285 01e2 27       		.byte	39
 1286 01e3 50       		.byte	80
 1287 01e4 28       		.byte	40
 1288 01e5 08       		.byte	8
ARM GAS  C:\Users\alexport\AppData\Local\Temp\ccdq65cU.s 			page 37


 1289 01e6 29       		.byte	41
 1290 01e7 10       		.byte	16
 1291 01e8 2A       		.byte	42
 1292 01e9 10       		.byte	16
 1293 01ea 2D       		.byte	45
 1294 01eb 40       		.byte	64
 1295 01ec 2F       		.byte	47
 1296 01ed 04       		.byte	4
 1297 01ee 30       		.byte	48
 1298 01ef 94       		.byte	-108
 1299 01f0 31       		.byte	49
 1300 01f1 24       		.byte	36
 1301 01f2 33       		.byte	51
 1302 01f3 04       		.byte	4
 1303 01f4 36       		.byte	54
 1304 01f5 01       		.byte	1
 1305 01f6 37       		.byte	55
 1306 01f7 10       		.byte	16
 1307 01f8 39       		.byte	57
 1308 01f9 20       		.byte	32
 1309 01fa 3B       		.byte	59
 1310 01fb 40       		.byte	64
 1311 01fc 3D       		.byte	61
 1312 01fd 10       		.byte	16
 1313 01fe 3E       		.byte	62
 1314 01ff 04       		.byte	4
 1315 0200 41       		.byte	65
 1316 0201 04       		.byte	4
 1317 0202 44       		.byte	68
 1318 0203 14       		.byte	20
 1319 0204 48       		.byte	72
 1320 0205 80       		.byte	-128
 1321 0206 49       		.byte	73
 1322 0207 04       		.byte	4
 1323 0208 4E       		.byte	78
 1324 0209 04       		.byte	4
 1325 020a 4F       		.byte	79
 1326 020b 01       		.byte	1
 1327 020c 54       		.byte	84
 1328 020d 40       		.byte	64
 1329 020e 55       		.byte	85
 1330 020f 01       		.byte	1
 1331 0210 56       		.byte	86
 1332 0211 41       		.byte	65
 1333 0212 5C       		.byte	92
 1334 0213 02       		.byte	2
 1335 0214 5D       		.byte	93
 1336 0215 28       		.byte	40
 1337 0216 5E       		.byte	94
 1338 0217 40       		.byte	64
 1339 0218 60       		.byte	96
 1340 0219 02       		.byte	2
 1341 021a 62       		.byte	98
 1342 021b 40       		.byte	64
 1343 021c 81       		.byte	-127
 1344 021d 21       		.byte	33
 1345 021e 82       		.byte	-126
ARM GAS  C:\Users\alexport\AppData\Local\Temp\ccdq65cU.s 			page 38


 1346 021f 10       		.byte	16
 1347 0220 85       		.byte	-123
 1348 0221 10       		.byte	16
 1349 0222 86       		.byte	-122
 1350 0223 82       		.byte	-126
 1351 0224 87       		.byte	-121
 1352 0225 04       		.byte	4
 1353 0226 89       		.byte	-119
 1354 0227 21       		.byte	33
 1355 0228 8A       		.byte	-118
 1356 0229 02       		.byte	2
 1357 022a 8D       		.byte	-115
 1358 022b 01       		.byte	1
 1359 022c 8E       		.byte	-114
 1360 022d 21       		.byte	33
 1361 022e 8F       		.byte	-113
 1362 022f 10       		.byte	16
 1363 0230 91       		.byte	-111
 1364 0231 50       		.byte	80
 1365 0232 92       		.byte	-110
 1366 0233 24       		.byte	36
 1367 0234 94       		.byte	-108
 1368 0235 48       		.byte	72
 1369 0236 99       		.byte	-103
 1370 0237 08       		.byte	8
 1371 0238 9D       		.byte	-99
 1372 0239 01       		.byte	1
 1373 023a 9E       		.byte	-98
 1374 023b 02       		.byte	2
 1375 023c 9F       		.byte	-97
 1376 023d 40       		.byte	64
 1377 023e A2       		.byte	-94
 1378 023f 02       		.byte	2
 1379 0240 A4       		.byte	-92
 1380 0241 40       		.byte	64
 1381 0242 A6       		.byte	-90
 1382 0243 21       		.byte	33
 1383 0244 C0       		.byte	-64
 1384 0245 F5       		.byte	-11
 1385 0246 C2       		.byte	-62
 1386 0247 DF       		.byte	-33
 1387 0248 C4       		.byte	-60
 1388 0249 FA       		.byte	-6
 1389 024a CA       		.byte	-54
 1390 024b 34       		.byte	52
 1391 024c CC       		.byte	-52
 1392 024d AE       		.byte	-82
 1393 024e CE       		.byte	-50
 1394 024f 6C       		.byte	108
 1395 0250 D0       		.byte	-48
 1396 0251 62       		.byte	98
 1397 0252 D2       		.byte	-46
 1398 0253 20       		.byte	32
 1399 0254 D6       		.byte	-42
 1400 0255 F0       		.byte	-16
 1401 0256 E4       		.byte	-28
 1402 0257 04       		.byte	4
ARM GAS  C:\Users\alexport\AppData\Local\Temp\ccdq65cU.s 			page 39


 1403 0258 E6       		.byte	-26
 1404 0259 20       		.byte	32
 1405 025a 70       		.byte	112
 1406 025b 08       		.byte	8
 1407 025c 74       		.byte	116
 1408 025d 40       		.byte	64
 1409 025e 88       		.byte	-120
 1410 025f 48       		.byte	72
 1411 0260 DC       		.byte	-36
 1412 0261 C0       		.byte	-64
 1413 0262 09       		.byte	9
 1414 0263 01       		.byte	1
 1415 0264 67       		.byte	103
 1416 0265 02       		.byte	2
 1417 0266 83       		.byte	-125
 1418 0267 01       		.byte	1
 1419 0268 8D       		.byte	-115
 1420 0269 01       		.byte	1
 1421 026a C2       		.byte	-62
 1422 026b 08       		.byte	8
 1423 026c D6       		.byte	-42
 1424 026d 01       		.byte	1
 1425 026e E2       		.byte	-30
 1426 026f 08       		.byte	8
 1427 0270 10       		.byte	16
 1428 0271 01       		.byte	1
 1429 0272 11       		.byte	17
 1430 0273 01       		.byte	1
 1431              		.align	2
 1432              		.type	BS_UDB_0_1_1_CONFIG_VAL.4922, %object
 1433              		.size	BS_UDB_0_1_1_CONFIG_VAL.4922, 128
 1434              	BS_UDB_0_1_1_CONFIG_VAL.4922:
 1435 0274 02       		.byte	2
 1436 0275 60       		.byte	96
 1437 0276 00       		.byte	0
 1438 0277 00       		.byte	0
 1439 0278 00       		.byte	0
 1440 0279 18       		.byte	24
 1441 027a 63       		.byte	99
 1442 027b 00       		.byte	0
 1443 027c 5C       		.byte	92
 1444 027d 00       		.byte	0
 1445 027e 23       		.byte	35
 1446 027f 66       		.byte	102
 1447 0280 00       		.byte	0
 1448 0281 10       		.byte	16
 1449 0282 00       		.byte	0
 1450 0283 00       		.byte	0
 1451 0284 1F       		.byte	31
 1452 0285 21       		.byte	33
 1453 0286 60       		.byte	96
 1454 0287 00       		.byte	0
 1455 0288 7F       		.byte	127
 1456 0289 08       		.byte	8
 1457 028a 00       		.byte	0
 1458 028b 00       		.byte	0
 1459 028c 73       		.byte	115
ARM GAS  C:\Users\alexport\AppData\Local\Temp\ccdq65cU.s 			page 40


 1460 028d FF       		.byte	-1
 1461 028e 0C       		.byte	12
 1462 028f 00       		.byte	0
 1463 0290 01       		.byte	1
 1464 0291 19       		.byte	25
 1465 0292 00       		.byte	0
 1466 0293 E2       		.byte	-30
 1467 0294 08       		.byte	8
 1468 0295 40       		.byte	64
 1469 0296 00       		.byte	0
 1470 0297 00       		.byte	0
 1471 0298 04       		.byte	4
 1472 0299 E7       		.byte	-25
 1473 029a 00       		.byte	0
 1474 029b 18       		.byte	24
 1475 029c 0C       		.byte	12
 1476 029d 19       		.byte	25
 1477 029e 00       		.byte	0
 1478 029f E4       		.byte	-28
 1479 02a0 03       		.byte	3
 1480 02a1 00       		.byte	0
 1481 02a2 00       		.byte	0
 1482 02a3 01       		.byte	1
 1483 02a4 2C       		.byte	44
 1484 02a5 60       		.byte	96
 1485 02a6 10       		.byte	16
 1486 02a7 1F       		.byte	31
 1487 02a8 0F       		.byte	15
 1488 02a9 00       		.byte	0
 1489 02aa 4C       		.byte	76
 1490 02ab 80       		.byte	-128
 1491 02ac 00       		.byte	0
 1492 02ad 80       		.byte	-128
 1493 02ae 22       		.byte	34
 1494 02af 28       		.byte	40
 1495 02b0 00       		.byte	0
 1496 02b1 00       		.byte	0
 1497 02b2 04       		.byte	4
 1498 02b3 00       		.byte	0
 1499 02b4 26       		.byte	38
 1500 02b5 03       		.byte	3
 1501 02b6 05       		.byte	5
 1502 02b7 00       		.byte	0
 1503 02b8 01       		.byte	1
 1504 02b9 0C       		.byte	12
 1505 02ba 00       		.byte	0
 1506 02bb 0E       		.byte	14
 1507 02bc 11       		.byte	17
 1508 02bd FF       		.byte	-1
 1509 02be FF       		.byte	-1
 1510 02bf FF       		.byte	-1
 1511 02c0 62       		.byte	98
 1512 02c1 A0       		.byte	-96
 1513 02c2 F0       		.byte	-16
 1514 02c3 41       		.byte	65
 1515 02c4 0C       		.byte	12
 1516 02c5 00       		.byte	0
ARM GAS  C:\Users\alexport\AppData\Local\Temp\ccdq65cU.s 			page 41


 1517 02c6 00       		.byte	0
 1518 02c7 00       		.byte	0
 1519 02c8 00       		.byte	0
 1520 02c9 00       		.byte	0
 1521 02ca 02       		.byte	2
 1522 02cb 11       		.byte	17
 1523 02cc 04       		.byte	4
 1524 02cd 04       		.byte	4
 1525 02ce 04       		.byte	4
 1526 02cf 04       		.byte	4
 1527 02d0 00       		.byte	0
 1528 02d1 00       		.byte	0
 1529 02d2 00       		.byte	0
 1530 02d3 01       		.byte	1
 1531 02d4 00       		.byte	0
 1532 02d5 00       		.byte	0
 1533 02d6 00       		.byte	0
 1534 02d7 00       		.byte	0
 1535 02d8 00       		.byte	0
 1536 02d9 00       		.byte	0
 1537 02da 40       		.byte	64
 1538 02db 02       		.byte	2
 1539 02dc 00       		.byte	0
 1540 02dd 10       		.byte	16
 1541 02de 30       		.byte	48
 1542 02df 10       		.byte	16
 1543 02e0 00       		.byte	0
 1544 02e1 10       		.byte	16
 1545 02e2 10       		.byte	16
 1546 02e3 12       		.byte	18
 1547 02e4 00       		.byte	0
 1548 02e5 00       		.byte	0
 1549 02e6 00       		.byte	0
 1550 02e7 00       		.byte	0
 1551 02e8 00       		.byte	0
 1552 02e9 00       		.byte	0
 1553 02ea 00       		.byte	0
 1554 02eb 00       		.byte	0
 1555 02ec 00       		.byte	0
 1556 02ed 00       		.byte	0
 1557 02ee 00       		.byte	0
 1558 02ef 00       		.byte	0
 1559 02f0 00       		.byte	0
 1560 02f1 00       		.byte	0
 1561 02f2 00       		.byte	0
 1562 02f3 00       		.byte	0
 1563              		.text
 1564              	.Letext0:
 1565              		.file 2 "c:\\program files (x86)\\cypress\\psoc creator\\4.4\\psoc creator\\import\\gnu\\arm\\5.4.
 1566              		.file 3 "Generated_Source\\PSoC4\\cytypes.h"