ARM GAS  C:\Users\alexport\AppData\Local\Temp\ccSzUPYv.s 			page 1


   1              		.syntax unified
   2              		.cpu cortex-m0
   3              		.fpu softvfp
   4              		.eabi_attribute 20, 1
   5              		.eabi_attribute 21, 1
   6              		.eabi_attribute 23, 3
   7              		.eabi_attribute 24, 1
   8              		.eabi_attribute 25, 1
   9              		.eabi_attribute 26, 1
  10              		.eabi_attribute 30, 6
  11              		.eabi_attribute 34, 0
  12              		.eabi_attribute 18, 4
  13              		.thumb
  14              		.syntax unified
  15              		.file	"dac.c"
  16              		.text
  17              	.Ltext0:
  18              		.cfi_sections	.debug_frame
  19              		.section	.text.AD5627_InitDAC,"ax",%progbits
  20              		.align	2
  21              		.global	AD5627_InitDAC
  22              		.code	16
  23              		.thumb_func
  24              		.type	AD5627_InitDAC, %function
  25              	AD5627_InitDAC:
  26              	.LFB35:
  27              		.file 1 "dac.c"
   1:dac.c         **** /* ========================================
   2:dac.c         ****  *
   3:dac.c         ****  * Copyright YOUR COMPANY, THE YEAR
   4:dac.c         ****  * All Rights Reserved
   5:dac.c         ****  * UNPUBLISHED, LICENSED SOFTWARE.
   6:dac.c         ****  *
   7:dac.c         ****  * CONFIDENTIAL AND PROPRIETARY INFORMATION
   8:dac.c         ****  * WHICH IS THE PROPERTY OF your company.
   9:dac.c         ****  *
  10:dac.c         ****  * ========================================
  11:dac.c         **** */
  12:dac.c         **** #include "dac.h"
  13:dac.c         **** 
  14:dac.c         **** 
  15:dac.c         **** void AD5627_InitDAC(){
  28              		.loc 1 15 0
  29              		.cfi_startproc
  30              		@ args = 0, pretend = 0, frame = 8
  31              		@ frame_needed = 1, uses_anonymous_args = 0
  32 0000 80B5     		push	{r7, lr}
  33              		.cfi_def_cfa_offset 8
  34              		.cfi_offset 7, -8
  35              		.cfi_offset 14, -4
  36 0002 82B0     		sub	sp, sp, #8
  37              		.cfi_def_cfa_offset 16
  38 0004 00AF     		add	r7, sp, #0
  39              		.cfi_def_cfa_register 7
  16:dac.c         ****     uint8_t buffer[3]={0};
  40              		.loc 1 16 0
  41 0006 3B1D     		adds	r3, r7, #4
ARM GAS  C:\Users\alexport\AppData\Local\Temp\ccSzUPYv.s 			page 2


  42 0008 1800     		movs	r0, r3
  43 000a 0323     		movs	r3, #3
  44 000c 1A00     		movs	r2, r3
  45 000e 0021     		movs	r1, #0
  46 0010 FFF7FEFF 		bl	memset
  17:dac.c         **** 
  18:dac.c         ****     // Set internal reference
  19:dac.c         ****     buffer[0] = 0x38;                // 00111_000    
  47              		.loc 1 19 0
  48 0014 3B1D     		adds	r3, r7, #4
  49 0016 3822     		movs	r2, #56
  50 0018 1A70     		strb	r2, [r3]
  20:dac.c         ****     buffer[1] = 0; // Upper 8 bits
  51              		.loc 1 20 0
  52 001a 3B1D     		adds	r3, r7, #4
  53 001c 0022     		movs	r2, #0
  54 001e 5A70     		strb	r2, [r3, #1]
  21:dac.c         ****     buffer[2] = 1; // Lower 4 bits in upper nibble
  55              		.loc 1 21 0
  56 0020 3B1D     		adds	r3, r7, #4
  57 0022 0122     		movs	r2, #1
  58 0024 9A70     		strb	r2, [r3, #2]
  22:dac.c         ****     I2C_I2CMasterClearStatus();
  59              		.loc 1 22 0
  60 0026 FFF7FEFF 		bl	I2C_I2CMasterClearStatus
  23:dac.c         ****     I2C_I2CMasterWriteBuf(I2C_DAC_SLAVE_ADDR, buffer, 3, I2C_I2C_MODE_COMPLETE_XFER);
  61              		.loc 1 23 0
  62 002a 391D     		adds	r1, r7, #4
  63 002c 0023     		movs	r3, #0
  64 002e 0322     		movs	r2, #3
  65 0030 0F20     		movs	r0, #15
  66 0032 FFF7FEFF 		bl	I2C_I2CMasterWriteBuf
  24:dac.c         ****     while (I2C_I2CMasterStatus() & I2C_I2C_MSTAT_XFER_INP); // Wait until transfer completes
  67              		.loc 1 24 0
  68 0036 C046     		nop
  69              	.L2:
  70              		.loc 1 24 0 is_stmt 0 discriminator 1
  71 0038 FFF7FEFF 		bl	I2C_I2CMasterStatus
  72 003c 0200     		movs	r2, r0
  73 003e 0423     		movs	r3, #4
  74 0040 1340     		ands	r3, r2
  75 0042 F9D1     		bne	.L2
  25:dac.c         ****     
  26:dac.c         ****     // Software Reset
  27:dac.c         ****     buffer[0] = 0x28;                // 00101_000
  76              		.loc 1 27 0 is_stmt 1
  77 0044 3B1D     		adds	r3, r7, #4
  78 0046 2822     		movs	r2, #40
  79 0048 1A70     		strb	r2, [r3]
  28:dac.c         ****     buffer[1] = 0; // Upper 8 bits
  80              		.loc 1 28 0
  81 004a 3B1D     		adds	r3, r7, #4
  82 004c 0022     		movs	r2, #0
  83 004e 5A70     		strb	r2, [r3, #1]
  29:dac.c         ****     buffer[2] = 0; // Lower 4 bits in upper nibble
  84              		.loc 1 29 0
  85 0050 3B1D     		adds	r3, r7, #4
ARM GAS  C:\Users\alexport\AppData\Local\Temp\ccSzUPYv.s 			page 3


  86 0052 0022     		movs	r2, #0
  87 0054 9A70     		strb	r2, [r3, #2]
  30:dac.c         ****     I2C_I2CMasterClearStatus();
  88              		.loc 1 30 0
  89 0056 FFF7FEFF 		bl	I2C_I2CMasterClearStatus
  31:dac.c         ****     I2C_I2CMasterWriteBuf(I2C_DAC_SLAVE_ADDR, buffer, 3, I2C_I2C_MODE_COMPLETE_XFER);
  90              		.loc 1 31 0
  91 005a 391D     		adds	r1, r7, #4
  92 005c 0023     		movs	r3, #0
  93 005e 0322     		movs	r2, #3
  94 0060 0F20     		movs	r0, #15
  95 0062 FFF7FEFF 		bl	I2C_I2CMasterWriteBuf
  32:dac.c         ****     while (I2C_I2CMasterStatus() & I2C_I2C_MSTAT_XFER_INP); // Wait until transfer completes
  96              		.loc 1 32 0
  97 0066 C046     		nop
  98              	.L3:
  99              		.loc 1 32 0 is_stmt 0 discriminator 1
 100 0068 FFF7FEFF 		bl	I2C_I2CMasterStatus
 101 006c 0200     		movs	r2, r0
 102 006e 0423     		movs	r3, #4
 103 0070 1340     		ands	r3, r2
 104 0072 F9D1     		bne	.L3
  33:dac.c         ****     
  34:dac.c         ****     // LDAC Register Setup
  35:dac.c         ****     buffer[0] = 0x30;                // 00110_000
 105              		.loc 1 35 0 is_stmt 1
 106 0074 3B1D     		adds	r3, r7, #4
 107 0076 3022     		movs	r2, #48
 108 0078 1A70     		strb	r2, [r3]
  36:dac.c         ****     buffer[1] = 0; // Upper 8 bits
 109              		.loc 1 36 0
 110 007a 3B1D     		adds	r3, r7, #4
 111 007c 0022     		movs	r2, #0
 112 007e 5A70     		strb	r2, [r3, #1]
  37:dac.c         ****     buffer[2] = 0; // Lower 4 bits in upper nibble
 113              		.loc 1 37 0
 114 0080 3B1D     		adds	r3, r7, #4
 115 0082 0022     		movs	r2, #0
 116 0084 9A70     		strb	r2, [r3, #2]
  38:dac.c         ****     I2C_I2CMasterClearStatus();
 117              		.loc 1 38 0
 118 0086 FFF7FEFF 		bl	I2C_I2CMasterClearStatus
  39:dac.c         ****     I2C_I2CMasterWriteBuf(I2C_DAC_SLAVE_ADDR, buffer, 3, I2C_I2C_MODE_COMPLETE_XFER);
 119              		.loc 1 39 0
 120 008a 391D     		adds	r1, r7, #4
 121 008c 0023     		movs	r3, #0
 122 008e 0322     		movs	r2, #3
 123 0090 0F20     		movs	r0, #15
 124 0092 FFF7FEFF 		bl	I2C_I2CMasterWriteBuf
  40:dac.c         ****     while (I2C_I2CMasterStatus() & I2C_I2C_MSTAT_XFER_INP); // Wait until transfer completes
 125              		.loc 1 40 0
 126 0096 C046     		nop
 127              	.L4:
 128              		.loc 1 40 0 is_stmt 0 discriminator 1
 129 0098 FFF7FEFF 		bl	I2C_I2CMasterStatus
 130 009c 0200     		movs	r2, r0
 131 009e 0423     		movs	r3, #4
ARM GAS  C:\Users\alexport\AppData\Local\Temp\ccSzUPYv.s 			page 4


 132 00a0 1340     		ands	r3, r2
 133 00a2 F9D1     		bne	.L4
  41:dac.c         **** }
 134              		.loc 1 41 0 is_stmt 1
 135 00a4 C046     		nop
 136 00a6 BD46     		mov	sp, r7
 137 00a8 02B0     		add	sp, sp, #8
 138              		@ sp needed
 139 00aa 80BD     		pop	{r7, pc}
 140              		.cfi_endproc
 141              	.LFE35:
 142              		.size	AD5627_InitDAC, .-AD5627_InitDAC
 143              		.section	.text.AD5627_SetDAC,"ax",%progbits
 144              		.align	2
 145              		.global	AD5627_SetDAC
 146              		.code	16
 147              		.thumb_func
 148              		.type	AD5627_SetDAC, %function
 149              	AD5627_SetDAC:
 150              	.LFB36:
  42:dac.c         **** 
  43:dac.c         **** 
  44:dac.c         **** // Set DAC output (0–4095 is 0–100%)
  45:dac.c         **** void AD5627_SetDAC(uint8_t ch,  uint16_t value12bit)
  46:dac.c         **** {
 151              		.loc 1 46 0
 152              		.cfi_startproc
 153              		@ args = 0, pretend = 0, frame = 16
 154              		@ frame_needed = 1, uses_anonymous_args = 0
 155 0000 80B5     		push	{r7, lr}
 156              		.cfi_def_cfa_offset 8
 157              		.cfi_offset 7, -8
 158              		.cfi_offset 14, -4
 159 0002 84B0     		sub	sp, sp, #16
 160              		.cfi_def_cfa_offset 24
 161 0004 00AF     		add	r7, sp, #0
 162              		.cfi_def_cfa_register 7
 163 0006 0200     		movs	r2, r0
 164 0008 FB1D     		adds	r3, r7, #7
 165 000a 1A70     		strb	r2, [r3]
 166 000c 3B1D     		adds	r3, r7, #4
 167 000e 0A1C     		adds	r2, r1, #0
 168 0010 1A80     		strh	r2, [r3]
  47:dac.c         ****     uint8_t buffer[3]={0};
 169              		.loc 1 47 0
 170 0012 0C23     		movs	r3, #12
 171 0014 FB18     		adds	r3, r7, r3
 172 0016 1800     		movs	r0, r3
 173 0018 0323     		movs	r3, #3
 174 001a 1A00     		movs	r2, r3
 175 001c 0021     		movs	r1, #0
 176 001e FFF7FEFF 		bl	memset
  48:dac.c         ****     
  49:dac.c         ****     buffer[0] = 0x18 | ch ;                // 0b00011(write and update)_xxx(channlel) 
 177              		.loc 1 49 0
 178 0022 FB1D     		adds	r3, r7, #7
 179 0024 1B78     		ldrb	r3, [r3]
ARM GAS  C:\Users\alexport\AppData\Local\Temp\ccSzUPYv.s 			page 5


 180 0026 1822     		movs	r2, #24
 181 0028 1343     		orrs	r3, r2
 182 002a DAB2     		uxtb	r2, r3
 183 002c 0C23     		movs	r3, #12
 184 002e FB18     		adds	r3, r7, r3
 185 0030 1A70     		strb	r2, [r3]
  50:dac.c         ****     buffer[1] = (value12bit >> 4) & 0xFF; // Upper 8 bits
 186              		.loc 1 50 0
 187 0032 3B1D     		adds	r3, r7, #4
 188 0034 1B88     		ldrh	r3, [r3]
 189 0036 1B09     		lsrs	r3, r3, #4
 190 0038 9BB2     		uxth	r3, r3
 191 003a DAB2     		uxtb	r2, r3
 192 003c 0C23     		movs	r3, #12
 193 003e FB18     		adds	r3, r7, r3
 194 0040 5A70     		strb	r2, [r3, #1]
  51:dac.c         ****     buffer[2] = (value12bit & 0x0F) << 4; // Lower 4 bits in upper nibble
 195              		.loc 1 51 0
 196 0042 3B1D     		adds	r3, r7, #4
 197 0044 1B88     		ldrh	r3, [r3]
 198 0046 1B01     		lsls	r3, r3, #4
 199 0048 DAB2     		uxtb	r2, r3
 200 004a 0C23     		movs	r3, #12
 201 004c FB18     		adds	r3, r7, r3
 202 004e 9A70     		strb	r2, [r3, #2]
  52:dac.c         ****     I2C_I2CMasterClearStatus();
 203              		.loc 1 52 0
 204 0050 FFF7FEFF 		bl	I2C_I2CMasterClearStatus
  53:dac.c         ****     I2C_I2CMasterWriteBuf(I2C_DAC_SLAVE_ADDR, buffer, 3, I2C_I2C_MODE_COMPLETE_XFER);
 205              		.loc 1 53 0
 206 0054 0C23     		movs	r3, #12
 207 0056 F918     		adds	r1, r7, r3
 208 0058 0023     		movs	r3, #0
 209 005a 0322     		movs	r2, #3
 210 005c 0F20     		movs	r0, #15
 211 005e FFF7FEFF 		bl	I2C_I2CMasterWriteBuf
  54:dac.c         ****     while (I2C_I2CMasterStatus() & I2C_I2C_MSTAT_XFER_INP); // Wait until transfer completes
 212              		.loc 1 54 0
 213 0062 C046     		nop
 214              	.L6:
 215              		.loc 1 54 0 is_stmt 0 discriminator 1
 216 0064 FFF7FEFF 		bl	I2C_I2CMasterStatus
 217 0068 0200     		movs	r2, r0
 218 006a 0423     		movs	r3, #4
 219 006c 1340     		ands	r3, r2
 220 006e F9D1     		bne	.L6
  55:dac.c         **** }
 221              		.loc 1 55 0 is_stmt 1
 222 0070 C046     		nop
 223 0072 BD46     		mov	sp, r7
 224 0074 04B0     		add	sp, sp, #16
 225              		@ sp needed
 226 0076 80BD     		pop	{r7, pc}
 227              		.cfi_endproc
 228              	.LFE36:
 229              		.size	AD5627_SetDAC, .-AD5627_SetDAC
 230              		.section	.text.MCP47VB02T_SetDAC,"ax",%progbits
ARM GAS  C:\Users\alexport\AppData\Local\Temp\ccSzUPYv.s 			page 6


 231              		.align	2
 232              		.global	MCP47VB02T_SetDAC
 233              		.code	16
 234              		.thumb_func
 235              		.type	MCP47VB02T_SetDAC, %function
 236              	MCP47VB02T_SetDAC:
 237              	.LFB37:
  56:dac.c         **** 
  57:dac.c         **** 
  58:dac.c         **** 
  59:dac.c         **** // Set DAC output (0–4095 is 0–100%)
  60:dac.c         **** void MCP47VB02T_SetDAC(uint16_t value12bit)
  61:dac.c         **** {
 238              		.loc 1 61 0
 239              		.cfi_startproc
 240              		@ args = 0, pretend = 0, frame = 16
 241              		@ frame_needed = 1, uses_anonymous_args = 0
 242 0000 80B5     		push	{r7, lr}
 243              		.cfi_def_cfa_offset 8
 244              		.cfi_offset 7, -8
 245              		.cfi_offset 14, -4
 246 0002 84B0     		sub	sp, sp, #16
 247              		.cfi_def_cfa_offset 24
 248 0004 00AF     		add	r7, sp, #0
 249              		.cfi_def_cfa_register 7
 250 0006 0200     		movs	r2, r0
 251 0008 BB1D     		adds	r3, r7, #6
 252 000a 1A80     		strh	r2, [r3]
  62:dac.c         ****     uint8_t buffer[3];
  63:dac.c         ****     
  64:dac.c         ****     buffer[0] = 0x08;                    // Volatile DAC input register (Channel A)
 253              		.loc 1 64 0
 254 000c 0C23     		movs	r3, #12
 255 000e FB18     		adds	r3, r7, r3
 256 0010 0822     		movs	r2, #8
 257 0012 1A70     		strb	r2, [r3]
  65:dac.c         ****     buffer[1] = (value12bit >> 4) & 0xFF; // Upper 8 bits
 258              		.loc 1 65 0
 259 0014 BB1D     		adds	r3, r7, #6
 260 0016 1B88     		ldrh	r3, [r3]
 261 0018 1B09     		lsrs	r3, r3, #4
 262 001a 9BB2     		uxth	r3, r3
 263 001c DAB2     		uxtb	r2, r3
 264 001e 0C23     		movs	r3, #12
 265 0020 FB18     		adds	r3, r7, r3
 266 0022 5A70     		strb	r2, [r3, #1]
  66:dac.c         ****     buffer[2] = (value12bit & 0x0F) << 4; // Lower 4 bits in upper nibble
 267              		.loc 1 66 0
 268 0024 BB1D     		adds	r3, r7, #6
 269 0026 1B88     		ldrh	r3, [r3]
 270 0028 1B01     		lsls	r3, r3, #4
 271 002a DAB2     		uxtb	r2, r3
 272 002c 0C23     		movs	r3, #12
 273 002e FB18     		adds	r3, r7, r3
 274 0030 9A70     		strb	r2, [r3, #2]
  67:dac.c         ****     I2C_I2CMasterClearStatus();
 275              		.loc 1 67 0
ARM GAS  C:\Users\alexport\AppData\Local\Temp\ccSzUPYv.s 			page 7


 276 0032 FFF7FEFF 		bl	I2C_I2CMasterClearStatus
  68:dac.c         ****     I2C_I2CMasterWriteBuf(I2C_DAC_SLAVE_ADDR, buffer, 3, I2C_I2C_MODE_COMPLETE_XFER);
 277              		.loc 1 68 0
 278 0036 0C23     		movs	r3, #12
 279 0038 F918     		adds	r1, r7, r3
 280 003a 0023     		movs	r3, #0
 281 003c 0322     		movs	r2, #3
 282 003e 0F20     		movs	r0, #15
 283 0040 FFF7FEFF 		bl	I2C_I2CMasterWriteBuf
  69:dac.c         ****     while (I2C_I2CMasterStatus() & I2C_I2C_MSTAT_XFER_INP); // Wait until transfer completes
 284              		.loc 1 69 0
 285 0044 C046     		nop
 286              	.L8:
 287              		.loc 1 69 0 is_stmt 0 discriminator 1
 288 0046 FFF7FEFF 		bl	I2C_I2CMasterStatus
 289 004a 0200     		movs	r2, r0
 290 004c 0423     		movs	r3, #4
 291 004e 1340     		ands	r3, r2
 292 0050 F9D1     		bne	.L8
  70:dac.c         **** }
 293              		.loc 1 70 0 is_stmt 1
 294 0052 C046     		nop
 295 0054 BD46     		mov	sp, r7
 296 0056 04B0     		add	sp, sp, #16
 297              		@ sp needed
 298 0058 80BD     		pop	{r7, pc}
 299              		.cfi_endproc
 300              	.LFE37:
 301              		.size	MCP47VB02T_SetDAC, .-MCP47VB02T_SetDAC
 302              		.global	__aeabi_fcmplt
 303              		.global	__aeabi_fcmpgt
 304              		.global	__aeabi_fdiv
 305              		.global	__aeabi_fmul
 306              		.global	__aeabi_f2uiz
 307 005a C046     		.section	.text.Convert_mA_to_DAC,"ax",%progbits
 308              		.align	2
 309              		.global	Convert_mA_to_DAC
 310              		.code	16
 311              		.thumb_func
 312              		.type	Convert_mA_to_DAC, %function
 313              	Convert_mA_to_DAC:
 314              	.LFB38:
  71:dac.c         **** 
  72:dac.c         **** ////--------------------------------------------------
  73:dac.c         **** //// Convert 4–20 mA to 12-bit DAC value
  74:dac.c         **** ////--------------------------------------------------
  75:dac.c         **** //uint16_t Convert_mA_to_DAC(float mA)
  76:dac.c         **** //{
  77:dac.c         **** //    // This assumes external voltage-to-current converter maps DAC voltage to 4–20 mA
  78:dac.c         **** //    //float vOut = (mA / 20.0f) * MCP47VB02T_VREF;
  79:dac.c         **** //    //uint16_t dacValue = (uint16_t)((vOut / MCP47VB02T_VREF) * 4095.0f);
  80:dac.c         **** //
  81:dac.c         **** //    float vOut = (mA / 20.0f) * AD5627_VREF;
  82:dac.c         **** //    uint16_t dacValue = (uint16_t)((vOut / AD5627_VREF) * 4095.0f);
  83:dac.c         **** //    
  84:dac.c         **** //    if (dacValue > 4095) dacValue = 4095;
  85:dac.c         **** //    return dacValue;
ARM GAS  C:\Users\alexport\AppData\Local\Temp\ccSzUPYv.s 			page 8


  86:dac.c         **** //}
  87:dac.c         **** //
  88:dac.c         **** //
  89:dac.c         **** ////--------------------------------------------------
  90:dac.c         **** //// Convert sensor value (float) to output current (mA)
  91:dac.c         **** ////--------------------------------------------------
  92:dac.c         **** //float SensorTo_mA(float sensor_value, float sensor_min, float sensor_max)
  93:dac.c         **** //{
  94:dac.c         **** //    if (sensor_value < sensor_min) sensor_value = sensor_min;
  95:dac.c         **** //    if (sensor_value > sensor_max) sensor_value = sensor_max;
  96:dac.c         **** //
  97:dac.c         **** //    float percent = (sensor_value - sensor_min) / (sensor_max - sensor_min);
  98:dac.c         **** //    return 4.0f + (percent * 16.0f); // Maps to 4–20 mA
  99:dac.c         **** //}
 100:dac.c         **** //
 101:dac.c         **** //
 102:dac.c         **** //
 103:dac.c         **** //
 104:dac.c         **** //
 105:dac.c         **** //
 106:dac.c         **** ////--------------------------------------------------
 107:dac.c         **** //// Main update function: call this regularly
 108:dac.c         **** ////--------------------------------------------------
 109:dac.c         **** //void UpdateCurrentLoopOutput(uint8_t ch , float sensor_value, float sensor_min, float sensor_max)
 110:dac.c         **** //{
 111:dac.c         **** //    float current_mA = SensorTo_mA(sensor_value, sensor_min, sensor_max);
 112:dac.c         **** //    uint16_t dac_value = Convert_mA_to_DAC(current_mA);
 113:dac.c         **** //    AD5627_SetDAC(ch, dac_value);
 114:dac.c         **** //}
 115:dac.c         **** 
 116:dac.c         **** 
 117:dac.c         **** 
 118:dac.c         **** //--------------------------------------------------
 119:dac.c         **** // Convert desired current (4–20 mA) to DAC value
 120:dac.c         **** // Hardware: 0 mA at DAC=0, 22 mA at DAC=4095
 121:dac.c         **** //--------------------------------------------------
 122:dac.c         **** uint16_t Convert_mA_to_DAC(float mA)
 123:dac.c         **** {
 315              		.loc 1 123 0
 316              		.cfi_startproc
 317              		@ args = 0, pretend = 0, frame = 16
 318              		@ frame_needed = 1, uses_anonymous_args = 0
 319 0000 80B5     		push	{r7, lr}
 320              		.cfi_def_cfa_offset 8
 321              		.cfi_offset 7, -8
 322              		.cfi_offset 14, -4
 323 0002 84B0     		sub	sp, sp, #16
 324              		.cfi_def_cfa_offset 24
 325 0004 00AF     		add	r7, sp, #0
 326              		.cfi_def_cfa_register 7
 327 0006 7860     		str	r0, [r7, #4]
 124:dac.c         ****     if (mA < 0.0)   mA = 0.0;
 328              		.loc 1 124 0
 329 0008 0021     		movs	r1, #0
 330 000a 7868     		ldr	r0, [r7, #4]
 331 000c FFF7FEFF 		bl	__aeabi_fcmplt
 332 0010 031E     		subs	r3, r0, #0
ARM GAS  C:\Users\alexport\AppData\Local\Temp\ccSzUPYv.s 			page 9


 333 0012 01D0     		beq	.L10
 334              		.loc 1 124 0 is_stmt 0 discriminator 1
 335 0014 0023     		movs	r3, #0
 336 0016 7B60     		str	r3, [r7, #4]
 337              	.L10:
 125:dac.c         ****     if (mA > 22.0)  mA = 22.0;
 338              		.loc 1 125 0 is_stmt 1
 339 0018 0D49     		ldr	r1, .L17
 340 001a 7868     		ldr	r0, [r7, #4]
 341 001c FFF7FEFF 		bl	__aeabi_fcmpgt
 342 0020 031E     		subs	r3, r0, #0
 343 0022 01D0     		beq	.L12
 344              		.loc 1 125 0 is_stmt 0 discriminator 1
 345 0024 0A4B     		ldr	r3, .L17
 346 0026 7B60     		str	r3, [r7, #4]
 347              	.L12:
 126:dac.c         **** 
 127:dac.c         ****     // Scale for 0–22 mA full DAC range
 128:dac.c         ****     float percent = mA / 22.0;
 348              		.loc 1 128 0 is_stmt 1
 349 0028 0949     		ldr	r1, .L17
 350 002a 7868     		ldr	r0, [r7, #4]
 351 002c FFF7FEFF 		bl	__aeabi_fdiv
 352 0030 031C     		adds	r3, r0, #0
 353 0032 FB60     		str	r3, [r7, #12]
 129:dac.c         ****     return (uint16_t)(percent * 4095 );
 354              		.loc 1 129 0
 355 0034 0749     		ldr	r1, .L17+4
 356 0036 F868     		ldr	r0, [r7, #12]
 357 0038 FFF7FEFF 		bl	__aeabi_fmul
 358 003c 031C     		adds	r3, r0, #0
 359 003e 181C     		adds	r0, r3, #0
 360 0040 FFF7FEFF 		bl	__aeabi_f2uiz
 361 0044 0300     		movs	r3, r0
 362 0046 9BB2     		uxth	r3, r3
 130:dac.c         **** }
 363              		.loc 1 130 0
 364 0048 1800     		movs	r0, r3
 365 004a BD46     		mov	sp, r7
 366 004c 04B0     		add	sp, sp, #16
 367              		@ sp needed
 368 004e 80BD     		pop	{r7, pc}
 369              	.L18:
 370              		.align	2
 371              	.L17:
 372 0050 0000B041 		.word	1102053376
 373 0054 00F07F45 		.word	1166012416
 374              		.cfi_endproc
 375              	.LFE38:
 376              		.size	Convert_mA_to_DAC, .-Convert_mA_to_DAC
 377              		.global	__aeabi_fsub
 378              		.global	__aeabi_fadd
 379              		.section	.text.SensorTo_mA,"ax",%progbits
 380              		.align	2
 381              		.global	SensorTo_mA
 382              		.code	16
 383              		.thumb_func
ARM GAS  C:\Users\alexport\AppData\Local\Temp\ccSzUPYv.s 			page 10


 384              		.type	SensorTo_mA, %function
 385              	SensorTo_mA:
 386              	.LFB39:
 131:dac.c         **** 
 132:dac.c         **** //--------------------------------------------------
 133:dac.c         **** // Convert sensor value to desired current (4–20 mA)
 134:dac.c         **** //--------------------------------------------------
 135:dac.c         **** float SensorTo_mA(float sensor_value, float sensor_min, float sensor_max)
 136:dac.c         **** {
 387              		.loc 1 136 0
 388              		.cfi_startproc
 389              		@ args = 0, pretend = 0, frame = 24
 390              		@ frame_needed = 1, uses_anonymous_args = 0
 391 0000 90B5     		push	{r4, r7, lr}
 392              		.cfi_def_cfa_offset 12
 393              		.cfi_offset 4, -12
 394              		.cfi_offset 7, -8
 395              		.cfi_offset 14, -4
 396 0002 87B0     		sub	sp, sp, #28
 397              		.cfi_def_cfa_offset 40
 398 0004 00AF     		add	r7, sp, #0
 399              		.cfi_def_cfa_register 7
 400 0006 F860     		str	r0, [r7, #12]
 401 0008 B960     		str	r1, [r7, #8]
 402 000a 7A60     		str	r2, [r7, #4]
 137:dac.c         ****     float percent;
 138:dac.c         ****     float increment; 
 139:dac.c         ****     
 140:dac.c         ****     
 141:dac.c         ****         //if (sensor_value < sensor_min) sensor_value = sensor_min;
 142:dac.c         ****         if (sensor_value > sensor_max) sensor_value = sensor_max;
 403              		.loc 1 142 0
 404 000c 7968     		ldr	r1, [r7, #4]
 405 000e F868     		ldr	r0, [r7, #12]
 406 0010 FFF7FEFF 		bl	__aeabi_fcmpgt
 407 0014 031E     		subs	r3, r0, #0
 408 0016 01D0     		beq	.L20
 409              		.loc 1 142 0 is_stmt 0 discriminator 1
 410 0018 7B68     		ldr	r3, [r7, #4]
 411 001a FB60     		str	r3, [r7, #12]
 412              	.L20:
 143:dac.c         **** 
 144:dac.c         ****         percent = (sensor_value - sensor_min) / (sensor_max - sensor_min);
 413              		.loc 1 144 0 is_stmt 1
 414 001c B968     		ldr	r1, [r7, #8]
 415 001e F868     		ldr	r0, [r7, #12]
 416 0020 FFF7FEFF 		bl	__aeabi_fsub
 417 0024 031C     		adds	r3, r0, #0
 418 0026 1C1C     		adds	r4, r3, #0
 419 0028 B968     		ldr	r1, [r7, #8]
 420 002a 7868     		ldr	r0, [r7, #4]
 421 002c FFF7FEFF 		bl	__aeabi_fsub
 422 0030 031C     		adds	r3, r0, #0
 423 0032 191C     		adds	r1, r3, #0
 424 0034 201C     		adds	r0, r4, #0
 425 0036 FFF7FEFF 		bl	__aeabi_fdiv
 426 003a 031C     		adds	r3, r0, #0
ARM GAS  C:\Users\alexport\AppData\Local\Temp\ccSzUPYv.s 			page 11


 427 003c 7B61     		str	r3, [r7, #20]
 145:dac.c         ****         increment = percent * 16.0;
 428              		.loc 1 145 0
 429 003e 8321     		movs	r1, #131
 430 0040 C905     		lsls	r1, r1, #23
 431 0042 7869     		ldr	r0, [r7, #20]
 432 0044 FFF7FEFF 		bl	__aeabi_fmul
 433 0048 031C     		adds	r3, r0, #0
 434 004a 3B61     		str	r3, [r7, #16]
 146:dac.c         ****         return 4.0 + increment;  // Map to 4–20 mA
 435              		.loc 1 146 0
 436 004c 8121     		movs	r1, #129
 437 004e C905     		lsls	r1, r1, #23
 438 0050 3869     		ldr	r0, [r7, #16]
 439 0052 FFF7FEFF 		bl	__aeabi_fadd
 440 0056 031C     		adds	r3, r0, #0
 147:dac.c         ****     
 148:dac.c         **** }
 441              		.loc 1 148 0
 442 0058 181C     		adds	r0, r3, #0
 443 005a BD46     		mov	sp, r7
 444 005c 07B0     		add	sp, sp, #28
 445              		@ sp needed
 446 005e 90BD     		pop	{r4, r7, pc}
 447              		.cfi_endproc
 448              	.LFE39:
 449              		.size	SensorTo_mA, .-SensorTo_mA
 450              		.section	.text.UpdateCurrentLoopOutput,"ax",%progbits
 451              		.align	2
 452              		.global	UpdateCurrentLoopOutput
 453              		.code	16
 454              		.thumb_func
 455              		.type	UpdateCurrentLoopOutput, %function
 456              	UpdateCurrentLoopOutput:
 457              	.LFB40:
 149:dac.c         **** 
 150:dac.c         **** //--------------------------------------------------
 151:dac.c         **** // Main update function
 152:dac.c         **** //--------------------------------------------------
 153:dac.c         **** void UpdateCurrentLoopOutput(uint8_t ch, float sensor_value, float sensor_min, float sensor_max)
 154:dac.c         **** {
 458              		.loc 1 154 0
 459              		.cfi_startproc
 460              		@ args = 0, pretend = 0, frame = 24
 461              		@ frame_needed = 1, uses_anonymous_args = 0
 462 0000 90B5     		push	{r4, r7, lr}
 463              		.cfi_def_cfa_offset 12
 464              		.cfi_offset 4, -12
 465              		.cfi_offset 7, -8
 466              		.cfi_offset 14, -4
 467 0002 87B0     		sub	sp, sp, #28
 468              		.cfi_def_cfa_offset 40
 469 0004 00AF     		add	r7, sp, #0
 470              		.cfi_def_cfa_register 7
 471 0006 B960     		str	r1, [r7, #8]
 472 0008 7A60     		str	r2, [r7, #4]
 473 000a 3B60     		str	r3, [r7]
ARM GAS  C:\Users\alexport\AppData\Local\Temp\ccSzUPYv.s 			page 12


 474 000c 0F23     		movs	r3, #15
 475 000e FB18     		adds	r3, r7, r3
 476 0010 021C     		adds	r2, r0, #0
 477 0012 1A70     		strb	r2, [r3]
 155:dac.c         ****     float desired_mA = SensorTo_mA(sensor_value, sensor_min, sensor_max);
 478              		.loc 1 155 0
 479 0014 3A68     		ldr	r2, [r7]
 480 0016 7968     		ldr	r1, [r7, #4]
 481 0018 BB68     		ldr	r3, [r7, #8]
 482 001a 181C     		adds	r0, r3, #0
 483 001c FFF7FEFF 		bl	SensorTo_mA
 484 0020 031C     		adds	r3, r0, #0
 485 0022 7B61     		str	r3, [r7, #20]
 156:dac.c         ****     uint16_t dac_value = Convert_mA_to_DAC(desired_mA);
 486              		.loc 1 156 0
 487 0024 1223     		movs	r3, #18
 488 0026 FC18     		adds	r4, r7, r3
 489 0028 7B69     		ldr	r3, [r7, #20]
 490 002a 181C     		adds	r0, r3, #0
 491 002c FFF7FEFF 		bl	Convert_mA_to_DAC
 492 0030 0300     		movs	r3, r0
 493 0032 2380     		strh	r3, [r4]
 157:dac.c         ****     AD5627_SetDAC(ch, dac_value);
 494              		.loc 1 157 0
 495 0034 1223     		movs	r3, #18
 496 0036 FB18     		adds	r3, r7, r3
 497 0038 1A88     		ldrh	r2, [r3]
 498 003a 0F23     		movs	r3, #15
 499 003c FB18     		adds	r3, r7, r3
 500 003e 1B78     		ldrb	r3, [r3]
 501 0040 1100     		movs	r1, r2
 502 0042 1800     		movs	r0, r3
 503 0044 FFF7FEFF 		bl	AD5627_SetDAC
 158:dac.c         **** }
 504              		.loc 1 158 0
 505 0048 C046     		nop
 506 004a BD46     		mov	sp, r7
 507 004c 07B0     		add	sp, sp, #28
 508              		@ sp needed
 509 004e 90BD     		pop	{r4, r7, pc}
 510              		.cfi_endproc
 511              	.LFE40:
 512              		.size	UpdateCurrentLoopOutput, .-UpdateCurrentLoopOutput
 513              		.section	.text.Set_Output_mA,"ax",%progbits
 514              		.align	2
 515              		.global	Set_Output_mA
 516              		.code	16
 517              		.thumb_func
 518              		.type	Set_Output_mA, %function
 519              	Set_Output_mA:
 520              	.LFB41:
 159:dac.c         **** 
 160:dac.c         **** 
 161:dac.c         **** void Set_Output_mA(uint8_t ch, float desired_mA)
 162:dac.c         **** {
 521              		.loc 1 162 0
 522              		.cfi_startproc
ARM GAS  C:\Users\alexport\AppData\Local\Temp\ccSzUPYv.s 			page 13


 523              		@ args = 0, pretend = 0, frame = 16
 524              		@ frame_needed = 1, uses_anonymous_args = 0
 525 0000 90B5     		push	{r4, r7, lr}
 526              		.cfi_def_cfa_offset 12
 527              		.cfi_offset 4, -12
 528              		.cfi_offset 7, -8
 529              		.cfi_offset 14, -4
 530 0002 85B0     		sub	sp, sp, #20
 531              		.cfi_def_cfa_offset 32
 532 0004 00AF     		add	r7, sp, #0
 533              		.cfi_def_cfa_register 7
 534 0006 0200     		movs	r2, r0
 535 0008 3960     		str	r1, [r7]
 536 000a FB1D     		adds	r3, r7, #7
 537 000c 1A70     		strb	r2, [r3]
 163:dac.c         ****     uint16_t dac_value = Convert_mA_to_DAC(desired_mA);
 538              		.loc 1 163 0
 539 000e 0E23     		movs	r3, #14
 540 0010 FC18     		adds	r4, r7, r3
 541 0012 3B68     		ldr	r3, [r7]
 542 0014 181C     		adds	r0, r3, #0
 543 0016 FFF7FEFF 		bl	Convert_mA_to_DAC
 544 001a 0300     		movs	r3, r0
 545 001c 2380     		strh	r3, [r4]
 164:dac.c         ****     AD5627_SetDAC(ch, dac_value);
 546              		.loc 1 164 0
 547 001e 0E23     		movs	r3, #14
 548 0020 FB18     		adds	r3, r7, r3
 549 0022 1A88     		ldrh	r2, [r3]
 550 0024 FB1D     		adds	r3, r7, #7
 551 0026 1B78     		ldrb	r3, [r3]
 552 0028 1100     		movs	r1, r2
 553 002a 1800     		movs	r0, r3
 554 002c FFF7FEFF 		bl	AD5627_SetDAC
 165:dac.c         **** }
 555              		.loc 1 165 0
 556 0030 C046     		nop
 557 0032 BD46     		mov	sp, r7
 558 0034 05B0     		add	sp, sp, #20
 559              		@ sp needed
 560 0036 90BD     		pop	{r4, r7, pc}
 561              		.cfi_endproc
 562              	.LFE41:
 563              		.size	Set_Output_mA, .-Set_Output_mA
 564              		.text
 565              	.Letext0:
 566              		.file 2 "c:\\program files (x86)\\cypress\\psoc creator\\4.4\\psoc creator\\import\\gnu\\arm\\5.4.
 567              		.file 3 "c:\\program files (x86)\\cypress\\psoc creator\\4.4\\psoc creator\\import\\gnu\\arm\\5.4.
 568              		.file 4 "Generated_Source\\PSoC4/cytypes.h"