ARM GAS  C:\Users\alexport\AppData\Local\Temp\ccpT2TKB.s 			page 1


   1              		.syntax unified
   2              		.cpu cortex-m0
   3              		.fpu softvfp
   4              		.eabi_attribute 20, 1
   5              		.eabi_attribute 21, 1
   6              		.eabi_attribute 23, 3
   7              		.eabi_attribute 24, 1
   8              		.eabi_attribute 25, 1
   9              		.eabi_attribute 26, 1
  10              		.eabi_attribute 30, 6
  11              		.eabi_attribute 34, 0
  12              		.eabi_attribute 18, 4
  13              		.thumb
  14              		.syntax unified
  15              		.file	"eeprom.c"
  16              		.text
  17              	.Ltext0:
  18              		.cfi_sections	.debug_frame
  19              		.section	.text.EEPROM_WriteBytes,"ax",%progbits
  20              		.align	2
  21              		.global	EEPROM_WriteBytes
  22              		.code	16
  23              		.thumb_func
  24              		.type	EEPROM_WriteBytes, %function
  25              	EEPROM_WriteBytes:
  26              	.LFB35:
  27              		.file 1 "eeprom.c"
   1:eeprom.c      **** /* ========================================
   2:eeprom.c      ****  *
   3:eeprom.c      ****  * Copyright YOUR COMPANY, THE YEAR
   4:eeprom.c      ****  * All Rights Reserved
   5:eeprom.c      ****  * UNPUBLISHED, LICENSED SOFTWARE.
   6:eeprom.c      ****  *
   7:eeprom.c      ****  * CONFIDENTIAL AND PROPRIETARY INFORMATION
   8:eeprom.c      ****  * WHICH IS THE PROPERTY OF your company.
   9:eeprom.c      ****  *
  10:eeprom.c      ****  * ========================================
  11:eeprom.c      **** */
  12:eeprom.c      **** #include "eeprom.h"
  13:eeprom.c      **** /***************************************
  14:eeprom.c      **** *            Variabeles
  15:eeprom.c      **** ****************************************/
  16:eeprom.c      **** 
  17:eeprom.c      **** /* RAM variables */
  18:eeprom.c      **** 
  19:eeprom.c      **** 
  20:eeprom.c      **** void EEPROM_WriteBytes(uint16_t memAddr, uint8_t *data, uint16_t len)
  21:eeprom.c      **** {
  28              		.loc 1 21 0
  29              		.cfi_startproc
  30              		@ args = 0, pretend = 0, frame = 40
  31              		@ frame_needed = 1, uses_anonymous_args = 0
  32 0000 F0B5     		push	{r4, r5, r6, r7, lr}
  33              		.cfi_def_cfa_offset 20
  34              		.cfi_offset 4, -20
  35              		.cfi_offset 5, -16
  36              		.cfi_offset 6, -12
ARM GAS  C:\Users\alexport\AppData\Local\Temp\ccpT2TKB.s 			page 2


  37              		.cfi_offset 7, -8
  38              		.cfi_offset 14, -4
  39 0002 8BB0     		sub	sp, sp, #44
  40              		.cfi_def_cfa_offset 64
  41 0004 00AF     		add	r7, sp, #0
  42              		.cfi_def_cfa_register 7
  43 0006 7860     		str	r0, [r7, #4]
  44 0008 B961     		str	r1, [r7, #24]
  45 000a 1000     		movs	r0, r2
  46 000c 1E22     		movs	r2, #30
  47 000e BA18     		adds	r2, r7, r2
  48 0010 B988     		ldrh	r1, [r7, #4]
  49 0012 1180     		strh	r1, [r2]
  50 0014 1C22     		movs	r2, #28
  51 0016 BA18     		adds	r2, r7, r2
  52 0018 011C     		adds	r1, r0, #0
  53 001a 1180     		strh	r1, [r2]
  54              		.loc 1 21 0
  55 001c 6A46     		mov	r2, sp
  56 001e 7A60     		str	r2, [r7, #4]
  22:eeprom.c      ****     uint8_t buf[2 + len];
  57              		.loc 1 22 0
  58 0020 1C22     		movs	r2, #28
  59 0022 BA18     		adds	r2, r7, r2
  60 0024 1288     		ldrh	r2, [r2]
  61 0026 0232     		adds	r2, r2, #2
  62 0028 1100     		movs	r1, r2
  63 002a 0A00     		movs	r2, r1
  64 002c 013A     		subs	r2, r2, #1
  65 002e 7A62     		str	r2, [r7, #36]
  66 0030 0A00     		movs	r2, r1
  67 0032 3A61     		str	r2, [r7, #16]
  68 0034 0022     		movs	r2, #0
  69 0036 7A61     		str	r2, [r7, #20]
  70 0038 3A69     		ldr	r2, [r7, #16]
  71 003a 520F     		lsrs	r2, r2, #29
  72 003c 7869     		ldr	r0, [r7, #20]
  73 003e C600     		lsls	r6, r0, #3
  74 0040 1643     		orrs	r6, r2
  75 0042 3A69     		ldr	r2, [r7, #16]
  76 0044 D500     		lsls	r5, r2, #3
  77 0046 0A00     		movs	r2, r1
  78 0048 BA60     		str	r2, [r7, #8]
  79 004a 0022     		movs	r2, #0
  80 004c FA60     		str	r2, [r7, #12]
  81 004e BD68     		ldr	r5, [r7, #8]
  82 0050 FE68     		ldr	r6, [r7, #12]
  83 0052 2A00     		movs	r2, r5
  84 0054 520F     		lsrs	r2, r2, #29
  85 0056 3000     		movs	r0, r6
  86 0058 C400     		lsls	r4, r0, #3
  87 005a 1443     		orrs	r4, r2
  88 005c 2A00     		movs	r2, r5
  89 005e D300     		lsls	r3, r2, #3
  90 0060 0C00     		movs	r4, r1
  91 0062 2300     		movs	r3, r4
  92 0064 0733     		adds	r3, r3, #7
ARM GAS  C:\Users\alexport\AppData\Local\Temp\ccpT2TKB.s 			page 3


  93 0066 DB08     		lsrs	r3, r3, #3
  94 0068 DB00     		lsls	r3, r3, #3
  95 006a 6A46     		mov	r2, sp
  96 006c D31A     		subs	r3, r2, r3
  97 006e 9D46     		mov	sp, r3
  98 0070 6B46     		mov	r3, sp
  99 0072 0033     		adds	r3, r3, #0
 100 0074 3B62     		str	r3, [r7, #32]
  23:eeprom.c      ****     buf[0] = (uint8_t)(memAddr >> 8);  // High byte of memory address
 101              		.loc 1 23 0
 102 0076 1E23     		movs	r3, #30
 103 0078 FB18     		adds	r3, r7, r3
 104 007a 1B88     		ldrh	r3, [r3]
 105 007c 1B0A     		lsrs	r3, r3, #8
 106 007e 9BB2     		uxth	r3, r3
 107 0080 DAB2     		uxtb	r2, r3
 108 0082 3B6A     		ldr	r3, [r7, #32]
 109 0084 1A70     		strb	r2, [r3]
  24:eeprom.c      ****     buf[1] = (uint8_t)(memAddr & 0xFF); // Low byte of memory address
 110              		.loc 1 24 0
 111 0086 1E23     		movs	r3, #30
 112 0088 FB18     		adds	r3, r7, r3
 113 008a 1B88     		ldrh	r3, [r3]
 114 008c DAB2     		uxtb	r2, r3
 115 008e 3B6A     		ldr	r3, [r7, #32]
 116 0090 5A70     		strb	r2, [r3, #1]
  25:eeprom.c      ****     memcpy(&buf[2], data, len);
 117              		.loc 1 25 0
 118 0092 3B6A     		ldr	r3, [r7, #32]
 119 0094 981C     		adds	r0, r3, #2
 120 0096 1C23     		movs	r3, #28
 121 0098 FB18     		adds	r3, r7, r3
 122 009a 1A88     		ldrh	r2, [r3]
 123 009c BB69     		ldr	r3, [r7, #24]
 124 009e 1900     		movs	r1, r3
 125 00a0 FFF7FEFF 		bl	memcpy
  26:eeprom.c      **** 
  27:eeprom.c      ****     I2C_I2CMasterWriteBuf(EEPROM_I2C_ADDRESS, buf, sizeof(buf), I2C_I2C_MODE_COMPLETE_XFER);
 126              		.loc 1 27 0
 127 00a4 396A     		ldr	r1, [r7, #32]
 128 00a6 2200     		movs	r2, r4
 129 00a8 0023     		movs	r3, #0
 130 00aa 5020     		movs	r0, #80
 131 00ac FFF7FEFF 		bl	I2C_I2CMasterWriteBuf
  28:eeprom.c      ****     while (I2C_I2CMasterStatus() & I2C_I2C_MSTAT_XFER_INP);
 132              		.loc 1 28 0
 133 00b0 C046     		nop
 134              	.L2:
 135              		.loc 1 28 0 is_stmt 0 discriminator 1
 136 00b2 FFF7FEFF 		bl	I2C_I2CMasterStatus
 137 00b6 0200     		movs	r2, r0
 138 00b8 0423     		movs	r3, #4
 139 00ba 1340     		ands	r3, r2
 140 00bc F9D1     		bne	.L2
 141 00be 7B68     		ldr	r3, [r7, #4]
 142 00c0 9D46     		mov	sp, r3
  29:eeprom.c      **** 
ARM GAS  C:\Users\alexport\AppData\Local\Temp\ccpT2TKB.s 			page 4


  30:eeprom.c      ****     // Wait for internal write cycle (~5 ms for EEPROM)
  31:eeprom.c      ****     //CyDelay(5);
  32:eeprom.c      **** }
 143              		.loc 1 32 0 is_stmt 1
 144 00c2 C046     		nop
 145 00c4 BD46     		mov	sp, r7
 146 00c6 0BB0     		add	sp, sp, #44
 147              		@ sp needed
 148 00c8 F0BD     		pop	{r4, r5, r6, r7, pc}
 149              		.cfi_endproc
 150              	.LFE35:
 151              		.size	EEPROM_WriteBytes, .-EEPROM_WriteBytes
 152 00ca C046     		.section	.text.EEPROM_ReadBytes,"ax",%progbits
 153              		.align	2
 154              		.global	EEPROM_ReadBytes
 155              		.code	16
 156              		.thumb_func
 157              		.type	EEPROM_ReadBytes, %function
 158              	EEPROM_ReadBytes:
 159              	.LFB36:
  33:eeprom.c      **** 
  34:eeprom.c      **** 
  35:eeprom.c      **** // Read a sequence of bytes starting at memory address `memAddr`
  36:eeprom.c      **** void EEPROM_ReadBytes(uint16_t memAddr, uint8_t *data, uint16_t len)
  37:eeprom.c      **** {
 160              		.loc 1 37 0
 161              		.cfi_startproc
 162              		@ args = 0, pretend = 0, frame = 16
 163              		@ frame_needed = 1, uses_anonymous_args = 0
 164 0000 80B5     		push	{r7, lr}
 165              		.cfi_def_cfa_offset 8
 166              		.cfi_offset 7, -8
 167              		.cfi_offset 14, -4
 168 0002 84B0     		sub	sp, sp, #16
 169              		.cfi_def_cfa_offset 24
 170 0004 00AF     		add	r7, sp, #0
 171              		.cfi_def_cfa_register 7
 172 0006 3960     		str	r1, [r7]
 173 0008 1100     		movs	r1, r2
 174 000a BB1D     		adds	r3, r7, #6
 175 000c 021C     		adds	r2, r0, #0
 176 000e 1A80     		strh	r2, [r3]
 177 0010 3B1D     		adds	r3, r7, #4
 178 0012 0A1C     		adds	r2, r1, #0
 179 0014 1A80     		strh	r2, [r3]
  38:eeprom.c      ****     uint8_t addrBuf[2];
  39:eeprom.c      ****     addrBuf[0] = (uint8_t)(memAddr >> 8);
 180              		.loc 1 39 0
 181 0016 BB1D     		adds	r3, r7, #6
 182 0018 1B88     		ldrh	r3, [r3]
 183 001a 1B0A     		lsrs	r3, r3, #8
 184 001c 9BB2     		uxth	r3, r3
 185 001e DAB2     		uxtb	r2, r3
 186 0020 0C23     		movs	r3, #12
 187 0022 FB18     		adds	r3, r7, r3
 188 0024 1A70     		strb	r2, [r3]
  40:eeprom.c      ****     addrBuf[1] = (uint8_t)(memAddr & 0xFF);
ARM GAS  C:\Users\alexport\AppData\Local\Temp\ccpT2TKB.s 			page 5


 189              		.loc 1 40 0
 190 0026 BB1D     		adds	r3, r7, #6
 191 0028 1B88     		ldrh	r3, [r3]
 192 002a DAB2     		uxtb	r2, r3
 193 002c 0C23     		movs	r3, #12
 194 002e FB18     		adds	r3, r7, r3
 195 0030 5A70     		strb	r2, [r3, #1]
  41:eeprom.c      **** 
  42:eeprom.c      ****     // Send memory address
  43:eeprom.c      ****     I2C_I2CMasterWriteBuf(EEPROM_I2C_ADDRESS, addrBuf, 2, I2C_I2C_MODE_COMPLETE_XFER);
 196              		.loc 1 43 0
 197 0032 0C23     		movs	r3, #12
 198 0034 F918     		adds	r1, r7, r3
 199 0036 0023     		movs	r3, #0
 200 0038 0222     		movs	r2, #2
 201 003a 5020     		movs	r0, #80
 202 003c FFF7FEFF 		bl	I2C_I2CMasterWriteBuf
  44:eeprom.c      ****     while (I2C_I2CMasterStatus() & I2C_I2C_MSTAT_XFER_INP);
 203              		.loc 1 44 0
 204 0040 C046     		nop
 205              	.L4:
 206              		.loc 1 44 0 is_stmt 0 discriminator 1
 207 0042 FFF7FEFF 		bl	I2C_I2CMasterStatus
 208 0046 0200     		movs	r2, r0
 209 0048 0423     		movs	r3, #4
 210 004a 1340     		ands	r3, r2
 211 004c F9D1     		bne	.L4
  45:eeprom.c      **** 
  46:eeprom.c      ****     // Read data
  47:eeprom.c      ****     I2C_I2CMasterReadBuf(EEPROM_I2C_ADDRESS, data, len, I2C_I2C_MODE_COMPLETE_XFER);
 212              		.loc 1 47 0 is_stmt 1
 213 004e 3B1D     		adds	r3, r7, #4
 214 0050 1A88     		ldrh	r2, [r3]
 215 0052 3968     		ldr	r1, [r7]
 216 0054 0023     		movs	r3, #0
 217 0056 5020     		movs	r0, #80
 218 0058 FFF7FEFF 		bl	I2C_I2CMasterReadBuf
  48:eeprom.c      ****     while (I2C_I2CMasterStatus() & I2C_I2C_MSTAT_XFER_INP);
 219              		.loc 1 48 0
 220 005c C046     		nop
 221              	.L5:
 222              		.loc 1 48 0 is_stmt 0 discriminator 1
 223 005e FFF7FEFF 		bl	I2C_I2CMasterStatus
 224 0062 0200     		movs	r2, r0
 225 0064 0423     		movs	r3, #4
 226 0066 1340     		ands	r3, r2
 227 0068 F9D1     		bne	.L5
  49:eeprom.c      **** }
 228              		.loc 1 49 0 is_stmt 1
 229 006a C046     		nop
 230 006c BD46     		mov	sp, r7
 231 006e 04B0     		add	sp, sp, #16
 232              		@ sp needed
 233 0070 80BD     		pop	{r7, pc}
 234              		.cfi_endproc
 235              	.LFE36:
 236              		.size	EEPROM_ReadBytes, .-EEPROM_ReadBytes
ARM GAS  C:\Users\alexport\AppData\Local\Temp\ccpT2TKB.s 			page 6


 237 0072 C046     		.section	.text.EEPROM_GetMyAddress,"ax",%progbits
 238              		.align	2
 239              		.global	EEPROM_GetMyAddress
 240              		.code	16
 241              		.thumb_func
 242              		.type	EEPROM_GetMyAddress, %function
 243              	EEPROM_GetMyAddress:
 244              	.LFB37:
  50:eeprom.c      **** 
  51:eeprom.c      **** 
  52:eeprom.c      **** 
  53:eeprom.c      **** uint8_t EEPROM_GetMyAddress(void){
 245              		.loc 1 53 0
 246              		.cfi_startproc
 247              		@ args = 0, pretend = 0, frame = 8
 248              		@ frame_needed = 1, uses_anonymous_args = 0
 249 0000 80B5     		push	{r7, lr}
 250              		.cfi_def_cfa_offset 8
 251              		.cfi_offset 7, -8
 252              		.cfi_offset 14, -4
 253 0002 82B0     		sub	sp, sp, #8
 254              		.cfi_def_cfa_offset 16
 255 0004 00AF     		add	r7, sp, #0
 256              		.cfi_def_cfa_register 7
  54:eeprom.c      ****     uint8_t myaddr;
  55:eeprom.c      ****     EEPROM_ReadBytes(EEPROM_MY_ADDRESS_REG, &myaddr, 1);
 257              		.loc 1 55 0
 258 0006 FB1D     		adds	r3, r7, #7
 259 0008 0122     		movs	r2, #1
 260 000a 1900     		movs	r1, r3
 261 000c 0020     		movs	r0, #0
 262 000e FFF7FEFF 		bl	EEPROM_ReadBytes
  56:eeprom.c      ****     if((myaddr==0xFF)||(myaddr==0))
 263              		.loc 1 56 0
 264 0012 FB1D     		adds	r3, r7, #7
 265 0014 1B78     		ldrb	r3, [r3]
 266 0016 FF2B     		cmp	r3, #255
 267 0018 03D0     		beq	.L7
 268              		.loc 1 56 0 is_stmt 0 discriminator 1
 269 001a FB1D     		adds	r3, r7, #7
 270 001c 1B78     		ldrb	r3, [r3]
 271 001e 002B     		cmp	r3, #0
 272 0020 02D1     		bne	.L8
 273              	.L7:
  57:eeprom.c      ****         myaddr = MODBUS_MY_DEFAULT_ADDRESS;
 274              		.loc 1 57 0 is_stmt 1
 275 0022 FB1D     		adds	r3, r7, #7
 276 0024 0122     		movs	r2, #1
 277 0026 1A70     		strb	r2, [r3]
 278              	.L8:
  58:eeprom.c      ****     return myaddr;
 279              		.loc 1 58 0
 280 0028 FB1D     		adds	r3, r7, #7
 281 002a 1B78     		ldrb	r3, [r3]
  59:eeprom.c      **** }
 282              		.loc 1 59 0
 283 002c 1800     		movs	r0, r3
ARM GAS  C:\Users\alexport\AppData\Local\Temp\ccpT2TKB.s 			page 7


 284 002e BD46     		mov	sp, r7
 285 0030 02B0     		add	sp, sp, #8
 286              		@ sp needed
 287 0032 80BD     		pop	{r7, pc}
 288              		.cfi_endproc
 289              	.LFE37:
 290              		.size	EEPROM_GetMyAddress, .-EEPROM_GetMyAddress
 291              		.section	.text.EEPROM_SetMyAddress,"ax",%progbits
 292              		.align	2
 293              		.global	EEPROM_SetMyAddress
 294              		.code	16
 295              		.thumb_func
 296              		.type	EEPROM_SetMyAddress, %function
 297              	EEPROM_SetMyAddress:
 298              	.LFB38:
  60:eeprom.c      **** 
  61:eeprom.c      **** void EEPROM_SetMyAddress(uint8_t* addr){
 299              		.loc 1 61 0
 300              		.cfi_startproc
 301              		@ args = 0, pretend = 0, frame = 8
 302              		@ frame_needed = 1, uses_anonymous_args = 0
 303 0000 80B5     		push	{r7, lr}
 304              		.cfi_def_cfa_offset 8
 305              		.cfi_offset 7, -8
 306              		.cfi_offset 14, -4
 307 0002 82B0     		sub	sp, sp, #8
 308              		.cfi_def_cfa_offset 16
 309 0004 00AF     		add	r7, sp, #0
 310              		.cfi_def_cfa_register 7
 311 0006 7860     		str	r0, [r7, #4]
  62:eeprom.c      ****     
  63:eeprom.c      ****     if(*addr > MODBUS_MAXIMAL_ADDRESS)
 312              		.loc 1 63 0
 313 0008 7B68     		ldr	r3, [r7, #4]
 314 000a 1B78     		ldrb	r3, [r3]
 315 000c F02B     		cmp	r3, #240
 316 000e 02D9     		bls	.L11
  64:eeprom.c      ****       *addr = MODBUS_MY_DEFAULT_ADDRESS;
 317              		.loc 1 64 0
 318 0010 7B68     		ldr	r3, [r7, #4]
 319 0012 0122     		movs	r2, #1
 320 0014 1A70     		strb	r2, [r3]
 321              	.L11:
  65:eeprom.c      ****     EEPROM_WriteBytes(EEPROM_MY_ADDRESS_REG, addr, 1);
 322              		.loc 1 65 0
 323 0016 7B68     		ldr	r3, [r7, #4]
 324 0018 0122     		movs	r2, #1
 325 001a 1900     		movs	r1, r3
 326 001c 0020     		movs	r0, #0
 327 001e FFF7FEFF 		bl	EEPROM_WriteBytes
  66:eeprom.c      ****     
  67:eeprom.c      **** }
 328              		.loc 1 67 0
 329 0022 C046     		nop
 330 0024 BD46     		mov	sp, r7
 331 0026 02B0     		add	sp, sp, #8
 332              		@ sp needed
ARM GAS  C:\Users\alexport\AppData\Local\Temp\ccpT2TKB.s 			page 8


 333 0028 80BD     		pop	{r7, pc}
 334              		.cfi_endproc
 335              	.LFE38:
 336              		.size	EEPROM_SetMyAddress, .-EEPROM_SetMyAddress
 337 002a C046     		.section	.text.EEPROM_GetI2CPeriod,"ax",%progbits
 338              		.align	2
 339              		.global	EEPROM_GetI2CPeriod
 340              		.code	16
 341              		.thumb_func
 342              		.type	EEPROM_GetI2CPeriod, %function
 343              	EEPROM_GetI2CPeriod:
 344              	.LFB39:
  68:eeprom.c      **** 
  69:eeprom.c      **** uint16_t EEPROM_GetI2CPeriod(void){
 345              		.loc 1 69 0
 346              		.cfi_startproc
 347              		@ args = 0, pretend = 0, frame = 8
 348              		@ frame_needed = 1, uses_anonymous_args = 0
 349 0000 80B5     		push	{r7, lr}
 350              		.cfi_def_cfa_offset 8
 351              		.cfi_offset 7, -8
 352              		.cfi_offset 14, -4
 353 0002 82B0     		sub	sp, sp, #8
 354              		.cfi_def_cfa_offset 16
 355 0004 00AF     		add	r7, sp, #0
 356              		.cfi_def_cfa_register 7
  70:eeprom.c      ****     uint16_t i2c_period;
  71:eeprom.c      ****     uint8_t data[2];
  72:eeprom.c      ****     
  73:eeprom.c      ****     EEPROM_ReadBytes(EEPROM_I2C_PERIOD_MSB_REG, data, sizeof(data));
 357              		.loc 1 73 0
 358 0006 3B1D     		adds	r3, r7, #4
 359 0008 0222     		movs	r2, #2
 360 000a 1900     		movs	r1, r3
 361 000c 0120     		movs	r0, #1
 362 000e FFF7FEFF 		bl	EEPROM_ReadBytes
  74:eeprom.c      ****     i2c_period =data[0];
 363              		.loc 1 74 0
 364 0012 3B1D     		adds	r3, r7, #4
 365 0014 1A78     		ldrb	r2, [r3]
 366 0016 BB1D     		adds	r3, r7, #6
 367 0018 1A80     		strh	r2, [r3]
  75:eeprom.c      ****     i2c_period = (i2c_period<<8)+data[1];
 368              		.loc 1 75 0
 369 001a BB1D     		adds	r3, r7, #6
 370 001c 1B88     		ldrh	r3, [r3]
 371 001e 1B02     		lsls	r3, r3, #8
 372 0020 99B2     		uxth	r1, r3
 373 0022 3B1D     		adds	r3, r7, #4
 374 0024 5B78     		ldrb	r3, [r3, #1]
 375 0026 9AB2     		uxth	r2, r3
 376 0028 BB1D     		adds	r3, r7, #6
 377 002a 8A18     		adds	r2, r1, r2
 378 002c 1A80     		strh	r2, [r3]
  76:eeprom.c      ****     if((i2c_period==0xFFFF)||((i2c_period<MINIMAL_DEFAULT_I2C_PERIOD)))
 379              		.loc 1 76 0
 380 002e BB1D     		adds	r3, r7, #6
ARM GAS  C:\Users\alexport\AppData\Local\Temp\ccpT2TKB.s 			page 9


 381 0030 1B88     		ldrh	r3, [r3]
 382 0032 0D4A     		ldr	r2, .L17
 383 0034 9342     		cmp	r3, r2
 384 0036 03D0     		beq	.L13
 385              		.loc 1 76 0 is_stmt 0 discriminator 1
 386 0038 BB1D     		adds	r3, r7, #6
 387 003a 1B88     		ldrh	r3, [r3]
 388 003c F92B     		cmp	r3, #249
 389 003e 03D8     		bhi	.L14
 390              	.L13:
  77:eeprom.c      ****         i2c_period = MINIMAL_DEFAULT_I2C_PERIOD;
 391              		.loc 1 77 0 is_stmt 1
 392 0040 BB1D     		adds	r3, r7, #6
 393 0042 FA22     		movs	r2, #250
 394 0044 1A80     		strh	r2, [r3]
 395 0046 09E0     		b	.L15
 396              	.L14:
  78:eeprom.c      ****     else if (i2c_period>MAXIMAL_DEFAULT_I2C_PERIOD)
 397              		.loc 1 78 0
 398 0048 BB1D     		adds	r3, r7, #6
 399 004a 1A88     		ldrh	r2, [r3]
 400 004c FA23     		movs	r3, #250
 401 004e 9B00     		lsls	r3, r3, #2
 402 0050 9A42     		cmp	r2, r3
 403 0052 03D9     		bls	.L15
  79:eeprom.c      ****         i2c_period=MAXIMAL_DEFAULT_I2C_PERIOD;
 404              		.loc 1 79 0
 405 0054 BB1D     		adds	r3, r7, #6
 406 0056 FA22     		movs	r2, #250
 407 0058 9200     		lsls	r2, r2, #2
 408 005a 1A80     		strh	r2, [r3]
 409              	.L15:
  80:eeprom.c      ****     return i2c_period;
 410              		.loc 1 80 0
 411 005c BB1D     		adds	r3, r7, #6
 412 005e 1B88     		ldrh	r3, [r3]
  81:eeprom.c      **** }
 413              		.loc 1 81 0
 414 0060 1800     		movs	r0, r3
 415 0062 BD46     		mov	sp, r7
 416 0064 02B0     		add	sp, sp, #8
 417              		@ sp needed
 418 0066 80BD     		pop	{r7, pc}
 419              	.L18:
 420              		.align	2
 421              	.L17:
 422 0068 FFFF0000 		.word	65535
 423              		.cfi_endproc
 424              	.LFE39:
 425              		.size	EEPROM_GetI2CPeriod, .-EEPROM_GetI2CPeriod
 426              		.section	.text.EEPROM_SetI2CPeriod,"ax",%progbits
 427              		.align	2
 428              		.global	EEPROM_SetI2CPeriod
 429              		.code	16
 430              		.thumb_func
 431              		.type	EEPROM_SetI2CPeriod, %function
 432              	EEPROM_SetI2CPeriod:
ARM GAS  C:\Users\alexport\AppData\Local\Temp\ccpT2TKB.s 			page 10


 433              	.LFB40:
  82:eeprom.c      **** 
  83:eeprom.c      **** void EEPROM_SetI2CPeriod(uint16_t period){
 434              		.loc 1 83 0
 435              		.cfi_startproc
 436              		@ args = 0, pretend = 0, frame = 16
 437              		@ frame_needed = 1, uses_anonymous_args = 0
 438 0000 80B5     		push	{r7, lr}
 439              		.cfi_def_cfa_offset 8
 440              		.cfi_offset 7, -8
 441              		.cfi_offset 14, -4
 442 0002 84B0     		sub	sp, sp, #16
 443              		.cfi_def_cfa_offset 24
 444 0004 00AF     		add	r7, sp, #0
 445              		.cfi_def_cfa_register 7
 446 0006 0200     		movs	r2, r0
 447 0008 BB1D     		adds	r3, r7, #6
 448 000a 1A80     		strh	r2, [r3]
  84:eeprom.c      ****     
  85:eeprom.c      ****     
  86:eeprom.c      ****     uint8_t data[2];
  87:eeprom.c      ****     data[0]= (period>>8)&0xFF;
 449              		.loc 1 87 0
 450 000c BB1D     		adds	r3, r7, #6
 451 000e 1B88     		ldrh	r3, [r3]
 452 0010 1B0A     		lsrs	r3, r3, #8
 453 0012 9BB2     		uxth	r3, r3
 454 0014 DAB2     		uxtb	r2, r3
 455 0016 0C23     		movs	r3, #12
 456 0018 FB18     		adds	r3, r7, r3
 457 001a 1A70     		strb	r2, [r3]
  88:eeprom.c      ****     data[1]= period&0xFF;
 458              		.loc 1 88 0
 459 001c BB1D     		adds	r3, r7, #6
 460 001e 1B88     		ldrh	r3, [r3]
 461 0020 DAB2     		uxtb	r2, r3
 462 0022 0C23     		movs	r3, #12
 463 0024 FB18     		adds	r3, r7, r3
 464 0026 5A70     		strb	r2, [r3, #1]
  89:eeprom.c      ****     EEPROM_WriteBytes(EEPROM_I2C_PERIOD_MSB_REG, data, sizeof(data));
 465              		.loc 1 89 0
 466 0028 0C23     		movs	r3, #12
 467 002a FB18     		adds	r3, r7, r3
 468 002c 0222     		movs	r2, #2
 469 002e 1900     		movs	r1, r3
 470 0030 0120     		movs	r0, #1
 471 0032 FFF7FEFF 		bl	EEPROM_WriteBytes
  90:eeprom.c      **** }
 472              		.loc 1 90 0
 473 0036 C046     		nop
 474 0038 BD46     		mov	sp, r7
 475 003a 04B0     		add	sp, sp, #16
 476              		@ sp needed
 477 003c 80BD     		pop	{r7, pc}
 478              		.cfi_endproc
 479              	.LFE40:
 480              		.size	EEPROM_SetI2CPeriod, .-EEPROM_SetI2CPeriod
ARM GAS  C:\Users\alexport\AppData\Local\Temp\ccpT2TKB.s 			page 11


 481 003e C046     		.section	.text.EEPROM_GetSleepPeriod,"ax",%progbits
 482              		.align	2
 483              		.global	EEPROM_GetSleepPeriod
 484              		.code	16
 485              		.thumb_func
 486              		.type	EEPROM_GetSleepPeriod, %function
 487              	EEPROM_GetSleepPeriod:
 488              	.LFB41:
  91:eeprom.c      **** 
  92:eeprom.c      **** 
  93:eeprom.c      **** uint32_t EEPROM_GetSleepPeriod(void){
 489              		.loc 1 93 0
 490              		.cfi_startproc
 491              		@ args = 0, pretend = 0, frame = 16
 492              		@ frame_needed = 1, uses_anonymous_args = 0
 493 0000 80B5     		push	{r7, lr}
 494              		.cfi_def_cfa_offset 8
 495              		.cfi_offset 7, -8
 496              		.cfi_offset 14, -4
 497 0002 84B0     		sub	sp, sp, #16
 498              		.cfi_def_cfa_offset 24
 499 0004 00AF     		add	r7, sp, #0
 500              		.cfi_def_cfa_register 7
  94:eeprom.c      ****     uint8_t data[4];
  95:eeprom.c      ****     uint32_t sleep_period;
  96:eeprom.c      ****     uint8_t reg = EEPROM_SLEEP_PERIOD1_REG;
 501              		.loc 1 96 0
 502 0006 0B23     		movs	r3, #11
 503 0008 FB18     		adds	r3, r7, r3
 504 000a 0322     		movs	r2, #3
 505 000c 1A70     		strb	r2, [r3]
  97:eeprom.c      ****     
  98:eeprom.c      ****     EEPROM_ReadBytes(EEPROM_SLEEP_PERIOD1_REG, data, sizeof(data));
 506              		.loc 1 98 0
 507 000e 3B1D     		adds	r3, r7, #4
 508 0010 0422     		movs	r2, #4
 509 0012 1900     		movs	r1, r3
 510 0014 0320     		movs	r0, #3
 511 0016 FFF7FEFF 		bl	EEPROM_ReadBytes
  99:eeprom.c      ****     
 100:eeprom.c      ****     sleep_period =data[0];
 512              		.loc 1 100 0
 513 001a 3B1D     		adds	r3, r7, #4
 514 001c 1B78     		ldrb	r3, [r3]
 515 001e FB60     		str	r3, [r7, #12]
 101:eeprom.c      ****     sleep_period = (sleep_period<<8)+data[1];
 516              		.loc 1 101 0
 517 0020 FB68     		ldr	r3, [r7, #12]
 518 0022 1B02     		lsls	r3, r3, #8
 519 0024 3A1D     		adds	r2, r7, #4
 520 0026 5278     		ldrb	r2, [r2, #1]
 521 0028 9B18     		adds	r3, r3, r2
 522 002a FB60     		str	r3, [r7, #12]
 102:eeprom.c      ****     sleep_period = (sleep_period<<8)+data[2];
 523              		.loc 1 102 0
 524 002c FB68     		ldr	r3, [r7, #12]
 525 002e 1B02     		lsls	r3, r3, #8
ARM GAS  C:\Users\alexport\AppData\Local\Temp\ccpT2TKB.s 			page 12


 526 0030 3A1D     		adds	r2, r7, #4
 527 0032 9278     		ldrb	r2, [r2, #2]
 528 0034 9B18     		adds	r3, r3, r2
 529 0036 FB60     		str	r3, [r7, #12]
 103:eeprom.c      ****     sleep_period = (sleep_period<<8)+data[3];
 530              		.loc 1 103 0
 531 0038 FB68     		ldr	r3, [r7, #12]
 532 003a 1B02     		lsls	r3, r3, #8
 533 003c 3A1D     		adds	r2, r7, #4
 534 003e D278     		ldrb	r2, [r2, #3]
 535 0040 9B18     		adds	r3, r3, r2
 536 0042 FB60     		str	r3, [r7, #12]
 104:eeprom.c      ****     
 105:eeprom.c      ****     if(sleep_period==0xFFFFFFFF)
 537              		.loc 1 105 0
 538 0044 FB68     		ldr	r3, [r7, #12]
 539 0046 0133     		adds	r3, r3, #1
 540 0048 02D1     		bne	.L21
 106:eeprom.c      ****         sleep_period = DEFAULT_SLEEP_PERIOD;
 541              		.loc 1 106 0
 542 004a 0A4B     		ldr	r3, .L25
 543 004c FB60     		str	r3, [r7, #12]
 544 004e 0CE0     		b	.L22
 545              	.L21:
 107:eeprom.c      ****     else if (sleep_period > MAXIMAL_SLEEP_PERIOD)
 546              		.loc 1 107 0
 547 0050 FB68     		ldr	r3, [r7, #12]
 548 0052 094A     		ldr	r2, .L25+4
 549 0054 9342     		cmp	r3, r2
 550 0056 02D9     		bls	.L23
 108:eeprom.c      ****         sleep_period = MAXIMAL_SLEEP_PERIOD;
 551              		.loc 1 108 0
 552 0058 074B     		ldr	r3, .L25+4
 553 005a FB60     		str	r3, [r7, #12]
 554 005c 05E0     		b	.L22
 555              	.L23:
 109:eeprom.c      ****     else if (sleep_period < MINIMAL_SLEEP_PERIOD)
 556              		.loc 1 109 0
 557 005e FB68     		ldr	r3, [r7, #12]
 558 0060 064A     		ldr	r2, .L25+8
 559 0062 9342     		cmp	r3, r2
 560 0064 01D8     		bhi	.L22
 110:eeprom.c      ****         //sleep_period = MINIMAL_SLEEP_PERIOD;
 111:eeprom.c      ****         sleep_period = 0;
 561              		.loc 1 111 0
 562 0066 0023     		movs	r3, #0
 563 0068 FB60     		str	r3, [r7, #12]
 564              	.L22:
 112:eeprom.c      ****     return sleep_period;
 565              		.loc 1 112 0
 566 006a FB68     		ldr	r3, [r7, #12]
 113:eeprom.c      **** }
 567              		.loc 1 113 0
 568 006c 1800     		movs	r0, r3
 569 006e BD46     		mov	sp, r7
 570 0070 04B0     		add	sp, sp, #16
 571              		@ sp needed
ARM GAS  C:\Users\alexport\AppData\Local\Temp\ccpT2TKB.s 			page 13


 572 0072 80BD     		pop	{r7, pc}
 573              	.L26:
 574              		.align	2
 575              	.L25:
 576 0074 204E0000 		.word	20000
 577 0078 60EA0000 		.word	60000
 578 007c 0F270000 		.word	9999
 579              		.cfi_endproc
 580              	.LFE41:
 581              		.size	EEPROM_GetSleepPeriod, .-EEPROM_GetSleepPeriod
 582              		.section	.text.EEPROM_SetSleepPeriod,"ax",%progbits
 583              		.align	2
 584              		.global	EEPROM_SetSleepPeriod
 585              		.code	16
 586              		.thumb_func
 587              		.type	EEPROM_SetSleepPeriod, %function
 588              	EEPROM_SetSleepPeriod:
 589              	.LFB42:
 114:eeprom.c      **** 
 115:eeprom.c      **** void EEPROM_SetSleepPeriod(uint32_t period){
 590              		.loc 1 115 0
 591              		.cfi_startproc
 592              		@ args = 0, pretend = 0, frame = 16
 593              		@ frame_needed = 1, uses_anonymous_args = 0
 594 0000 80B5     		push	{r7, lr}
 595              		.cfi_def_cfa_offset 8
 596              		.cfi_offset 7, -8
 597              		.cfi_offset 14, -4
 598 0002 84B0     		sub	sp, sp, #16
 599              		.cfi_def_cfa_offset 24
 600 0004 00AF     		add	r7, sp, #0
 601              		.cfi_def_cfa_register 7
 602 0006 7860     		str	r0, [r7, #4]
 116:eeprom.c      ****     uint8_t data[4];
 117:eeprom.c      ****     data[0]= (period>>24)&0xFF;
 603              		.loc 1 117 0
 604 0008 7B68     		ldr	r3, [r7, #4]
 605 000a 1B0E     		lsrs	r3, r3, #24
 606 000c DAB2     		uxtb	r2, r3
 607 000e 0C23     		movs	r3, #12
 608 0010 FB18     		adds	r3, r7, r3
 609 0012 1A70     		strb	r2, [r3]
 118:eeprom.c      ****     data[1]= (period>>16)&0xFF;
 610              		.loc 1 118 0
 611 0014 7B68     		ldr	r3, [r7, #4]
 612 0016 1B0C     		lsrs	r3, r3, #16
 613 0018 DAB2     		uxtb	r2, r3
 614 001a 0C23     		movs	r3, #12
 615 001c FB18     		adds	r3, r7, r3
 616 001e 5A70     		strb	r2, [r3, #1]
 119:eeprom.c      ****     data[2]= (period>>8)&0xFF;
 617              		.loc 1 119 0
 618 0020 7B68     		ldr	r3, [r7, #4]
 619 0022 1B0A     		lsrs	r3, r3, #8
 620 0024 DAB2     		uxtb	r2, r3
 621 0026 0C23     		movs	r3, #12
 622 0028 FB18     		adds	r3, r7, r3
ARM GAS  C:\Users\alexport\AppData\Local\Temp\ccpT2TKB.s 			page 14


 623 002a 9A70     		strb	r2, [r3, #2]
 120:eeprom.c      ****     data[3]= period&0xFF;
 624              		.loc 1 120 0
 625 002c 7B68     		ldr	r3, [r7, #4]
 626 002e DAB2     		uxtb	r2, r3
 627 0030 0C23     		movs	r3, #12
 628 0032 FB18     		adds	r3, r7, r3
 629 0034 DA70     		strb	r2, [r3, #3]
 121:eeprom.c      ****     EEPROM_WriteBytes(EEPROM_SLEEP_PERIOD1_REG, data, sizeof(data));
 630              		.loc 1 121 0
 631 0036 0C23     		movs	r3, #12
 632 0038 FB18     		adds	r3, r7, r3
 633 003a 0422     		movs	r2, #4
 634 003c 1900     		movs	r1, r3
 635 003e 0320     		movs	r0, #3
 636 0040 FFF7FEFF 		bl	EEPROM_WriteBytes
 122:eeprom.c      ****     
 123:eeprom.c      ****     
 124:eeprom.c      ****     
 125:eeprom.c      **** }
 637              		.loc 1 125 0
 638 0044 C046     		nop
 639 0046 BD46     		mov	sp, r7
 640 0048 04B0     		add	sp, sp, #16
 641              		@ sp needed
 642 004a 80BD     		pop	{r7, pc}
 643              		.cfi_endproc
 644              	.LFE42:
 645              		.size	EEPROM_SetSleepPeriod, .-EEPROM_SetSleepPeriod
 646              		.section	.text.EEPROM_GetCh2Activity,"ax",%progbits
 647              		.align	2
 648              		.global	EEPROM_GetCh2Activity
 649              		.code	16
 650              		.thumb_func
 651              		.type	EEPROM_GetCh2Activity, %function
 652              	EEPROM_GetCh2Activity:
 653              	.LFB43:
 126:eeprom.c      **** 
 127:eeprom.c      **** uint8_t EEPROM_GetCh2Activity(void){
 654              		.loc 1 127 0
 655              		.cfi_startproc
 656              		@ args = 0, pretend = 0, frame = 8
 657              		@ frame_needed = 1, uses_anonymous_args = 0
 658 0000 80B5     		push	{r7, lr}
 659              		.cfi_def_cfa_offset 8
 660              		.cfi_offset 7, -8
 661              		.cfi_offset 14, -4
 662 0002 82B0     		sub	sp, sp, #8
 663              		.cfi_def_cfa_offset 16
 664 0004 00AF     		add	r7, sp, #0
 665              		.cfi_def_cfa_register 7
 128:eeprom.c      ****     uint8_t ch2Active;
 129:eeprom.c      ****     EEPROM_ReadBytes(EEPROM_CH2_ACTIVE_REG, &ch2Active, 1);
 666              		.loc 1 129 0
 667 0006 FB1D     		adds	r3, r7, #7
 668 0008 0122     		movs	r2, #1
 669 000a 1900     		movs	r1, r3
ARM GAS  C:\Users\alexport\AppData\Local\Temp\ccpT2TKB.s 			page 15


 670 000c 0720     		movs	r0, #7
 671 000e FFF7FEFF 		bl	EEPROM_ReadBytes
 130:eeprom.c      ****     
 131:eeprom.c      ****     if(ch2Active>1)
 672              		.loc 1 131 0
 673 0012 FB1D     		adds	r3, r7, #7
 674 0014 1B78     		ldrb	r3, [r3]
 675 0016 012B     		cmp	r3, #1
 676 0018 02D9     		bls	.L29
 132:eeprom.c      ****         ch2Active = CHANNEL2_ACTIVE_DEFAULT;
 677              		.loc 1 132 0
 678 001a FB1D     		adds	r3, r7, #7
 679 001c 0022     		movs	r2, #0
 680 001e 1A70     		strb	r2, [r3]
 681              	.L29:
 133:eeprom.c      ****     return ch2Active;
 682              		.loc 1 133 0
 683 0020 FB1D     		adds	r3, r7, #7
 684 0022 1B78     		ldrb	r3, [r3]
 134:eeprom.c      **** 
 135:eeprom.c      **** }
 685              		.loc 1 135 0
 686 0024 1800     		movs	r0, r3
 687 0026 BD46     		mov	sp, r7
 688 0028 02B0     		add	sp, sp, #8
 689              		@ sp needed
 690 002a 80BD     		pop	{r7, pc}
 691              		.cfi_endproc
 692              	.LFE43:
 693              		.size	EEPROM_GetCh2Activity, .-EEPROM_GetCh2Activity
 694              		.section	.text.EEPROM_SetCh2Activity,"ax",%progbits
 695              		.align	2
 696              		.global	EEPROM_SetCh2Activity
 697              		.code	16
 698              		.thumb_func
 699              		.type	EEPROM_SetCh2Activity, %function
 700              	EEPROM_SetCh2Activity:
 701              	.LFB44:
 136:eeprom.c      **** 
 137:eeprom.c      **** void EEPROM_SetCh2Activity(uint8_t active){
 702              		.loc 1 137 0
 703              		.cfi_startproc
 704              		@ args = 0, pretend = 0, frame = 16
 705              		@ frame_needed = 1, uses_anonymous_args = 0
 706 0000 80B5     		push	{r7, lr}
 707              		.cfi_def_cfa_offset 8
 708              		.cfi_offset 7, -8
 709              		.cfi_offset 14, -4
 710 0002 84B0     		sub	sp, sp, #16
 711              		.cfi_def_cfa_offset 24
 712 0004 00AF     		add	r7, sp, #0
 713              		.cfi_def_cfa_register 7
 714 0006 0200     		movs	r2, r0
 715 0008 FB1D     		adds	r3, r7, #7
 716 000a 1A70     		strb	r2, [r3]
 138:eeprom.c      ****     uint8_t data = active;
 717              		.loc 1 138 0
ARM GAS  C:\Users\alexport\AppData\Local\Temp\ccpT2TKB.s 			page 16


 718 000c 0F23     		movs	r3, #15
 719 000e FB18     		adds	r3, r7, r3
 720 0010 FA1D     		adds	r2, r7, #7
 721 0012 1278     		ldrb	r2, [r2]
 722 0014 1A70     		strb	r2, [r3]
 139:eeprom.c      ****     EEPROM_WriteBytes(EEPROM_CH2_ACTIVE_REG, &data, 1);
 723              		.loc 1 139 0
 724 0016 0F23     		movs	r3, #15
 725 0018 FB18     		adds	r3, r7, r3
 726 001a 0122     		movs	r2, #1
 727 001c 1900     		movs	r1, r3
 728 001e 0720     		movs	r0, #7
 729 0020 FFF7FEFF 		bl	EEPROM_WriteBytes
 140:eeprom.c      **** }
 730              		.loc 1 140 0
 731 0024 C046     		nop
 732 0026 BD46     		mov	sp, r7
 733 0028 04B0     		add	sp, sp, #16
 734              		@ sp needed
 735 002a 80BD     		pop	{r7, pc}
 736              		.cfi_endproc
 737              	.LFE44:
 738              		.size	EEPROM_SetCh2Activity, .-EEPROM_SetCh2Activity
 739              		.section	.text.EEPROM_GetRelaySetting,"ax",%progbits
 740              		.align	2
 741              		.global	EEPROM_GetRelaySetting
 742              		.code	16
 743              		.thumb_func
 744              		.type	EEPROM_GetRelaySetting, %function
 745              	EEPROM_GetRelaySetting:
 746              	.LFB45:
 141:eeprom.c      **** 
 142:eeprom.c      **** void EEPROM_GetRelaySetting(uint8_t* data){
 747              		.loc 1 142 0
 748              		.cfi_startproc
 749              		@ args = 0, pretend = 0, frame = 8
 750              		@ frame_needed = 1, uses_anonymous_args = 0
 751 0000 80B5     		push	{r7, lr}
 752              		.cfi_def_cfa_offset 8
 753              		.cfi_offset 7, -8
 754              		.cfi_offset 14, -4
 755 0002 82B0     		sub	sp, sp, #8
 756              		.cfi_def_cfa_offset 16
 757 0004 00AF     		add	r7, sp, #0
 758              		.cfi_def_cfa_register 7
 759 0006 7860     		str	r0, [r7, #4]
 143:eeprom.c      ****     EEPROM_ReadBytes(EEPROM_RELAY1_ENERG_REG, data, 12 );
 760              		.loc 1 143 0
 761 0008 7B68     		ldr	r3, [r7, #4]
 762 000a 0C22     		movs	r2, #12
 763 000c 1900     		movs	r1, r3
 764 000e 0820     		movs	r0, #8
 765 0010 FFF7FEFF 		bl	EEPROM_ReadBytes
 144:eeprom.c      **** }
 766              		.loc 1 144 0
 767 0014 C046     		nop
 768 0016 BD46     		mov	sp, r7
ARM GAS  C:\Users\alexport\AppData\Local\Temp\ccpT2TKB.s 			page 17


 769 0018 02B0     		add	sp, sp, #8
 770              		@ sp needed
 771 001a 80BD     		pop	{r7, pc}
 772              		.cfi_endproc
 773              	.LFE45:
 774              		.size	EEPROM_GetRelaySetting, .-EEPROM_GetRelaySetting
 775              		.section	.text.EEPROM_SetRelaySetting,"ax",%progbits
 776              		.align	2
 777              		.global	EEPROM_SetRelaySetting
 778              		.code	16
 779              		.thumb_func
 780              		.type	EEPROM_SetRelaySetting, %function
 781              	EEPROM_SetRelaySetting:
 782              	.LFB46:
 145:eeprom.c      **** 
 146:eeprom.c      **** void EEPROM_SetRelaySetting(uint8_t reg ,uint8_t val ){
 783              		.loc 1 146 0
 784              		.cfi_startproc
 785              		@ args = 0, pretend = 0, frame = 8
 786              		@ frame_needed = 1, uses_anonymous_args = 0
 787 0000 80B5     		push	{r7, lr}
 788              		.cfi_def_cfa_offset 8
 789              		.cfi_offset 7, -8
 790              		.cfi_offset 14, -4
 791 0002 82B0     		sub	sp, sp, #8
 792              		.cfi_def_cfa_offset 16
 793 0004 00AF     		add	r7, sp, #0
 794              		.cfi_def_cfa_register 7
 795 0006 0200     		movs	r2, r0
 796 0008 FB1D     		adds	r3, r7, #7
 797 000a 1A70     		strb	r2, [r3]
 798 000c BB1D     		adds	r3, r7, #6
 799 000e 0A1C     		adds	r2, r1, #0
 800 0010 1A70     		strb	r2, [r3]
 147:eeprom.c      ****     EEPROM_WriteBytes(reg, &val, 1);
 801              		.loc 1 147 0
 802 0012 FB1D     		adds	r3, r7, #7
 803 0014 1B78     		ldrb	r3, [r3]
 804 0016 9BB2     		uxth	r3, r3
 805 0018 B91D     		adds	r1, r7, #6
 806 001a 0122     		movs	r2, #1
 807 001c 1800     		movs	r0, r3
 808 001e FFF7FEFF 		bl	EEPROM_WriteBytes
 148:eeprom.c      **** }
 809              		.loc 1 148 0
 810 0022 C046     		nop
 811 0024 BD46     		mov	sp, r7
 812 0026 02B0     		add	sp, sp, #8
 813              		@ sp needed
 814 0028 80BD     		pop	{r7, pc}
 815              		.cfi_endproc
 816              	.LFE46:
 817              		.size	EEPROM_SetRelaySetting, .-EEPROM_SetRelaySetting
 818 002a C046     		.section	.text.EEPROM_SaveGPSLat,"ax",%progbits
 819              		.align	2
 820              		.global	EEPROM_SaveGPSLat
 821              		.code	16
ARM GAS  C:\Users\alexport\AppData\Local\Temp\ccpT2TKB.s 			page 18


 822              		.thumb_func
 823              		.type	EEPROM_SaveGPSLat, %function
 824              	EEPROM_SaveGPSLat:
 825              	.LFB47:
 149:eeprom.c      **** 
 150:eeprom.c      **** 
 151:eeprom.c      **** void EEPROM_SaveGPSLat(float lattitude){
 826              		.loc 1 151 0
 827              		.cfi_startproc
 828              		@ args = 0, pretend = 0, frame = 24
 829              		@ frame_needed = 1, uses_anonymous_args = 0
 830 0000 80B5     		push	{r7, lr}
 831              		.cfi_def_cfa_offset 8
 832              		.cfi_offset 7, -8
 833              		.cfi_offset 14, -4
 834 0002 86B0     		sub	sp, sp, #24
 835              		.cfi_def_cfa_offset 32
 836 0004 00AF     		add	r7, sp, #0
 837              		.cfi_def_cfa_register 7
 838 0006 7860     		str	r0, [r7, #4]
 152:eeprom.c      ****    uint8_t data[4];
 153:eeprom.c      ****    uint8_t inv[4];
 154:eeprom.c      ****     memcpy(data,&lattitude, sizeof(data) );    
 839              		.loc 1 154 0
 840 0008 1023     		movs	r3, #16
 841 000a FB18     		adds	r3, r7, r3
 842 000c 3A1D     		adds	r2, r7, #4
 843 000e 1268     		ldr	r2, [r2]
 844 0010 1A60     		str	r2, [r3]
 845              	.LBB2:
 155:eeprom.c      ****     for(uint8_t i=0 ;i<4;i++)
 846              		.loc 1 155 0
 847 0012 1723     		movs	r3, #23
 848 0014 FB18     		adds	r3, r7, r3
 849 0016 0022     		movs	r2, #0
 850 0018 1A70     		strb	r2, [r3]
 851 001a 14E0     		b	.L35
 852              	.L36:
 156:eeprom.c      ****       inv[3-i]=data[i];
 853              		.loc 1 156 0 discriminator 3
 854 001c 1723     		movs	r3, #23
 855 001e FB18     		adds	r3, r7, r3
 856 0020 1B78     		ldrb	r3, [r3]
 857 0022 0322     		movs	r2, #3
 858 0024 D31A     		subs	r3, r2, r3
 859 0026 1722     		movs	r2, #23
 860 0028 BA18     		adds	r2, r7, r2
 861 002a 1278     		ldrb	r2, [r2]
 862 002c 1021     		movs	r1, #16
 863 002e 7918     		adds	r1, r7, r1
 864 0030 895C     		ldrb	r1, [r1, r2]
 865 0032 0C22     		movs	r2, #12
 866 0034 BA18     		adds	r2, r7, r2
 867 0036 D154     		strb	r1, [r2, r3]
 155:eeprom.c      ****     for(uint8_t i=0 ;i<4;i++)
 868              		.loc 1 155 0 discriminator 3
 869 0038 1723     		movs	r3, #23
ARM GAS  C:\Users\alexport\AppData\Local\Temp\ccpT2TKB.s 			page 19


 870 003a FB18     		adds	r3, r7, r3
 871 003c 1A78     		ldrb	r2, [r3]
 872 003e 1723     		movs	r3, #23
 873 0040 FB18     		adds	r3, r7, r3
 874 0042 0132     		adds	r2, r2, #1
 875 0044 1A70     		strb	r2, [r3]
 876              	.L35:
 155:eeprom.c      ****     for(uint8_t i=0 ;i<4;i++)
 877              		.loc 1 155 0 is_stmt 0 discriminator 1
 878 0046 1723     		movs	r3, #23
 879 0048 FB18     		adds	r3, r7, r3
 880 004a 1B78     		ldrb	r3, [r3]
 881 004c 032B     		cmp	r3, #3
 882 004e E5D9     		bls	.L36
 883              	.LBE2:
 157:eeprom.c      ****    EEPROM_WriteBytes(EEPROM_LATTITUDE_REG, (uint8_t*)&inv, sizeof(int32_t));
 884              		.loc 1 157 0 is_stmt 1
 885 0050 0C23     		movs	r3, #12
 886 0052 FB18     		adds	r3, r7, r3
 887 0054 0422     		movs	r2, #4
 888 0056 1900     		movs	r1, r3
 889 0058 1420     		movs	r0, #20
 890 005a FFF7FEFF 		bl	EEPROM_WriteBytes
 158:eeprom.c      **** }
 891              		.loc 1 158 0
 892 005e C046     		nop
 893 0060 BD46     		mov	sp, r7
 894 0062 06B0     		add	sp, sp, #24
 895              		@ sp needed
 896 0064 80BD     		pop	{r7, pc}
 897              		.cfi_endproc
 898              	.LFE47:
 899              		.size	EEPROM_SaveGPSLat, .-EEPROM_SaveGPSLat
 900 0066 C046     		.section	.text.EEPROM_SaveGPSLong,"ax",%progbits
 901              		.align	2
 902              		.global	EEPROM_SaveGPSLong
 903              		.code	16
 904              		.thumb_func
 905              		.type	EEPROM_SaveGPSLong, %function
 906              	EEPROM_SaveGPSLong:
 907              	.LFB48:
 159:eeprom.c      **** 
 160:eeprom.c      **** void EEPROM_SaveGPSLong(float longitude){
 908              		.loc 1 160 0
 909              		.cfi_startproc
 910              		@ args = 0, pretend = 0, frame = 24
 911              		@ frame_needed = 1, uses_anonymous_args = 0
 912 0000 80B5     		push	{r7, lr}
 913              		.cfi_def_cfa_offset 8
 914              		.cfi_offset 7, -8
 915              		.cfi_offset 14, -4
 916 0002 86B0     		sub	sp, sp, #24
 917              		.cfi_def_cfa_offset 32
 918 0004 00AF     		add	r7, sp, #0
 919              		.cfi_def_cfa_register 7
 920 0006 7860     		str	r0, [r7, #4]
 161:eeprom.c      ****     uint8_t data[4];
ARM GAS  C:\Users\alexport\AppData\Local\Temp\ccpT2TKB.s 			page 20


 162:eeprom.c      ****     uint8_t inv[4];
 163:eeprom.c      ****     memcpy(data,&longitude, sizeof(data) );  
 921              		.loc 1 163 0
 922 0008 1023     		movs	r3, #16
 923 000a FB18     		adds	r3, r7, r3
 924 000c 3A1D     		adds	r2, r7, #4
 925 000e 1268     		ldr	r2, [r2]
 926 0010 1A60     		str	r2, [r3]
 927              	.LBB3:
 164:eeprom.c      ****     for(uint8_t i=0 ;i<4;i++)
 928              		.loc 1 164 0
 929 0012 1723     		movs	r3, #23
 930 0014 FB18     		adds	r3, r7, r3
 931 0016 0022     		movs	r2, #0
 932 0018 1A70     		strb	r2, [r3]
 933 001a 14E0     		b	.L38
 934              	.L39:
 165:eeprom.c      ****       inv[3-i]=data[i];
 935              		.loc 1 165 0 discriminator 3
 936 001c 1723     		movs	r3, #23
 937 001e FB18     		adds	r3, r7, r3
 938 0020 1B78     		ldrb	r3, [r3]
 939 0022 0322     		movs	r2, #3
 940 0024 D31A     		subs	r3, r2, r3
 941 0026 1722     		movs	r2, #23
 942 0028 BA18     		adds	r2, r7, r2
 943 002a 1278     		ldrb	r2, [r2]
 944 002c 1021     		movs	r1, #16
 945 002e 7918     		adds	r1, r7, r1
 946 0030 895C     		ldrb	r1, [r1, r2]
 947 0032 0C22     		movs	r2, #12
 948 0034 BA18     		adds	r2, r7, r2
 949 0036 D154     		strb	r1, [r2, r3]
 164:eeprom.c      ****     for(uint8_t i=0 ;i<4;i++)
 950              		.loc 1 164 0 discriminator 3
 951 0038 1723     		movs	r3, #23
 952 003a FB18     		adds	r3, r7, r3
 953 003c 1A78     		ldrb	r2, [r3]
 954 003e 1723     		movs	r3, #23
 955 0040 FB18     		adds	r3, r7, r3
 956 0042 0132     		adds	r2, r2, #1
 957 0044 1A70     		strb	r2, [r3]
 958              	.L38:
 164:eeprom.c      ****     for(uint8_t i=0 ;i<4;i++)
 959              		.loc 1 164 0 is_stmt 0 discriminator 1
 960 0046 1723     		movs	r3, #23
 961 0048 FB18     		adds	r3, r7, r3
 962 004a 1B78     		ldrb	r3, [r3]
 963 004c 032B     		cmp	r3, #3
 964 004e E5D9     		bls	.L39
 965              	.LBE3:
 166:eeprom.c      ****     EEPROM_WriteBytes(EEPROM_LONGITUTE_REG, (uint8_t*)&inv, sizeof(int32_t));
 966              		.loc 1 166 0 is_stmt 1
 967 0050 0C23     		movs	r3, #12
 968 0052 FB18     		adds	r3, r7, r3
 969 0054 0422     		movs	r2, #4
 970 0056 1900     		movs	r1, r3
ARM GAS  C:\Users\alexport\AppData\Local\Temp\ccpT2TKB.s 			page 21


 971 0058 1820     		movs	r0, #24
 972 005a FFF7FEFF 		bl	EEPROM_WriteBytes
 167:eeprom.c      **** }
 973              		.loc 1 167 0
 974 005e C046     		nop
 975 0060 BD46     		mov	sp, r7
 976 0062 06B0     		add	sp, sp, #24
 977              		@ sp needed
 978 0064 80BD     		pop	{r7, pc}
 979              		.cfi_endproc
 980              	.LFE48:
 981              		.size	EEPROM_SaveGPSLong, .-EEPROM_SaveGPSLong
 982 0066 C046     		.section	.text.EEPROM_SaveGPS,"ax",%progbits
 983              		.align	2
 984              		.global	EEPROM_SaveGPS
 985              		.code	16
 986              		.thumb_func
 987              		.type	EEPROM_SaveGPS, %function
 988              	EEPROM_SaveGPS:
 989              	.LFB49:
 168:eeprom.c      **** 
 169:eeprom.c      **** 
 170:eeprom.c      **** void EEPROM_SaveGPS(float lattitude, float longitude ){
 990              		.loc 1 170 0
 991              		.cfi_startproc
 992              		@ args = 0, pretend = 0, frame = 8
 993              		@ frame_needed = 1, uses_anonymous_args = 0
 994 0000 80B5     		push	{r7, lr}
 995              		.cfi_def_cfa_offset 8
 996              		.cfi_offset 7, -8
 997              		.cfi_offset 14, -4
 998 0002 82B0     		sub	sp, sp, #8
 999              		.cfi_def_cfa_offset 16
 1000 0004 00AF     		add	r7, sp, #0
 1001              		.cfi_def_cfa_register 7
 1002 0006 7860     		str	r0, [r7, #4]
 1003 0008 3960     		str	r1, [r7]
 171:eeprom.c      ****     EEPROM_WriteBytes(EEPROM_LATTITUDE_REG, (uint8_t*)&lattitude, sizeof(int32_t));
 1004              		.loc 1 171 0
 1005 000a 3B1D     		adds	r3, r7, #4
 1006 000c 0422     		movs	r2, #4
 1007 000e 1900     		movs	r1, r3
 1008 0010 1420     		movs	r0, #20
 1009 0012 FFF7FEFF 		bl	EEPROM_WriteBytes
 172:eeprom.c      ****     EEPROM_WriteBytes(EEPROM_LONGITUTE_REG, (uint8_t*)&longitude, sizeof(int32_t));
 1010              		.loc 1 172 0
 1011 0016 3B00     		movs	r3, r7
 1012 0018 0422     		movs	r2, #4
 1013 001a 1900     		movs	r1, r3
 1014 001c 1820     		movs	r0, #24
 1015 001e FFF7FEFF 		bl	EEPROM_WriteBytes
 173:eeprom.c      **** }
 1016              		.loc 1 173 0
 1017 0022 C046     		nop
 1018 0024 BD46     		mov	sp, r7
 1019 0026 02B0     		add	sp, sp, #8
 1020              		@ sp needed
ARM GAS  C:\Users\alexport\AppData\Local\Temp\ccpT2TKB.s 			page 22


 1021 0028 80BD     		pop	{r7, pc}
 1022              		.cfi_endproc
 1023              	.LFE49:
 1024              		.size	EEPROM_SaveGPS, .-EEPROM_SaveGPS
 1025 002a C046     		.section	.text.EEPROM_GetGPS,"ax",%progbits
 1026              		.align	2
 1027              		.global	EEPROM_GetGPS
 1028              		.code	16
 1029              		.thumb_func
 1030              		.type	EEPROM_GetGPS, %function
 1031              	EEPROM_GetGPS:
 1032              	.LFB50:
 174:eeprom.c      **** 
 175:eeprom.c      **** 
 176:eeprom.c      **** 
 177:eeprom.c      **** 
 178:eeprom.c      **** 
 179:eeprom.c      **** void EEPROM_GetGPS(float* lattitude,  float* longitude){
 1033              		.loc 1 179 0
 1034              		.cfi_startproc
 1035              		@ args = 0, pretend = 0, frame = 24
 1036              		@ frame_needed = 1, uses_anonymous_args = 0
 1037 0000 80B5     		push	{r7, lr}
 1038              		.cfi_def_cfa_offset 8
 1039              		.cfi_offset 7, -8
 1040              		.cfi_offset 14, -4
 1041 0002 86B0     		sub	sp, sp, #24
 1042              		.cfi_def_cfa_offset 32
 1043 0004 00AF     		add	r7, sp, #0
 1044              		.cfi_def_cfa_register 7
 1045 0006 7860     		str	r0, [r7, #4]
 1046 0008 3960     		str	r1, [r7]
 180:eeprom.c      ****     uint8_t tmp[4];
 181:eeprom.c      ****     uint8_t inv[4];
 182:eeprom.c      ****     
 183:eeprom.c      ****     EEPROM_ReadBytes(EEPROM_LATTITUDE_REG, (uint8_t*)tmp, sizeof(int32_t) );
 1047              		.loc 1 183 0
 1048 000a 1023     		movs	r3, #16
 1049 000c FB18     		adds	r3, r7, r3
 1050 000e 0422     		movs	r2, #4
 1051 0010 1900     		movs	r1, r3
 1052 0012 1420     		movs	r0, #20
 1053 0014 FFF7FEFF 		bl	EEPROM_ReadBytes
 1054              	.LBB4:
 184:eeprom.c      ****     for(uint8_t i=0 ;i<4;i++)
 1055              		.loc 1 184 0
 1056 0018 1723     		movs	r3, #23
 1057 001a FB18     		adds	r3, r7, r3
 1058 001c 0022     		movs	r2, #0
 1059 001e 1A70     		strb	r2, [r3]
 1060 0020 14E0     		b	.L42
 1061              	.L43:
 185:eeprom.c      ****         inv[3-i]=tmp[i];
 1062              		.loc 1 185 0 discriminator 3
 1063 0022 1723     		movs	r3, #23
 1064 0024 FB18     		adds	r3, r7, r3
 1065 0026 1B78     		ldrb	r3, [r3]
ARM GAS  C:\Users\alexport\AppData\Local\Temp\ccpT2TKB.s 			page 23


 1066 0028 0322     		movs	r2, #3
 1067 002a D31A     		subs	r3, r2, r3
 1068 002c 1722     		movs	r2, #23
 1069 002e BA18     		adds	r2, r7, r2
 1070 0030 1278     		ldrb	r2, [r2]
 1071 0032 1021     		movs	r1, #16
 1072 0034 7918     		adds	r1, r7, r1
 1073 0036 895C     		ldrb	r1, [r1, r2]
 1074 0038 0C22     		movs	r2, #12
 1075 003a BA18     		adds	r2, r7, r2
 1076 003c D154     		strb	r1, [r2, r3]
 184:eeprom.c      ****     for(uint8_t i=0 ;i<4;i++)
 1077              		.loc 1 184 0 discriminator 3
 1078 003e 1723     		movs	r3, #23
 1079 0040 FB18     		adds	r3, r7, r3
 1080 0042 1A78     		ldrb	r2, [r3]
 1081 0044 1723     		movs	r3, #23
 1082 0046 FB18     		adds	r3, r7, r3
 1083 0048 0132     		adds	r2, r2, #1
 1084 004a 1A70     		strb	r2, [r3]
 1085              	.L42:
 184:eeprom.c      ****     for(uint8_t i=0 ;i<4;i++)
 1086              		.loc 1 184 0 is_stmt 0 discriminator 1
 1087 004c 1723     		movs	r3, #23
 1088 004e FB18     		adds	r3, r7, r3
 1089 0050 1B78     		ldrb	r3, [r3]
 1090 0052 032B     		cmp	r3, #3
 1091 0054 E5D9     		bls	.L43
 1092              	.LBE4:
 186:eeprom.c      ****     memcpy(lattitude,inv,4 );
 1093              		.loc 1 186 0 is_stmt 1
 1094 0056 0C23     		movs	r3, #12
 1095 0058 F918     		adds	r1, r7, r3
 1096 005a 7B68     		ldr	r3, [r7, #4]
 1097 005c 0422     		movs	r2, #4
 1098 005e 1800     		movs	r0, r3
 1099 0060 FFF7FEFF 		bl	memcpy
 187:eeprom.c      ****     EEPROM_ReadBytes(EEPROM_LONGITUTE_REG, (uint8_t*)tmp, sizeof(int32_t) );
 1100              		.loc 1 187 0
 1101 0064 1023     		movs	r3, #16
 1102 0066 FB18     		adds	r3, r7, r3
 1103 0068 0422     		movs	r2, #4
 1104 006a 1900     		movs	r1, r3
 1105 006c 1820     		movs	r0, #24
 1106 006e FFF7FEFF 		bl	EEPROM_ReadBytes
 1107              	.LBB5:
 188:eeprom.c      ****     for(uint8_t i=0 ;i<4;i++)
 1108              		.loc 1 188 0
 1109 0072 1623     		movs	r3, #22
 1110 0074 FB18     		adds	r3, r7, r3
 1111 0076 0022     		movs	r2, #0
 1112 0078 1A70     		strb	r2, [r3]
 1113 007a 14E0     		b	.L44
 1114              	.L45:
 189:eeprom.c      ****         inv[3-i]=tmp[i];
 1115              		.loc 1 189 0 discriminator 3
 1116 007c 1623     		movs	r3, #22
ARM GAS  C:\Users\alexport\AppData\Local\Temp\ccpT2TKB.s 			page 24


 1117 007e FB18     		adds	r3, r7, r3
 1118 0080 1B78     		ldrb	r3, [r3]
 1119 0082 0322     		movs	r2, #3
 1120 0084 D31A     		subs	r3, r2, r3
 1121 0086 1622     		movs	r2, #22
 1122 0088 BA18     		adds	r2, r7, r2
 1123 008a 1278     		ldrb	r2, [r2]
 1124 008c 1021     		movs	r1, #16
 1125 008e 7918     		adds	r1, r7, r1
 1126 0090 895C     		ldrb	r1, [r1, r2]
 1127 0092 0C22     		movs	r2, #12
 1128 0094 BA18     		adds	r2, r7, r2
 1129 0096 D154     		strb	r1, [r2, r3]
 188:eeprom.c      ****     for(uint8_t i=0 ;i<4;i++)
 1130              		.loc 1 188 0 discriminator 3
 1131 0098 1623     		movs	r3, #22
 1132 009a FB18     		adds	r3, r7, r3
 1133 009c 1A78     		ldrb	r2, [r3]
 1134 009e 1623     		movs	r3, #22
 1135 00a0 FB18     		adds	r3, r7, r3
 1136 00a2 0132     		adds	r2, r2, #1
 1137 00a4 1A70     		strb	r2, [r3]
 1138              	.L44:
 188:eeprom.c      ****     for(uint8_t i=0 ;i<4;i++)
 1139              		.loc 1 188 0 is_stmt 0 discriminator 1
 1140 00a6 1623     		movs	r3, #22
 1141 00a8 FB18     		adds	r3, r7, r3
 1142 00aa 1B78     		ldrb	r3, [r3]
 1143 00ac 032B     		cmp	r3, #3
 1144 00ae E5D9     		bls	.L45
 1145              	.LBE5:
 190:eeprom.c      ****     memcpy(longitude,inv,4 );
 1146              		.loc 1 190 0 is_stmt 1
 1147 00b0 0C23     		movs	r3, #12
 1148 00b2 F918     		adds	r1, r7, r3
 1149 00b4 3B68     		ldr	r3, [r7]
 1150 00b6 0422     		movs	r2, #4
 1151 00b8 1800     		movs	r0, r3
 1152 00ba FFF7FEFF 		bl	memcpy
 191:eeprom.c      ****  }   
 1153              		.loc 1 191 0
 1154 00be C046     		nop
 1155 00c0 BD46     		mov	sp, r7
 1156 00c2 06B0     		add	sp, sp, #24
 1157              		@ sp needed
 1158 00c4 80BD     		pop	{r7, pc}
 1159              		.cfi_endproc
 1160              	.LFE50:
 1161              		.size	EEPROM_GetGPS, .-EEPROM_GetGPS
 1162 00c6 C046     		.section	.text.SaveLogIndex,"ax",%progbits
 1163              		.align	2
 1164              		.global	SaveLogIndex
 1165              		.code	16
 1166              		.thumb_func
 1167              		.type	SaveLogIndex, %function
 1168              	SaveLogIndex:
 1169              	.LFB51:
ARM GAS  C:\Users\alexport\AppData\Local\Temp\ccpT2TKB.s 			page 25


 192:eeprom.c      **** 
 193:eeprom.c      **** 
 194:eeprom.c      **** // Logging
 195:eeprom.c      **** void SaveLogIndex(uint8_t index)
 196:eeprom.c      **** {
 1170              		.loc 1 196 0
 1171              		.cfi_startproc
 1172              		@ args = 0, pretend = 0, frame = 8
 1173              		@ frame_needed = 1, uses_anonymous_args = 0
 1174 0000 80B5     		push	{r7, lr}
 1175              		.cfi_def_cfa_offset 8
 1176              		.cfi_offset 7, -8
 1177              		.cfi_offset 14, -4
 1178 0002 82B0     		sub	sp, sp, #8
 1179              		.cfi_def_cfa_offset 16
 1180 0004 00AF     		add	r7, sp, #0
 1181              		.cfi_def_cfa_register 7
 1182 0006 0200     		movs	r2, r0
 1183 0008 FB1D     		adds	r3, r7, #7
 1184 000a 1A70     		strb	r2, [r3]
 197:eeprom.c      ****     //i2c_write_8(EEPROM_I2C_ADDRESS, LOG_INDEX_ADDR,index);
 198:eeprom.c      ****     EEPROM_WriteBytes(LOG_INDEX_ADDR, &index, 1);
 1185              		.loc 1 198 0
 1186 000c F91D     		adds	r1, r7, #7
 1187 000e A023     		movs	r3, #160
 1188 0010 5B00     		lsls	r3, r3, #1
 1189 0012 0122     		movs	r2, #1
 1190 0014 1800     		movs	r0, r3
 1191 0016 FFF7FEFF 		bl	EEPROM_WriteBytes
 199:eeprom.c      **** }
 1192              		.loc 1 199 0
 1193 001a C046     		nop
 1194 001c BD46     		mov	sp, r7
 1195 001e 02B0     		add	sp, sp, #8
 1196              		@ sp needed
 1197 0020 80BD     		pop	{r7, pc}
 1198              		.cfi_endproc
 1199              	.LFE51:
 1200              		.size	SaveLogIndex, .-SaveLogIndex
 1201 0022 C046     		.section	.text.LoadLogIndex,"ax",%progbits
 1202              		.align	2
 1203              		.global	LoadLogIndex
 1204              		.code	16
 1205              		.thumb_func
 1206              		.type	LoadLogIndex, %function
 1207              	LoadLogIndex:
 1208              	.LFB52:
 200:eeprom.c      **** 
 201:eeprom.c      **** 
 202:eeprom.c      **** 
 203:eeprom.c      **** uint8_t LoadLogIndex(void)
 204:eeprom.c      **** {
 1209              		.loc 1 204 0
 1210              		.cfi_startproc
 1211              		@ args = 0, pretend = 0, frame = 8
 1212              		@ frame_needed = 1, uses_anonymous_args = 0
 1213 0000 80B5     		push	{r7, lr}
ARM GAS  C:\Users\alexport\AppData\Local\Temp\ccpT2TKB.s 			page 26


 1214              		.cfi_def_cfa_offset 8
 1215              		.cfi_offset 7, -8
 1216              		.cfi_offset 14, -4
 1217 0002 82B0     		sub	sp, sp, #8
 1218              		.cfi_def_cfa_offset 16
 1219 0004 00AF     		add	r7, sp, #0
 1220              		.cfi_def_cfa_register 7
 205:eeprom.c      ****     uint8_t data;
 206:eeprom.c      ****     
 207:eeprom.c      ****     EEPROM_ReadBytes(LOG_INDEX_ADDR, &data, 1 );
 1221              		.loc 1 207 0
 1222 0006 F91D     		adds	r1, r7, #7
 1223 0008 A023     		movs	r3, #160
 1224 000a 5B00     		lsls	r3, r3, #1
 1225 000c 0122     		movs	r2, #1
 1226 000e 1800     		movs	r0, r3
 1227 0010 FFF7FEFF 		bl	EEPROM_ReadBytes
 208:eeprom.c      ****     if(data==0xFF)data =0;
 1228              		.loc 1 208 0
 1229 0014 FB1D     		adds	r3, r7, #7
 1230 0016 1B78     		ldrb	r3, [r3]
 1231 0018 FF2B     		cmp	r3, #255
 1232 001a 02D1     		bne	.L48
 1233              		.loc 1 208 0 is_stmt 0 discriminator 1
 1234 001c FB1D     		adds	r3, r7, #7
 1235 001e 0022     		movs	r2, #0
 1236 0020 1A70     		strb	r2, [r3]
 1237              	.L48:
 209:eeprom.c      ****     return data;
 1238              		.loc 1 209 0 is_stmt 1
 1239 0022 FB1D     		adds	r3, r7, #7
 1240 0024 1B78     		ldrb	r3, [r3]
 210:eeprom.c      **** }
 1241              		.loc 1 210 0
 1242 0026 1800     		movs	r0, r3
 1243 0028 BD46     		mov	sp, r7
 1244 002a 02B0     		add	sp, sp, #8
 1245              		@ sp needed
 1246 002c 80BD     		pop	{r7, pc}
 1247              		.cfi_endproc
 1248              	.LFE52:
 1249              		.size	LoadLogIndex, .-LoadLogIndex
 1250 002e C046     		.section	.text.SaveLogEntry,"ax",%progbits
 1251              		.align	2
 1252              		.global	SaveLogEntry
 1253              		.code	16
 1254              		.thumb_func
 1255              		.type	SaveLogEntry, %function
 1256              	SaveLogEntry:
 1257              	.LFB53:
 211:eeprom.c      **** 
 212:eeprom.c      **** void SaveLogEntry(uint8_t* idx, char* txt){
 1258              		.loc 1 212 0
 1259              		.cfi_startproc
 1260              		@ args = 0, pretend = 0, frame = 8
 1261              		@ frame_needed = 1, uses_anonymous_args = 0
 1262 0000 80B5     		push	{r7, lr}
ARM GAS  C:\Users\alexport\AppData\Local\Temp\ccpT2TKB.s 			page 27


 1263              		.cfi_def_cfa_offset 8
 1264              		.cfi_offset 7, -8
 1265              		.cfi_offset 14, -4
 1266 0002 82B0     		sub	sp, sp, #8
 1267              		.cfi_def_cfa_offset 16
 1268 0004 00AF     		add	r7, sp, #0
 1269              		.cfi_def_cfa_register 7
 1270 0006 7860     		str	r0, [r7, #4]
 1271 0008 3960     		str	r1, [r7]
 213:eeprom.c      ****     
 214:eeprom.c      ****     SaveLogIndex(*idx);
 1272              		.loc 1 214 0
 1273 000a 7B68     		ldr	r3, [r7, #4]
 1274 000c 1B78     		ldrb	r3, [r3]
 1275 000e 1800     		movs	r0, r3
 1276 0010 FFF7FEFF 		bl	SaveLogIndex
 215:eeprom.c      ****     EEPROM_WriteBytes(LOG_DATA_START_ADDR+LOG_PAGE_LENGTH*(*idx), (uint8_t*)txt, LOG_TXT_LENGTH);
 1277              		.loc 1 215 0
 1278 0014 7B68     		ldr	r3, [r7, #4]
 1279 0016 1B78     		ldrb	r3, [r3]
 1280 0018 9BB2     		uxth	r3, r3
 1281 001a DB01     		lsls	r3, r3, #7
 1282 001c 9BB2     		uxth	r3, r3
 1283 001e 5133     		adds	r3, r3, #81
 1284 0020 FF33     		adds	r3, r3, #255
 1285 0022 9BB2     		uxth	r3, r3
 1286 0024 3968     		ldr	r1, [r7]
 1287 0026 2822     		movs	r2, #40
 1288 0028 1800     		movs	r0, r3
 1289 002a FFF7FEFF 		bl	EEPROM_WriteBytes
 216:eeprom.c      ****     (*idx)++;
 1290              		.loc 1 216 0
 1291 002e 7B68     		ldr	r3, [r7, #4]
 1292 0030 1B78     		ldrb	r3, [r3]
 1293 0032 0133     		adds	r3, r3, #1
 1294 0034 DAB2     		uxtb	r2, r3
 1295 0036 7B68     		ldr	r3, [r7, #4]
 1296 0038 1A70     		strb	r2, [r3]
 217:eeprom.c      ****     if((*idx)>=LOG_MAX_ENTRIES)(*idx)=0;
 1297              		.loc 1 217 0
 1298 003a 7B68     		ldr	r3, [r7, #4]
 1299 003c 1B78     		ldrb	r3, [r3]
 1300 003e 092B     		cmp	r3, #9
 1301 0040 02D9     		bls	.L52
 1302              		.loc 1 217 0 is_stmt 0 discriminator 1
 1303 0042 7B68     		ldr	r3, [r7, #4]
 1304 0044 0022     		movs	r2, #0
 1305 0046 1A70     		strb	r2, [r3]
 1306              	.L52:
 218:eeprom.c      ****     
 219:eeprom.c      **** }
 1307              		.loc 1 219 0 is_stmt 1
 1308 0048 C046     		nop
 1309 004a BD46     		mov	sp, r7
 1310 004c 02B0     		add	sp, sp, #8
 1311              		@ sp needed
 1312 004e 80BD     		pop	{r7, pc}
ARM GAS  C:\Users\alexport\AppData\Local\Temp\ccpT2TKB.s 			page 28


 1313              		.cfi_endproc
 1314              	.LFE53:
 1315              		.size	SaveLogEntry, .-SaveLogEntry
 1316              		.global	__aeabi_idivmod
 1317              		.section	.text.GetLog,"ax",%progbits
 1318              		.align	2
 1319              		.global	GetLog
 1320              		.code	16
 1321              		.thumb_func
 1322              		.type	GetLog, %function
 1323              	GetLog:
 1324              	.LFB54:
 220:eeprom.c      **** 
 221:eeprom.c      **** void GetLog(char* log_record){
 1325              		.loc 1 221 0
 1326              		.cfi_startproc
 1327              		@ args = 0, pretend = 0, frame = 16
 1328              		@ frame_needed = 1, uses_anonymous_args = 0
 1329 0000 90B5     		push	{r4, r7, lr}
 1330              		.cfi_def_cfa_offset 12
 1331              		.cfi_offset 4, -12
 1332              		.cfi_offset 7, -8
 1333              		.cfi_offset 14, -4
 1334 0002 85B0     		sub	sp, sp, #20
 1335              		.cfi_def_cfa_offset 32
 1336 0004 00AF     		add	r7, sp, #0
 1337              		.cfi_def_cfa_register 7
 1338 0006 7860     		str	r0, [r7, #4]
 222:eeprom.c      ****     uint8_t log_last_entry_idx= LoadLogIndex();
 1339              		.loc 1 222 0
 1340 0008 0E23     		movs	r3, #14
 1341 000a FC18     		adds	r4, r7, r3
 1342 000c FFF7FEFF 		bl	LoadLogIndex
 1343 0010 0300     		movs	r3, r0
 1344 0012 2370     		strb	r3, [r4]
 1345              	.LBB6:
 223:eeprom.c      ****     for(uint8_t i=0;i<LOG_MAX_ENTRIES;i++ )
 1346              		.loc 1 223 0
 1347 0014 0F23     		movs	r3, #15
 1348 0016 FB18     		adds	r3, r7, r3
 1349 0018 0022     		movs	r2, #0
 1350 001a 1A70     		strb	r2, [r3]
 1351 001c 20E0     		b	.L54
 1352              	.L55:
 224:eeprom.c      ****             GetLogEntry((log_last_entry_idx+i)%LOG_MAX_ENTRIES, &log_record[i*LOG_TXT_LENGTH]);
 1353              		.loc 1 224 0 discriminator 3
 1354 001e 0E23     		movs	r3, #14
 1355 0020 FB18     		adds	r3, r7, r3
 1356 0022 1A78     		ldrb	r2, [r3]
 1357 0024 0F23     		movs	r3, #15
 1358 0026 FB18     		adds	r3, r7, r3
 1359 0028 1B78     		ldrb	r3, [r3]
 1360 002a D318     		adds	r3, r2, r3
 1361 002c 0A21     		movs	r1, #10
 1362 002e 1800     		movs	r0, r3
 1363 0030 FFF7FEFF 		bl	__aeabi_idivmod
 1364 0034 0B00     		movs	r3, r1
ARM GAS  C:\Users\alexport\AppData\Local\Temp\ccpT2TKB.s 			page 29


 1365 0036 D8B2     		uxtb	r0, r3
 1366 0038 0F23     		movs	r3, #15
 1367 003a FB18     		adds	r3, r7, r3
 1368 003c 1A78     		ldrb	r2, [r3]
 1369 003e 1300     		movs	r3, r2
 1370 0040 9B00     		lsls	r3, r3, #2
 1371 0042 9B18     		adds	r3, r3, r2
 1372 0044 DB00     		lsls	r3, r3, #3
 1373 0046 1A00     		movs	r2, r3
 1374 0048 7B68     		ldr	r3, [r7, #4]
 1375 004a 9B18     		adds	r3, r3, r2
 1376 004c 1900     		movs	r1, r3
 1377 004e FFF7FEFF 		bl	GetLogEntry
 223:eeprom.c      ****     for(uint8_t i=0;i<LOG_MAX_ENTRIES;i++ )
 1378              		.loc 1 223 0 discriminator 3
 1379 0052 0F23     		movs	r3, #15
 1380 0054 FB18     		adds	r3, r7, r3
 1381 0056 1A78     		ldrb	r2, [r3]
 1382 0058 0F23     		movs	r3, #15
 1383 005a FB18     		adds	r3, r7, r3
 1384 005c 0132     		adds	r2, r2, #1
 1385 005e 1A70     		strb	r2, [r3]
 1386              	.L54:
 223:eeprom.c      ****     for(uint8_t i=0;i<LOG_MAX_ENTRIES;i++ )
 1387              		.loc 1 223 0 is_stmt 0 discriminator 1
 1388 0060 0F23     		movs	r3, #15
 1389 0062 FB18     		adds	r3, r7, r3
 1390 0064 1B78     		ldrb	r3, [r3]
 1391 0066 092B     		cmp	r3, #9
 1392 0068 D9D9     		bls	.L55
 1393              	.LBE6:
 225:eeprom.c      **** }
 1394              		.loc 1 225 0 is_stmt 1
 1395 006a C046     		nop
 1396 006c BD46     		mov	sp, r7
 1397 006e 05B0     		add	sp, sp, #20
 1398              		@ sp needed
 1399 0070 90BD     		pop	{r4, r7, pc}
 1400              		.cfi_endproc
 1401              	.LFE54:
 1402              		.size	GetLog, .-GetLog
 1403 0072 C046     		.section	.text.GetLogEntry,"ax",%progbits
 1404              		.align	2
 1405              		.global	GetLogEntry
 1406              		.code	16
 1407              		.thumb_func
 1408              		.type	GetLogEntry, %function
 1409              	GetLogEntry:
 1410              	.LFB55:
 226:eeprom.c      **** 
 227:eeprom.c      **** 
 228:eeprom.c      **** void GetLogEntry(uint8_t idx, char* txt){
 1411              		.loc 1 228 0
 1412              		.cfi_startproc
 1413              		@ args = 0, pretend = 0, frame = 16
 1414              		@ frame_needed = 1, uses_anonymous_args = 0
 1415 0000 80B5     		push	{r7, lr}
ARM GAS  C:\Users\alexport\AppData\Local\Temp\ccpT2TKB.s 			page 30


 1416              		.cfi_def_cfa_offset 8
 1417              		.cfi_offset 7, -8
 1418              		.cfi_offset 14, -4
 1419 0002 84B0     		sub	sp, sp, #16
 1420              		.cfi_def_cfa_offset 24
 1421 0004 00AF     		add	r7, sp, #0
 1422              		.cfi_def_cfa_register 7
 1423 0006 0200     		movs	r2, r0
 1424 0008 3960     		str	r1, [r7]
 1425 000a FB1D     		adds	r3, r7, #7
 1426 000c 1A70     		strb	r2, [r3]
 229:eeprom.c      ****     //char entry[LOG_TXT_LENGTH];
 230:eeprom.c      ****     EEPROM_ReadBytes(LOG_DATA_START_ADDR+LOG_PAGE_LENGTH*idx, (uint8_t*)txt, LOG_TXT_LENGTH );
 1427              		.loc 1 230 0
 1428 000e FB1D     		adds	r3, r7, #7
 1429 0010 1B78     		ldrb	r3, [r3]
 1430 0012 9BB2     		uxth	r3, r3
 1431 0014 DB01     		lsls	r3, r3, #7
 1432 0016 9BB2     		uxth	r3, r3
 1433 0018 5133     		adds	r3, r3, #81
 1434 001a FF33     		adds	r3, r3, #255
 1435 001c 9BB2     		uxth	r3, r3
 1436 001e 3968     		ldr	r1, [r7]
 1437 0020 2822     		movs	r2, #40
 1438 0022 1800     		movs	r0, r3
 1439 0024 FFF7FEFF 		bl	EEPROM_ReadBytes
 231:eeprom.c      ****     //if(entry[0]==0xFF)
 232:eeprom.c      ****     //    memcpy(txt,0, LOG_TXT_LENGTH);
 233:eeprom.c      ****     if(*txt==0xFF) 
 1440              		.loc 1 233 0
 1441 0028 3B68     		ldr	r3, [r7]
 1442 002a 1B78     		ldrb	r3, [r3]
 1443 002c FF2B     		cmp	r3, #255
 1444 002e 15D1     		bne	.L60
 1445              	.LBB7:
 234:eeprom.c      ****     for(uint8_t i=0 ;i<LOG_TXT_LENGTH;i++)
 1446              		.loc 1 234 0
 1447 0030 0F23     		movs	r3, #15
 1448 0032 FB18     		adds	r3, r7, r3
 1449 0034 0022     		movs	r2, #0
 1450 0036 1A70     		strb	r2, [r3]
 1451 0038 0BE0     		b	.L58
 1452              	.L59:
 235:eeprom.c      ****         *(txt++)=0;
 1453              		.loc 1 235 0 discriminator 3
 1454 003a 3B68     		ldr	r3, [r7]
 1455 003c 5A1C     		adds	r2, r3, #1
 1456 003e 3A60     		str	r2, [r7]
 1457 0040 0022     		movs	r2, #0
 1458 0042 1A70     		strb	r2, [r3]
 234:eeprom.c      ****     for(uint8_t i=0 ;i<LOG_TXT_LENGTH;i++)
 1459              		.loc 1 234 0 discriminator 3
 1460 0044 0F23     		movs	r3, #15
 1461 0046 FB18     		adds	r3, r7, r3
 1462 0048 1A78     		ldrb	r2, [r3]
 1463 004a 0F23     		movs	r3, #15
 1464 004c FB18     		adds	r3, r7, r3
ARM GAS  C:\Users\alexport\AppData\Local\Temp\ccpT2TKB.s 			page 31


 1465 004e 0132     		adds	r2, r2, #1
 1466 0050 1A70     		strb	r2, [r3]
 1467              	.L58:
 234:eeprom.c      ****     for(uint8_t i=0 ;i<LOG_TXT_LENGTH;i++)
 1468              		.loc 1 234 0 is_stmt 0 discriminator 1
 1469 0052 0F23     		movs	r3, #15
 1470 0054 FB18     		adds	r3, r7, r3
 1471 0056 1B78     		ldrb	r3, [r3]
 1472 0058 272B     		cmp	r3, #39
 1473 005a EED9     		bls	.L59
 1474              	.L60:
 1475              	.LBE7:
 236:eeprom.c      **** }
 1476              		.loc 1 236 0 is_stmt 1
 1477 005c C046     		nop
 1478 005e BD46     		mov	sp, r7
 1479 0060 04B0     		add	sp, sp, #16
 1480              		@ sp needed
 1481 0062 80BD     		pop	{r7, pc}
 1482              		.cfi_endproc
 1483              	.LFE55:
 1484              		.size	GetLogEntry, .-GetLogEntry
 1485              		.section	.text.EraseLog,"ax",%progbits
 1486              		.align	2
 1487              		.global	EraseLog
 1488              		.code	16
 1489              		.thumb_func
 1490              		.type	EraseLog, %function
 1491              	EraseLog:
 1492              	.LFB56:
 237:eeprom.c      **** 
 238:eeprom.c      **** 
 239:eeprom.c      **** void EraseLog(void){
 1493              		.loc 1 239 0
 1494              		.cfi_startproc
 1495              		@ args = 0, pretend = 0, frame = 8
 1496              		@ frame_needed = 1, uses_anonymous_args = 0
 1497 0000 80B5     		push	{r7, lr}
 1498              		.cfi_def_cfa_offset 8
 1499              		.cfi_offset 7, -8
 1500              		.cfi_offset 14, -4
 1501 0002 82B0     		sub	sp, sp, #8
 1502              		.cfi_def_cfa_offset 16
 1503 0004 00AF     		add	r7, sp, #0
 1504              		.cfi_def_cfa_register 7
 240:eeprom.c      ****     SaveLogIndex(0);
 1505              		.loc 1 240 0
 1506 0006 0020     		movs	r0, #0
 1507 0008 FFF7FEFF 		bl	SaveLogIndex
 241:eeprom.c      ****     uint8_t data=0xFF;
 1508              		.loc 1 241 0
 1509 000c 7B1D     		adds	r3, r7, #5
 1510 000e FF22     		movs	r2, #255
 1511 0010 1A70     		strb	r2, [r3]
 242:eeprom.c      ****     EEPROM_WriteBytes(LOG_INDEX_ADDR, &data, 1);
 1512              		.loc 1 242 0
 1513 0012 791D     		adds	r1, r7, #5
ARM GAS  C:\Users\alexport\AppData\Local\Temp\ccpT2TKB.s 			page 32


 1514 0014 A023     		movs	r3, #160
 1515 0016 5B00     		lsls	r3, r3, #1
 1516 0018 0122     		movs	r2, #1
 1517 001a 1800     		movs	r0, r3
 1518 001c FFF7FEFF 		bl	EEPROM_WriteBytes
 1519              	.LBB8:
 243:eeprom.c      ****     for(uint16_t i =0; i < LOG_TXT_LENGTH ;i++){
 1520              		.loc 1 243 0
 1521 0020 BB1D     		adds	r3, r7, #6
 1522 0022 0022     		movs	r2, #0
 1523 0024 1A80     		strh	r2, [r3]
 1524 0026 10E0     		b	.L62
 1525              	.L63:
 244:eeprom.c      ****         EEPROM_WriteBytes(LOG_DATA_START_ADDR+i*LOG_PAGE_LENGTH, &data, 1);
 1526              		.loc 1 244 0 discriminator 3
 1527 0028 BB1D     		adds	r3, r7, #6
 1528 002a 1B88     		ldrh	r3, [r3]
 1529 002c DB01     		lsls	r3, r3, #7
 1530 002e 9BB2     		uxth	r3, r3
 1531 0030 5133     		adds	r3, r3, #81
 1532 0032 FF33     		adds	r3, r3, #255
 1533 0034 9BB2     		uxth	r3, r3
 1534 0036 791D     		adds	r1, r7, #5
 1535 0038 0122     		movs	r2, #1
 1536 003a 1800     		movs	r0, r3
 1537 003c FFF7FEFF 		bl	EEPROM_WriteBytes
 243:eeprom.c      ****     for(uint16_t i =0; i < LOG_TXT_LENGTH ;i++){
 1538              		.loc 1 243 0 discriminator 3
 1539 0040 BB1D     		adds	r3, r7, #6
 1540 0042 1A88     		ldrh	r2, [r3]
 1541 0044 BB1D     		adds	r3, r7, #6
 1542 0046 0132     		adds	r2, r2, #1
 1543 0048 1A80     		strh	r2, [r3]
 1544              	.L62:
 243:eeprom.c      ****     for(uint16_t i =0; i < LOG_TXT_LENGTH ;i++){
 1545              		.loc 1 243 0 is_stmt 0 discriminator 1
 1546 004a BB1D     		adds	r3, r7, #6
 1547 004c 1B88     		ldrh	r3, [r3]
 1548 004e 272B     		cmp	r3, #39
 1549 0050 EAD9     		bls	.L63
 1550              	.LBE8:
 245:eeprom.c      ****     }
 246:eeprom.c      ****     
 247:eeprom.c      **** }
 1551              		.loc 1 247 0 is_stmt 1
 1552 0052 C046     		nop
 1553 0054 BD46     		mov	sp, r7
 1554 0056 02B0     		add	sp, sp, #8
 1555              		@ sp needed
 1556 0058 80BD     		pop	{r7, pc}
 1557              		.cfi_endproc
 1558              	.LFE56:
 1559              		.size	EraseLog, .-EraseLog
 1560 005a C046     		.section	.text.SerializeLogEntry,"ax",%progbits
 1561              		.align	2
 1562              		.global	SerializeLogEntry
 1563              		.code	16
ARM GAS  C:\Users\alexport\AppData\Local\Temp\ccpT2TKB.s 			page 33


 1564              		.thumb_func
 1565              		.type	SerializeLogEntry, %function
 1566              	SerializeLogEntry:
 1567              	.LFB57:
 248:eeprom.c      **** 
 249:eeprom.c      **** void SerializeLogEntry(const LogEntry* entry, uint8_t* buffer)
 250:eeprom.c      **** {
 1568              		.loc 1 250 0
 1569              		.cfi_startproc
 1570              		@ args = 0, pretend = 0, frame = 8
 1571              		@ frame_needed = 1, uses_anonymous_args = 0
 1572 0000 80B5     		push	{r7, lr}
 1573              		.cfi_def_cfa_offset 8
 1574              		.cfi_offset 7, -8
 1575              		.cfi_offset 14, -4
 1576 0002 82B0     		sub	sp, sp, #8
 1577              		.cfi_def_cfa_offset 16
 1578 0004 00AF     		add	r7, sp, #0
 1579              		.cfi_def_cfa_register 7
 1580 0006 7860     		str	r0, [r7, #4]
 1581 0008 3960     		str	r1, [r7]
 251:eeprom.c      ****     buffer[0] = entry->channel;
 1582              		.loc 1 251 0
 1583 000a 7B68     		ldr	r3, [r7, #4]
 1584 000c 1A78     		ldrb	r2, [r3]
 1585 000e 3B68     		ldr	r3, [r7]
 1586 0010 1A70     		strb	r2, [r3]
 252:eeprom.c      ****     buffer[1] = (entry->timestamp >> 8) & 0xFF;
 1587              		.loc 1 252 0
 1588 0012 3B68     		ldr	r3, [r7]
 1589 0014 0133     		adds	r3, r3, #1
 1590 0016 7A68     		ldr	r2, [r7, #4]
 1591 0018 5288     		ldrh	r2, [r2, #2]
 1592 001a 120A     		lsrs	r2, r2, #8
 1593 001c 92B2     		uxth	r2, r2
 1594 001e D2B2     		uxtb	r2, r2
 1595 0020 1A70     		strb	r2, [r3]
 253:eeprom.c      ****     buffer[2] = entry->timestamp & 0xFF;
 1596              		.loc 1 253 0
 1597 0022 3B68     		ldr	r3, [r7]
 1598 0024 0233     		adds	r3, r3, #2
 1599 0026 7A68     		ldr	r2, [r7, #4]
 1600 0028 5288     		ldrh	r2, [r2, #2]
 1601 002a D2B2     		uxtb	r2, r2
 1602 002c 1A70     		strb	r2, [r3]
 254:eeprom.c      ****     buffer[3] = (entry->reading >> 24) & 0xFF;
 1603              		.loc 1 254 0
 1604 002e 3B68     		ldr	r3, [r7]
 1605 0030 DA1C     		adds	r2, r3, #3
 1606 0032 7B68     		ldr	r3, [r7, #4]
 1607 0034 5B68     		ldr	r3, [r3, #4]
 1608 0036 1B0E     		lsrs	r3, r3, #24
 1609 0038 DBB2     		uxtb	r3, r3
 1610 003a 1370     		strb	r3, [r2]
 255:eeprom.c      ****     buffer[4] = (entry->reading >> 16) & 0xFF;
 1611              		.loc 1 255 0
 1612 003c 3B68     		ldr	r3, [r7]
ARM GAS  C:\Users\alexport\AppData\Local\Temp\ccpT2TKB.s 			page 34


 1613 003e 1A1D     		adds	r2, r3, #4
 1614 0040 7B68     		ldr	r3, [r7, #4]
 1615 0042 5B68     		ldr	r3, [r3, #4]
 1616 0044 1B0C     		lsrs	r3, r3, #16
 1617 0046 DBB2     		uxtb	r3, r3
 1618 0048 1370     		strb	r3, [r2]
 256:eeprom.c      ****     buffer[5] = (entry->reading >> 8) & 0xFF;
 1619              		.loc 1 256 0
 1620 004a 3B68     		ldr	r3, [r7]
 1621 004c 5A1D     		adds	r2, r3, #5
 1622 004e 7B68     		ldr	r3, [r7, #4]
 1623 0050 5B68     		ldr	r3, [r3, #4]
 1624 0052 1B0A     		lsrs	r3, r3, #8
 1625 0054 DBB2     		uxtb	r3, r3
 1626 0056 1370     		strb	r3, [r2]
 257:eeprom.c      ****     buffer[6] = entry->reading & 0xFF;
 1627              		.loc 1 257 0
 1628 0058 3B68     		ldr	r3, [r7]
 1629 005a 9A1D     		adds	r2, r3, #6
 1630 005c 7B68     		ldr	r3, [r7, #4]
 1631 005e 5B68     		ldr	r3, [r3, #4]
 1632 0060 DBB2     		uxtb	r3, r3
 1633 0062 1370     		strb	r3, [r2]
 258:eeprom.c      **** }
 1634              		.loc 1 258 0
 1635 0064 C046     		nop
 1636 0066 BD46     		mov	sp, r7
 1637 0068 02B0     		add	sp, sp, #8
 1638              		@ sp needed
 1639 006a 80BD     		pop	{r7, pc}
 1640              		.cfi_endproc
 1641              	.LFE57:
 1642              		.size	SerializeLogEntry, .-SerializeLogEntry
 1643              		.section	.text.DeserializeLogEntry,"ax",%progbits
 1644              		.align	2
 1645              		.global	DeserializeLogEntry
 1646              		.code	16
 1647              		.thumb_func
 1648              		.type	DeserializeLogEntry, %function
 1649              	DeserializeLogEntry:
 1650              	.LFB58:
 259:eeprom.c      **** 
 260:eeprom.c      **** void DeserializeLogEntry(const uint8_t* buffer, LogEntry* entry)
 261:eeprom.c      **** {
 1651              		.loc 1 261 0
 1652              		.cfi_startproc
 1653              		@ args = 0, pretend = 0, frame = 8
 1654              		@ frame_needed = 1, uses_anonymous_args = 0
 1655 0000 80B5     		push	{r7, lr}
 1656              		.cfi_def_cfa_offset 8
 1657              		.cfi_offset 7, -8
 1658              		.cfi_offset 14, -4
 1659 0002 82B0     		sub	sp, sp, #8
 1660              		.cfi_def_cfa_offset 16
 1661 0004 00AF     		add	r7, sp, #0
 1662              		.cfi_def_cfa_register 7
 1663 0006 7860     		str	r0, [r7, #4]
ARM GAS  C:\Users\alexport\AppData\Local\Temp\ccpT2TKB.s 			page 35


 1664 0008 3960     		str	r1, [r7]
 262:eeprom.c      ****     entry->channel = buffer[0];
 1665              		.loc 1 262 0
 1666 000a 7B68     		ldr	r3, [r7, #4]
 1667 000c 1A78     		ldrb	r2, [r3]
 1668 000e 3B68     		ldr	r3, [r7]
 1669 0010 1A70     		strb	r2, [r3]
 263:eeprom.c      ****     entry->timestamp = ((uint16_t)buffer[1] << 8) | buffer[2];
 1670              		.loc 1 263 0
 1671 0012 7B68     		ldr	r3, [r7, #4]
 1672 0014 0133     		adds	r3, r3, #1
 1673 0016 1B78     		ldrb	r3, [r3]
 1674 0018 1B02     		lsls	r3, r3, #8
 1675 001a 1AB2     		sxth	r2, r3
 1676 001c 7B68     		ldr	r3, [r7, #4]
 1677 001e 0233     		adds	r3, r3, #2
 1678 0020 1B78     		ldrb	r3, [r3]
 1679 0022 1BB2     		sxth	r3, r3
 1680 0024 1343     		orrs	r3, r2
 1681 0026 1BB2     		sxth	r3, r3
 1682 0028 9AB2     		uxth	r2, r3
 1683 002a 3B68     		ldr	r3, [r7]
 1684 002c 5A80     		strh	r2, [r3, #2]
 264:eeprom.c      ****     entry->reading = ((uint32_t)buffer[3] << 24) |
 1685              		.loc 1 264 0
 1686 002e 7B68     		ldr	r3, [r7, #4]
 1687 0030 0333     		adds	r3, r3, #3
 1688 0032 1B78     		ldrb	r3, [r3]
 1689 0034 1A06     		lsls	r2, r3, #24
 265:eeprom.c      ****                      ((uint32_t)buffer[4] << 16) |
 1690              		.loc 1 265 0
 1691 0036 7B68     		ldr	r3, [r7, #4]
 1692 0038 0433     		adds	r3, r3, #4
 1693 003a 1B78     		ldrb	r3, [r3]
 1694 003c 1B04     		lsls	r3, r3, #16
 264:eeprom.c      ****     entry->reading = ((uint32_t)buffer[3] << 24) |
 1695              		.loc 1 264 0
 1696 003e 1A43     		orrs	r2, r3
 266:eeprom.c      ****                      ((uint32_t)buffer[5] << 8) |
 1697              		.loc 1 266 0
 1698 0040 7B68     		ldr	r3, [r7, #4]
 1699 0042 0533     		adds	r3, r3, #5
 1700 0044 1B78     		ldrb	r3, [r3]
 1701 0046 1B02     		lsls	r3, r3, #8
 265:eeprom.c      ****                      ((uint32_t)buffer[4] << 16) |
 1702              		.loc 1 265 0
 1703 0048 1343     		orrs	r3, r2
 267:eeprom.c      ****                      buffer[6];
 1704              		.loc 1 267 0
 1705 004a 7A68     		ldr	r2, [r7, #4]
 1706 004c 0632     		adds	r2, r2, #6
 1707 004e 1278     		ldrb	r2, [r2]
 266:eeprom.c      ****                      ((uint32_t)buffer[5] << 8) |
 1708              		.loc 1 266 0
 1709 0050 1A43     		orrs	r2, r3
 264:eeprom.c      ****                      ((uint32_t)buffer[4] << 16) |
 1710              		.loc 1 264 0
ARM GAS  C:\Users\alexport\AppData\Local\Temp\ccpT2TKB.s 			page 36


 1711 0052 3B68     		ldr	r3, [r7]
 1712 0054 5A60     		str	r2, [r3, #4]
 268:eeprom.c      **** }
 1713              		.loc 1 268 0
 1714 0056 C046     		nop
 1715 0058 BD46     		mov	sp, r7
 1716 005a 02B0     		add	sp, sp, #8
 1717              		@ sp needed
 1718 005c 80BD     		pop	{r7, pc}
 1719              		.cfi_endproc
 1720              	.LFE58:
 1721              		.size	DeserializeLogEntry, .-DeserializeLogEntry
 1722 005e C046     		.section	.text.GetDeviceTag,"ax",%progbits
 1723              		.align	2
 1724              		.global	GetDeviceTag
 1725              		.code	16
 1726              		.thumb_func
 1727              		.type	GetDeviceTag, %function
 1728              	GetDeviceTag:
 1729              	.LFB59:
 269:eeprom.c      **** 
 270:eeprom.c      **** 
 271:eeprom.c      **** void GetDeviceTag(char* tag){
 1730              		.loc 1 271 0
 1731              		.cfi_startproc
 1732              		@ args = 0, pretend = 0, frame = 8
 1733              		@ frame_needed = 1, uses_anonymous_args = 0
 1734 0000 80B5     		push	{r7, lr}
 1735              		.cfi_def_cfa_offset 8
 1736              		.cfi_offset 7, -8
 1737              		.cfi_offset 14, -4
 1738 0002 82B0     		sub	sp, sp, #8
 1739              		.cfi_def_cfa_offset 16
 1740 0004 00AF     		add	r7, sp, #0
 1741              		.cfi_def_cfa_register 7
 1742 0006 7860     		str	r0, [r7, #4]
 272:eeprom.c      ****     EEPROM_ReadBytes(EEPROM_DEVICE_TAG_REG, (uint8_t*)tag, DEVICE_TAG_LENGTH );
 1743              		.loc 1 272 0
 1744 0008 7B68     		ldr	r3, [r7, #4]
 1745 000a 1422     		movs	r2, #20
 1746 000c 1900     		movs	r1, r3
 1747 000e 3020     		movs	r0, #48
 1748 0010 FFF7FEFF 		bl	EEPROM_ReadBytes
 273:eeprom.c      **** }
 1749              		.loc 1 273 0
 1750 0014 C046     		nop
 1751 0016 BD46     		mov	sp, r7
 1752 0018 02B0     		add	sp, sp, #8
 1753              		@ sp needed
 1754 001a 80BD     		pop	{r7, pc}
 1755              		.cfi_endproc
 1756              	.LFE59:
 1757              		.size	GetDeviceTag, .-GetDeviceTag
 1758              		.text
 1759              	.Letext0:
 1760              		.file 2 "c:\\program files (x86)\\cypress\\psoc creator\\4.4\\psoc creator\\import\\gnu\\arm\\5.4.
 1761              		.file 3 "c:\\program files (x86)\\cypress\\psoc creator\\4.4\\psoc creator\\import\\gnu\\arm\\5.4.
ARM GAS  C:\Users\alexport\AppData\Local\Temp\ccpT2TKB.s 			page 37


 1762              		.file 4 "Generated_Source\\PSoC4/cytypes.h"
 1763              		.file 5 "eeprom.h"