ARM GAS  C:\Users\alexport\AppData\Local\Temp\ccpT2TKB.s 			page 1


   1              		.syntax unified
   2              		.cpu cortex-m0
   3              		.fpu softvfp
   4              		.eabi_attribute 20, 1
   5              		.eabi_attribute 21, 1
   6              		.eabi_attribute 23, 3
   7              		.eabi_attribute 24, 1
   8              		.eabi_attribute 25, 1
   9              		.eabi_attribute 26, 1
  10              		.eabi_attribute 30, 6
  11              		.eabi_attribute 34, 0
  12              		.eabi_attribute 18, 4
  13              		.thumb
  14              		.syntax unified
  15              		.file	"eeprom.c"
  16              		.text
  17              	.Ltext0:
  18              		.cfi_sections	.debug_frame
  19              		.section	.text.EEPROM_WriteBytes,"ax",%progbits
  20              		.align	2
  21              		.global	EEPROM_WriteBytes
  22              		.code	16
  23              		.thumb_func
  24              		.type	EEPROM_WriteBytes, %function
  25              	EEPROM_WriteBytes:
  26              	.LFB35:
  27              		.file 1 "eeprom.c"
   1:eeprom.c      **** /* ========================================
   2:eeprom.c      ****  *
   3:eeprom.c      ****  * Copyright YOUR COMPANY, THE YEAR
   4:eeprom.c      ****  * All Rights Reserved
   5:eeprom.c      ****  * UNPUBLISHED, LICENSED SOFTWARE.
   6:eeprom.c      ****  *
   7:eeprom.c      ****  * CONFIDENTIAL AND PROPRIETARY INFORMATION
   8:eeprom.c      ****  * WHICH IS THE PROPERTY OF your company.
   9:eeprom.c      ****  *
  10:eeprom.c      ****  * ========================================
  11:eeprom.c      **** */
  12:eeprom.c      **** #include "eeprom.h"
  13:eeprom.c      **** /***************************************
  14:eeprom.c      **** *            Variabeles
  15:eeprom.c      **** ****************************************/
  16:eeprom.c      **** 
  17:eeprom.c      **** /* RAM variables */
  18:eeprom.c      **** 
  19:eeprom.c      **** 
  20:eeprom.c      **** void EEPROM_WriteBytes(uint16_t memAddr, uint8_t *data, uint16_t len)
  21:eeprom.c      **** {
  28              		.loc 1 21 0
  29              		.cfi_startproc
  30              		@ args = 0, pretend = 0, frame = 40
  31              		@ frame_needed = 1, uses_anonymous_args = 0
  32 0000 F0B5     		push	{r4, r5, r6, r7, lr}
  33              		.cfi_def_cfa_offset 20
  34              		.cfi_offset 4, -20
  35              		.cfi_offset 5, -16
  36              		.cfi_offset 6, -12
ARM GAS  C:\Users\alexport\AppData\Local\Temp\ccpT2TKB.s 			page 2


  37              		.cfi_offset 7, -8
  38              		.cfi_offset 14, -4
  39 0002 8BB0     		sub	sp, sp, #44
  40              		.cfi_def_cfa_offset 64
  41 0004 00AF     		add	r7, sp, #0
  42              		.cfi_def_cfa_register 7
  43 0006 7860     		str	r0, [r7, #4]
  44 0008 B961     		str	r1, [r7, #24]
  45 000a 1000     		movs	r0, r2
  46 000c 1E22     		movs	r2, #30
  47 000e BA18     		adds	r2, r7, r2
  48 0010 B988     		ldrh	r1, [r7, #4]
  49 0012 1180     		strh	r1, [r2]
  50 0014 1C22     		movs	r2, #28
  51 0016 BA18     		adds	r2, r7, r2
  52 0018 011C     		adds	r1, r0, #0
  53 001a 1180     		strh	r1, [r2]
  54              		.loc 1 21 0
  55 001c 6A46     		mov	r2, sp
  56 001e 7A60     		str	r2, [r7, #4]
  22:eeprom.c      ****     uint8_t buf[2 + len];
  57              		.loc 1 22 0
  58 0020 1C22     		movs	r2, #28
  59 0022 BA18     		adds	r2, r7, r2
  60 0024 1288     		ldrh	r2, [r2]
  61 0026 0232     		adds	r2, r2, #2
  62 0028 1100     		movs	r1, r2
  63 002a 0A00     		movs	r2, r1
  64 002c 013A     		subs	r2, r2, #1
  65 002e 7A62     		str	r2, [r7, #36]
  66 0030 0A00     		movs	r2, r1
  67 0032 3A61     		str	r2, [r7, #16]
  68 0034 0022     		movs	r2, #0
  69 0036 7A61     		str	r2, [r7, #20]
  70 0038 3A69     		ldr	r2, [r7, #16]
  71 003a 520F     		lsrs	r2, r2, #29
  72 003c 7869     		ldr	r0, [r7, #20]
  73 003e C600     		lsls	r6, r0, #3
  74 0040 1643     		orrs	r6, r2
  75 0042 3A69     		ldr	r2, [r7, #16]
  76 0044 D500     		lsls	r5, r2, #3
  77 0046 0A00     		movs	r2, r1
  78 0048 BA60     		str	r2, [r7, #8]
  79 004a 0022     		movs	r2, #0
  80 004c FA60     		str	r2, [r7, #12]
  81 004e BD68     		ldr	r5, [r7, #8]
  82 0050 FE68     		ldr	r6, [r7, #12]
  83 0052 2A00     		movs	r2, r5
  84 0054 520F     		lsrs	r2, r2, #29
  85 0056 3000     		movs	r0, r6
  86 0058 C400     		lsls	r4, r0, #3
  87 005a 1443     		orrs	r4, r2
  88 005c 2A00     		movs	r2, r5
  89 005e D300     		lsls	r3, r2, #3
  90 0060 0C00     		movs	r4, r1
  91 0062 2300     		movs	r3, r4
  92 0064 0733     		adds	r3, r3, #7
ARM GAS  C:\Users\alexport\AppData\Local\Temp\ccpT2TKB.s 			page 3


  93 0066 DB08     		lsrs	r3, r3, #3
  94 0068 DB00     		lsls	r3, r3, #3
  95 006a 6A46     		mov	r2, sp
  96 006c D31A     		subs	r3, r2, r3
  97 006e 9D46     		mov	sp, r3
  98 0070 6B46     		mov	r3, sp
  99 0072 0033     		adds	r3, r3, #0
 100 0074 3B62     		str	r3, [r7, #32]
  23:eeprom.c      ****     buf[0] = (uint8_t)(memAddr >> 8);  // High byte of memory address
 101              		.loc 1 23 0
 102 0076 1E23     		movs	r3, #30
 103 0078 FB18     		adds	r3, r7, r3
 104 007a 1B88     		ldrh	r3, [r3]
 105 007c 1B0A     		lsrs	r3, r3, #8
 106 007e 9BB2     		uxth	r3, r3
 107 0080 DAB2     		uxtb	r2, r3
 108 0082 3B6A     		ldr	r3, [r7, #32]
 109 0084 1A70     		strb	r2, [r3]
  24:eeprom.c      ****     buf[1] = (uint8_t)(memAddr & 0xFF); // Low byte of memory address
 110              		.loc 1 24 0
 111 0086 1E23     		movs	r3, #30
 112 0088 FB18     		adds	r3, r7, r3
 113 008a 1B88     		ldrh	r3, [r3]
 114 008c DAB2     		uxtb	r2, r3
 115 008e 3B6A     		ldr	r3, [r7, #32]
 116 0090 5A70     		strb	r2, [r3, #1]
  25:eeprom.c      ****     memcpy(&buf[2], data, len);
 117              		.loc 1 25 0
 118 0092 3B6A     		ldr	r3, [r7, #32]
 119 0094 981C     		adds	r0, r3, #2
 120 0096 1C23     		movs	r3, #28
 121 0098 FB18     		adds	r3, r7, r3
 122 009a 1A88     		ldrh	r2, [r3]
 123 009c BB69     		ldr	r3, [r7, #24]
 124 009e 1900     		movs	r1, r3
 125 00a0 FFF7FEFF 		bl	memcpy
  26:eeprom.c      **** 
  27:eeprom.c      ****     I2C_I2CMasterWriteBuf(EEPROM_I2C_ADDRESS, buf, sizeof(buf), I2C_I2C_MODE_COMPLETE_XFER);
 126              		.loc 1 27 0
 127 00a4 396A     		ldr	r1, [r7, #32]
 128 00a6 2200     		movs	r2, r4
 129 00a8 0023     		movs	r3, #0
 130 00aa 5020     		movs	r0, #80
 131 00ac FFF7FEFF 		bl	I2C_I2CMasterWriteBuf
  28:eeprom.c      ****     while (I2C_I2CMasterStatus() & I2C_I2C_MSTAT_XFER_INP);
 132              		.loc 1 28 0
 133 00b0 C046     		nop
 134              	.L2:
 135              		.loc 1 28 0 is_stmt 0 discriminator 1
 136 00b2 FFF7FEFF 		bl	I2C_I2CMasterStatus
 137 00b6 0200     		movs	r2, r0
 138 00b8 0423     		movs	r3, #4
 139 00ba 1340     		ands	r3, r2
 140 00bc F9D1     		bne	.L2
 141 00be 7B68     		ldr	r3, [r7, #4]
 142 00c0 9D46     		mov	sp, r3
  29:eeprom.c      **** 
ARM GAS  C:\Users\alexport\AppData\Local\Temp\ccpT2TKB.s 			page 4


  30:eeprom.c      ****     // Wait for internal write cycle (~5 ms for EEPROM)
  31:eeprom.c      ****     //CyDelay(5);
  32:eeprom.c      **** }
 143              		.loc 1 32 0 is_stmt 1
 144 00c2 C046     		nop
 145 00c4 BD46     		mov	sp, r7
 146 00c6 0BB0     		add	sp, sp, #44
 147              		@ sp needed
 148 00c8 F0BD     		pop	{r4, r5, r6, r7, pc}
 149              		.cfi_endproc
 150              	.LFE35:
 151              		.size	EEPROM_WriteBytes, .-EEPROM_WriteBytes
 152 00ca C046     		.section	.text.EEPROM_ReadBytes,"ax",%progbits
 153              		.align	2
 154              		.global	EEPROM_ReadBytes
 155              		.code	16
 156              		.thumb_func
 157              		.type	EEPROM_ReadBytes, %function
 158              	EEPROM_ReadBytes:
 159              	.LFB36:
  33:eeprom.c      **** 
  34:eeprom.c      **** 
  35:eeprom.c      **** // Read a sequence of bytes starting at memory address `memAddr`
  36:eeprom.c      **** void EEPROM_ReadBytes(uint16_t memAddr, uint8_t *data, uint16_t len)
  37:eeprom.c      **** {
 160              		.loc 1 37 0
 161              		.cfi_startproc
 162              		@ args = 0, pretend = 0, frame = 16
 163              		@ frame_needed = 1, uses_anonymous_args = 0
 164 0000 80B5     		push	{r7, lr}
 165              		.cfi_def_cfa_offset 8
 166              		.cfi_offset 7, -8
 167              		.cfi_offset 14, -4
 168 0002 84B0     		sub	sp, sp, #16
 169              		.cfi_def_cfa_offset 24
 170 0004 00AF     		add	r7, sp, #0
 171              		.cfi_def_cfa_register 7
 172 0006 3960     		str	r1, [r7]
 173 0008 1100     		movs	r1, r2
 174 000a BB1D     		adds	r3, r7, #6
 175 000c 021C     		adds	r2, r0, #0
 176 000e 1A80     		strh	r2, [r3]
 177 0010 3B1D     		adds	r3, r7, #4
 178 0012 0A1C     		adds	r2, r1, #0
 179 0014 1A80     		strh	r2, [r3]
  38:eeprom.c      ****     uint8_t addrBuf[2];
  39:eeprom.c      ****     addrBuf[0] = (uint8_t)(memAddr >> 8);
 180              		.loc 1 39 0
 181 0016 BB1D     		adds	r3, r7, #6
 182 0018 1B88     		ldrh	r3, [r3]
 183 001a 1B0A     		lsrs	r3, r3, #8
 184 001c 9BB2     		uxth	r3, r3
 185 001e DAB2     		uxtb	r2, r3
 186 0020 0C23     		movs	r3, #12
 187 0022 FB18     		adds	r3, r7, r3
 188 0024 1A70     		strb	r2, [r3]
  40:eeprom.c      ****     addrBuf[1] = (uint8_t)(memAddr & 0xFF);
ARM GAS  C:\Users\alexport\AppData\Local\Temp\ccpT2TKB.s 			page 5


 189              		.loc 1 40 0
 190 0026 BB1D     		adds	r3, r7, #6
 191 0028 1B88     		ldrh	r3, [r3]
 192 002a DAB2     		uxtb	r2, r3
 193 002c 0C23     		movs	r3, #12
 194 002e FB18     		adds	r3, r7, r3
 195 0030 5A70     		strb	r2, [r3, #1]
  41:eeprom.c      **** 
  42:eeprom.c      ****     // Send memory address
  43:eeprom.c      ****     I2C_I2CMasterWriteBuf(EEPROM_I2C_ADDRESS, addrBuf, 2, I2C_I2C_MODE_COMPLETE_XFER);
 196              		.loc 1 43 0
 197 0032 0C23     		movs	r3, #12
 198 0034 F918     		adds	r1, r7, r3
 199 0036 0023     		movs	r3, #0
 200 0038 0222     		movs	r2, #2
 201 003a 5020     		movs	r0, #80
 202 003c FFF7FEFF 		bl	I2C_I2CMasterWriteBuf
  44:eeprom.c      ****     while (I2C_I2CMasterStatus() & I2C_I2C_MSTAT_XFER_INP);
 203              		.loc 1 44 0
 204 0040 C046     		nop
 205              	.L4:
 206              		.loc 1 44 0 is_stmt 0 discriminator 1
 207 0042 FFF7FEFF 		bl	I2C_I2CMasterStatus
 208 0046 0200     		movs	r2, r0
 209 0048 0423     		movs	r3, #4
 210 004a 1340     		ands	r3, r2
 211 004c F9D1     		bne	.L4
  45:eeprom.c      **** 
  46:eeprom.c      ****     // Read data
  47:eeprom.c      ****     I2C_I2CMasterReadBuf(EEPROM_I2C_ADDRESS, data, len, I2C_I2C_MODE_COMPLETE_XFER);
 212              		.loc 1 47 0 is_stmt 1
 213 004e 3B1D     		adds	r3, r7, #4
 214 0050 1A88     		ldrh	r2, [r3]
 215 0052 3968     		ldr	r1, [r7]
 216 0054 0023     		movs	r3, #0
 217 0056 5020     		movs	r0, #80
 218 0058 FFF7FEFF 		bl	I2C_I2CMasterReadBuf
  48:eeprom.c      ****     while (I2C_I2CMasterStatus() & I2C_I2C_MSTAT_XFER_INP);
 219              		.loc 1 48 0
 220 005c C046     		nop
 221              	.L5:
 222              		.loc 1 48 0 is_stmt 0 discriminator 1
 223 005e FFF7FEFF 		bl	I2C_I2CMasterStatus
 224 0062 0200     		movs	r2, r0
 225 0064 0423     		movs	r3, #4
 226 0066 1340     		ands	r3, r2
 227 0068 F9D1     		bne	.L5
  49:eeprom.c      **** }
 228              		.loc 1 49 0 is_stmt 1
 229 006a C046     		nop
 230 006c BD46     		mov	sp, r7
 231 006e 04B0     		add	sp, sp, #16
 232              		@ sp needed
 233 0070 80BD     		pop	{r7, pc}
 234              		.cfi_endproc
 235              	.LFE36:
 236              		.size	EEPROM_ReadBytes, .-EEPROM_ReadBytes
ARM GAS  C:\Users\alexport\AppData\Local\Temp\ccpT2TKB.s 			page 6


 237 0072 C046     		.section	.text.EEPROM_GetMyAddress,"ax",%progbits
 238              		.align	2
 239              		.global	EEPROM_GetMyAddress
 240              		.code	16
 241              		.thumb_func
 242              		.type	EEPROM_GetMyAddress, %function
 243              	EEPROM_GetMyAddress:
 244              	.LFB37:
  50:eeprom.c      **** 
  51:eeprom.c      **** 
  52:eeprom.c      **** 
  53:eeprom.c      **** uint8_t EEPROM_GetMyAddress(void){
 245              		.loc 1 53 0
 246              		.cfi_startproc
 247              		@ args = 0, pretend = 0, frame = 8
 248              		@ frame_needed = 1, uses_anonymous_args = 0
 249 0000 80B5     		push	{r7, lr}
 250              		.cfi_def_cfa_offset 8
 251              		.cfi_offset 7, -8
 252              		.cfi_offset 14, -4
 253 0002 82B0     		sub	sp, sp, #8
 254              		.cfi_def_cfa_offset 16
 255 0004 00AF     		add	r7, sp, #0
 256              		.cfi_def_cfa_register 7
  54:eeprom.c      ****     uint8_t myaddr;
  55:eeprom.c      ****     EEPROM_ReadBytes(EEPROM_MY_ADDRESS_REG, &myaddr, 1);
 257              		.loc 1 55 0
 258 0006 FB1D     		adds	r3, r7, #7
 259 0008 0122     		movs	r2, #1
 260 000a 1900     		movs	r1, r3
 261 000c 0020     		movs	r0, #0
 262 000e FFF7FEFF 		bl	EEPROM_ReadBytes
  56:eeprom.c      ****     if((myaddr==0xFF)||(myaddr==0))
 263              		.loc 1 56 0
 264 0012 FB1D     		adds	r3, r7, #7
 265 0014 1B78     		ldrb	r3, [r3]
 266 0016 FF2B     		cmp	r3, #255
 267 0018 03D0     		beq	.L7
 268              		.loc 1 56 0 is_stmt 0 discriminator 1
 269 001a FB1D     		adds	r3, r7, #7
 270 001c 1B78     		ldrb	r3, [r3]
 271 001e 002B     		cmp	r3, #0
 272 0020 02D1     		bne	.L8
 273              	.L7:
  57:eeprom.c      ****         myaddr = MODBUS_MY_DEFAULT_ADDRESS;
 274              		.loc 1 57 0 is_stmt 1
 275 0022 FB1D     		adds	r3, r7, #7
 276 0024 0122     		movs	r2, #1
 277 0026 1A70     		strb	r2, [r3]
 278              	.L8:
  58:eeprom.c      ****     return myaddr;
 279              		.loc 1 58 0
 280 0028 FB1D     		adds	r3, r7, #7
 281 002a 1B78     		ldrb	r3, [r3]
  59:eeprom.c      **** }
 282              		.loc 1 59 0
 283 002c 1800     		movs	r0, r3
ARM GAS  C:\Users\alexport\AppData\Local\Temp\ccpT2TKB.s 			page 7


 284 002e BD46     		mov	sp, r7
 285 0030 02B0     		add	sp, sp, #8
 286              		@ sp needed
 287 0032 80BD     		pop	{r7, pc}
 288              		.cfi_endproc
 289              	.LFE37:
 290              		.size	EEPROM_GetMyAddress, .-EEPROM_GetMyAddress
 291              		.section	.text.EEPROM_SetMyAddress,"ax",%progbits
 292              		.align	2
 293              		.global	EEPROM_SetMyAddress
 294              		.code	16
 295              		.thumb_func
 296              		.type	EEPROM_SetMyAddress, %function
 297              	EEPROM_SetMyAddress:
 298              	.LFB38:
  60:eeprom.c      **** 
  61:eeprom.c      **** void EEPROM_SetMyAddress(uint8_t* addr){
 299              		.loc 1 61 0
 300              		.cfi_startproc
 301              		@ args = 0, pretend = 0, frame = 8
 302              		@ frame_needed = 1, uses_anonymous_args = 0
 303 0000 80B5     		push	{r7, lr}
 304              		.cfi_def_cfa_offset 8
 305              		.cfi_offset 7, -8
 306              		.cfi_offset 14, -4
 307 0002 82B0     		sub	sp, sp, #8
 308              		.cfi_def_cfa_offset 16
 309 0004 00AF     		add	r7, sp, #0
 310              		.cfi_def_cfa_register 7
 311 0006 7860     		str	r0, [r7, #4]
  62:eeprom.c      ****     
  63:eeprom.c      ****     if(*addr > MODBUS_MAXIMAL_ADDRESS)
 312              		.loc 1 63 0
 313 0008 7B68     		ldr	r3, [r7, #4]
 314 000a 1B78     		ldrb	r3, [r3]
 315 000c F02B     		cmp	r3, #240
 316 000e 02D9     		bls	.L11
  64:eeprom.c      ****       *addr = MODBUS_MY_DEFAULT_ADDRESS;
 317              		.loc 1 64 0
 318 0010 7B68     		ldr	r3, [r7, #4]
 319 0012 0122     		movs	r2, #1
 320 0014 1A70     		strb	r2, [r3]
 321              	.L11:
  65:eeprom.c      ****     EEPROM_WriteBytes(EEPROM_MY_ADDRESS_REG, addr, 1);
 322              		.loc 1 65 0
 323 0016 7B68     		ldr	r3, [r7, #4]
 324 0018 0122     		movs	r2, #1
 325 001a 1900     		movs	r1, r3
 326 001c 0020     		movs	r0, #0
 327 001e FFF7FEFF 		bl	EEPROM_WriteBytes
  66:eeprom.c      ****     
  67:eeprom.c      **** }
 328              		.loc 1 67 0
 329 0022 C046     		nop
 330 0024 BD46     		mov	sp, r7
 331 0026 02B0     		add	sp, sp, #8
 332              		@ sp needed
ARM GAS  C:\Users\alexport\AppData\Local\Temp\ccpT2TKB.s 			page 8


 333 0028 80BD     		pop	{r7, pc}
 334              		.cfi_endproc
 335              	.LFE38:
 336              		.size	EEPROM_SetMyAddress, .-EEPROM_SetMyAddress
 337 002a C046     		.section	.text.EEPROM_GetI2CPeriod,"ax",%progbits
 338              		.align	2
 339              		.global	EEPROM_GetI2CPeriod
 340              		.code	16
 341              		.thumb_func
 342              		.type	EEPROM_GetI2CPeriod, %function
 343              	EEPROM_GetI2CPeriod:
 344              	.LFB39:
  68:eeprom.c      **** 
  69:eeprom.c      **** uint16_t EEPROM_GetI2CPeriod(void){
 345              		.loc 1 69 0
 346              		.cfi_startproc
 347              		@ args = 0, pretend = 0, frame = 8
 348              		@ frame_needed = 1, uses_anonymous_args = 0
 349 0000 80B5     		push	{r7, lr}
 350              		.cfi_def_cfa_offset 8
 351              		.cfi_offset 7, -8
 352              		.cfi_offset 14, -4
 353 0002 82B0     		sub	sp, sp, #8
 354              		.cfi_def_cfa_offset 16
 355 0004 00AF     		add	r7, sp, #0
 356              		.cfi_def_cfa_register 7
  70:eeprom.c      ****     uint16_t i2c_period;
  71:eeprom.c      ****     uint8_t data[2];
  72:eeprom.c      ****     
  73:eeprom.c      ****     EEPROM_ReadBytes(EEPROM_I2C_PERIOD_MSB_REG, data, sizeof(data));
 357              		.loc 1 73 0
 358 0006 3B1D     		adds	r3, r7, #4
 359 0008 0222     		movs	r2, #2
 360 000a 1900     		movs	r1, r3
 361 000c 0120     		movs	r0, #1
 362 000e FFF7FEFF 		bl	EEPROM_ReadBytes
  74:eeprom.c      ****     i2c_period =data[0];
 363              		.loc 1 74 0
 364 0012 3B1D     		adds	r3, r7, #4
 365 0014 1A78     		ldrb	r2, [r3]
 366 0016 BB1D     		adds	r3, r7, #6
 367 0018 1A80     		strh	r2, [r3]
  75:eeprom.c      ****     i2c_period = (i2c_period<<8)+data[1];
 368              		.loc 1 75 0
 369 001a BB1D     		adds	r3, r7, #6
 370 001c 1B88     		ldrh	r3, [r3]
 371 001e 1B02     		lsls	r3, r3, #8
 372 0020 99B2     		uxth	r1, r3
 373 0022 3B1D     		adds	r3, r7, #4
 374 0024 5B78     		ldrb	r3, [r3, #1]
 375 0026 9AB2     		uxth	r2, r3
 376 0028 BB1D     		adds	r3, r7, #6
 377 002a 8A18     		adds	r2, r1, r2
 378 002c 1A80     		strh	r2, [r3]
  76:eeprom.c      ****     if((i2c_period==0xFFFF)||((i2c_period<MINIMAL_DEFAULT_I2C_PERIOD)))
 379              		.loc 1 76 0
 380 002e BB1D     		adds	r3, r7, #6
ARM GAS  C:\Users\alexport\AppData\Local\Temp\ccpT2TKB.s 			page 9


 381 0030 1B88     		ldrh	r3, [r3]
 382 0032 0D4A     		ldr	r2, .L17
 383 0034 9342     		cmp	r3, r2
 384 0036 03D0     		beq	.L13
 385              		.loc 1 76 0 is_stmt 0 discriminator 1
 386 0038 BB1D     		adds	r3, r7, #6
 387 003a 1B88     		ldrh	r3, [r3]
 388 003c F92B     		cmp	r3, #249
 389 003e 03D8     		bhi	.L14
 390              	.L13:
  77:eeprom.c      ****         i2c_period = MINIMAL_DEFAULT_I2C_PERIOD;
 391              		.loc 1 77 0 is_stmt 1
 392 0040 BB1D     		adds	r3, r7, #6
 393 0042 FA22     		movs	r2, #250
 394 0044 1A80     		strh	r2, [r3]
 395 0046 09E0     		b	.L15
 396              	.L14:
  78:eeprom.c      ****     else if (i2c_period>MAXIMAL_DEFAULT_I2C_PERIOD)
 397              		.loc 1 78 0
 398 0048 BB1D     		adds	r3, r7, #6
 399 004a 1A88     		ldrh	r2, [r3]
 400 004c FA23     		movs	r3, #250
 401 004e 9B00     		lsls	r3, r3, #2
 402 0050 9A42     		cmp	r2, r3
 403 0052 03D9     		bls	.L15
  79:eeprom.c      ****         i2c_period=MAXIMAL_DEFAULT_I2C_PERIOD;
 404              		.loc 1 79 0
 405 0054 BB1D     		adds	r3, r7, #6
 406 0056 FA22     		movs	r2, #250
 407 0058 9200     		lsls	r2, r2, #2
 408 005a 1A80     		strh	r2, [r3]
 409              	.L15:
  80:eeprom.c      ****     return i2c_period;
 410              		.loc 1 80 0
 411 005c BB1D     		adds	r3, r7, #6
 412 005e 1B88     		ldrh	r3, [r3]
  81:eeprom.c      **** }
 413              		.loc 1 81 0
 414 0060 1800     		movs	r0, r3
 415 0062 BD46     		mov	sp, r7
 416 0064 02B0     		add	sp, sp, #8
 417              		@ sp needed
 418 0066 80BD     		pop	{r7, pc}
 419              	.L18:
 420              		.align	2
 421              	.L17:
 422 0068 FFFF0000 		.word	65535
 423              		.cfi_endproc
 424              	.LFE39:
 425              		.size	EEPROM_GetI2CPeriod, .-EEPROM_GetI2CPeriod
 426              		.section	.text.EEPROM_SetI2CPeriod,"ax",%progbits
 427              		.align	2
 428              		.global	EEPROM_SetI2CPeriod
 429              		.code	16
 430              		.thumb_func
 431              		.type	EEPROM_SetI2CPeriod, %function
 432              	EEPROM_SetI2CPeriod:
ARM GAS  C:\Users\alexport\AppData\Local\Temp\ccpT2TKB.s 			page 10


 433              	.LFB40:
  82:eeprom.c      **** 
  83:eeprom.c      **** void EEPROM_SetI2CPeriod(uint16_t period){
 434              		.loc 1 83 0
 435              		.cfi_startproc
 436              		@ args = 0, pretend = 0, frame = 16
 437              		@ frame_needed = 1, uses_anonymous_args = 0
 438 0000 80B5     		push	{r7, lr}
 439              		.cfi_def_cfa_offset 8
 440              		.cfi_offset 7, -8
 441              		.cfi_offset 14, -4
 442 0002 84B0     		sub	sp, sp, #16
 443              		.cfi_def_cfa_offset 24
 444 0004 00AF     		add	r7, sp, #0
 445              		.cfi_def_cfa_register 7
 446 0006 0200     		movs	r2, r0
 447 0008 BB1D     		adds	r3, r7, #6
 448 000a 1A80     		strh	r2, [r3]
  84:eeprom.c      ****     
  85:eeprom.c      ****     
  86:eeprom.c      ****     uint8_t data[2];
  87:eeprom.c      ****     data[0]= (period>>8)&0xFF;
 449              		.loc 1 87 0
 450 000c BB1D     		adds	r3, r7, #6
 451 000e 1B88     		ldrh	r3, [r3]
 452 0010 1B0A     		lsrs	r3, r3, #8
 453 0012 9BB2     		uxth	r3, r3
 454 0014 DAB2     		uxtb	r2, r3
 455 0016 0C23     		movs	r3, #12
 456 0018 FB18     		adds	r3, r7, r3
 457 001a 1A70     		strb	r2, [r3]
  88:eeprom.c      ****     data[1]= period&0xFF;
 458              		.loc 1 88 0
 459 001c BB1D     		adds	r3, r7, #6
 460 001e 1B88     		ldrh	r3, [r3]
 461 0020 DAB2     		uxtb	r2, r3
 462 0022 0C23     		movs	r3, #12
 463 0024 FB18     		adds	r3, r7, r3
 464 0026 5A70     		strb	r2, [r3, #1]
  89:eeprom.c      ****     EEPROM_WriteBytes(EEPROM_I2C_PERIOD_MSB_REG, data, sizeof(data));
 465              		.loc 1 89 0
 466 0028 0C23     		movs	r3, #12
 467 002a FB18     		adds	r3, r7, r3
 468 002c 0222     		movs	r2, #2
 469 002e 1900     		movs	r1, r3
 470 0030 0120     		movs	r0, #1
 471 0032 FFF7FEFF 		bl	EEPROM_WriteBytes
  90:eeprom.c      **** }
 472              		.loc 1 90 0
 473 0036 C046     		nop
 474 0038 BD46     		mov	sp, r7
 475 003a 04B0     		add	sp, sp, #16
 476              		@ sp needed
 477 003c 80BD     		pop	{r7, pc}
 478              		.cfi_endproc
 479              	.LFE40:
 480              		.size	EEPROM_SetI2CPeriod, .-EEPROM_SetI2CPeriod
ARM GAS  C:\Users\alexport\AppData\Local\Temp\ccpT2TKB.s 			page 11


 481 003e C046     		.section	.text.EEPROM_GetSleepPeriod,"ax",%progbits
 482              		.align	2
 483              		.global	EEPROM_GetSleepPeriod
 484              		.code	16
 485              		.thumb_func
 486              		.type	EEPROM_GetSleepPeriod, %function
 487              	EEPROM_GetSleepPeriod:
 488              	.LFB41:
  91:eeprom.c      **** 
  92:eeprom.c      **** 
  93:eeprom.c      **** uint32_t EEPROM_GetSleepPeriod(void){
 489              		.loc 1 93 0
 490              		.cfi_startproc
 491              		@ args = 0, pretend = 0, frame = 16
 492              		@ frame_needed = 1, uses_anonymous_args = 0
 493 0000 80B5     		push	{r7, lr}
 494              		.cfi_def_cfa_offset 8
 495              		.cfi_offset 7, -8
 496              		.cfi_offset 14, -4
 497 0002 84B0     		sub	sp, sp, #16
 498              		.cfi_def_cfa_offset 24
 499 0004 00AF     		add	r7, sp, #0
 500              		.cfi_def_cfa_register 7
  94:eeprom.c      ****     uint8_t data[4];
  95:eeprom.c      ****     uint32_t sleep_period;
  96:eeprom.c      ****     uint8_t reg = EEPROM_SLEEP_PERIOD1_REG;
 501              		.loc 1 96 0
 502 0006 0B23     		movs	r3, #11
 503 0008 FB18     		adds	r3, r7, r3
 504 000a 0322     		movs	r2, #3
 505 000c 1A70     		strb	r2, [r3]
  97:eeprom.c      ****     
  98:eeprom.c      ****     EEPROM_ReadBytes(EEPROM_SLEEP_PERIOD1_REG, data, sizeof(data));
 506              		.loc 1 98 0
 507 000e 3B1D     		adds	r3, r7, #4
 508 0010 0422     		movs	r2, #4
 509 0012 1900     		movs	r1, r3
 510 0014 0320     		movs	r0, #3
 511 0016 FFF7FEFF 		bl	EEPROM_ReadBytes
  99:eeprom.c      ****     
 100:eeprom.c      ****     sleep_period =data[0];
 512              		.loc 1 100 0
 513 001a 3B1D     		adds	r3, r7, #4
 514 001c 1B78     		ldrb	r3, [r3]
 515 001e FB60     		str	r3, [r7, #12]
 101:eeprom.c      ****     sleep_period = (sleep_period<<8)+data[1];
 516              		.loc 1 101 0
 517 0020 FB68     		ldr	r3, [r7, #12]
 518 0022 1B02     		lsls	r3, r3, #8
 519 0024 3A1D     		adds	r2, r7, #4
 520 0026 5278     		ldrb	r2, [r2, #1]
 521 0028 9B18     		adds	r3, r3, r2
 522 002a FB60     		str	r3, [r7, #12]
 102:eeprom.c      ****     sleep_period = (sleep_period<<8)+data[2];
 523              		.loc 1 102 0
 524 002c FB68     		ldr	r3, [r7, #12]
 525 002e 1B02     		lsls	r3, r3, #8
ARM GAS  C:\Users\alexport\AppData\Local\Temp\ccpT2TKB.s 			page 12


 526 0030 3A1D     		adds	r2, r7, #4
 527 0032 9278     		ldrb	r2, [r2, #2]
 528 0034 9B18     		adds	r3, r3, r2
 529 0036 FB60     		str	r3, [r7, #12]
 103:eeprom.c      ****     sleep_period = (sleep_period<<8)+data[3];
 530              		.loc 1 103 0
 531 0038 FB68     		ldr	r3, [r7, #12]
 532 003a 1B02     		lsls	r3, r3, #8
 533 003c 3A1D     		adds	r2, r7, #4
 534 003e D278     		ldrb	r2, [r2, #3]
 535 0040 9B18     		adds	r3, r3, r2
 536 0042 FB60     		str	r3, [r7, #12]
 104:eeprom.c      ****     
 105:eeprom.c      ****     if(sleep_period==0xFFFFFFFF)
 537              		.loc 1 105 0
 538 0044 FB68     		ldr	r3, [r7, #12]
 539 0046 0133     		adds	r3, r3, #1
 540 0048 02D1     		bne	.L21
 106:eeprom.c      ****         sleep_period = DEFAULT_SLEEP_PERIOD;
 541              		.loc 1 106 0
 542 004a 0A4B     		ldr	r3, .L25
 543 004c FB60     		str	r3, [r7, #12]
 544 004e 0CE0     		b	.L22
 545              	.L21:
 107:eeprom.c      ****     else if (sleep_period > MAXIMAL_SLEEP_PERIOD)
 546              		.loc 1 107 0
 547 0050 FB68     		ldr	r3, [r7, #12]
 548 0052 094A     		ldr	r2, .L25+4
 549 0054 9342     		cmp	r3, r2
 550 0056 02D9     		bls	.L23
 108:eeprom.c      ****         sleep_period = MAXIMAL_SLEEP_PERIOD;
 551              		.loc 1 108 0
 552 0058 074B     		ldr	r3, .L25+4
 553 005a FB60     		str	r3, [r7, #12]
 554 005c 05E0     		b	.L22
 555              	.L23:
 109:eeprom.c      ****     else if (sleep_period < MINIMAL_SLEEP_PERIOD)
 556              		.loc 1 109 0
 557 005e FB68     		ldr	r3, [r7, #12]
 558 0060 064A     		ldr	r2, .L25+8
 559 0062 9342     		cmp	r3, r2
 560 0064 01D8     		bhi	.L22
 110:eeprom.c      ****         //sleep_period = MINIMAL_SLEEP_PERIOD;
 111:eeprom.c      ****         sleep_period = 0;
 561              		.loc 1 111 0
 562 0066 0023     		movs	r3, #0
 563 0068 FB60     		str	r3, [r7, #12]
 564              	.L22:
 112:eeprom.c      ****     return sleep_period;
 565              		.loc 1 112 0
 566 006a FB68     		ldr	r3, [r7, #12]
 113:eeprom.c      **** }
 567              		.loc 1 113 0
 568 006c 1800     		movs	r0, r3
 569 006e BD46     		mov	sp, r7
 570 0070 04B0     		add	sp, sp, #16
 571              		@ sp needed
ARM GAS  C:\Users\alexport\AppData\Local\Temp\ccpT2TKB.s 			page 13


 572 0072 80BD     		pop	{r7, pc}
 573              	.L26:
 574              		.align	2
 575              	.L25:
 576 0074 204E0000 		.word	20000
 577 0078 60EA0000 		.word	60000
 578 007c 0F270000 		.word	9999
 579              		.cfi_endproc
 580              	.LFE41:
 581              		.size	EEPROM_GetSleepPeriod, .-EEPROM_GetSleepPeriod
 582              		.section	.text.EEPROM_SetSleepPeriod,"ax",%progbits
 583              		.align	2
 584              		.global	EEPROM_SetSleepPeriod
 585              		.code	16
 586              		.thumb_func
 587              		.type	EEPROM_SetSleepPeriod, %function
 588              	EEPROM_SetSleepPeriod:
 589              	.LFB42:
 114:eeprom.c      **** 
 115:eeprom.c      **** void EEPROM_SetSleepPeriod(uint32_t period){
 590              		.loc 1 115 0
 591              		.cfi_startproc
 592              		@ args = 0, pretend = 0, frame = 16
 593              		@ frame_needed = 1, uses_anonymous_args = 0
 594 0000 80B5     		push	{r7, lr}
 595              		.cfi_def_cfa_offset 8
 596              		.cfi_offset 7, -8
 597              		.cfi_offset 14, -4
 598 0002 84B0     		sub	sp, sp, #16
 599              		.cfi_def_cfa_offset 24
 600 0004 00AF     		add	r7, sp, #0
 601              		.cfi_def_cfa_register 7
 602 0006 7860     		str	r0, [r7, #4]
 116:eeprom.c      ****     uint8_t data[4];
 117:eeprom.c      ****     data[0]= (period>>24)&0xFF;
 603              		.loc 1 117 0
 604 0008 7B68     		ldr	r3, [r7, #4]
 605 000a 1B0E     		lsrs	r3, r3, #24
 606 000c DAB2     		uxtb	r2, r3
 607 000e 0C23     		movs	r3, #12
 608 0010 FB18     		adds	r3, r7, r3
 609 0012 1A70     		strb	r2, [r3]
 118:eeprom.c      ****     data[1]= (period>>16)&0xFF;
 610              		.loc 1 118 0
 611 0014 7B68     		ldr	r3, [r7, #4]
 612 0016 1B0C     		lsrs	r3, r3, #16
 613 0018 DAB2     		uxtb	r2, r3
 614 001a 0C23     		movs	r3, #12
 615 001c FB18     		adds	r3, r7, r3
 616 001e 5A70     		strb	r2, [r3, #1]
 119:eeprom.c      ****     data[2]= (period>>8)&0xFF;
 617              		.loc 1 119 0
 618 0020 7B68     		ldr	r3, [r7, #4]
 619 0022 1B0A     		lsrs	r3, r3, #8
 620 0024 DAB2     		uxtb	r2, r3
 621 0026 0C23     		movs	r3, #12
 622 0028 FB18     		adds	r3, r7, r3
ARM GAS  C:\Users\alexport\AppData\Local\Temp\ccpT2TKB.s 			page 14


 623 002a 9A70     		strb	r2, [r3, #2]
 120:eeprom.c      ****     data[3]= period&0xFF;
 624              		.loc 1 120 0
 625 002c 7B68     		ldr	r3, [r7, #4]
 626 002e DAB2     		uxtb	r2, r3
 627 0030 0C23     		movs	r3, #12
 628 0032 FB18     		adds	r3, r7, r3
 629 0034 DA70     		strb	r2, [r3, #3]
 121:eeprom.c      ****     EEPROM_WriteBytes(EEPROM_SLEEP_PERIOD1_REG, data, sizeof(data));
 630              		.loc 1 121 0
 631 0036 0C23     		movs	r3, #12
 632 0038 FB18     		adds	r3, r7, r3
 633 003a 0422     		movs	r2, #4
 634 003c 1900     		movs	r1, r3
 635 003e 0320     		movs	r0, #3
 636 0040 FFF7FEFF 		bl	EEPROM_WriteBytes
 122:eeprom.c      ****     
 123:eeprom.c      ****     
 124:eeprom.c      ****     
 125:eeprom.c      **** }
 637              		.loc 1 125 0
 638 0044 C046     		nop
 639 0046 BD46     		mov	sp, r7
 640 0048 04B0     		add	sp, sp, #16
 641              		@ sp needed
 642 004a 80BD     		pop	{r7, pc}
 643              		.cfi_endproc
 644              	.LFE42:
 645              		.size	EEPROM_SetSleepPeriod, .-EEPROM_SetSleepPeriod
 646              		.section	.text.EEPROM_GetCh2Activity,"ax",%progbits
 647              		.align	2
 648              		.global	EEPROM_GetCh2Activity
 649              		.code	16
 650              		.thumb_func
 651              		.type	EEPROM_GetCh2Activity, %function
 652              	EEPROM_GetCh2Activity:
 653              	.LFB43:
 126:eeprom.c      **** 
 127:eeprom.c      **** uint8_t EEPROM_GetCh2Activity(void){
 654              		.loc 1 127 0
 655              		.cfi_startproc
 656              		@ args = 0, pretend = 0, frame = 8
 657              		@ frame_needed = 1, uses_anonymous_args = 0
 658 0000 80B5     		push	{r7, lr}
 659              		.cfi_def_cfa_offset 8
 660              		.cfi_offset 7, -8
 661              		.cfi_offset 14, -4
 662 0002 82B0     		sub	sp, sp, #8
 663              		.cfi_def_cfa_offset 16
 664 0004 00AF     		add	r7, sp, #0
 665              		.cfi_def_cfa_register 7
 128:eeprom.c      ****     uint8_t ch2Active;
 129:eeprom.c      ****     EEPROM_ReadBytes(EEPROM_CH2_ACTIVE_REG, &ch2Active, 1);
 666              		.loc 1 129 0
 667 0006 FB1D     		adds	r3, r7, #7
 668 0008 0122     		movs	r2, #1
 669 000a 1900     		movs	r1, r3
ARM GAS  C:\Users\alexport\AppData\Local\Temp\ccpT2TKB.s 			page 15


 670 000c 0720     		movs	r0, #7
 671 000e FFF7FEFF 		bl	EEPROM_ReadBytes
 130:eeprom.c      ****     
 131:eeprom.c      ****     if(ch2Active>1)
 672              		.loc 1 131 0
 673 0012 FB1D     		adds	r3, r7, #7
 674 0014 1B78     		ldrb	r3, [r3]
 675 0016 012B     		cmp	r3, #1
 676 0018 02D9     		bls	.L29
 132:eeprom.c      ****         ch2Active = CHANNEL2_ACTIVE_DEFAULT;
 677              		.loc 1 132 0
 678 001a FB1D     		adds	r3, r7, #7
 679 001c 0022     		movs	r2, #0
 680 001e 1A70     		strb	r2, [r3]
 681              	.L29:
 133:eeprom.c      ****     return ch2Active;
 682              		.loc 1 133 0
 683 0020 FB1D     		adds	r3, r7, #7
 684 0022 1B78     		ldrb	r3, [r3]
 134:eeprom.c      **** 
 135:eeprom.c      **** }
 685              		.loc 1 135 0
 686 0024 1800     		movs	r0, r3
 687 0026 BD46     		mov	sp, r7
 688 0028 02B0     		add	sp, sp, #8
 689              		@ sp needed
 690 002a 80BD     		pop	{r7, pc}
 691              		.cfi_endproc
 692              	.LFE43:
 693              		.size	EEPROM_GetCh2Activity, .-EEPROM_GetCh2Activity
 694              		.section	.text.EEPROM_SetCh2Activity,"ax",%progbits
 695              		.align	2
 696              		.global	EEPROM_SetCh2Activity
 697              		.code	16
 698              		.thumb_func
 699              		.type	EEPROM_SetCh2Activity, %function
 700              	EEPROM_SetCh2Activity:
 701              	.LFB44:
 136:eeprom.c      **** 
 137:eeprom.c      **** void EEPROM_SetCh2Activity(uint8_t active){
 702              		.loc 1 137 0
 703              		.cfi_startproc
 704              		@ args = 0, pretend = 0, frame = 16
 705              		@ frame_needed = 1, uses_anonymous_args = 0
 706 0000 80B5     		push	{r7, lr}
 707              		.cfi_def_cfa_offset 8
 708              		.cfi_offset 7, -8
 709              		.cfi_offset 14, -4
 710 0002 84B0     		sub	sp, sp, #16
 711              		.cfi_def_cfa_offset 24
 712 0004 00AF     		add	r7, sp, #0
 713              		.cfi_def_cfa_register 7
 714 0006 0200     		movs	r2, r0
 715 0008 FB1D     		adds	r3, r7, #7
 716 000a 1A70     		strb	r2, [r3]
 138:eeprom.c      ****     uint8_t data = active;
 717              		.loc 1 138 0
ARM GAS  C:\Users\alexport\AppData\Local\Temp\ccpT2TKB.s 			page 16


 718 000c 0F23     		movs	r3, #15
 719 000e FB18     		adds	r3, r7, r3
 720 0010 FA1D     		adds	r2, r7, #7
 721 0012 1278     		ldrb	r2, [r2]
 722 0014 1A70     		strb	r2, [r3]
 139:eeprom.c      ****     EEPROM_WriteBytes(EEPROM_CH2_ACTIVE_REG, &data, 1);
 723              		.loc 1 139 0
 724 0016 0F23     		movs	r3, #15
 725 0018 FB18     		adds	r3, r7, r3
 726 001a 0122     		movs	r2, #1
 727 001c 1900     		movs	r1, r3
 728 001e 0720     		movs	r0, #7
 729 0020 FFF7FEFF 		bl	EEPROM_WriteBytes
 140:eeprom.c      **** }
 730              		.loc 1 140 0
 731 0024 C046     		nop
 732 0026 BD46     		mov	sp, r7
 733 0028 04B0     		add	sp, sp, #16
 734              		@ sp needed
 735 002a 80BD     		pop	{r7, pc}
 736              		.cfi_endproc
 737              	.LFE44:
 738              		.size	EEPROM_SetCh2Activity, .-EEPROM_SetCh2Activity
 739              		.section	.text.EEPROM_GetRelaySetting,"ax",%progbits
 740              		.align	2
 741              		.global	EEPROM_GetRelaySetting
 742              		.code	16
 743              		.thumb_func
 744              		.type	EEPROM_GetRelaySetting, %function
 745              	EEPROM_GetRelaySetting:
 746              	.LFB45:
 141:eeprom.c      **** 
 142:eeprom.c      **** void EEPROM_GetRelaySetting(uint8_t* data){
 747              		.loc 1 142 0
 748              		.cfi_startproc
 749              		@ args = 0, pretend = 0, frame = 8
 750              		@ frame_needed = 1, uses_anonymous_args = 0
 751 0000 80B5     		push	{r7, lr}
 752              		.cfi_def_cfa_offset 8
 753              		.cfi_offset 7, -8
 754              		.cfi_offset 14, -4
 755 0002 82B0     		sub	sp, sp, #8
 756              		.cfi_def_cfa_offset 16
 757 0004 00AF     		add	r7, sp, #0
 758              		.cfi_def_cfa_register 7
 759 0006 7860     		str	r0, [r7, #4]
 143:eeprom.c      ****     EEPROM_ReadBytes(EEPROM_RELAY1_ENERG_REG, data, 12 );
 760              		.loc 1 143 0
 761 0008 7B68     		ldr	r3, [r7, #4]
 762 000a 0C22     		movs	r2, #12
 763 000c 1900     		movs	r1, r3
 764 000e 0820     		movs	r0, #8
 765 0010 FFF7FEFF 		bl	EEPROM_ReadBytes
 144:eeprom.c      **** }
 766              		.loc 1 144 0
 767 0014 C046     		nop
 768 0016 BD46     		mov	sp, r7
ARM GAS  C:\Users\alexport\AppData\Local\Temp\ccpT2TKB.s 			page 17


 769 0018 02B0     		add	sp, sp, #8
 770              		@ sp needed
 771 001a 80BD     		pop	{r7, pc}
 772              		.cfi_endproc
 773              	.LFE45:
 774              		.size	EEPROM_GetRelaySetting, .-EEPROM_GetRelaySetting
 775              		.section	.text.EEPROM_SetRelaySetting,"ax",%progbits
 776              		.align	2
 777              		.global	EEPROM_SetRelaySetting
 778              		.code	16
 779              		.thumb_func
 780              		.type	EEPROM_SetRelaySetting, %function
 781              	EEPROM_SetRelaySetting:
 782              	.LFB46:
 145:eeprom.c      **** 
 146:eeprom.c      **** void EEPROM_SetRelaySetting(uint8_t reg ,uint8_t val ){
 783              		.loc 1 146 0
 784              		.cfi_startproc
 785              		@ args = 0, pretend = 0, frame = 8
 786              		@ frame_needed = 1, uses_anonymous_args = 0
 787 0000 80B5     		push	{r7, lr}
 788              		.cfi_def_cfa_offset 8
 789              		.cfi_offset 7, -8
 790              		.cfi_offset 14, -4
 791 0002 82B0     		sub	sp, sp, #8
 792              		.cfi_def_cfa_offset 16
 793 0004 00AF     		add	r7, sp, #0
 794              		.cfi_def_cfa_register 7
 795 0006 0200     		movs	r2, r0
 796 0008 FB1D     		adds	r3, r7, #7
 797 000a 1A70     		strb	r2, [r3]
 798 000c BB1D     		adds	r3, r7, #6
 799 000e 0A1C     		adds	r2, r1, #0
 800 0010 1A70     		strb	r2, [r3]
 147:eeprom.c      ****     EEPROM_WriteBytes(reg, &val, 1);
 801              		.loc 1 147 0
 802 0012 FB1D     		adds	r3, r7, #7
 803 0014 1B78     		ldrb	r3, [r3]
 804 0016 9BB2     		uxth	r3, r3
 805 0018 B91D     		adds	r1, r7, #6
 806 001a 0122     		movs	r2, #1
 807 001c 1800     		movs	r0, r3
 808 001e FFF7FEFF 		bl	EEPROM_WriteBytes
 148:eeprom.c      **** }
 809              		.loc 1 148 0
 810 0022 C046     		nop
 811 0024 BD46     		mov	sp, r7
 812 0026 02B0     		add	sp, sp, #8
 813              		@ sp needed
 814 0028 80BD     		pop	{r7, pc}
 815              		.cfi_endproc
 816              	.LFE46:
 817              		.size	EEPROM_SetRelaySetting, .-EEPROM_SetRelaySetting
 818 002a C046     		.section	.text.EEPROM_SaveGPSLat,"ax",%progbits
 819              		.align	2
 820              		.global	EEPROM_SaveGPSLat
 821              		.code	16
ARM GAS  C:\Users\alexport\AppData\Local\Temp\ccpT2TKB.s 			page 18


 822              		.thumb_func
 823              		.type	EEPROM_SaveGPSLat, %function
 824              	EEPROM_SaveGPSLat:
 825              	.LFB47:
 149:eeprom.c      **** 
 150:eeprom.c      **** 
 151:eeprom.c      **** void EEPROM_SaveGPSLat(float lattitude){
 826              		.loc 1 151 0
 827              		.cfi_startproc
 828              		@ args = 0, pretend = 0, frame = 24
 829              		@ frame_needed = 1, uses_anonymous_args = 0
 830 0000 80B5     		push	{r7, lr}
 831              		.cfi_def_cfa_offset 8
 832              		.cfi_offset 7, -8
 833              		.cfi_offset 14, -4
 834 0002 86B0     		sub	sp, sp, #24
 835              		.cfi_def_cfa_offset 32
 836 0004 00AF     		add	r7, sp, #0
 837              		.cfi_def_cfa_register 7
 838 0006 7860     		str	r0, [r7, #4]
 152:eeprom.c      ****    uint8_t data[4];
 153:eeprom.c      ****    uint8_t inv[4];
 154:eeprom.c      ****     memcpy(data,&lattitude, sizeof(data) );    
 839              		.loc 1 154 0
 840 0008 1023     		movs	r3, #16
 841 000a FB18     		adds	r3, r7, r3
 842 000c 3A1D     		adds	r2, r7, #4
 843 000e 1268     		ldr	r2, [r2]
 844 0010 1A60     		str	r2, [r3]
 845              	.LBB2:
 155:eeprom.c      ****     for(uint8_t i=0 ;i<4;i++)
 846              		.loc 1 155 0
 847 0012 1723     		movs	r3, #23
 848 0014 FB18     		adds	r3, r7, r3
 849 0016 0022     		movs	r2, #0
 850 0018 1A70     		strb	r2, [r3]
 851 001a 14E0     		b	.L35
 852              	.L36:
 156:eeprom.c      ****       inv[3-i]=data[i];
 853              		.loc 1 156 0 discriminator 3
 854 001c 1723     		movs	r3, #23
 855 001e FB18     		adds	r3, r7, r3
 856 0020 1B78     		ldrb	r3, [r3]
 857 0022 0322     		movs	r2, #3
 858 0024 D31A     		subs	r3, r2, r3
 859 0026 1722     		movs	r2, #23
 860 0028 BA18     		adds	r2, r7, r2
 861 002a 1278     		ldrb	r2, [r2]
 862 002c 1021     		movs	r1, #16
 863 002e 7918     		adds	r1, r7, r1
 864 0030 895C     		ldrb	r1, [r1, r2]
 865 0032 0C22     		movs	r2, #12
 866 0034 BA18     		adds	r2, r7, r2
 867 0036 D154     		strb	r1, [r2, r3]
 155:eeprom.c      ****     for(uint8_t i=0 ;i<4;i++)
 868              		.loc 1 155 0 discriminator 3
 869 0038 1723     		movs	r3, #23
ARM GAS  C:\Users\alexport\AppData\Local\Temp\ccpT2TKB.s 			page 19


 870 003a FB18     		adds	r3, r7, r3
 871 003c 1A78     		ldrb	r2, [r3]
 872 003e 1723     		movs	r3, #23
 873 0040 FB18     		adds	r3, r7, r3
 874 0042 0132     		adds	r2, r2, #1
 875 0044 1A70     		strb	r2, [r3]
 876              	.L35:
 155:eeprom.c      ****     for(uint8_t i=0 ;i<4;i++)
 877              		.loc 1 155 0 is_stmt 0 discriminator 1
 878 0046 1723     		movs	r3, #23
 879 0048 FB18     		adds	r3, r7, r3
 880 004a 1B78     		ldrb	r3, [r3]
 881 004c 032B     		cmp	r3, #3
 882 004e E5D9     		bls	.L36
 883              	.LBE2:
 157:eeprom.c      ****    EEPROM_WriteBytes(EEPROM_LATTITUDE_REG, (uint8_t*)&inv, sizeof(int32_t));
 884              		.loc 1 157 0 is_stmt 1
 885 0050 0C23     		movs	r3, #12
 886 0052 FB18     		adds	r3, r7, r3
 887 0054 0422     		movs	r2, #4
 888 0056 1900     		movs	r1, r3
 889 0058 1420     		movs	r0, #20
 890 005a FFF7FEFF 		bl	EEPROM_WriteBytes
 158:eeprom.c      **** }
 891              		.loc 1 158 0
 892 005e C046     		nop
 893 0060 BD46     		mov	sp, r7
 894 0062 06B0     		add	sp, sp, #24
 895              		@ sp needed
 896 0064 80BD     		pop	{r7, pc}
 897              		.cfi_endproc
 898              	.LFE47:
 899              		.size	EEPROM_SaveGPSLat, .-EEPROM_SaveGPSLat
 900 0066 C046     		.section	.text.EEPROM_SaveGPSLong,"ax",%progbits
 901              		.align	2
 902              		.global	EEPROM_SaveGPSLong
 903              		.code	16
 904              		.thumb_func
 905              		.type	EEPROM_SaveGPSLong, %function
 906              	EEPROM_SaveGPSLong:
 907              	.LFB48:
 159:eeprom.c      **** 
 160:eeprom.c      **** void EEPROM_SaveGPSLong(float longitude){
 908              		.loc 1 160 0
 909              		.cfi_startproc
 910              		@ args = 0, pretend = 0, frame = 24
 911              		@ frame_needed = 1, uses_anonymous_args = 0
 912 0000 80B5     		push	{r7, lr}
 913              		.cfi_def_cfa_offset 8
 914              		.cfi_offset 7, -8
 915              		.cfi_offset 14, -4
 916 0002 86B0     		sub	sp, sp, #24
 917              		.cfi_def_cfa_offset 32
 918 0004 00AF     		add	r7, sp, #0
 919              		.cfi_def_cfa_register 7
 920 0006 7860     		str	r0, [r7, #4]
 161:eeprom.c      ****     uint8_t data[4];
ARM GAS  C:\Users\alexport\AppData\Local\Temp\ccpT2TKB.s 			page 20


 162:eeprom.c      ****     uint8_t inv[4];
 163:eeprom.c      ****     memcpy(data,&longitude, sizeof(data) );  
 921              		.loc 1 163 0
 922 0008 1023     		movs	r3, #16
 923 000a FB18     		adds	r3, r7, r3
 924 000c 3A1D     		adds	r2, r7, #4
 925 000e 1268     		ldr	r2, [r2]
 926 0010 1A60     		str	r2, [r3]
 927              	.LBB3:
 164:eeprom.c      ****     for(uint8_t i=0 ;i<4;i++)
 928              		.loc 1 164 0
 929 0012 1723     		movs	r3, #23
 930 0014 FB18     		adds	r3, r7, r3
 931 0016 0022     		movs	r2, #0
 932 0018 1A70     		strb	r2, [r3]
 933 001a 14E0     		b	.L38
 934              	.L39:
 165:eeprom.c      ****       inv[3-i]=data[i];
 935              		.loc 1 165 0 discriminator 3
 936 001c 1723     		movs	r3, #23
 937 001e FB18     		adds	r3, r7, r3
 938 0020 1B78     		ldrb	r3, [r3]
 939 0022 0322     		movs	r2, #3
 940 0024 D31A     		subs	r3, r2, r3
 941 0026 1722     		movs	r2, #23
 942 0028 BA18     		adds	r2, r7, r2
 943 002a 1278     		ldrb	r2, [r2]
 944 002c 1021     		movs	r1, #16
 945 002e 7918     		adds	r1, r7, r1
 946 0030 895C     		ldrb	r1, [r1, r2]
 947 0032 0C22     		movs	r2, #12
 948 0034 BA18     		adds	r2, r7, r2
 949 0036 D154     		strb	r1, [r2, r3]
 164:eeprom.c      ****     for(uint8_t i=0 ;i<4;i++)
 950              		.loc 1 164 0 discriminator 3
 951 0038 1723     		movs	r3, #23
 952 003a FB18     		adds	r3, r7, r3
 953 003c 1A78     		ldrb	r2, [r3]
 954 003e 1723     		movs	r3, #23
 955 0040 FB18     		adds	r3, r7, r3
 956 0042 0132     		adds	r2, r2, #1
 957 0044 1A70     		strb	r2, [r3]
 958              	.L38:
 164:eeprom.c      ****     for(uint8_t i=0 ;i<4;i++)
 959              		.loc 1 164 0 is_stmt 0 discriminator 1
 960 0046 1723     		movs	r3, #23
 961 0048 FB18     		adds	r3, r7, r3
 962 004a 1B78     		ldrb	r3, [r3]
 963 004c 032B     		cmp	r3, #3
 964 004e E5D9     		bls	.L39
 965              	.LBE3:
 166:eeprom.c      ****     EEPROM_WriteBytes(EEPROM_LONGITUTE_REG, (uint8_t*)&inv, sizeof(int32_t));
 966              		.loc 1 166 0 is_stmt 1
 967 0050 0C23     		movs	r3, #12
 968 0052 FB18     		adds	r3, r7, r3
 969 0054 0422     		movs	r2, #4
 970 0056 1900     		movs	r1, r3
ARM GAS  C:\Users\alexport\AppData\Local\Temp\ccpT2TKB.s 			page 21


 971 0058 1820     		movs	r0, #24
 972 005a FFF7FEFF 		bl	EEPROM_WriteBytes
 167:eeprom.c      **** }
 973              		.loc 1 167 0
 974 005e C046     		nop
 975 0060 BD46     		mov	sp, r7
 976 0062 06B0     		add	sp, sp, #24
 977              		@ sp needed
 978 0064 80BD     		pop	{r7, pc}
 979              		.cfi_endproc
 980              	.LFE48:
 981              		.size	EEPROM_SaveGPSLong, .-EEPROM_SaveGPSLong
 982 0066 C046     		.section	.text.EEPROM_SaveGPS,"ax",%progbits
 983              		.align	2
 984              		.global	EEPROM_SaveGPS
 985              		.code	16
 986              		.thumb_func
 987              		.type	EEPROM_SaveGPS, %function
 988              	EEPROM_SaveGPS:
 989              	.LFB49:
 168:eeprom.c      **** 
 169:eeprom.c      **** 
 170:eeprom.c      **** void EEPROM_SaveGPS(float lattitude, float longitude ){
 990              		.loc 1 170 0
 991              		.cfi_startproc
 992              		@ args = 0, pretend = 0, frame = 8
 993              		@ frame_needed = 1, uses_anonymous_args = 0
 994 0000 80B5     		push	{r7, lr}
 995              		.cfi_def_cfa_offset 8
 996              		.cfi_offset 7, -8
 997              		.cfi_offset 14, -4
 998 0002 82B0     		sub	sp, sp, #8
 999              		.cfi_def_cfa_offset 16
 1000 0004 00AF     		add	r7, sp, #0
 1001              		.cfi_def_cfa_register 7
 1002 0006 7860     		str	r0, [r7, #4]
 1003 0008 3960     		str	r1, [r7]
 171:eeprom.c      ****     EEPROM_WriteBytes(EEPROM_LATTITUDE_REG, (uint8_t*)&lattitude, sizeof(int32_t));
 1004              		.loc 1 171 0
 1005 000a 3B1D     		adds	r3, r7, #4
 1006 000c 0422     		movs	r2, #4
 1007 000e 1900     		movs	r1, r3
 1008 0010 1420     		movs	r0, #20
 1009 0012 FFF7FEFF 		bl	EEPROM_WriteBytes
 172:eeprom.c      ****     EEPROM_WriteBytes(EEPROM_LONGITUTE_REG, (uint8_t*)&longitude, sizeof(int32_t));
 1010              		.loc 1 172 0
 1011 0016 3B00     		movs	r3, r7
 1012 0018 0422     		movs	r2, #4
 1013 001a 1900     		movs	r1, r3
 1014 001c 1820     		movs	r0, #24
 1015 001e FFF7FEFF 		bl	EEPROM_WriteBytes
 173:eeprom.c      **** }
 1016              		.loc 1 173 0
 1017 0022 C046     		nop
 1018 0024 BD46     		mov	sp, r7
 1019 0026 02B0     		add	sp, sp, #8
 1020              		@ sp needed
ARM GAS  C:\Users\alexport\AppData\Local\Temp\ccpT2TKB.s 			page 22


 1021 0028 80BD     		pop	{r7, pc}
 1022              		.cfi_endproc
 1023              	.LFE49:
 1024              		.size	EEPROM_SaveGPS, .-EEPROM_SaveGPS
 1025 002a C046     		.section	.text.EEPROM_GetGPS,"ax",%progbits
 1026              		.align	2
 1027              		.global	EEPROM_GetGPS
 1028              		.code	16
 1029              		.thumb_func
 1030              		.type	EEPROM_GetGPS, %function
 1031              	EEPROM_GetGPS:
 1032              	.LFB50:
 174:eeprom.c      **** 
 175:eeprom.c      **** 
 176:eeprom.c      **** 
 177:eeprom.c      **** 
 178:eeprom.c      **** 
 179:eeprom.c      **** void EEPROM_GetGPS(float* lattitude,  float* longitude){
 1033              		.loc 1 179 0
 1034              		.cfi_startproc
 1035              		@ args = 0, pretend = 0, frame = 24
 1036              		@ frame_needed = 1, uses_anonymous_args = 0
 1037 0000 80B5     		push	{r7, lr}
 1038              		.cfi_def_cfa_offset 8
 1039              		.cfi_offset 7, -8
 1040              		.cfi_offset 14, -4
 1041 0002 86B0     		sub	sp, sp, #24
 1042              		.cfi_def_cfa_offset 32
 1043 0004 00AF     		add	r7, sp, #0
 1044              		.cfi_def_cfa_register 7
 1045 0006 7860     		str	r0, [r7, #4]
 1046 0008 3960     		str	r1, [r7]
 180:eeprom.c      ****     uint8_t tmp[4];
 181:eeprom.c      ****     uint8_t inv[4];
 182:eeprom.c      ****     
 183:eeprom.c      ****     EEPROM_ReadBytes(EEPROM_LATTITUDE_REG, (uint8_t*)tmp, sizeof(int32_t) );
 1047              		.loc 1 183 0
 1048 000a 1023     		movs	r3, #16
 1049 000c FB18     		adds	r3, r7, r3
 1050 000e 0422     		movs	r2, #4
 1051 0010 1900     		movs	r1, r3
 1052 0012 1420     		movs	r0, #20
 1053 0014 FFF7FEFF 		bl	EEPROM_ReadBytes
 1054              	.LBB4:
 184:eeprom.c      ****     for(uint8_t i=0 ;i<4;i++)
 1055              		.loc 1 184 0
 1056 0018 1723     		movs	r3, #23
 1057 001a FB18     		adds	r3, r7, r3
 1058 001c 0022     		movs	r2, #0
 1059 001e 1A70     		strb	r2, [r3]
 1060 0020 14E0     		b	.L42
 1061              	.L43:
 185:eeprom.c      ****         inv[3-i]=tmp[i];
 1062              		.loc 1 185 0 discriminator 3
 1063 0022 1723     		movs	r3, #23
 1064 0024 FB18     		adds	r3, r7, r3
 1065 0026 1B78     		ldrb	r3, [r3]
ARM GAS  C:\Users\alexport\AppData\Local\Temp\ccpT2TKB.s 			page 23


 1066 0028 0322     		movs	r2, #3
 1067 002a D31A     		subs	r3, r2, r3
 1068 002c 1722     		movs	r2, #23
 1069 002e BA18     		adds	r2, r7, r2
 1070 0030 1278     		ldrb	r2, [r2]
 1071 0032 1021     		movs	r1, #16
 1072 0034 7918     		adds	r1, r7, r1
 1073 0036 895C     		ldrb	r1, [r1, r2]
 1074 0038 0C22     		movs	r2, #12
 1075 003a BA18     		adds	r2, r7, r2
 1076 003c D154     		strb	r1, [r2, r3]
 184:eeprom.c      ****     for(uint8_t i=0 ;i<4;i++)
 1077              		.loc 1 184 0 discriminator 3
 1078 003e 1723     		movs	r3, #23
 1079 0040 FB18     		adds	r3, r7, r3
 1080 0042 1A78     		ldrb	r2, [r3]
 1081 0044 1723     		movs	r3, #23
 1082 0046 FB18     		adds	r3, r7, r3
 1083 0048 0132     		adds	r2, r2, #1
 1084 004a 1A70     		strb	r2, [r3]
 1085              	.L42:
 184:eeprom.c      ****     for(uint8_t i=0 ;i<4;i++)
 1086              		.loc 1 184 0 is_stmt 0 discriminator 1
 1087 004c 1723     		movs	r3, #23
 1088 004e FB18     		adds	r3, r7, r3
 1089 0050 1B78     		ldrb	r3, [r3]
 1090 0052 032B     		cmp	r3, #3
 1091 0054 E5D9     		bls	.L43
 1092              	.LBE4:
 186:eeprom.c      ****     memcpy(lattitude,inv,4 );
 1093              		.loc 1 186 0 is_stmt 1
 1094 0056 0C23     		movs	r3, #12
 1095 0058 F918     		adds	r1, r7, r3
 1096 005a 7B68     		ldr	r3, [r7, #4]
 1097 005c 0422     		movs	r2, #4
 1098 005e 1800     		movs	r0, r3
 1099 0060 FFF7FEFF 		bl	memcpy
 187:eeprom.c      ****     EEPROM_ReadBytes(EEPROM_LONGITUTE_REG, (uint8_t*)tmp, sizeof(int32_t) );
 1100              		.loc 1 187 0
 1101 0064 1023     		movs	r3, #16
 1102 0066 FB18     		adds	r3, r7, r3
 1103 0068 0422     		movs	r2, #4
 1104 006a 1900     		movs	r1, r3
 1105 006c 1820     		movs	r0, #24
 1106 006e FFF7FEFF 		bl	EEPROM_ReadBytes
 1107              	.LBB5:
 188:eeprom.c      ****     for(uint8_t i=0 ;i<4;i++)
 1108              		.loc 1 188 0
 1109 0072 1623     		movs	r3, #22
 1110 0074 FB18     		adds	r3, r7, r3
 1111 0076 0022     		movs	r2, #0
 1112 0078 1A70     		strb	r2, [r3]
 1113 007a 14E0     		b	.L44
 1114              	.L45:
 189:eeprom.c      ****         inv[3-i]=tmp[i];
 1115              		.loc 1 189 0 discriminator 3
 1116 007c 1623     		movs	r3, #22
ARM GAS  C:\Users\alexport\AppData\Local\Temp\ccpT2TKB.s 			page 24


 1117 007e FB18     		adds	r3, r7, r3
 1118 0080 1B78     		ldrb	r3, [r3]
 1119 0082 0322     		movs	r2, #3
 1120 0084 D31A     		subs	r3, r2, r3
 1121 0086 1622     		movs	r2, #22
 1122 0088 BA18     		adds	r2, r7, r2
 1123 008a 1278     		ldrb	r2, [r2]
 1124 008c 1021     		movs	r1, #16
 1125 008e 7918     		adds	r1, r7, r1
 1126 0090 895C     		ldrb	r1, [r1, r2]
 1127 0092 0C22     		movs	r2, #12
 1128 0094 BA18     		adds	r2, r7, r2
 1129 0096 D154     		strb	r1, [r2, r3]
 188:eeprom.c      ****     for(uint8_t i=0 ;i<4;i++)
 1130              		.loc 1 188 0 discriminator 3
 1131 0098 1623     		movs	r3, #22
 1132 009a FB18     		adds	r3, r7, r3
 1133 009c 1A78     		ldrb	r2, [r3]
 1134 009e 1623     		movs	r3, #22
 1135 00a0 FB18     		adds	r3, r7, r3
 1136 00a2 0132     		adds	r2, r2, #1
 1137 00a4 1A70     		strb	r2, [r3]
 1138              	.L44:
 188:eeprom.c      ****     for(uint8_t i=0 ;i<4;i++)
 1139              		.loc 1 188 0 is_stmt 0 discriminator 1
 1140 00a6 1623     		movs	r3, #22
 1141 00a8 FB18     		adds	r3, r7, r3
 1142 00aa 1B78     		ldrb	r3, [r3]
 1143 00ac 032B     		cmp	r3, #3
 1144 00ae E5D9     		bls	.L45
 1145              	.LBE5:
 190:eeprom.c      ****     memcpy(longitude,inv,4 );
 1146              		.loc 1 190 0 is_stmt 1
 1147 00b0 0C23     		movs	r3, #12
 1148 00b2 F918     		adds	r1, r7, r3
 1149 00b4 3B68     		ldr	r3, [r7]
 1150 00b6 0422     		movs	r2, #4
 1151 00b8 1800     		movs	r0, r3
 1152 00ba FFF7FEFF 		bl	memcpy
 191:eeprom.c      ****  }   
 1153              		.loc 1 191 0
 1154 00be C046     		nop
 1155 00c0 BD46     		mov	sp, r7
 1156 00c2 06B0     		add	sp, sp, #24
 1157              		@ sp needed
 1158 00c4 80BD     		pop	{r7, pc}
 1159              		.cfi_endproc
 1160              	.LFE50:
 1161              		.size	EEPROM_GetGPS, .-EEPROM_GetGPS
 1162 00c6 C046     		.section	.text.SaveLogIndex,"ax",%progbits
 1163              		.align	2
 1164              		.global	SaveLogIndex
 1165              		.code	16
 1166              		.thumb_func
 1167              		.type	SaveLogIndex, %function
 1168              	SaveLogIndex:
 1169              	.LFB51:
ARM GAS  C:\Users\alexport\AppData\Local\Temp\ccpT2TKB.s 			page 25


 192:eeprom.c      **** 
 193:eeprom.c      **** 
 194:eeprom.c      **** // Logging
 195:eeprom.c      **** void SaveLogIndex(uint8_t index)
 196:eeprom.c      **** {
 1170              		.loc 1 196 0
 1171              		.cfi_startproc
 1172              		@ args = 0, pretend = 0, frame = 8
 1173              		@ frame_needed = 1, uses_anonymous_args = 0
 1174 0000 80B5     		push	{r7, lr}
 1175              		.cfi_def_cfa_offset 8
 1176              		.cfi_offset 7, -8
 1177              		.cfi_offset 14, -4
 1178 0002 82B0     		sub	sp, sp, #8
 1179              		.cfi_def_cfa_offset 16
 1180 0004 00AF     		add	r7, sp, #0
 1181              		.cfi_def_cfa_register 7
 1182 0006 0200     		movs	r2, r0
 1183 0008 FB1D     		adds	r3, r7, #7
 1184 000a 1A70     		strb	r2, [r3]
 197:eeprom.c      ****     //i2c_write_8(EEPROM_I2C_ADDRESS, LOG_INDEX_ADDR,index);
 198:eeprom.c      ****     EEPROM_WriteBytes(LOG_INDEX_ADDR, &index, 1);
 1185              		.loc 1 198 0
 1186 000c F91D     		adds	r1, r7, #7
 1187 000e A023     		movs	r3, #160
 1188 0010 5B00     		lsls	r3, r3, #1
 1189 0012 0122     		movs	r2, #1
 1190 0014 1800     		movs	r0, r3
 1191 0016 FFF7FEFF 		bl	EEPROM_WriteBytes
 199:eeprom.c      **** }
 1192              		.loc 1 199 0
 1193 001a C046     		nop
 1194 001c BD46     		mov	sp, r7
 1195 001e 02B0     		add	sp, sp, #8
 1196              		@ sp needed
 1197 0020 80BD     		pop	{r7, pc}
 1198              		.cfi_endproc
 1199              	.LFE51:
 1200              		.size	SaveLogIndex, .-SaveLogIndex
 1201 0022 C046     		.section	.text.LoadLogIndex,"ax",%progbits
 1202              		.align	2
 1203              		.global	LoadLogIndex
 1204              		.code	16
 1205              		.thumb_func
 1206              		.type	LoadLogIndex, %function
 1207              	LoadLogIndex:
 1208              	.LFB52:
 200:eeprom.c      **** 
 201:eeprom.c      **** 
 202:eeprom.c      **** 
 203:eeprom.c      **** uint8_t LoadLogIndex(void)
 204:eeprom.c      **** {
 1209              		.loc 1 204 0
 1210              		.cfi_startproc
 1211              		@ args = 0, pretend = 0, frame = 8
 1212              		@ frame_needed = 1, uses_anonymous_args = 0
 1213 0000 80B5     		push	{r7, lr}
ARM GAS  C:\Users\alexport\AppData\Local\Temp\ccpT2TKB.s 			page 26


 1214              		.cfi_def_cfa_offset 8
 1215              		.cfi_offset 7, -8
 1216              		.cfi_offset 14, -4
 1217 0002 82B0     		sub	sp, sp, #8
 1218              		.cfi_def_cfa_offset 16
 1219 0004 00AF     		add	r7, sp, #0
 1220              		.cfi_def_cfa_register 7
 205:eeprom.c      ****     uint8_t data;
 206:eeprom.c      ****     
 207:eeprom.c      ****     EEPROM_ReadBytes(LOG_INDEX_ADDR, &data, 1 );
 1221              		.loc 1 207 0
 1222 0006 F91D     		adds	r1, r7, #7
 1223 0008 A023     		movs	r3, #160
 1224 000a 5B00     		lsls	r3, r3, #1
 1225 000c 0122     		movs	r2, #1
 1226 000e 1800     		movs	r0, r3
 1227 0010 FFF7FEFF 		bl	EEPROM_ReadBytes
 208:eeprom.c      ****     if(data==0xFF)data =0;
 1228              		.loc 1 208 0
 1229 0014 FB1D     		adds	r3, r7, #7
 1230 0016 1B78     		ldrb	r3, [r3]
 1231 0018 FF2B     		cmp	r3, #255
 1232 001a 02D1     		bne	.L48
 1233              		.loc 1 208 0 is_stmt 0 discriminator 1
 1234 001c FB1D     		adds	r3, r7, #7
 1235 001e 0022     		movs	r2, #0
 1236 0020 1A70     		strb	r2, [r3]
 1237              	.L48:
 209:eeprom.c      ****     return data;
 1238              		.loc 1 209 0 is_stmt 1
 1239 0022 FB1D     		adds	r3, r7, #7
 1240 0024 1B78     		ldrb	r3, [r3]
 210:eeprom.c      **** }
 1241              		.loc 1 210 0
 1242 0026 1800     		movs	r0, r3
 1243 0028 BD46     		mov	sp, r7
 1244 002a 02B0     		add	sp, sp, #8
 1245              		@ sp needed
 1246 002c 80BD     		pop	{r7, pc}
 1247              		.cfi_endproc
 1248              	.LFE52:
 1249              		.size	LoadLogIndex, .-LoadLogIndex
 1250 002e C046     		.section	.text.SaveLogEntry,"ax",%progbits
 1251              		.align	2
 1252              		.global	SaveLogEntry
 1253              		.code	16
 1254              		.thumb_func
 1255              		.type	SaveLogEntry, %function
 1256              	SaveLogEntry:
 1257              	.LFB53:
 211:eeprom.c      **** 
 212:eeprom.c      **** void SaveLogEntry(uint8_t* idx, char* txt){
 1258              		.loc 1 212 0
 1259              		.cfi_startproc
 1260              		@ args = 0, pretend = 0, frame = 8
 1261              		@ frame_needed = 1, uses_anonymous_args = 0
 1262 0000 80B5     		push	{r7, lr}
ARM GAS  C:\Users\alexport\AppData\Local\Temp\ccpT2TKB.s 			page 27


 1263              		.cfi_def_cfa_offset 8
 1264              		.cfi_offset 7, -8
 1265              		.cfi_offset 14, -4
 1266 0002 82B0     		sub	sp, sp, #8
 1267              		.cfi_def_cfa_offset 16
 1268 0004 00AF     		add	r7, sp, #0
 1269              		.cfi_def_cfa_register 7
 1270 0006 7860     		str	r0, [r7, #4]
 1271 0008 3960     		str	r1, [r7]
 213:eeprom.c      ****     
 214:eeprom.c      ****     SaveLogIndex(*idx);
 1272              		.loc 1 214 0
 1273 000a 7B68     		ldr	r3, [r7, #4]
 1274 000c 1B78     		ldrb	r3, [r3]
 1275 000e 1800     		movs	r0, r3
 1276 0010 FFF7FEFF 		bl	SaveLogIndex
 215:eeprom.c      ****     EEPROM_WriteBytes(LOG_DATA_START_ADDR+LOG_PAGE_LENGTH*(*idx), (uint8_t*)txt, LOG_TXT_LENGTH);
 1277              		.loc 1 215 0
 1278 0014 7B68     		ldr	r3, [r7, #4]
 1279 0016 1B78     		ldrb	r3, [r3]
 1280 0018 9BB2     		uxth	r3, r3
 1281 001a DB01     		lsls	r3, r3, #7
 1282 001c 9BB2     		uxth	r3, r3
 1283 001e 5133     		adds	r3, r3, #81
 1284 0020 FF33     		adds	r3, r3, #255
 1285 0022 9BB2     		uxth	r3, r3
 1286 0024 3968     		ldr	r1, [r7]
 1287 0026 2822     		movs	r2, #40
 1288 0028 1800     		movs	r0, r3
 1289 002a FFF7FEFF 		bl	EEPROM_WriteBytes
 216:eeprom.c      ****     (*idx)++;
 1290              		.loc 1 216 0
 1291 002e 7B68     		ldr	r3, [r7, #4]
 1292 0030 1B78     		ldrb	r3, [r3]
 1293 0032 0133     		adds	r3, r3, #1
 1294 0034 DAB2     		uxtb	r2, r3
 1295 0036 7B68     		ldr	r3, [r7, #4]
 1296 0038 1A70     		strb	r2, [r3]
 217:eeprom.c      ****     if((*idx)>=LOG_MAX_ENTRIES)(*idx)=0;
 1297              		.loc 1 217 0
 1298 003a 7B68     		ldr	r3, [r7, #4]
 1299 003c 1B78     		ldrb	r3, [r3]
 1300 003e 092B     		cmp	r3, #9
 1301 0040 02D9     		bls	.L52
 1302              		.loc 1 217 0 is_stmt 0 discriminator 1
 1303 0042 7B68     		ldr	r3, [r7, #4]
 1304 0044 0022     		movs	r2, #0
 1305 0046 1A70     		strb	r2, [r3]
 1306              	.L52:
 218:eeprom.c      ****     
 219:eeprom.c      **** }
 1307              		.loc 1 219 0 is_stmt 1
 1308 0048 C046     		nop
 1309 004a BD46     		mov	sp, r7
 1310 004c 02B0     		add	sp, sp, #8
 1311              		@ sp needed
 1312 004e 80BD     		pop	{r7, pc}
ARM GAS  C:\Users\alexport\AppData\Local\Temp\ccpT2TKB.s 			page 28


 1313              		.cfi_endproc
 1314              	.LFE53:
 1315              		.size	SaveLogEntry, .-SaveLogEntry
 1316              		.global	__aeabi_idivmod
 1317              		.section	.text.GetLog,"ax",%progbits
 1318              		.align	2
 1319              		.global	GetLog
 1320              		.code	16
 1321              		.thumb_func
 1322              		.type	GetLog, %function
 1323              	GetLog:
 1324              	.LFB54:
 220:eeprom.c      **** 
 221:eeprom.c      **** void GetLog(char* log_record){
 1325              		.loc 1 221 0
 1326              		.cfi_startproc
 1327              		@ args = 0, pretend = 0, frame = 16
 1328              		@ frame_needed = 1, uses_anonymous_args = 0
 1329 0000 90B5     		push	{r4, r7, lr}
 1330              		.cfi_def_cfa_offset 12
 1331              		.cfi_offset 4, -12
 1332              		.cfi_offset 7, -8
 1333              		.cfi_offset 14, -4
 1334 0002 85B0     		sub	sp, sp, #20
 1335              		.cfi_def_cfa_offset 32
 1336 0004 00AF     		add	r7, sp, #0
 1337              		.cfi_def_cfa_register 7
 1338 0006 7860     		str	r0, [r7, #4]
 222:eeprom.c      ****     uint8_t log_last_entry_idx= LoadLogIndex();
 1339              		.loc 1 222 0
 1340 0008 0E23     		movs	r3, #14
 1341 000a FC18     		adds	r4, r7, r3
 1342 000c FFF7FEFF 		bl	LoadLogIndex
 1343 0010 0300     		movs	r3, r0
 1344 0012 2370     		strb	r3, [r4]
 1345              	.LBB6:
 223:eeprom.c      ****     for(uint8_t i=0;i<LOG_MAX_ENTRIES;i++ )
 1346              		.loc 1 223 0
 1347 0014 0F23     		movs	r3, #15
 1348 0016 FB18     		adds	r3, r7, r3
 1349 0018 0022     		movs	r2, #0
 1350 001a 1A70     		strb	r2, [r3]
 1351 001c 20E0     		b	.L54
 1352              	.L55:
 224:eeprom.c      ****             GetLogEntry((log_last_entry_idx+i)%LOG_MAX_ENTRIES, &log_record[i*LOG_TXT_LENGTH]);
 1353              		.loc 1 224 0 discriminator 3
 1354 001e 0E23     		movs	r3, #14
 1355 0020 FB18     		adds	r3, r7, r3
 1356 0022 1A78     		ldrb	r2, [r3]
 1357 0024 0F23     		movs	r3, #15
 1358 0026 FB18     		adds	r3, r7, r3
 1359 0028 1B78     		ldrb	r3, [r3]
 1360 002a D318     		adds	r3, r2, r3
 1361 002c 0A21     		movs	r1, #10
 1362 002e 1800     		movs	r0, r3
 1363 0030 FFF7FEFF 		bl	__aeabi_idivmod
 1364 0034 0B00     		movs	r3, r1
ARM GAS  C:\Users\alexport\AppData\Local\Temp\ccpT2TKB.s 			page 29


 1365 0036 D8B2     		uxtb	r0, r3
 1366 0038 0F23     		movs	r3, #15
 1367 003a FB18     		adds	r3, r7, r3
 1368 003c 1A78     		ldrb	r2, [r3]
 1369 003e 1300     		movs	r3, r2
 1370 0040 9B00     		lsls	r3, r3, #2
 1371 0042 9B18     		adds	r3, r3, r2
 1372 0044 DB00     		lsls	r3, r3, #3
 1373 0046 1A00     		movs	r2, r3
 1374 0048 7B68     		ldr	r3, [r7, #4]
 1375 004a 9B18     		adds	r3, r3, r2
 1376 004c 1900     		movs	r1, r3
 1377 004e FFF7FEFF 		bl	GetLogEntry
 223:eeprom.c      ****     for(uint8_t i=0;i<LOG_MAX_ENTRIES;i++ )
 1378              		.loc 1 223 0 discriminator 3
 1379 0052 0F23     		movs	r3, #15
 1380 0054 FB18     		adds	r3, r7, r3
 1381 0056 1A78     		ldrb	r2, [r3]
 1382 0058 0F23     		movs	r3, #15
 1383 005a FB18     		adds	r3, r7, r3
 1384 005c 0132     		adds	r2, r2, #1
 1385 005e 1A70     		strb	r2, [r3]
 1386              	.L54:
 223:eeprom.c      ****     for(uint8_t i=0;i<LOG_MAX_ENTRIES;i++ )
 1387              		.loc 1 223 0 is_stmt 0 discriminator 1
 1388 0060 0F23     		movs	r3, #15
 1389 0062 FB18     		adds	r3, r7, r3
 1390 0064 1B78     		ldrb	r3, [r3]
 1391 0066 092B     		cmp	r3, #9
 1392 0068 D9D9     		bls	.L55
 1393              	.LBE6:
 225:eeprom.c      **** }
 1394              		.loc 1 225 0 is_stmt 1
 1395 006a C046     		nop
 1396 006c BD46     		mov	sp, r7
 1397 006e 05B0     		add	sp, sp, #20
 1398              		@ sp needed
 1399 0070 90BD     		pop	{r4, r7, pc}
 1400              		.cfi_endproc
 1401              	.LFE54:
 1402              		.size	GetLog, .-GetLog
 1403 0072 C046     		.section	.text.GetLogEntry,"ax",%progbits
 1404              		.align	2
 1405              		.global	GetLogEntry
 1406              		.code	16
 1407              		.thumb_func
 1408              		.type	GetLogEntry, %function
 1409              	GetLogEntry:
 1410              	.LFB55:
 226:eeprom.c      **** 
 227:eeprom.c      **** 
 228:eeprom.c      **** void GetLogEntry(uint8_t idx, char* txt){
 1411              		.loc 1 228 0
 1412              		.cfi_startproc
 1413              		@ args = 0, pretend = 0, frame = 16
 1414              		@ frame_needed = 1, uses_anonymous_args = 0
 1415 0000 80B5     		push	{r7, lr}
ARM GAS  C:\Users\alexport\AppData\Local\Temp\ccpT2TKB.s 			page 30


 1416              		.cfi_def_cfa_offset 8
 1417              		.cfi_offset 7, -8
 1418              		.cfi_offset 14, -4
 1419 0002 84B0     		sub	sp, sp, #16
 1420              		.cfi_def_cfa_offset 24
 1421 0004 00AF     		add	r7, sp, #0
 1422              		.cfi_def_cfa_register 7
 1423 0006 0200     		movs	r2, r0
 1424 0008 3960     		str	r1, [r7]
 1425 000a FB1D     		adds	r3, r7, #7
 1426 000c 1A70     		strb	r2, [r3]
 229:eeprom.c      ****     //char entry[LOG_TXT_LENGTH];
 230:eeprom.c      ****     EEPROM_ReadBytes(LOG_DATA_START_ADDR+LOG_PAGE_LENGTH*idx, (uint8_t*)txt, LOG_TXT_LENGTH );
 1427              		.loc 1 230 0
 1428 000e FB1D     		adds	r3, r7, #7
 1429 0010 1B78     		ldrb	r3, [r3]
 1430 0012 9BB2     		uxth	r3, r3
 1431 0014 DB01     		lsls	r3, r3, #7
 1432 0016 9BB2     		uxth	r3, r3
 1433 0018 5133     		adds	r3, r3, #81
 1434 001a FF33     		adds	r3, r3, #255
 1435 001c 9BB2     		uxth	r3, r3
 1436 001e 3968     		ldr	r1, [r7]
 1437 0020 2822     		movs	r2, #40
 1438 0022 1800     		movs	r0, r3
 1439 0024 FFF7FEFF 		bl	EEPROM_ReadBytes
 231:eeprom.c      ****     //if(entry[0]==0xFF)
 232:eeprom.c      ****     //    memcpy(txt,0, LOG_TXT_LENGTH);
 233:eeprom.c      ****     if(*txt==0xFF) 
 1440              		.loc 1 233 0
 1441 0028 3B68     		ldr	r3, [r7]
 1442 002a 1B78     		ldrb	r3, [r3]
 1443 002c FF2B     		cmp	r3, #255
 1444 002e 15D1     		bne	.L60
 1445              	.LBB7:
 234:eeprom.c      ****     for(uint8_t i=0 ;i<LOG_TXT_LENGTH;i++)
 1446              		.loc 1 234 0
 1447 0030 0F23     		movs	r3, #15
 1448 0032 FB18     		adds	r3, r7, r3
 1449 0034 0022     		movs	r2, #0
 1450 0036 1A70     		strb	r2, [r3]
 1451 0038 0BE0     		b	.L58
 1452              	.L59:
 235:eeprom.c      ****         *(txt++)=0;
 1453              		.loc 1 235 0 discriminator 3
 1454 003a 3B68     		ldr	r3, [r7]
 1455 003c 5A1C     		adds	r2, r3, #1
 1456 003e 3A60     		str	r2, [r7]
 1457 0040 0022     		movs	r2, #0
 1458 0042 1A70     		strb	r2, [r3]
 234:eeprom.c      ****     for(uint8_t i=0 ;i<LOG_TXT_LENGTH;i++)
 1459              		.loc 1 234 0 discriminator 3
 1460 0044 0F23     		movs	r3, #15
 1461 0046 FB18     		adds	r3, r7, r3
 1462 0048 1A78     		ldrb	r2, [r3]
 1463 004a 0F23     		movs	r3, #15
 1464 004c FB18     		adds	r3, r7, r3
ARM GAS  C:\Users\alexport\AppData\Local\Temp\ccpT2TKB.s 			page 31


 1465 004e 0132     		adds	r2, r2, #1
 1466 0050 1A70     		strb	r2, [r3]
 1467              	.L58:
 234:eeprom.c      ****     for(uint8_t i=0 ;i<LOG_TXT_LENGTH;i++)
 1468              		.loc 1 234 0 is_stmt 0 discriminator 1
 1469 0052 0F23     		movs	r3, #15
 1470 0054 FB18     		adds	r3, r7, r3
 1471 0056 1B78     		ldrb	r3, [r3]
 1472 0058 272B     		cmp	r3, #39
 1473 005a EED9     		bls	.L59
 1474              	.L60:
 1475              	.LBE7:
 236:eeprom.c      **** }
 1476              		.loc 1 236 0 is_stmt 1
 1477 005c C046     		nop
 1478 005e BD46     		mov	sp, r7
 1479 0060 04B0     		add	sp, sp, #16
 1480              		@ sp needed
 1481 0062 80BD     		pop	{r7, pc}
 1482              		.cfi_endproc
 1483              	.LFE55:
 1484              		.size	GetLogEntry, .-GetLogEntry
 1485              		.section	.text.EraseLog,"ax",%progbits
 1486              		.align	2
 1487              		.global	EraseLog
 1488              		.code	16
 1489              		.thumb_func
 1490              		.type	EraseLog, %function
 1491              	EraseLog:
 1492              	.LFB56:
 237:eeprom.c      **** 
 238:eeprom.c      **** 
 239:eeprom.c      **** void EraseLog(void){
 1493              		.loc 1 239 0
 1494              		.cfi_startproc
 1495              		@ args = 0, pretend = 0, frame = 8
 1496              		@ frame_needed = 1, uses_anonymous_args = 0
 1497 0000 80B5     		push	{r7, lr}
 1498              		.cfi_def_cfa_offset 8
 1499              		.cfi_offset 7, -8
 1500              		.cfi_offset 14, -4
 1501 0002 82B0     		sub	sp, sp, #8
 1502              		.cfi_def_cfa_offset 16
 1503 0004 00AF     		add	r7, sp, #0
 1504              		.cfi_def_cfa_register 7
 240:eeprom.c      ****     SaveLogIndex(0);
 1505              		.loc 1 240 0
 1506 0006 0020     		movs	r0, #0
 1507 0008 FFF7FEFF 		bl	SaveLogIndex
 241:eeprom.c      ****     uint8_t data=0xFF;
 1508              		.loc 1 241 0
 1509 000c 7B1D     		adds	r3, r7, #5
 1510 000e FF22     		movs	r2, #255
 1511 0010 1A70     		strb	r2, [r3]
 242:eeprom.c      ****     EEPROM_WriteBytes(LOG_INDEX_ADDR, &data, 1);
 1512              		.loc 1 242 0
 1513 0012 791D     		adds	r1, r7, #5
ARM GAS  C:\Users\alexport\AppData\Local\Temp\ccpT2TKB.s 			page 32


 1514 0014 A023     		movs	r3, #160
 1515 0016 5B00     		lsls	r3, r3, #1
 1516 0018 0122     		movs	r2, #1
 1517 001a 1800     		movs	r0, r3
 1518 001c FFF7FEFF 		bl	EEPROM_WriteBytes
 1519              	.LBB8:
 243:eeprom.c      ****     for(uint16_t i =0; i < LOG_TXT_LENGTH ;i++){
 1520              		.loc 1 243 0
 1521 0020 BB1D     		adds	r3, r7, #6
 1522 0022 0022     		movs	r2, #0
 1523 0024 1A80     		strh	r2, [r3]
 1524 0026 10E0     		b	.L62
 1525              	.L63:
 244:eeprom.c      ****         EEPROM_WriteBytes(LOG_DATA_START_ADDR+i*LOG_PAGE_LENGTH, &data, 1);
 1526              		.loc 1 244 0 discriminator 3
 1527 0028 BB1D     		adds	r3, r7, #6
 1528 002a 1B88     		ldrh	r3, [r3]
 1529 002c DB01     		lsls	r3, r3, #7
 1530 002e 9BB2     		uxth	r3, r3
 1531 0030 5133     		adds	r3, r3, #81
 1532 0032 FF33     		adds	r3, r3, #255
 1533 0034 9BB2     		uxth	r3, r3
 1534 0036 791D     		adds	r1, r7, #5
 1535 0038 0122     		movs	r2, #1
 1536 003a 1800     		movs	r0, r3
 1537 003c FFF7FEFF 		bl	EEPROM_WriteBytes
 243:eeprom.c      ****     for(uint16_t i =0; i < LOG_TXT_LENGTH ;i++){
 1538              		.loc 1 243 0 discriminator 3
 1539 0040 BB1D     		adds	r3, r7, #6
 1540 0042 1A88     		ldrh	r2, [r3]
 1541 0044 BB1D     		adds	r3, r7, #6
 1542 0046 0132     		adds	r2, r2, #1
 1543 0048 1A80     		strh	r2, [r3]
 1544              	.L62:
 243:eeprom.c      ****     for(uint16_t i =0; i < LOG_TXT_LENGTH ;i++){
 1545              		.loc 1 243 0 is_stmt 0 discriminator 1
 1546 004a BB1D     		adds	r3, r7, #6
 1547 004c 1B88     		ldrh	r3, [r3]
 1548 004e 272B     		cmp	r3, #39
 1549 0050 EAD9     		bls	.L63
 1550              	.LBE8:
 245:eeprom.c      ****     }
 246:eeprom.c      ****     
 247:eeprom.c      **** }
 1551              		.loc 1 247 0 is_stmt 1
 1552 0052 C046     		nop
 1553 0054 BD46     		mov	sp, r7
 1554 0056 02B0     		add	sp, sp, #8
 1555              		@ sp needed
 1556 0058 80BD     		pop	{r7, pc}
 1557              		.cfi_endproc
 1558              	.LFE56:
 1559              		.size	EraseLog, .-EraseLog
 1560 005a C046     		.section	.text.SerializeLogEntry,"ax",%progbits
 1561              		.align	2
 1562              		.global	SerializeLogEntry
 1563              		.code	16
ARM GAS  C:\Users\alexport\AppData\Local\Temp\ccpT2TKB.s 			page 33


 1564              		.thumb_func
 1565              		.type	SerializeLogEntry, %function
 1566              	SerializeLogEntry:
 1567              	.LFB57:
 248:eeprom.c      **** 
 249:eeprom.c      **** void SerializeLogEntry(const LogEntry* entry, uint8_t* buffer)
 250:eeprom.c      **** {
 1568              		.loc 1 250 0
 1569              		.cfi_startproc
 1570              		@ args = 0, pretend = 0, frame = 8
 1571              		@ frame_needed = 1, uses_anonymous_args = 0
 1572 0000 80B5     		push	{r7, lr}
 1573              		.cfi_def_cfa_offset 8
 1574              		.cfi_offset 7, -8
 1575              		.cfi_offset 14, -4
 1576 0002 82B0     		sub	sp, sp, #8
 1577              		.cfi_def_cfa_offset 16
 1578 0004 00AF     		add	r7, sp, #0
 1579              		.cfi_def_cfa_register 7
 1580 0006 7860     		str	r0, [r7, #4]
 1581 0008 3960     		str	r1, [r7]
 251:eeprom.c      ****     buffer[0] = entry->channel;
 1582              		.loc 1 251 0
 1583 000a 7B68     		ldr	r3, [r7, #4]
 1584 000c 1A78     		ldrb	r2, [r3]
 1585 000e 3B68     		ldr	r3, [r7]
 1586 0010 1A70     		strb	r2, [r3]
 252:eeprom.c      ****     buffer[1] = (entry->timestamp >> 8) & 0xFF;
 1587              		.loc 1 252 0
 1588 0012 3B68     		ldr	r3, [r7]
 1589 0014 0133     		adds	r3, r3, #1
 1590 0016 7A68     		ldr	r2, [r7, #4]
 1591 0018 5288     		ldrh	r2, [r2, #2]
 1592 001a 120A     		lsrs	r2, r2, #8
 1593 001c 92B2     		uxth	r2, r2
 1594 001e D2B2     		uxtb	r2, r2
 1595 0020 1A70     		strb	r2, [r3]
 253:eeprom.c      ****     buffer[2] = entry->timestamp & 0xFF;
 1596              		.loc 1 253 0
 1597 0022 3B68     		ldr	r3, [r7]
 1598 0024 0233     		adds	r3, r3, #2
 1599 0026 7A68     		ldr	r2, [r7, #4]
 1600 0028 5288     		ldrh	r2, [r2, #2]
 1601 002a D2B2     		uxtb	r2, r2
 1602 002c 1A70     		strb	r2, [r3]
 254:eeprom.c      ****     buffer[3] = (entry->reading >> 24) & 0xFF;
 1603              		.loc 1 254 0
 1604 002e 3B68     		ldr	r3, [r7]
 1605 0030 DA1C     		adds	r2, r3, #3
 1606 0032 7B68     		ldr	r3, [r7, #4]
 1607 0034 5B68     		ldr	r3, [r3, #4]
 1608 0036 1B0E     		lsrs	r3, r3, #24
 1609 0038 DBB2     		uxtb	r3, r3
 1610 003a 1370     		strb	r3, [r2]
 255:eeprom.c      ****     buffer[4] = (entry->reading >> 16) & 0xFF;
 1611              		.loc 1 255 0
 1612 003c 3B68     		ldr	r3, [r7]
ARM GAS  C:\Users\alexport\AppData\Local\Temp\ccpT2TKB.s 			page 34


 1613 003e 1A1D     		adds	r2, r3, #4
 1614 0040 7B68     		ldr	r3, [r7, #4]
 1615 0042 5B68     		ldr	r3, [r3, #4]
 1616 0044 1B0C     		lsrs	r3, r3, #16
 1617 0046 DBB2     		uxtb	r3, r3
 1618 0048 1370     		strb	r3, [r2]
 256:eeprom.c      ****     buffer[5] = (entry->reading >> 8) & 0xFF;
 1619              		.loc 1 256 0
 1620 004a 3B68     		ldr	r3, [r7]
 1621 004c 5A1D     		adds	r2, r3, #5
 1622 004e 7B68     		ldr	r3, [r7, #4]
 1623 0050 5B68     		ldr	r3, [r3, #4]
 1624 0052 1B0A     		lsrs	r3, r3, #8
 1625 0054 DBB2     		uxtb	r3, r3
 1626 0056 1370     		strb	r3, [r2]
 257:eeprom.c      ****     buffer[6] = entry->reading & 0xFF;
 1627              		.loc 1 257 0
 1628 0058 3B68     		ldr	r3, [r7]
 1629 005a 9A1D     		adds	r2, r3, #6
 1630 005c 7B68     		ldr	r3, [r7, #4]
 1631 005e 5B68     		ldr	r3, [r3, #4]
 1632 0060 DBB2     		uxtb	r3, r3
 1633 0062 1370     		strb	r3, [r2]
 258:eeprom.c      **** }
 1634              		.loc 1 258 0
 1635 0064 C046     		nop
 1636 0066 BD46     		mov	sp, r7
 1637 0068 02B0     		add	sp, sp, #8
 1638              		@ sp needed
 1639 006a 80BD     		pop	{r7, pc}
 1640              		.cfi_endproc
 1641              	.LFE57:
 1642              		.size	SerializeLogEntry, .-SerializeLogEntry
 1643              		.section	.text.DeserializeLogEntry,"ax",%progbits
 1644              		.align	2
 1645              		.global	DeserializeLogEntry
 1646              		.code	16
 1647              		.thumb_func
 1648              		.type	DeserializeLogEntry, %function
 1649              	DeserializeLogEntry:
 1650              	.LFB58:
 259:eeprom.c      **** 
 260:eeprom.c      **** void DeserializeLogEntry(const uint8_t* buffer, LogEntry* entry)
 261:eeprom.c      **** {
 1651              		.loc 1 261 0
 1652              		.cfi_startproc
 1653              		@ args = 0, pretend = 0, frame = 8
 1654              		@ frame_needed = 1, uses_anonymous_args = 0
 1655 0000 80B5     		push	{r7, lr}
 1656              		.cfi_def_cfa_offset 8
 1657              		.cfi_offset 7, -8
 1658              		.cfi_offset 14, -4
 1659 0002 82B0     		sub	sp, sp, #8
 1660              		.cfi_def_cfa_offset 16
 1661 0004 00AF     		add	r7, sp, #0
 1662              		.cfi_def_cfa_register 7
 1663 0006 7860     		str	r0, [r7, #4]
ARM GAS  C:\Users\alexport\AppData\Local\Temp\ccpT2TKB.s 			page 35


 1664 0008 3960     		str	r1, [r7]
 262:eeprom.c      ****     entry->channel = buffer[0];
 1665              		.loc 1 262 0
 1666 000a 7B68     		ldr	r3, [r7, #4]
 1667 000c 1A78     		ldrb	r2, [r3]
 1668 000e 3B68     		ldr	r3, [r7]
 1669 0010 1A70     		strb	r2, [r3]
 263:eeprom.c      ****     entry->timestamp = ((uint16_t)buffer[1] << 8) | buffer[2];
 1670              		.loc 1 263 0
 1671 0012 7B68     		ldr	r3, [r7, #4]
 1672 0014 0133     		adds	r3, r3, #1
 1673 0016 1B78     		ldrb	r3, [r3]
 1674 0018 1B02     		lsls	r3, r3, #8
 1675 001a 1AB2     		sxth	r2, r3
 1676 001c 7B68     		ldr	r3, [r7, #4]
 1677 001e 0233     		adds	r3, r3, #2
 1678 0020 1B78     		ldrb	r3, [r3]
 1679 0022 1BB2     		sxth	r3, r3
 1680 0024 1343     		orrs	r3, r2
 1681 0026 1BB2     		sxth	r3, r3
 1682 0028 9AB2     		uxth	r2, r3
 1683 002a 3B68     		ldr	r3, [r7]
 1684 002c 5A80     		strh	r2, [r3, #2]
 264:eeprom.c      ****     entry->reading = ((uint32_t)buffer[3] << 24) |
 1685              		.loc 1 264 0
 1686 002e 7B68     		ldr	r3, [r7, #4]
 1687 0030 0333     		adds	r3, r3, #3
 1688 0032 1B78     		ldrb	r3, [r3]
 1689 0034 1A06     		lsls	r2, r3, #24
 265:eeprom.c      ****                      ((uint32_t)buffer[4] << 16) |
 1690              		.loc 1 265 0
 1691 0036 7B68     		ldr	r3, [r7, #4]
 1692 0038 0433     		adds	r3, r3, #4
 1693 003a 1B78     		ldrb	r3, [r3]
 1694 003c 1B04     		lsls	r3, r3, #16
 264:eeprom.c      ****     entry->reading = ((uint32_t)buffer[3] << 24) |
 1695              		.loc 1 264 0
 1696 003e 1A43     		orrs	r2, r3
 266:eeprom.c      ****                      ((uint32_t)buffer[5] << 8) |
 1697              		.loc 1 266 0
 1698 0040 7B68     		ldr	r3, [r7, #4]
 1699 0042 0533     		adds	r3, r3, #5
 1700 0044 1B78     		ldrb	r3, [r3]
 1701 0046 1B02     		lsls	r3, r3, #8
 265:eeprom.c      ****                      ((uint32_t)buffer[4] << 16) |
 1702              		.loc 1 265 0
 1703 0048 1343     		orrs	r3, r2
 267:eeprom.c      ****                      buffer[6];
 1704              		.loc 1 267 0
 1705 004a 7A68     		ldr	r2, [r7, #4]
 1706 004c 0632     		adds	r2, r2, #6
 1707 004e 1278     		ldrb	r2, [r2]
 266:eeprom.c      ****                      ((uint32_t)buffer[5] << 8) |
 1708              		.loc 1 266 0
 1709 0050 1A43     		orrs	r2, r3
 264:eeprom.c      ****                      ((uint32_t)buffer[4] << 16) |
 1710              		.loc 1 264 0
ARM GAS  C:\Users\alexport\AppData\Local\Temp\ccpT2TKB.s 			page 36


 1711 0052 3B68     		ldr	r3, [r7]
 1712 0054 5A60     		str	r2, [r3, #4]
 268:eeprom.c      **** }
 1713              		.loc 1 268 0
 1714 0056 C046     		nop
 1715 0058 BD46     		mov	sp, r7
 1716 005a 02B0     		add	sp, sp, #8
 1717              		@ sp needed
 1718 005c 80BD     		pop	{r7, pc}
 1719              		.cfi_endproc
 1720              	.LFE58:
 1721              		.size	DeserializeLogEntry, .-DeserializeLogEntry
 1722 005e C046     		.section	.text.GetDeviceTag,"ax",%progbits
 1723              		.align	2
 1724              		.global	GetDeviceTag
 1725              		.code	16
 1726              		.thumb_func
 1727              		.type	GetDeviceTag, %function
 1728              	GetDeviceTag:
 1729              	.LFB59:
 269:eeprom.c      **** 
 270:eeprom.c      **** 
 271:eeprom.c      **** void GetDeviceTag(char* tag){
 1730              		.loc 1 271 0
 1731              		.cfi_startproc
 1732              		@ args = 0, pretend = 0, frame = 8
 1733              		@ frame_needed = 1, uses_anonymous_args = 0
 1734 0000 80B5     		push	{r7, lr}
 1735              		.cfi_def_cfa_offset 8
 1736              		.cfi_offset 7, -8
 1737              		.cfi_offset 14, -4
 1738 0002 82B0     		sub	sp, sp, #8
 1739              		.cfi_def_cfa_offset 16
 1740 0004 00AF     		add	r7, sp, #0
 1741              		.cfi_def_cfa_register 7
 1742 0006 7860     		str	r0, [r7, #4]
 272:eeprom.c      ****     EEPROM_ReadBytes(EEPROM_DEVICE_TAG_REG, (uint8_t*)tag, DEVICE_TAG_LENGTH );
 1743              		.loc 1 272 0
 1744 0008 7B68     		ldr	r3, [r7, #4]
 1745 000a 1422     		movs	r2, #20
 1746 000c 1900     		movs	r1, r3
 1747 000e 3020     		movs	r0, #48
 1748 0010 FFF7FEFF 		bl	EEPROM_ReadBytes
 273:eeprom.c      **** }
 1749              		.loc 1 273 0
 1750 0014 C046     		nop
 1751 0016 BD46     		mov	sp, r7
 1752 0018 02B0     		add	sp, sp, #8
 1753              		@ sp needed
 1754 001a 80BD     		pop	{r7, pc}
 1755              		.cfi_endproc
 1756              	.LFE59:
 1757              		.size	GetDeviceTag, .-GetDeviceTag
 1758              		.text
 1759              	.Letext0:
 1760              		.file 2 "c:\\program files (x86)\\cypress\\psoc creator\\4.4\\psoc creator\\import\\gnu\\arm\\5.4.
 1761              		.file 3 "c:\\program files (x86)\\cypress\\psoc creator\\4.4\\psoc creator\\import\\gnu\\arm\\5.4.
ARM GAS  C:\Users\alexport\AppData\Local\Temp\ccpT2TKB.s 			page 37


 1762              		.file 4 "Generated_Source\\PSoC4/cytypes.h"
 1763              		.file 5 "eeprom.h"
 1764              		.section	.debug_info,"",%progbits
 1765              	.Ldebug_info0:
 1766 0000 16070000 		.4byte	0x716
 1767 0004 0400     		.2byte	0x4
 1768 0006 00000000 		.4byte	.Ldebug_abbrev0
 1769 000a 04       		.byte	0x4
 1770 000b 01       		.uleb128 0x1
 1771 000c 99010000 		.4byte	.LASF66
 1772 0010 0C       		.byte	0xc
 1773 0011 2E030000 		.4byte	.LASF67
 1774 0015 99000000 		.4byte	.LASF68
 1775 0019 00000000 		.4byte	.Ldebug_ranges0+0
 1776 001d 00000000 		.4byte	0
 1777 0021 00000000 		.4byte	.Ldebug_line0
 1778 0025 02       		.uleb128 0x2
 1779 0026 01       		.byte	0x1
 1780 0027 06       		.byte	0x6
 1781 0028 7E020000 		.4byte	.LASF0
 1782 002c 03       		.uleb128 0x3
 1783 002d 8F010000 		.4byte	.LASF3
 1784 0031 02       		.byte	0x2
 1785 0032 1D       		.byte	0x1d
 1786 0033 37000000 		.4byte	0x37
 1787 0037 02       		.uleb128 0x2
 1788 0038 01       		.byte	0x1
 1789 0039 08       		.byte	0x8
 1790 003a 70020000 		.4byte	.LASF1
 1791 003e 02       		.uleb128 0x2
 1792 003f 02       		.byte	0x2
 1793 0040 05       		.byte	0x5
 1794 0041 58000000 		.4byte	.LASF2
 1795 0045 03       		.uleb128 0x3
 1796 0046 FA000000 		.4byte	.LASF4
 1797 004a 02       		.byte	0x2
 1798 004b 2B       		.byte	0x2b
 1799 004c 50000000 		.4byte	0x50
 1800 0050 02       		.uleb128 0x2
 1801 0051 02       		.byte	0x2
 1802 0052 07       		.byte	0x7
 1803 0053 EB020000 		.4byte	.LASF5
 1804 0057 02       		.uleb128 0x2
 1805 0058 04       		.byte	0x4
 1806 0059 05       		.byte	0x5
 1807 005a 7A010000 		.4byte	.LASF6
 1808 005e 03       		.uleb128 0x3
 1809 005f DE000000 		.4byte	.LASF7
 1810 0063 02       		.byte	0x2
 1811 0064 41       		.byte	0x41
 1812 0065 69000000 		.4byte	0x69
 1813 0069 02       		.uleb128 0x2
 1814 006a 04       		.byte	0x4
 1815 006b 07       		.byte	0x7
 1816 006c 67030000 		.4byte	.LASF8
 1817 0070 02       		.uleb128 0x2
 1818 0071 08       		.byte	0x8
ARM GAS  C:\Users\alexport\AppData\Local\Temp\ccpT2TKB.s 			page 38


 1819 0072 05       		.byte	0x5
 1820 0073 60010000 		.4byte	.LASF9
 1821 0077 02       		.uleb128 0x2
 1822 0078 08       		.byte	0x8
 1823 0079 07       		.byte	0x7
 1824 007a 8A020000 		.4byte	.LASF10
 1825 007e 04       		.uleb128 0x4
 1826 007f 04       		.byte	0x4
 1827 0080 05       		.byte	0x5
 1828 0081 696E7400 		.ascii	"int\000"
 1829 0085 02       		.uleb128 0x2
 1830 0086 04       		.byte	0x4
 1831 0087 07       		.byte	0x7
 1832 0088 EE030000 		.4byte	.LASF11
 1833 008c 03       		.uleb128 0x3
 1834 008d 1E010000 		.4byte	.LASF12
 1835 0091 03       		.byte	0x3
 1836 0092 18       		.byte	0x18
 1837 0093 2C000000 		.4byte	0x2c
 1838 0097 03       		.uleb128 0x3
 1839 0098 C3020000 		.4byte	.LASF13
 1840 009c 03       		.byte	0x3
 1841 009d 24       		.byte	0x24
 1842 009e 45000000 		.4byte	0x45
 1843 00a2 03       		.uleb128 0x3
 1844 00a3 A1020000 		.4byte	.LASF14
 1845 00a7 03       		.byte	0x3
 1846 00a8 30       		.byte	0x30
 1847 00a9 5E000000 		.4byte	0x5e
 1848 00ad 05       		.uleb128 0x5
 1849 00ae 17010000 		.4byte	.LASF15
 1850 00b2 04       		.byte	0x4
 1851 00b3 FD01     		.2byte	0x1fd
 1852 00b5 50000000 		.4byte	0x50
 1853 00b9 02       		.uleb128 0x2
 1854 00ba 04       		.byte	0x4
 1855 00bb 04       		.byte	0x4
 1856 00bc 09000000 		.4byte	.LASF16
 1857 00c0 02       		.uleb128 0x2
 1858 00c1 08       		.byte	0x8
 1859 00c2 04       		.byte	0x4
 1860 00c3 79030000 		.4byte	.LASF17
 1861 00c7 02       		.uleb128 0x2
 1862 00c8 01       		.byte	0x1
 1863 00c9 08       		.byte	0x8
 1864 00ca FE020000 		.4byte	.LASF18
 1865 00ce 02       		.uleb128 0x2
 1866 00cf 08       		.byte	0x8
 1867 00d0 04       		.byte	0x4
 1868 00d1 64020000 		.4byte	.LASF19
 1869 00d5 02       		.uleb128 0x2
 1870 00d6 04       		.byte	0x4
 1871 00d7 07       		.byte	0x7
 1872 00d8 6F000000 		.4byte	.LASF20
 1873 00dc 06       		.uleb128 0x6
 1874 00dd 04       		.byte	0x4
 1875 00de C7000000 		.4byte	0xc7
ARM GAS  C:\Users\alexport\AppData\Local\Temp\ccpT2TKB.s 			page 39


 1876 00e2 07       		.uleb128 0x7
 1877 00e3 08       		.byte	0x8
 1878 00e4 05       		.byte	0x5
 1879 00e5 4D       		.byte	0x4d
 1880 00e6 0F010000 		.4byte	0x10f
 1881 00ea 08       		.uleb128 0x8
 1882 00eb 1A030000 		.4byte	.LASF21
 1883 00ef 05       		.byte	0x5
 1884 00f0 4E       		.byte	0x4e
 1885 00f1 8C000000 		.4byte	0x8c
 1886 00f5 00       		.byte	0
 1887 00f6 08       		.uleb128 0x8
 1888 00f7 0F000000 		.4byte	.LASF22
 1889 00fb 05       		.byte	0x5
 1890 00fc 4F       		.byte	0x4f
 1891 00fd 97000000 		.4byte	0x97
 1892 0101 02       		.byte	0x2
 1893 0102 08       		.uleb128 0x8
 1894 0103 3E030000 		.4byte	.LASF23
 1895 0107 05       		.byte	0x5
 1896 0108 50       		.byte	0x50
 1897 0109 A2000000 		.4byte	0xa2
 1898 010d 04       		.byte	0x4
 1899 010e 00       		.byte	0
 1900 010f 03       		.uleb128 0x3
 1901 0110 00000000 		.4byte	.LASF24
 1902 0114 05       		.byte	0x5
 1903 0115 51       		.byte	0x51
 1904 0116 E2000000 		.4byte	0xe2
 1905 011a 09       		.uleb128 0x9
 1906 011b 26010000 		.4byte	.LASF27
 1907 011f 01       		.byte	0x1
 1908 0120 14       		.byte	0x14
 1909 0121 00000000 		.4byte	.LFB35
 1910 0125 CA000000 		.4byte	.LFE35-.LFB35
 1911 0129 01       		.uleb128 0x1
 1912 012a 9C       		.byte	0x9c
 1913 012b 69010000 		.4byte	0x169
 1914 012f 0A       		.uleb128 0xa
 1915 0130 E3020000 		.4byte	.LASF25
 1916 0134 01       		.byte	0x1
 1917 0135 14       		.byte	0x14
 1918 0136 97000000 		.4byte	0x97
 1919 013a 02       		.uleb128 0x2
 1920 013b 91       		.byte	0x91
 1921 013c 5E       		.sleb128 -34
 1922 013d 0A       		.uleb128 0xa
 1923 013e 22030000 		.4byte	.LASF26
 1924 0142 01       		.byte	0x1
 1925 0143 14       		.byte	0x14
 1926 0144 69010000 		.4byte	0x169
 1927 0148 02       		.uleb128 0x2
 1928 0149 91       		.byte	0x91
 1929 014a 58       		.sleb128 -40
 1930 014b 0B       		.uleb128 0xb
 1931 014c 6C656E00 		.ascii	"len\000"
 1932 0150 01       		.byte	0x1
ARM GAS  C:\Users\alexport\AppData\Local\Temp\ccpT2TKB.s 			page 40


 1933 0151 14       		.byte	0x14
 1934 0152 97000000 		.4byte	0x97
 1935 0156 02       		.uleb128 0x2
 1936 0157 91       		.byte	0x91
 1937 0158 5C       		.sleb128 -36
 1938 0159 0C       		.uleb128 0xc
 1939 015a 62756600 		.ascii	"buf\000"
 1940 015e 01       		.byte	0x1
 1941 015f 16       		.byte	0x16
 1942 0160 6F010000 		.4byte	0x16f
 1943 0164 03       		.uleb128 0x3
 1944 0165 91       		.byte	0x91
 1945 0166 60       		.sleb128 -32
 1946 0167 06       		.byte	0x6
 1947 0168 00       		.byte	0
 1948 0169 06       		.uleb128 0x6
 1949 016a 04       		.byte	0x4
 1950 016b 8C000000 		.4byte	0x8c
 1951 016f 0D       		.uleb128 0xd
 1952 0170 8C000000 		.4byte	0x8c
 1953 0174 82010000 		.4byte	0x182
 1954 0178 0E       		.uleb128 0xe
 1955 0179 D5000000 		.4byte	0xd5
 1956 017d 03       		.uleb128 0x3
 1957 017e 91       		.byte	0x91
 1958 017f 64       		.sleb128 -28
 1959 0180 06       		.byte	0x6
 1960 0181 00       		.byte	0
 1961 0182 09       		.uleb128 0x9
 1962 0183 E9000000 		.4byte	.LASF28
 1963 0187 01       		.byte	0x1
 1964 0188 24       		.byte	0x24
 1965 0189 00000000 		.4byte	.LFB36
 1966 018d 72000000 		.4byte	.LFE36-.LFB36
 1967 0191 01       		.uleb128 0x1
 1968 0192 9C       		.byte	0x9c
 1969 0193 D0010000 		.4byte	0x1d0
 1970 0197 0A       		.uleb128 0xa
 1971 0198 E3020000 		.4byte	.LASF25
 1972 019c 01       		.byte	0x1
 1973 019d 24       		.byte	0x24
 1974 019e 97000000 		.4byte	0x97
 1975 01a2 02       		.uleb128 0x2
 1976 01a3 91       		.byte	0x91
 1977 01a4 6E       		.sleb128 -18
 1978 01a5 0A       		.uleb128 0xa
 1979 01a6 22030000 		.4byte	.LASF26
 1980 01aa 01       		.byte	0x1
 1981 01ab 24       		.byte	0x24
 1982 01ac 69010000 		.4byte	0x169
 1983 01b0 02       		.uleb128 0x2
 1984 01b1 91       		.byte	0x91
 1985 01b2 68       		.sleb128 -24
 1986 01b3 0B       		.uleb128 0xb
 1987 01b4 6C656E00 		.ascii	"len\000"
 1988 01b8 01       		.byte	0x1
 1989 01b9 24       		.byte	0x24
ARM GAS  C:\Users\alexport\AppData\Local\Temp\ccpT2TKB.s 			page 41


 1990 01ba 97000000 		.4byte	0x97
 1991 01be 02       		.uleb128 0x2
 1992 01bf 91       		.byte	0x91
 1993 01c0 6C       		.sleb128 -20
 1994 01c1 0F       		.uleb128 0xf
 1995 01c2 36000000 		.4byte	.LASF29
 1996 01c6 01       		.byte	0x1
 1997 01c7 26       		.byte	0x26
 1998 01c8 D0010000 		.4byte	0x1d0
 1999 01cc 02       		.uleb128 0x2
 2000 01cd 91       		.byte	0x91
 2001 01ce 74       		.sleb128 -12
 2002 01cf 00       		.byte	0
 2003 01d0 0D       		.uleb128 0xd
 2004 01d1 8C000000 		.4byte	0x8c
 2005 01d5 E0010000 		.4byte	0x1e0
 2006 01d9 10       		.uleb128 0x10
 2007 01da D5000000 		.4byte	0xd5
 2008 01de 01       		.byte	0x1
 2009 01df 00       		.byte	0
 2010 01e0 11       		.uleb128 0x11
 2011 01e1 FB030000 		.4byte	.LASF33
 2012 01e5 01       		.byte	0x1
 2013 01e6 35       		.byte	0x35
 2014 01e7 8C000000 		.4byte	0x8c
 2015 01eb 00000000 		.4byte	.LFB37
 2016 01ef 34000000 		.4byte	.LFE37-.LFB37
 2017 01f3 01       		.uleb128 0x1
 2018 01f4 9C       		.byte	0x9c
 2019 01f5 08020000 		.4byte	0x208
 2020 01f9 0F       		.uleb128 0xf
 2021 01fa 27030000 		.4byte	.LASF30
 2022 01fe 01       		.byte	0x1
 2023 01ff 36       		.byte	0x36
 2024 0200 8C000000 		.4byte	0x8c
 2025 0204 02       		.uleb128 0x2
 2026 0205 91       		.byte	0x91
 2027 0206 77       		.sleb128 -9
 2028 0207 00       		.byte	0
 2029 0208 09       		.uleb128 0x9
 2030 0209 9C030000 		.4byte	.LASF31
 2031 020d 01       		.byte	0x1
 2032 020e 3D       		.byte	0x3d
 2033 020f 00000000 		.4byte	.LFB38
 2034 0213 2A000000 		.4byte	.LFE38-.LFB38
 2035 0217 01       		.uleb128 0x1
 2036 0218 9C       		.byte	0x9c
 2037 0219 2C020000 		.4byte	0x22c
 2038 021d 0A       		.uleb128 0xa
 2039 021e 83010000 		.4byte	.LASF32
 2040 0222 01       		.byte	0x1
 2041 0223 3D       		.byte	0x3d
 2042 0224 69010000 		.4byte	0x169
 2043 0228 02       		.uleb128 0x2
 2044 0229 91       		.byte	0x91
 2045 022a 74       		.sleb128 -12
 2046 022b 00       		.byte	0
ARM GAS  C:\Users\alexport\AppData\Local\Temp\ccpT2TKB.s 			page 42


 2047 022c 11       		.uleb128 0x11
 2048 022d B0030000 		.4byte	.LASF34
 2049 0231 01       		.byte	0x1
 2050 0232 45       		.byte	0x45
 2051 0233 97000000 		.4byte	0x97
 2052 0237 00000000 		.4byte	.LFB39
 2053 023b 6C000000 		.4byte	.LFE39-.LFB39
 2054 023f 01       		.uleb128 0x1
 2055 0240 9C       		.byte	0x9c
 2056 0241 62020000 		.4byte	0x262
 2057 0245 0F       		.uleb128 0xf
 2058 0246 5C030000 		.4byte	.LASF35
 2059 024a 01       		.byte	0x1
 2060 024b 46       		.byte	0x46
 2061 024c 97000000 		.4byte	0x97
 2062 0250 02       		.uleb128 0x2
 2063 0251 91       		.byte	0x91
 2064 0252 76       		.sleb128 -10
 2065 0253 0F       		.uleb128 0xf
 2066 0254 22030000 		.4byte	.LASF26
 2067 0258 01       		.byte	0x1
 2068 0259 47       		.byte	0x47
 2069 025a D0010000 		.4byte	0x1d0
 2070 025e 02       		.uleb128 0x2
 2071 025f 91       		.byte	0x91
 2072 0260 74       		.sleb128 -12
 2073 0261 00       		.byte	0
 2074 0262 09       		.uleb128 0x9
 2075 0263 43010000 		.4byte	.LASF36
 2076 0267 01       		.byte	0x1
 2077 0268 53       		.byte	0x53
 2078 0269 00000000 		.4byte	.LFB40
 2079 026d 3E000000 		.4byte	.LFE40-.LFB40
 2080 0271 01       		.uleb128 0x1
 2081 0272 9C       		.byte	0x9c
 2082 0273 94020000 		.4byte	0x294
 2083 0277 0A       		.uleb128 0xa
 2084 0278 88010000 		.4byte	.LASF37
 2085 027c 01       		.byte	0x1
 2086 027d 53       		.byte	0x53
 2087 027e 97000000 		.4byte	0x97
 2088 0282 02       		.uleb128 0x2
 2089 0283 91       		.byte	0x91
 2090 0284 6E       		.sleb128 -18
 2091 0285 0F       		.uleb128 0xf
 2092 0286 22030000 		.4byte	.LASF26
 2093 028a 01       		.byte	0x1
 2094 028b 56       		.byte	0x56
 2095 028c D0010000 		.4byte	0x1d0
 2096 0290 02       		.uleb128 0x2
 2097 0291 91       		.byte	0x91
 2098 0292 74       		.sleb128 -12
 2099 0293 00       		.byte	0
 2100 0294 11       		.uleb128 0x11
 2101 0295 19000000 		.4byte	.LASF38
 2102 0299 01       		.byte	0x1
 2103 029a 5D       		.byte	0x5d
ARM GAS  C:\Users\alexport\AppData\Local\Temp\ccpT2TKB.s 			page 43


 2104 029b A2000000 		.4byte	0xa2
 2105 029f 00000000 		.4byte	.LFB41
 2106 02a3 80000000 		.4byte	.LFE41-.LFB41
 2107 02a7 01       		.uleb128 0x1
 2108 02a8 9C       		.byte	0x9c
 2109 02a9 D8020000 		.4byte	0x2d8
 2110 02ad 0F       		.uleb128 0xf
 2111 02ae 22030000 		.4byte	.LASF26
 2112 02b2 01       		.byte	0x1
 2113 02b3 5E       		.byte	0x5e
 2114 02b4 D8020000 		.4byte	0x2d8
 2115 02b8 02       		.uleb128 0x2
 2116 02b9 91       		.byte	0x91
 2117 02ba 6C       		.sleb128 -20
 2118 02bb 0F       		.uleb128 0xf
 2119 02bc D6020000 		.4byte	.LASF39
 2120 02c0 01       		.byte	0x1
 2121 02c1 5F       		.byte	0x5f
 2122 02c2 A2000000 		.4byte	0xa2
 2123 02c6 02       		.uleb128 0x2
 2124 02c7 91       		.byte	0x91
 2125 02c8 74       		.sleb128 -12
 2126 02c9 0C       		.uleb128 0xc
 2127 02ca 72656700 		.ascii	"reg\000"
 2128 02ce 01       		.byte	0x1
 2129 02cf 60       		.byte	0x60
 2130 02d0 8C000000 		.4byte	0x8c
 2131 02d4 02       		.uleb128 0x2
 2132 02d5 91       		.byte	0x91
 2133 02d6 73       		.sleb128 -13
 2134 02d7 00       		.byte	0
 2135 02d8 0D       		.uleb128 0xd
 2136 02d9 8C000000 		.4byte	0x8c
 2137 02dd E8020000 		.4byte	0x2e8
 2138 02e1 10       		.uleb128 0x10
 2139 02e2 D5000000 		.4byte	0xd5
 2140 02e6 03       		.byte	0x3
 2141 02e7 00       		.byte	0
 2142 02e8 09       		.uleb128 0x9
 2143 02e9 35020000 		.4byte	.LASF40
 2144 02ed 01       		.byte	0x1
 2145 02ee 73       		.byte	0x73
 2146 02ef 00000000 		.4byte	.LFB42
 2147 02f3 4C000000 		.4byte	.LFE42-.LFB42
 2148 02f7 01       		.uleb128 0x1
 2149 02f8 9C       		.byte	0x9c
 2150 02f9 1A030000 		.4byte	0x31a
 2151 02fd 0A       		.uleb128 0xa
 2152 02fe 88010000 		.4byte	.LASF37
 2153 0302 01       		.byte	0x1
 2154 0303 73       		.byte	0x73
 2155 0304 A2000000 		.4byte	0xa2
 2156 0308 02       		.uleb128 0x2
 2157 0309 91       		.byte	0x91
 2158 030a 6C       		.sleb128 -20
 2159 030b 0F       		.uleb128 0xf
 2160 030c 22030000 		.4byte	.LASF26
ARM GAS  C:\Users\alexport\AppData\Local\Temp\ccpT2TKB.s 			page 44


 2161 0310 01       		.byte	0x1
 2162 0311 74       		.byte	0x74
 2163 0312 D8020000 		.4byte	0x2d8
 2164 0316 02       		.uleb128 0x2
 2165 0317 91       		.byte	0x91
 2166 0318 74       		.sleb128 -12
 2167 0319 00       		.byte	0
 2168 031a 11       		.uleb128 0x11
 2169 031b 1C040000 		.4byte	.LASF41
 2170 031f 01       		.byte	0x1
 2171 0320 7F       		.byte	0x7f
 2172 0321 8C000000 		.4byte	0x8c
 2173 0325 00000000 		.4byte	.LFB43
 2174 0329 2C000000 		.4byte	.LFE43-.LFB43
 2175 032d 01       		.uleb128 0x1
 2176 032e 9C       		.byte	0x9c
 2177 032f 42030000 		.4byte	0x342
 2178 0333 0F       		.uleb128 0xf
 2179 0334 8F000000 		.4byte	.LASF42
 2180 0338 01       		.byte	0x1
 2181 0339 80       		.byte	0x80
 2182 033a 8C000000 		.4byte	0x8c
 2183 033e 02       		.uleb128 0x2
 2184 033f 91       		.byte	0x91
 2185 0340 77       		.sleb128 -9
 2186 0341 00       		.byte	0
 2187 0342 09       		.uleb128 0x9
 2188 0343 46030000 		.4byte	.LASF43
 2189 0347 01       		.byte	0x1
 2190 0348 89       		.byte	0x89
 2191 0349 00000000 		.4byte	.LFB44
 2192 034d 2C000000 		.4byte	.LFE44-.LFB44
 2193 0351 01       		.uleb128 0x1
 2194 0352 9C       		.byte	0x9c
 2195 0353 74030000 		.4byte	0x374
 2196 0357 0A       		.uleb128 0xa
 2197 0358 2F000000 		.4byte	.LASF44
 2198 035c 01       		.byte	0x1
 2199 035d 89       		.byte	0x89
 2200 035e 8C000000 		.4byte	0x8c
 2201 0362 02       		.uleb128 0x2
 2202 0363 91       		.byte	0x91
 2203 0364 6F       		.sleb128 -17
 2204 0365 0F       		.uleb128 0xf
 2205 0366 22030000 		.4byte	.LASF26
 2206 036a 01       		.byte	0x1
 2207 036b 8A       		.byte	0x8a
 2208 036c 8C000000 		.4byte	0x8c
 2209 0370 02       		.uleb128 0x2
 2210 0371 91       		.byte	0x91
 2211 0372 77       		.sleb128 -9
 2212 0373 00       		.byte	0
 2213 0374 09       		.uleb128 0x9
 2214 0375 78000000 		.4byte	.LASF45
 2215 0379 01       		.byte	0x1
 2216 037a 8E       		.byte	0x8e
 2217 037b 00000000 		.4byte	.LFB45
ARM GAS  C:\Users\alexport\AppData\Local\Temp\ccpT2TKB.s 			page 45


 2218 037f 1C000000 		.4byte	.LFE45-.LFB45
 2219 0383 01       		.uleb128 0x1
 2220 0384 9C       		.byte	0x9c
 2221 0385 98030000 		.4byte	0x398
 2222 0389 0A       		.uleb128 0xa
 2223 038a 22030000 		.4byte	.LASF26
 2224 038e 01       		.byte	0x1
 2225 038f 8E       		.byte	0x8e
 2226 0390 69010000 		.4byte	0x169
 2227 0394 02       		.uleb128 0x2
 2228 0395 91       		.byte	0x91
 2229 0396 74       		.sleb128 -12
 2230 0397 00       		.byte	0
 2231 0398 09       		.uleb128 0x9
 2232 0399 03030000 		.4byte	.LASF46
 2233 039d 01       		.byte	0x1
 2234 039e 92       		.byte	0x92
 2235 039f 00000000 		.4byte	.LFB46
 2236 03a3 2A000000 		.4byte	.LFE46-.LFB46
 2237 03a7 01       		.uleb128 0x1
 2238 03a8 9C       		.byte	0x9c
 2239 03a9 CA030000 		.4byte	0x3ca
 2240 03ad 0B       		.uleb128 0xb
 2241 03ae 72656700 		.ascii	"reg\000"
 2242 03b2 01       		.byte	0x1
 2243 03b3 92       		.byte	0x92
 2244 03b4 8C000000 		.4byte	0x8c
 2245 03b8 02       		.uleb128 0x2
 2246 03b9 91       		.byte	0x91
 2247 03ba 77       		.sleb128 -9
 2248 03bb 0B       		.uleb128 0xb
 2249 03bc 76616C00 		.ascii	"val\000"
 2250 03c0 01       		.byte	0x1
 2251 03c1 92       		.byte	0x92
 2252 03c2 8C000000 		.4byte	0x8c
 2253 03c6 02       		.uleb128 0x2
 2254 03c7 91       		.byte	0x91
 2255 03c8 76       		.sleb128 -10
 2256 03c9 00       		.byte	0
 2257 03ca 09       		.uleb128 0x9
 2258 03cb 05010000 		.4byte	.LASF47
 2259 03cf 01       		.byte	0x1
 2260 03d0 97       		.byte	0x97
 2261 03d1 00000000 		.4byte	.LFB47
 2262 03d5 66000000 		.4byte	.LFE47-.LFB47
 2263 03d9 01       		.uleb128 0x1
 2264 03da 9C       		.byte	0x9c
 2265 03db 20040000 		.4byte	0x420
 2266 03df 0A       		.uleb128 0xa
 2267 03e0 E4030000 		.4byte	.LASF48
 2268 03e4 01       		.byte	0x1
 2269 03e5 97       		.byte	0x97
 2270 03e6 B9000000 		.4byte	0xb9
 2271 03ea 02       		.uleb128 0x2
 2272 03eb 91       		.byte	0x91
 2273 03ec 64       		.sleb128 -28
 2274 03ed 0F       		.uleb128 0xf
ARM GAS  C:\Users\alexport\AppData\Local\Temp\ccpT2TKB.s 			page 46


 2275 03ee 22030000 		.4byte	.LASF26
 2276 03f2 01       		.byte	0x1
 2277 03f3 98       		.byte	0x98
 2278 03f4 D8020000 		.4byte	0x2d8
 2279 03f8 02       		.uleb128 0x2
 2280 03f9 91       		.byte	0x91
 2281 03fa 70       		.sleb128 -16
 2282 03fb 0C       		.uleb128 0xc
 2283 03fc 696E7600 		.ascii	"inv\000"
 2284 0400 01       		.byte	0x1
 2285 0401 99       		.byte	0x99
 2286 0402 D8020000 		.4byte	0x2d8
 2287 0406 02       		.uleb128 0x2
 2288 0407 91       		.byte	0x91
 2289 0408 6C       		.sleb128 -20
 2290 0409 12       		.uleb128 0x12
 2291 040a 12000000 		.4byte	.LBB2
 2292 040e 3E000000 		.4byte	.LBE2-.LBB2
 2293 0412 0C       		.uleb128 0xc
 2294 0413 6900     		.ascii	"i\000"
 2295 0415 01       		.byte	0x1
 2296 0416 9B       		.byte	0x9b
 2297 0417 8C000000 		.4byte	0x8c
 2298 041b 02       		.uleb128 0x2
 2299 041c 91       		.byte	0x91
 2300 041d 77       		.sleb128 -9
 2301 041e 00       		.byte	0
 2302 041f 00       		.byte	0
 2303 0420 09       		.uleb128 0x9
 2304 0421 D1030000 		.4byte	.LASF49
 2305 0425 01       		.byte	0x1
 2306 0426 A0       		.byte	0xa0
 2307 0427 00000000 		.4byte	.LFB48
 2308 042b 66000000 		.4byte	.LFE48-.LFB48
 2309 042f 01       		.uleb128 0x1
 2310 0430 9C       		.byte	0x9c
 2311 0431 76040000 		.4byte	0x476
 2312 0435 0A       		.uleb128 0xa
 2313 0436 CC020000 		.4byte	.LASF50
 2314 043a 01       		.byte	0x1
 2315 043b A0       		.byte	0xa0
 2316 043c B9000000 		.4byte	0xb9
 2317 0440 02       		.uleb128 0x2
 2318 0441 91       		.byte	0x91
 2319 0442 64       		.sleb128 -28
 2320 0443 0F       		.uleb128 0xf
 2321 0444 22030000 		.4byte	.LASF26
 2322 0448 01       		.byte	0x1
 2323 0449 A1       		.byte	0xa1
 2324 044a D8020000 		.4byte	0x2d8
 2325 044e 02       		.uleb128 0x2
 2326 044f 91       		.byte	0x91
 2327 0450 70       		.sleb128 -16
 2328 0451 0C       		.uleb128 0xc
 2329 0452 696E7600 		.ascii	"inv\000"
 2330 0456 01       		.byte	0x1
 2331 0457 A2       		.byte	0xa2
ARM GAS  C:\Users\alexport\AppData\Local\Temp\ccpT2TKB.s 			page 47


 2332 0458 D8020000 		.4byte	0x2d8
 2333 045c 02       		.uleb128 0x2
 2334 045d 91       		.byte	0x91
 2335 045e 6C       		.sleb128 -20
 2336 045f 12       		.uleb128 0x12
 2337 0460 12000000 		.4byte	.LBB3
 2338 0464 3E000000 		.4byte	.LBE3-.LBB3
 2339 0468 0C       		.uleb128 0xc
 2340 0469 6900     		.ascii	"i\000"
 2341 046b 01       		.byte	0x1
 2342 046c A4       		.byte	0xa4
 2343 046d 8C000000 		.4byte	0x8c
 2344 0471 02       		.uleb128 0x2
 2345 0472 91       		.byte	0x91
 2346 0473 77       		.sleb128 -9
 2347 0474 00       		.byte	0
 2348 0475 00       		.byte	0
 2349 0476 09       		.uleb128 0x9
 2350 0477 80030000 		.4byte	.LASF51
 2351 047b 01       		.byte	0x1
 2352 047c AA       		.byte	0xaa
 2353 047d 00000000 		.4byte	.LFB49
 2354 0481 2A000000 		.4byte	.LFE49-.LFB49
 2355 0485 01       		.uleb128 0x1
 2356 0486 9C       		.byte	0x9c
 2357 0487 A8040000 		.4byte	0x4a8
 2358 048b 0A       		.uleb128 0xa
 2359 048c E4030000 		.4byte	.LASF48
 2360 0490 01       		.byte	0x1
 2361 0491 AA       		.byte	0xaa
 2362 0492 B9000000 		.4byte	0xb9
 2363 0496 02       		.uleb128 0x2
 2364 0497 91       		.byte	0x91
 2365 0498 74       		.sleb128 -12
 2366 0499 0A       		.uleb128 0xa
 2367 049a CC020000 		.4byte	.LASF50
 2368 049e 01       		.byte	0x1
 2369 049f AA       		.byte	0xaa
 2370 04a0 B9000000 		.4byte	0xb9
 2371 04a4 02       		.uleb128 0x2
 2372 04a5 91       		.byte	0x91
 2373 04a6 70       		.sleb128 -16
 2374 04a7 00       		.byte	0
 2375 04a8 09       		.uleb128 0x9
 2376 04a9 27020000 		.4byte	.LASF52
 2377 04ad 01       		.byte	0x1
 2378 04ae B3       		.byte	0xb3
 2379 04af 00000000 		.4byte	.LFB50
 2380 04b3 C6000000 		.4byte	.LFE50-.LFB50
 2381 04b7 01       		.uleb128 0x1
 2382 04b8 9C       		.byte	0x9c
 2383 04b9 26050000 		.4byte	0x526
 2384 04bd 0A       		.uleb128 0xa
 2385 04be E4030000 		.4byte	.LASF48
 2386 04c2 01       		.byte	0x1
 2387 04c3 B3       		.byte	0xb3
 2388 04c4 26050000 		.4byte	0x526
ARM GAS  C:\Users\alexport\AppData\Local\Temp\ccpT2TKB.s 			page 48


 2389 04c8 02       		.uleb128 0x2
 2390 04c9 91       		.byte	0x91
 2391 04ca 64       		.sleb128 -28
 2392 04cb 0A       		.uleb128 0xa
 2393 04cc CC020000 		.4byte	.LASF50
 2394 04d0 01       		.byte	0x1
 2395 04d1 B3       		.byte	0xb3
 2396 04d2 26050000 		.4byte	0x526
 2397 04d6 02       		.uleb128 0x2
 2398 04d7 91       		.byte	0x91
 2399 04d8 60       		.sleb128 -32
 2400 04d9 0C       		.uleb128 0xc
 2401 04da 746D7000 		.ascii	"tmp\000"
 2402 04de 01       		.byte	0x1
 2403 04df B4       		.byte	0xb4
 2404 04e0 D8020000 		.4byte	0x2d8
 2405 04e4 02       		.uleb128 0x2
 2406 04e5 91       		.byte	0x91
 2407 04e6 70       		.sleb128 -16
 2408 04e7 0C       		.uleb128 0xc
 2409 04e8 696E7600 		.ascii	"inv\000"
 2410 04ec 01       		.byte	0x1
 2411 04ed B5       		.byte	0xb5
 2412 04ee D8020000 		.4byte	0x2d8
 2413 04f2 02       		.uleb128 0x2
 2414 04f3 91       		.byte	0x91
 2415 04f4 6C       		.sleb128 -20
 2416 04f5 13       		.uleb128 0x13
 2417 04f6 18000000 		.4byte	.LBB4
 2418 04fa 3E000000 		.4byte	.LBE4-.LBB4
 2419 04fe 0F050000 		.4byte	0x50f
 2420 0502 0C       		.uleb128 0xc
 2421 0503 6900     		.ascii	"i\000"
 2422 0505 01       		.byte	0x1
 2423 0506 B8       		.byte	0xb8
 2424 0507 8C000000 		.4byte	0x8c
 2425 050b 02       		.uleb128 0x2
 2426 050c 91       		.byte	0x91
 2427 050d 77       		.sleb128 -9
 2428 050e 00       		.byte	0
 2429 050f 12       		.uleb128 0x12
 2430 0510 72000000 		.4byte	.LBB5
 2431 0514 3E000000 		.4byte	.LBE5-.LBB5
 2432 0518 0C       		.uleb128 0xc
 2433 0519 6900     		.ascii	"i\000"
 2434 051b 01       		.byte	0x1
 2435 051c BC       		.byte	0xbc
 2436 051d 8C000000 		.4byte	0x8c
 2437 0521 02       		.uleb128 0x2
 2438 0522 91       		.byte	0x91
 2439 0523 76       		.sleb128 -10
 2440 0524 00       		.byte	0
 2441 0525 00       		.byte	0
 2442 0526 06       		.uleb128 0x6
 2443 0527 04       		.byte	0x4
 2444 0528 B9000000 		.4byte	0xb9
 2445 052c 09       		.uleb128 0x9
ARM GAS  C:\Users\alexport\AppData\Local\Temp\ccpT2TKB.s 			page 49


 2446 052d C4030000 		.4byte	.LASF53
 2447 0531 01       		.byte	0x1
 2448 0532 C3       		.byte	0xc3
 2449 0533 00000000 		.4byte	.LFB51
 2450 0537 22000000 		.4byte	.LFE51-.LFB51
 2451 053b 01       		.uleb128 0x1
 2452 053c 9C       		.byte	0x9c
 2453 053d 50050000 		.4byte	0x550
 2454 0541 0A       		.uleb128 0xa
 2455 0542 52000000 		.4byte	.LASF54
 2456 0546 01       		.byte	0x1
 2457 0547 C3       		.byte	0xc3
 2458 0548 8C000000 		.4byte	0x8c
 2459 054c 02       		.uleb128 0x2
 2460 054d 91       		.byte	0x91
 2461 054e 77       		.sleb128 -9
 2462 054f 00       		.byte	0
 2463 0550 11       		.uleb128 0x11
 2464 0551 8F030000 		.4byte	.LASF55
 2465 0555 01       		.byte	0x1
 2466 0556 CB       		.byte	0xcb
 2467 0557 8C000000 		.4byte	0x8c
 2468 055b 00000000 		.4byte	.LFB52
 2469 055f 2E000000 		.4byte	.LFE52-.LFB52
 2470 0563 01       		.uleb128 0x1
 2471 0564 9C       		.byte	0x9c
 2472 0565 78050000 		.4byte	0x578
 2473 0569 0F       		.uleb128 0xf
 2474 056a 22030000 		.4byte	.LASF26
 2475 056e 01       		.byte	0x1
 2476 056f CD       		.byte	0xcd
 2477 0570 8C000000 		.4byte	0x8c
 2478 0574 02       		.uleb128 0x2
 2479 0575 91       		.byte	0x91
 2480 0576 77       		.sleb128 -9
 2481 0577 00       		.byte	0
 2482 0578 09       		.uleb128 0x9
 2483 0579 62000000 		.4byte	.LASF56
 2484 057d 01       		.byte	0x1
 2485 057e D4       		.byte	0xd4
 2486 057f 00000000 		.4byte	.LFB53
 2487 0583 50000000 		.4byte	.LFE53-.LFB53
 2488 0587 01       		.uleb128 0x1
 2489 0588 9C       		.byte	0x9c
 2490 0589 AA050000 		.4byte	0x5aa
 2491 058d 0B       		.uleb128 0xb
 2492 058e 69647800 		.ascii	"idx\000"
 2493 0592 01       		.byte	0x1
 2494 0593 D4       		.byte	0xd4
 2495 0594 69010000 		.4byte	0x169
 2496 0598 02       		.uleb128 0x2
 2497 0599 91       		.byte	0x91
 2498 059a 74       		.sleb128 -12
 2499 059b 0B       		.uleb128 0xb
 2500 059c 74787400 		.ascii	"txt\000"
 2501 05a0 01       		.byte	0x1
 2502 05a1 D4       		.byte	0xd4
ARM GAS  C:\Users\alexport\AppData\Local\Temp\ccpT2TKB.s 			page 50


 2503 05a2 DC000000 		.4byte	0xdc
 2504 05a6 02       		.uleb128 0x2
 2505 05a7 91       		.byte	0x91
 2506 05a8 70       		.sleb128 -16
 2507 05a9 00       		.byte	0
 2508 05aa 09       		.uleb128 0x9
 2509 05ab BC020000 		.4byte	.LASF57
 2510 05af 01       		.byte	0x1
 2511 05b0 DD       		.byte	0xdd
 2512 05b1 00000000 		.4byte	.LFB54
 2513 05b5 72000000 		.4byte	.LFE54-.LFB54
 2514 05b9 01       		.uleb128 0x1
 2515 05ba 9C       		.byte	0x9c
 2516 05bb F2050000 		.4byte	0x5f2
 2517 05bf 0A       		.uleb128 0xa
 2518 05c0 38010000 		.4byte	.LASF58
 2519 05c4 01       		.byte	0x1
 2520 05c5 DD       		.byte	0xdd
 2521 05c6 DC000000 		.4byte	0xdc
 2522 05ca 02       		.uleb128 0x2
 2523 05cb 91       		.byte	0x91
 2524 05cc 64       		.sleb128 -28
 2525 05cd 0F       		.uleb128 0xf
 2526 05ce 51020000 		.4byte	.LASF59
 2527 05d2 01       		.byte	0x1
 2528 05d3 DE       		.byte	0xde
 2529 05d4 8C000000 		.4byte	0x8c
 2530 05d8 02       		.uleb128 0x2
 2531 05d9 91       		.byte	0x91
 2532 05da 6E       		.sleb128 -18
 2533 05db 12       		.uleb128 0x12
 2534 05dc 14000000 		.4byte	.LBB6
 2535 05e0 56000000 		.4byte	.LBE6-.LBB6
 2536 05e4 0C       		.uleb128 0xc
 2537 05e5 6900     		.ascii	"i\000"
 2538 05e7 01       		.byte	0x1
 2539 05e8 DF       		.byte	0xdf
 2540 05e9 8C000000 		.4byte	0x8c
 2541 05ed 02       		.uleb128 0x2
 2542 05ee 91       		.byte	0x91
 2543 05ef 6F       		.sleb128 -17
 2544 05f0 00       		.byte	0
 2545 05f1 00       		.byte	0
 2546 05f2 09       		.uleb128 0x9
 2547 05f3 6E010000 		.4byte	.LASF60
 2548 05f7 01       		.byte	0x1
 2549 05f8 E4       		.byte	0xe4
 2550 05f9 00000000 		.4byte	.LFB55
 2551 05fd 64000000 		.4byte	.LFE55-.LFB55
 2552 0601 01       		.uleb128 0x1
 2553 0602 9C       		.byte	0x9c
 2554 0603 3A060000 		.4byte	0x63a
 2555 0607 0B       		.uleb128 0xb
 2556 0608 69647800 		.ascii	"idx\000"
 2557 060c 01       		.byte	0x1
 2558 060d E4       		.byte	0xe4
 2559 060e 8C000000 		.4byte	0x8c
ARM GAS  C:\Users\alexport\AppData\Local\Temp\ccpT2TKB.s 			page 51


 2560 0612 02       		.uleb128 0x2
 2561 0613 91       		.byte	0x91
 2562 0614 6F       		.sleb128 -17
 2563 0615 0B       		.uleb128 0xb
 2564 0616 74787400 		.ascii	"txt\000"
 2565 061a 01       		.byte	0x1
 2566 061b E4       		.byte	0xe4
 2567 061c DC000000 		.4byte	0xdc
 2568 0620 02       		.uleb128 0x2
 2569 0621 91       		.byte	0x91
 2570 0622 68       		.sleb128 -24
 2571 0623 12       		.uleb128 0x12
 2572 0624 30000000 		.4byte	.LBB7
 2573 0628 2C000000 		.4byte	.LBE7-.LBB7
 2574 062c 0C       		.uleb128 0xc
 2575 062d 6900     		.ascii	"i\000"
 2576 062f 01       		.byte	0x1
 2577 0630 EA       		.byte	0xea
 2578 0631 8C000000 		.4byte	0x8c
 2579 0635 02       		.uleb128 0x2
 2580 0636 91       		.byte	0x91
 2581 0637 77       		.sleb128 -9
 2582 0638 00       		.byte	0
 2583 0639 00       		.byte	0
 2584 063a 09       		.uleb128 0x9
 2585 063b 57010000 		.4byte	.LASF61
 2586 063f 01       		.byte	0x1
 2587 0640 EF       		.byte	0xef
 2588 0641 00000000 		.4byte	.LFB56
 2589 0645 5A000000 		.4byte	.LFE56-.LFB56
 2590 0649 01       		.uleb128 0x1
 2591 064a 9C       		.byte	0x9c
 2592 064b 74060000 		.4byte	0x674
 2593 064f 0F       		.uleb128 0xf
 2594 0650 22030000 		.4byte	.LASF26
 2595 0654 01       		.byte	0x1
 2596 0655 F1       		.byte	0xf1
 2597 0656 8C000000 		.4byte	0x8c
 2598 065a 02       		.uleb128 0x2
 2599 065b 91       		.byte	0x91
 2600 065c 75       		.sleb128 -11
 2601 065d 12       		.uleb128 0x12
 2602 065e 20000000 		.4byte	.LBB8
 2603 0662 32000000 		.4byte	.LBE8-.LBB8
 2604 0666 0C       		.uleb128 0xc
 2605 0667 6900     		.ascii	"i\000"
 2606 0669 01       		.byte	0x1
 2607 066a F3       		.byte	0xf3
 2608 066b 97000000 		.4byte	0x97
 2609 066f 02       		.uleb128 0x2
 2610 0670 91       		.byte	0x91
 2611 0671 76       		.sleb128 -10
 2612 0672 00       		.byte	0
 2613 0673 00       		.byte	0
 2614 0674 14       		.uleb128 0x14
 2615 0675 AA020000 		.4byte	.LASF62
 2616 0679 01       		.byte	0x1
ARM GAS  C:\Users\alexport\AppData\Local\Temp\ccpT2TKB.s 			page 52


 2617 067a F9       		.byte	0xf9
 2618 067b 00000000 		.4byte	.LFB57
 2619 067f 6C000000 		.4byte	.LFE57-.LFB57
 2620 0683 01       		.uleb128 0x1
 2621 0684 9C       		.byte	0x9c
 2622 0685 A6060000 		.4byte	0x6a6
 2623 0689 0A       		.uleb128 0xa
 2624 068a 4B020000 		.4byte	.LASF63
 2625 068e 01       		.byte	0x1
 2626 068f F9       		.byte	0xf9
 2627 0690 A6060000 		.4byte	0x6a6
 2628 0694 02       		.uleb128 0x2
 2629 0695 91       		.byte	0x91
 2630 0696 74       		.sleb128 -12
 2631 0697 0A       		.uleb128 0xa
 2632 0698 37030000 		.4byte	.LASF64
 2633 069c 01       		.byte	0x1
 2634 069d F9       		.byte	0xf9
 2635 069e 69010000 		.4byte	0x169
 2636 06a2 02       		.uleb128 0x2
 2637 06a3 91       		.byte	0x91
 2638 06a4 70       		.sleb128 -16
 2639 06a5 00       		.byte	0
 2640 06a6 06       		.uleb128 0x6
 2641 06a7 04       		.byte	0x4
 2642 06a8 AC060000 		.4byte	0x6ac
 2643 06ac 15       		.uleb128 0x15
 2644 06ad 0F010000 		.4byte	0x10f
 2645 06b1 16       		.uleb128 0x16
 2646 06b2 3E000000 		.4byte	.LASF65
 2647 06b6 01       		.byte	0x1
 2648 06b7 0401     		.2byte	0x104
 2649 06b9 00000000 		.4byte	.LFB58
 2650 06bd 5E000000 		.4byte	.LFE58-.LFB58
 2651 06c1 01       		.uleb128 0x1
 2652 06c2 9C       		.byte	0x9c
 2653 06c3 E6060000 		.4byte	0x6e6
 2654 06c7 17       		.uleb128 0x17
 2655 06c8 37030000 		.4byte	.LASF64
 2656 06cc 01       		.byte	0x1
 2657 06cd 0401     		.2byte	0x104
 2658 06cf E6060000 		.4byte	0x6e6
 2659 06d3 02       		.uleb128 0x2
 2660 06d4 91       		.byte	0x91
 2661 06d5 74       		.sleb128 -12
 2662 06d6 17       		.uleb128 0x17
 2663 06d7 4B020000 		.4byte	.LASF63
 2664 06db 01       		.byte	0x1
 2665 06dc 0401     		.2byte	0x104
 2666 06de F1060000 		.4byte	0x6f1
 2667 06e2 02       		.uleb128 0x2
 2668 06e3 91       		.byte	0x91
 2669 06e4 70       		.sleb128 -16
 2670 06e5 00       		.byte	0
 2671 06e6 06       		.uleb128 0x6
 2672 06e7 04       		.byte	0x4
 2673 06e8 EC060000 		.4byte	0x6ec
ARM GAS  C:\Users\alexport\AppData\Local\Temp\ccpT2TKB.s 			page 53


 2674 06ec 15       		.uleb128 0x15
 2675 06ed 8C000000 		.4byte	0x8c
 2676 06f1 06       		.uleb128 0x6
 2677 06f2 04       		.byte	0x4
 2678 06f3 0F010000 		.4byte	0x10f
 2679 06f7 18       		.uleb128 0x18
 2680 06f8 0F040000 		.4byte	.LASF69
 2681 06fc 01       		.byte	0x1
 2682 06fd 0F01     		.2byte	0x10f
 2683 06ff 00000000 		.4byte	.LFB59
 2684 0703 1C000000 		.4byte	.LFE59-.LFB59
 2685 0707 01       		.uleb128 0x1
 2686 0708 9C       		.byte	0x9c
 2687 0709 19       		.uleb128 0x19
 2688 070a 74616700 		.ascii	"tag\000"
 2689 070e 01       		.byte	0x1
 2690 070f 0F01     		.2byte	0x10f
 2691 0711 DC000000 		.4byte	0xdc
 2692 0715 02       		.uleb128 0x2
 2693 0716 91       		.byte	0x91
 2694 0717 74       		.sleb128 -12
 2695 0718 00       		.byte	0
 2696 0719 00       		.byte	0
 2697              		.section	.debug_abbrev,"",%progbits
 2698              	.Ldebug_abbrev0:
 2699 0000 01       		.uleb128 0x1
 2700 0001 11       		.uleb128 0x11
 2701 0002 01       		.byte	0x1
 2702 0003 25       		.uleb128 0x25
 2703 0004 0E       		.uleb128 0xe
 2704 0005 13       		.uleb128 0x13
 2705 0006 0B       		.uleb128 0xb
 2706 0007 03       		.uleb128 0x3
 2707 0008 0E       		.uleb128 0xe
 2708 0009 1B       		.uleb128 0x1b
 2709 000a 0E       		.uleb128 0xe
 2710 000b 55       		.uleb128 0x55
 2711 000c 17       		.uleb128 0x17
 2712 000d 11       		.uleb128 0x11
 2713 000e 01       		.uleb128 0x1
 2714 000f 10       		.uleb128 0x10
 2715 0010 17       		.uleb128 0x17
 2716 0011 00       		.byte	0
 2717 0012 00       		.byte	0
 2718 0013 02       		.uleb128 0x2
 2719 0014 24       		.uleb128 0x24
 2720 0015 00       		.byte	0
 2721 0016 0B       		.uleb128 0xb
 2722 0017 0B       		.uleb128 0xb
 2723 0018 3E       		.uleb128 0x3e
 2724 0019 0B       		.uleb128 0xb
 2725 001a 03       		.uleb128 0x3
 2726 001b 0E       		.uleb128 0xe
 2727 001c 00       		.byte	0
 2728 001d 00       		.byte	0
 2729 001e 03       		.uleb128 0x3
 2730 001f 16       		.uleb128 0x16
ARM GAS  C:\Users\alexport\AppData\Local\Temp\ccpT2TKB.s 			page 54


 2731 0020 00       		.byte	0
 2732 0021 03       		.uleb128 0x3
 2733 0022 0E       		.uleb128 0xe
 2734 0023 3A       		.uleb128 0x3a
 2735 0024 0B       		.uleb128 0xb
 2736 0025 3B       		.uleb128 0x3b
 2737 0026 0B       		.uleb128 0xb
 2738 0027 49       		.uleb128 0x49
 2739 0028 13       		.uleb128 0x13
 2740 0029 00       		.byte	0
 2741 002a 00       		.byte	0
 2742 002b 04       		.uleb128 0x4
 2743 002c 24       		.uleb128 0x24
 2744 002d 00       		.byte	0
 2745 002e 0B       		.uleb128 0xb
 2746 002f 0B       		.uleb128 0xb
 2747 0030 3E       		.uleb128 0x3e
 2748 0031 0B       		.uleb128 0xb
 2749 0032 03       		.uleb128 0x3
 2750 0033 08       		.uleb128 0x8
 2751 0034 00       		.byte	0
 2752 0035 00       		.byte	0
 2753 0036 05       		.uleb128 0x5
 2754 0037 16       		.uleb128 0x16
 2755 0038 00       		.byte	0
 2756 0039 03       		.uleb128 0x3
 2757 003a 0E       		.uleb128 0xe
 2758 003b 3A       		.uleb128 0x3a
 2759 003c 0B       		.uleb128 0xb
 2760 003d 3B       		.uleb128 0x3b
 2761 003e 05       		.uleb128 0x5
 2762 003f 49       		.uleb128 0x49
 2763 0040 13       		.uleb128 0x13
 2764 0041 00       		.byte	0
 2765 0042 00       		.byte	0
 2766 0043 06       		.uleb128 0x6
 2767 0044 0F       		.uleb128 0xf
 2768 0045 00       		.byte	0
 2769 0046 0B       		.uleb128 0xb
 2770 0047 0B       		.uleb128 0xb
 2771 0048 49       		.uleb128 0x49
 2772 0049 13       		.uleb128 0x13
 2773 004a 00       		.byte	0
 2774 004b 00       		.byte	0
 2775 004c 07       		.uleb128 0x7
 2776 004d 13       		.uleb128 0x13
 2777 004e 01       		.byte	0x1
 2778 004f 0B       		.uleb128 0xb
 2779 0050 0B       		.uleb128 0xb
 2780 0051 3A       		.uleb128 0x3a
 2781 0052 0B       		.uleb128 0xb
 2782 0053 3B       		.uleb128 0x3b
 2783 0054 0B       		.uleb128 0xb
 2784 0055 01       		.uleb128 0x1
 2785 0056 13       		.uleb128 0x13
 2786 0057 00       		.byte	0
 2787 0058 00       		.byte	0
ARM GAS  C:\Users\alexport\AppData\Local\Temp\ccpT2TKB.s 			page 55


 2788 0059 08       		.uleb128 0x8
 2789 005a 0D       		.uleb128 0xd
 2790 005b 00       		.byte	0
 2791 005c 03       		.uleb128 0x3
 2792 005d 0E       		.uleb128 0xe
 2793 005e 3A       		.uleb128 0x3a
 2794 005f 0B       		.uleb128 0xb
 2795 0060 3B       		.uleb128 0x3b
 2796 0061 0B       		.uleb128 0xb
 2797 0062 49       		.uleb128 0x49
 2798 0063 13       		.uleb128 0x13
 2799 0064 38       		.uleb128 0x38
 2800 0065 0B       		.uleb128 0xb
 2801 0066 00       		.byte	0
 2802 0067 00       		.byte	0
 2803 0068 09       		.uleb128 0x9
 2804 0069 2E       		.uleb128 0x2e
 2805 006a 01       		.byte	0x1
 2806 006b 3F       		.uleb128 0x3f
 2807 006c 19       		.uleb128 0x19
 2808 006d 03       		.uleb128 0x3
 2809 006e 0E       		.uleb128 0xe
 2810 006f 3A       		.uleb128 0x3a
 2811 0070 0B       		.uleb128 0xb
 2812 0071 3B       		.uleb128 0x3b
 2813 0072 0B       		.uleb128 0xb
 2814 0073 27       		.uleb128 0x27
 2815 0074 19       		.uleb128 0x19
 2816 0075 11       		.uleb128 0x11
 2817 0076 01       		.uleb128 0x1
 2818 0077 12       		.uleb128 0x12
 2819 0078 06       		.uleb128 0x6
 2820 0079 40       		.uleb128 0x40
 2821 007a 18       		.uleb128 0x18
 2822 007b 9642     		.uleb128 0x2116
 2823 007d 19       		.uleb128 0x19
 2824 007e 01       		.uleb128 0x1
 2825 007f 13       		.uleb128 0x13
 2826 0080 00       		.byte	0
 2827 0081 00       		.byte	0
 2828 0082 0A       		.uleb128 0xa
 2829 0083 05       		.uleb128 0x5
 2830 0084 00       		.byte	0
 2831 0085 03       		.uleb128 0x3
 2832 0086 0E       		.uleb128 0xe
 2833 0087 3A       		.uleb128 0x3a
 2834 0088 0B       		.uleb128 0xb
 2835 0089 3B       		.uleb128 0x3b
 2836 008a 0B       		.uleb128 0xb
 2837 008b 49       		.uleb128 0x49
 2838 008c 13       		.uleb128 0x13
 2839 008d 02       		.uleb128 0x2
 2840 008e 18       		.uleb128 0x18
 2841 008f 00       		.byte	0
 2842 0090 00       		.byte	0
 2843 0091 0B       		.uleb128 0xb
 2844 0092 05       		.uleb128 0x5
ARM GAS  C:\Users\alexport\AppData\Local\Temp\ccpT2TKB.s 			page 56


 2845 0093 00       		.byte	0
 2846 0094 03       		.uleb128 0x3
 2847 0095 08       		.uleb128 0x8
 2848 0096 3A       		.uleb128 0x3a
 2849 0097 0B       		.uleb128 0xb
 2850 0098 3B       		.uleb128 0x3b
 2851 0099 0B       		.uleb128 0xb
 2852 009a 49       		.uleb128 0x49
 2853 009b 13       		.uleb128 0x13
 2854 009c 02       		.uleb128 0x2
 2855 009d 18       		.uleb128 0x18
 2856 009e 00       		.byte	0
 2857 009f 00       		.byte	0
 2858 00a0 0C       		.uleb128 0xc
 2859 00a1 34       		.uleb128 0x34
 2860 00a2 00       		.byte	0
 2861 00a3 03       		.uleb128 0x3
 2862 00a4 08       		.uleb128 0x8
 2863 00a5 3A       		.uleb128 0x3a
 2864 00a6 0B       		.uleb128 0xb
 2865 00a7 3B       		.uleb128 0x3b
 2866 00a8 0B       		.uleb128 0xb
 2867 00a9 49       		.uleb128 0x49
 2868 00aa 13       		.uleb128 0x13
 2869 00ab 02       		.uleb128 0x2
 2870 00ac 18       		.uleb128 0x18
 2871 00ad 00       		.byte	0
 2872 00ae 00       		.byte	0
 2873 00af 0D       		.uleb128 0xd
 2874 00b0 01       		.uleb128 0x1
 2875 00b1 01       		.byte	0x1
 2876 00b2 49       		.uleb128 0x49
 2877 00b3 13       		.uleb128 0x13
 2878 00b4 01       		.uleb128 0x1
 2879 00b5 13       		.uleb128 0x13
 2880 00b6 00       		.byte	0
 2881 00b7 00       		.byte	0
 2882 00b8 0E       		.uleb128 0xe
 2883 00b9 21       		.uleb128 0x21
 2884 00ba 00       		.byte	0
 2885 00bb 49       		.uleb128 0x49
 2886 00bc 13       		.uleb128 0x13
 2887 00bd 2F       		.uleb128 0x2f
 2888 00be 18       		.uleb128 0x18
 2889 00bf 00       		.byte	0
 2890 00c0 00       		.byte	0
 2891 00c1 0F       		.uleb128 0xf
 2892 00c2 34       		.uleb128 0x34
 2893 00c3 00       		.byte	0
 2894 00c4 03       		.uleb128 0x3
 2895 00c5 0E       		.uleb128 0xe
 2896 00c6 3A       		.uleb128 0x3a
 2897 00c7 0B       		.uleb128 0xb
 2898 00c8 3B       		.uleb128 0x3b
 2899 00c9 0B       		.uleb128 0xb
 2900 00ca 49       		.uleb128 0x49
 2901 00cb 13       		.uleb128 0x13
ARM GAS  C:\Users\alexport\AppData\Local\Temp\ccpT2TKB.s 			page 57


 2902 00cc 02       		.uleb128 0x2
 2903 00cd 18       		.uleb128 0x18
 2904 00ce 00       		.byte	0
 2905 00cf 00       		.byte	0
 2906 00d0 10       		.uleb128 0x10
 2907 00d1 21       		.uleb128 0x21
 2908 00d2 00       		.byte	0
 2909 00d3 49       		.uleb128 0x49
 2910 00d4 13       		.uleb128 0x13
 2911 00d5 2F       		.uleb128 0x2f
 2912 00d6 0B       		.uleb128 0xb
 2913 00d7 00       		.byte	0
 2914 00d8 00       		.byte	0
 2915 00d9 11       		.uleb128 0x11
 2916 00da 2E       		.uleb128 0x2e
 2917 00db 01       		.byte	0x1
 2918 00dc 3F       		.uleb128 0x3f
 2919 00dd 19       		.uleb128 0x19
 2920 00de 03       		.uleb128 0x3
 2921 00df 0E       		.uleb128 0xe
 2922 00e0 3A       		.uleb128 0x3a
 2923 00e1 0B       		.uleb128 0xb
 2924 00e2 3B       		.uleb128 0x3b
 2925 00e3 0B       		.uleb128 0xb
 2926 00e4 27       		.uleb128 0x27
 2927 00e5 19       		.uleb128 0x19
 2928 00e6 49       		.uleb128 0x49
 2929 00e7 13       		.uleb128 0x13
 2930 00e8 11       		.uleb128 0x11
 2931 00e9 01       		.uleb128 0x1
 2932 00ea 12       		.uleb128 0x12
 2933 00eb 06       		.uleb128 0x6
 2934 00ec 40       		.uleb128 0x40
 2935 00ed 18       		.uleb128 0x18
 2936 00ee 9642     		.uleb128 0x2116
 2937 00f0 19       		.uleb128 0x19
 2938 00f1 01       		.uleb128 0x1
 2939 00f2 13       		.uleb128 0x13
 2940 00f3 00       		.byte	0
 2941 00f4 00       		.byte	0
 2942 00f5 12       		.uleb128 0x12
 2943 00f6 0B       		.uleb128 0xb
 2944 00f7 01       		.byte	0x1
 2945 00f8 11       		.uleb128 0x11
 2946 00f9 01       		.uleb128 0x1
 2947 00fa 12       		.uleb128 0x12
 2948 00fb 06       		.uleb128 0x6
 2949 00fc 00       		.byte	0
 2950 00fd 00       		.byte	0
 2951 00fe 13       		.uleb128 0x13
 2952 00ff 0B       		.uleb128 0xb
 2953 0100 01       		.byte	0x1
 2954 0101 11       		.uleb128 0x11
 2955 0102 01       		.uleb128 0x1
 2956 0103 12       		.uleb128 0x12
 2957 0104 06       		.uleb128 0x6
 2958 0105 01       		.uleb128 0x1
ARM GAS  C:\Users\alexport\AppData\Local\Temp\ccpT2TKB.s 			page 58


 2959 0106 13       		.uleb128 0x13
 2960 0107 00       		.byte	0
 2961 0108 00       		.byte	0
 2962 0109 14       		.uleb128 0x14
 2963 010a 2E       		.uleb128 0x2e
 2964 010b 01       		.byte	0x1
 2965 010c 3F       		.uleb128 0x3f
 2966 010d 19       		.uleb128 0x19
 2967 010e 03       		.uleb128 0x3
 2968 010f 0E       		.uleb128 0xe
 2969 0110 3A       		.uleb128 0x3a
 2970 0111 0B       		.uleb128 0xb
 2971 0112 3B       		.uleb128 0x3b
 2972 0113 0B       		.uleb128 0xb
 2973 0114 27       		.uleb128 0x27
 2974 0115 19       		.uleb128 0x19
 2975 0116 11       		.uleb128 0x11
 2976 0117 01       		.uleb128 0x1
 2977 0118 12       		.uleb128 0x12
 2978 0119 06       		.uleb128 0x6
 2979 011a 40       		.uleb128 0x40
 2980 011b 18       		.uleb128 0x18
 2981 011c 9742     		.uleb128 0x2117
 2982 011e 19       		.uleb128 0x19
 2983 011f 01       		.uleb128 0x1
 2984 0120 13       		.uleb128 0x13
 2985 0121 00       		.byte	0
 2986 0122 00       		.byte	0
 2987 0123 15       		.uleb128 0x15
 2988 0124 26       		.uleb128 0x26
 2989 0125 00       		.byte	0
 2990 0126 49       		.uleb128 0x49
 2991 0127 13       		.uleb128 0x13
 2992 0128 00       		.byte	0
 2993 0129 00       		.byte	0
 2994 012a 16       		.uleb128 0x16
 2995 012b 2E       		.uleb128 0x2e
 2996 012c 01       		.byte	0x1
 2997 012d 3F       		.uleb128 0x3f
 2998 012e 19       		.uleb128 0x19
 2999 012f 03       		.uleb128 0x3
 3000 0130 0E       		.uleb128 0xe
 3001 0131 3A       		.uleb128 0x3a
 3002 0132 0B       		.uleb128 0xb
 3003 0133 3B       		.uleb128 0x3b
 3004 0134 05       		.uleb128 0x5
 3005 0135 27       		.uleb128 0x27
 3006 0136 19       		.uleb128 0x19
 3007 0137 11       		.uleb128 0x11
 3008 0138 01       		.uleb128 0x1
 3009 0139 12       		.uleb128 0x12
 3010 013a 06       		.uleb128 0x6
 3011 013b 40       		.uleb128 0x40
 3012 013c 18       		.uleb128 0x18
 3013 013d 9742     		.uleb128 0x2117
 3014 013f 19       		.uleb128 0x19
 3015 0140 01       		.uleb128 0x1
ARM GAS  C:\Users\alexport\AppData\Local\Temp\ccpT2TKB.s 			page 59


 3016 0141 13       		.uleb128 0x13
 3017 0142 00       		.byte	0
 3018 0143 00       		.byte	0
 3019 0144 17       		.uleb128 0x17
 3020 0145 05       		.uleb128 0x5
 3021 0146 00       		.byte	0
 3022 0147 03       		.uleb128 0x3
 3023 0148 0E       		.uleb128 0xe
 3024 0149 3A       		.uleb128 0x3a
 3025 014a 0B       		.uleb128 0xb
 3026 014b 3B       		.uleb128 0x3b
 3027 014c 05       		.uleb128 0x5
 3028 014d 49       		.uleb128 0x49
 3029 014e 13       		.uleb128 0x13
 3030 014f 02       		.uleb128 0x2
 3031 0150 18       		.uleb128 0x18
 3032 0151 00       		.byte	0
 3033 0152 00       		.byte	0
 3034 0153 18       		.uleb128 0x18
 3035 0154 2E       		.uleb128 0x2e
 3036 0155 01       		.byte	0x1
 3037 0156 3F       		.uleb128 0x3f
 3038 0157 19       		.uleb128 0x19
 3039 0158 03       		.uleb128 0x3
 3040 0159 0E       		.uleb128 0xe
 3041 015a 3A       		.uleb128 0x3a
 3042 015b 0B       		.uleb128 0xb
 3043 015c 3B       		.uleb128 0x3b
 3044 015d 05       		.uleb128 0x5
 3045 015e 27       		.uleb128 0x27
 3046 015f 19       		.uleb128 0x19
 3047 0160 11       		.uleb128 0x11
 3048 0161 01       		.uleb128 0x1
 3049 0162 12       		.uleb128 0x12
 3050 0163 06       		.uleb128 0x6
 3051 0164 40       		.uleb128 0x40
 3052 0165 18       		.uleb128 0x18
 3053 0166 9642     		.uleb128 0x2116
 3054 0168 19       		.uleb128 0x19
 3055 0169 00       		.byte	0
 3056 016a 00       		.byte	0
 3057 016b 19       		.uleb128 0x19
 3058 016c 05       		.uleb128 0x5
 3059 016d 00       		.byte	0
 3060 016e 03       		.uleb128 0x3
 3061 016f 08       		.uleb128 0x8
 3062 0170 3A       		.uleb128 0x3a
 3063 0171 0B       		.uleb128 0xb
 3064 0172 3B       		.uleb128 0x3b
 3065 0173 05       		.uleb128 0x5
 3066 0174 49       		.uleb128 0x49
 3067 0175 13       		.uleb128 0x13
 3068 0176 02       		.uleb128 0x2
 3069 0177 18       		.uleb128 0x18
 3070 0178 00       		.byte	0
 3071 0179 00       		.byte	0
 3072 017a 00       		.byte	0
ARM GAS  C:\Users\alexport\AppData\Local\Temp\ccpT2TKB.s 			page 60


 3073              		.section	.debug_aranges,"",%progbits
 3074 0000 DC000000 		.4byte	0xdc
 3075 0004 0200     		.2byte	0x2
 3076 0006 00000000 		.4byte	.Ldebug_info0
 3077 000a 04       		.byte	0x4
 3078 000b 00       		.byte	0
 3079 000c 0000     		.2byte	0
 3080 000e 0000     		.2byte	0
 3081 0010 00000000 		.4byte	.LFB35
 3082 0014 CA000000 		.4byte	.LFE35-.LFB35
 3083 0018 00000000 		.4byte	.LFB36
 3084 001c 72000000 		.4byte	.LFE36-.LFB36
 3085 0020 00000000 		.4byte	.LFB37
 3086 0024 34000000 		.4byte	.LFE37-.LFB37
 3087 0028 00000000 		.4byte	.LFB38
 3088 002c 2A000000 		.4byte	.LFE38-.LFB38
 3089 0030 00000000 		.4byte	.LFB39
 3090 0034 6C000000 		.4byte	.LFE39-.LFB39
 3091 0038 00000000 		.4byte	.LFB40
 3092 003c 3E000000 		.4byte	.LFE40-.LFB40
 3093 0040 00000000 		.4byte	.LFB41
 3094 0044 80000000 		.4byte	.LFE41-.LFB41
 3095 0048 00000000 		.4byte	.LFB42
 3096 004c 4C000000 		.4byte	.LFE42-.LFB42
 3097 0050 00000000 		.4byte	.LFB43
 3098 0054 2C000000 		.4byte	.LFE43-.LFB43
 3099 0058 00000000 		.4byte	.LFB44
 3100 005c 2C000000 		.4byte	.LFE44-.LFB44
 3101 0060 00000000 		.4byte	.LFB45
 3102 0064 1C000000 		.4byte	.LFE45-.LFB45
 3103 0068 00000000 		.4byte	.LFB46
 3104 006c 2A000000 		.4byte	.LFE46-.LFB46
 3105 0070 00000000 		.4byte	.LFB47
 3106 0074 66000000 		.4byte	.LFE47-.LFB47
 3107 0078 00000000 		.4byte	.LFB48
 3108 007c 66000000 		.4byte	.LFE48-.LFB48
 3109 0080 00000000 		.4byte	.LFB49
 3110 0084 2A000000 		.4byte	.LFE49-.LFB49
 3111 0088 00000000 		.4byte	.LFB50
 3112 008c C6000000 		.4byte	.LFE50-.LFB50
 3113 0090 00000000 		.4byte	.LFB51
 3114 0094 22000000 		.4byte	.LFE51-.LFB51
 3115 0098 00000000 		.4byte	.LFB52
 3116 009c 2E000000 		.4byte	.LFE52-.LFB52
 3117 00a0 00000000 		.4byte	.LFB53
 3118 00a4 50000000 		.4byte	.LFE53-.LFB53
 3119 00a8 00000000 		.4byte	.LFB54
 3120 00ac 72000000 		.4byte	.LFE54-.LFB54
 3121 00b0 00000000 		.4byte	.LFB55
 3122 00b4 64000000 		.4byte	.LFE55-.LFB55
 3123 00b8 00000000 		.4byte	.LFB56
 3124 00bc 5A000000 		.4byte	.LFE56-.LFB56
 3125 00c0 00000000 		.4byte	.LFB57
 3126 00c4 6C000000 		.4byte	.LFE57-.LFB57
 3127 00c8 00000000 		.4byte	.LFB58
 3128 00cc 5E000000 		.4byte	.LFE58-.LFB58
 3129 00d0 00000000 		.4byte	.LFB59
ARM GAS  C:\Users\alexport\AppData\Local\Temp\ccpT2TKB.s 			page 61


 3130 00d4 1C000000 		.4byte	.LFE59-.LFB59
 3131 00d8 00000000 		.4byte	0
 3132 00dc 00000000 		.4byte	0
 3133              		.section	.debug_ranges,"",%progbits
 3134              	.Ldebug_ranges0:
 3135 0000 00000000 		.4byte	.LFB35
 3136 0004 CA000000 		.4byte	.LFE35
 3137 0008 00000000 		.4byte	.LFB36
 3138 000c 72000000 		.4byte	.LFE36
 3139 0010 00000000 		.4byte	.LFB37
 3140 0014 34000000 		.4byte	.LFE37
 3141 0018 00000000 		.4byte	.LFB38
 3142 001c 2A000000 		.4byte	.LFE38
 3143 0020 00000000 		.4byte	.LFB39
 3144 0024 6C000000 		.4byte	.LFE39
 3145 0028 00000000 		.4byte	.LFB40
 3146 002c 3E000000 		.4byte	.LFE40
 3147 0030 00000000 		.4byte	.LFB41
 3148 0034 80000000 		.4byte	.LFE41
 3149 0038 00000000 		.4byte	.LFB42
 3150 003c 4C000000 		.4byte	.LFE42
 3151 0040 00000000 		.4byte	.LFB43
 3152 0044 2C000000 		.4byte	.LFE43
 3153 0048 00000000 		.4byte	.LFB44
 3154 004c 2C000000 		.4byte	.LFE44
 3155 0050 00000000 		.4byte	.LFB45
 3156 0054 1C000000 		.4byte	.LFE45
 3157 0058 00000000 		.4byte	.LFB46
 3158 005c 2A000000 		.4byte	.LFE46
 3159 0060 00000000 		.4byte	.LFB47
 3160 0064 66000000 		.4byte	.LFE47
 3161 0068 00000000 		.4byte	.LFB48
 3162 006c 66000000 		.4byte	.LFE48
 3163 0070 00000000 		.4byte	.LFB49
 3164 0074 2A000000 		.4byte	.LFE49
 3165 0078 00000000 		.4byte	.LFB50
 3166 007c C6000000 		.4byte	.LFE50
 3167 0080 00000000 		.4byte	.LFB51
 3168 0084 22000000 		.4byte	.LFE51
 3169 0088 00000000 		.4byte	.LFB52
 3170 008c 2E000000 		.4byte	.LFE52
 3171 0090 00000000 		.4byte	.LFB53
 3172 0094 50000000 		.4byte	.LFE53
 3173 0098 00000000 		.4byte	.LFB54
 3174 009c 72000000 		.4byte	.LFE54
 3175 00a0 00000000 		.4byte	.LFB55
 3176 00a4 64000000 		.4byte	.LFE55
 3177 00a8 00000000 		.4byte	.LFB56
 3178 00ac 5A000000 		.4byte	.LFE56
 3179 00b0 00000000 		.4byte	.LFB57
 3180 00b4 6C000000 		.4byte	.LFE57
 3181 00b8 00000000 		.4byte	.LFB58
 3182 00bc 5E000000 		.4byte	.LFE58
 3183 00c0 00000000 		.4byte	.LFB59
 3184 00c4 1C000000 		.4byte	.LFE59
 3185 00c8 00000000 		.4byte	0
 3186 00cc 00000000 		.4byte	0
ARM GAS  C:\Users\alexport\AppData\Local\Temp\ccpT2TKB.s 			page 62


 3187              		.section	.debug_line,"",%progbits
 3188              	.Ldebug_line0:
 3189 0000 0C040000 		.section	.debug_str,"MS",%progbits,1
 3189      02004C01 
 3189      00000201 
 3189      FB0E0D00 
 3189      01010101 
 3190              	.LASF24:
 3191 0000 4C6F6745 		.ascii	"LogEntry\000"
 3191      6E747279 
 3191      00
 3192              	.LASF16:
 3193 0009 666C6F61 		.ascii	"float\000"
 3193      7400
 3194              	.LASF22:
 3195 000f 74696D65 		.ascii	"timestamp\000"
 3195      7374616D 
 3195      7000
 3196              	.LASF38:
 3197 0019 45455052 		.ascii	"EEPROM_GetSleepPeriod\000"
 3197      4F4D5F47 
 3197      6574536C 
 3197      65657050 
 3197      6572696F 
 3198              	.LASF44:
 3199 002f 61637469 		.ascii	"active\000"
 3199      766500
 3200              	.LASF29:
 3201 0036 61646472 		.ascii	"addrBuf\000"
 3201      42756600 
 3202              	.LASF65:
 3203 003e 44657365 		.ascii	"DeserializeLogEntry\000"
 3203      7269616C 
 3203      697A654C 
 3203      6F67456E 
 3203      74727900 
 3204              	.LASF54:
 3205 0052 696E6465 		.ascii	"index\000"
 3205      7800
 3206              	.LASF2:
 3207 0058 73686F72 		.ascii	"short int\000"
 3207      7420696E 
 3207      7400
 3208              	.LASF56:
 3209 0062 53617665 		.ascii	"SaveLogEntry\000"
 3209      4C6F6745 
 3209      6E747279 
 3209      00
 3210              	.LASF20:
 3211 006f 73697A65 		.ascii	"sizetype\000"
 3211      74797065 
 3211      00
 3212              	.LASF45:
 3213 0078 45455052 		.ascii	"EEPROM_GetRelaySetting\000"
 3213      4F4D5F47 
 3213      65745265 
 3213      6C617953 
ARM GAS  C:\Users\alexport\AppData\Local\Temp\ccpT2TKB.s 			page 63


 3213      65747469 
 3214              	.LASF42:
 3215 008f 63683241 		.ascii	"ch2Active\000"
 3215      63746976 
 3215      6500
 3216              	.LASF68:
 3217 0099 433A5C55 		.ascii	"C:\\Users\\alexport\\OneDrive - Safeguard Analytics"
 3217      73657273 
 3217      5C616C65 
 3217      78706F72 
 3217      745C4F6E 
 3218 00c9 5C53412D 		.ascii	"\\SA-220\\SA-220.cydsn\000"
 3218      3232305C 
 3218      53412D32 
 3218      32302E63 
 3218      7964736E 
 3219              	.LASF7:
 3220 00de 5F5F7569 		.ascii	"__uint32_t\000"
 3220      6E743332 
 3220      5F7400
 3221              	.LASF28:
 3222 00e9 45455052 		.ascii	"EEPROM_ReadBytes\000"
 3222      4F4D5F52 
 3222      65616442 
 3222      79746573 
 3222      00
 3223              	.LASF4:
 3224 00fa 5F5F7569 		.ascii	"__uint16_t\000"
 3224      6E743136 
 3224      5F7400
 3225              	.LASF47:
 3226 0105 45455052 		.ascii	"EEPROM_SaveGPSLat\000"
 3226      4F4D5F53 
 3226      61766547 
 3226      50534C61 
 3226      7400
 3227              	.LASF15:
 3228 0117 75696E74 		.ascii	"uint16\000"
 3228      313600
 3229              	.LASF12:
 3230 011e 75696E74 		.ascii	"uint8_t\000"
 3230      385F7400 
 3231              	.LASF27:
 3232 0126 45455052 		.ascii	"EEPROM_WriteBytes\000"
 3232      4F4D5F57 
 3232      72697465 
 3232      42797465 
 3232      7300
 3233              	.LASF58:
 3234 0138 6C6F675F 		.ascii	"log_record\000"
 3234      7265636F 
 3234      726400
 3235              	.LASF36:
 3236 0143 45455052 		.ascii	"EEPROM_SetI2CPeriod\000"
 3236      4F4D5F53 
 3236      65744932 
 3236      43506572 
ARM GAS  C:\Users\alexport\AppData\Local\Temp\ccpT2TKB.s 			page 64


 3236      696F6400 
 3237              	.LASF61:
 3238 0157 45726173 		.ascii	"EraseLog\000"
 3238      654C6F67 
 3238      00
 3239              	.LASF9:
 3240 0160 6C6F6E67 		.ascii	"long long int\000"
 3240      206C6F6E 
 3240      6720696E 
 3240      7400
 3241              	.LASF60:
 3242 016e 4765744C 		.ascii	"GetLogEntry\000"
 3242      6F67456E 
 3242      74727900 
 3243              	.LASF6:
 3244 017a 6C6F6E67 		.ascii	"long int\000"
 3244      20696E74 
 3244      00
 3245              	.LASF32:
 3246 0183 61646472 		.ascii	"addr\000"
 3246      00
 3247              	.LASF37:
 3248 0188 70657269 		.ascii	"period\000"
 3248      6F6400
 3249              	.LASF3:
 3250 018f 5F5F7569 		.ascii	"__uint8_t\000"
 3250      6E74385F 
 3250      7400
 3251              	.LASF66:
 3252 0199 474E5520 		.ascii	"GNU C11 5.4.1 20160609 (release) [ARM/embedded-5-br"
 3252      43313120 
 3252      352E342E 
 3252      31203230 
 3252      31363036 
 3253 01cc 616E6368 		.ascii	"anch revision 237715] -mcpu=cortex-m0 -mthumb -g -O"
 3253      20726576 
 3253      6973696F 
 3253      6E203233 
 3253      37373135 
 3254 01ff 30202D66 		.ascii	"0 -ffunction-sections -ffat-lto-objects\000"
 3254      66756E63 
 3254      74696F6E 
 3254      2D736563 
 3254      74696F6E 
 3255              	.LASF52:
 3256 0227 45455052 		.ascii	"EEPROM_GetGPS\000"
 3256      4F4D5F47 
 3256      65744750 
 3256      5300
 3257              	.LASF40:
 3258 0235 45455052 		.ascii	"EEPROM_SetSleepPeriod\000"
 3258      4F4D5F53 
 3258      6574536C 
 3258      65657050 
 3258      6572696F 
 3259              	.LASF63:
 3260 024b 656E7472 		.ascii	"entry\000"
ARM GAS  C:\Users\alexport\AppData\Local\Temp\ccpT2TKB.s 			page 65


 3260      7900
 3261              	.LASF59:
 3262 0251 6C6F675F 		.ascii	"log_last_entry_idx\000"
 3262      6C617374 
 3262      5F656E74 
 3262      72795F69 
 3262      647800
 3263              	.LASF19:
 3264 0264 6C6F6E67 		.ascii	"long double\000"
 3264      20646F75 
 3264      626C6500 
 3265              	.LASF1:
 3266 0270 756E7369 		.ascii	"unsigned char\000"
 3266      676E6564 
 3266      20636861 
 3266      7200
 3267              	.LASF0:
 3268 027e 7369676E 		.ascii	"signed char\000"
 3268      65642063 
 3268      68617200 
 3269              	.LASF10:
 3270 028a 6C6F6E67 		.ascii	"long long unsigned int\000"
 3270      206C6F6E 
 3270      6720756E 
 3270      7369676E 
 3270      65642069 
 3271              	.LASF14:
 3272 02a1 75696E74 		.ascii	"uint32_t\000"
 3272      33325F74 
 3272      00
 3273              	.LASF62:
 3274 02aa 53657269 		.ascii	"SerializeLogEntry\000"
 3274      616C697A 
 3274      654C6F67 
 3274      456E7472 
 3274      7900
 3275              	.LASF57:
 3276 02bc 4765744C 		.ascii	"GetLog\000"
 3276      6F6700
 3277              	.LASF13:
 3278 02c3 75696E74 		.ascii	"uint16_t\000"
 3278      31365F74 
 3278      00
 3279              	.LASF50:
 3280 02cc 6C6F6E67 		.ascii	"longitude\000"
 3280      69747564 
 3280      6500
 3281              	.LASF39:
 3282 02d6 736C6565 		.ascii	"sleep_period\000"
 3282      705F7065 
 3282      72696F64 
 3282      00
 3283              	.LASF25:
 3284 02e3 6D656D41 		.ascii	"memAddr\000"
 3284      64647200 
 3285              	.LASF5:
 3286 02eb 73686F72 		.ascii	"short unsigned int\000"
ARM GAS  C:\Users\alexport\AppData\Local\Temp\ccpT2TKB.s 			page 66


 3286      7420756E 
 3286      7369676E 
 3286      65642069 
 3286      6E7400
 3287              	.LASF18:
 3288 02fe 63686172 		.ascii	"char\000"
 3288      00
 3289              	.LASF46:
 3290 0303 45455052 		.ascii	"EEPROM_SetRelaySetting\000"
 3290      4F4D5F53 
 3290      65745265 
 3290      6C617953 
 3290      65747469 
 3291              	.LASF21:
 3292 031a 6368616E 		.ascii	"channel\000"
 3292      6E656C00 
 3293              	.LASF26:
 3294 0322 64617461 		.ascii	"data\000"
 3294      00
 3295              	.LASF30:
 3296 0327 6D796164 		.ascii	"myaddr\000"
 3296      647200
 3297              	.LASF67:
 3298 032e 65657072 		.ascii	"eeprom.c\000"
 3298      6F6D2E63 
 3298      00
 3299              	.LASF64:
 3300 0337 62756666 		.ascii	"buffer\000"
 3300      657200
 3301              	.LASF23:
 3302 033e 72656164 		.ascii	"reading\000"
 3302      696E6700 
 3303              	.LASF43:
 3304 0346 45455052 		.ascii	"EEPROM_SetCh2Activity\000"
 3304      4F4D5F53 
 3304      65744368 
 3304      32416374 
 3304      69766974 
 3305              	.LASF35:
 3306 035c 6932635F 		.ascii	"i2c_period\000"
 3306      70657269 
 3306      6F6400
 3307              	.LASF8:
 3308 0367 6C6F6E67 		.ascii	"long unsigned int\000"
 3308      20756E73 
 3308      69676E65 
 3308      6420696E 
 3308      7400
 3309              	.LASF17:
 3310 0379 646F7562 		.ascii	"double\000"
 3310      6C6500
 3311              	.LASF51:
 3312 0380 45455052 		.ascii	"EEPROM_SaveGPS\000"
 3312      4F4D5F53 
 3312      61766547 
 3312      505300
 3313              	.LASF55:
ARM GAS  C:\Users\alexport\AppData\Local\Temp\ccpT2TKB.s 			page 67


 3314 038f 4C6F6164 		.ascii	"LoadLogIndex\000"
 3314      4C6F6749 
 3314      6E646578 
 3314      00
 3315              	.LASF31:
 3316 039c 45455052 		.ascii	"EEPROM_SetMyAddress\000"
 3316      4F4D5F53 
 3316      65744D79 
 3316      41646472 
 3316      65737300 
 3317              	.LASF34:
 3318 03b0 45455052 		.ascii	"EEPROM_GetI2CPeriod\000"
 3318      4F4D5F47 
 3318      65744932 
 3318      43506572 
 3318      696F6400 
 3319              	.LASF53:
 3320 03c4 53617665 		.ascii	"SaveLogIndex\000"
 3320      4C6F6749 
 3320      6E646578 
 3320      00
 3321              	.LASF49:
 3322 03d1 45455052 		.ascii	"EEPROM_SaveGPSLong\000"
 3322      4F4D5F53 
 3322      61766547 
 3322      50534C6F 
 3322      6E6700
 3323              	.LASF48:
 3324 03e4 6C617474 		.ascii	"lattitude\000"
 3324      69747564 
 3324      6500
 3325              	.LASF11:
 3326 03ee 756E7369 		.ascii	"unsigned int\000"
 3326      676E6564 
 3326      20696E74 
 3326      00
 3327              	.LASF33:
 3328 03fb 45455052 		.ascii	"EEPROM_GetMyAddress\000"
 3328      4F4D5F47 
 3328      65744D79 
 3328      41646472 
 3328      65737300 
 3329              	.LASF69:
 3330 040f 47657444 		.ascii	"GetDeviceTag\000"
 3330      65766963 
 3330      65546167 
 3330      00
 3331              	.LASF41:
 3332 041c 45455052 		.ascii	"EEPROM_GetCh2Activity\000"
 3332      4F4D5F47 
 3332      65744368 
 3332      32416374 
 3332      69766974 
 3333              		.ident	"GCC: (GNU Tools for ARM Embedded Processors) 5.4.1 20160609 (release) [ARM/embedded-5-bran
