ARM GAS  C:\Users\alexport\AppData\Local\Temp\cc8gQCAZ.s 			page 1


   1              		.syntax unified
   2              		.cpu cortex-m0
   3              		.fpu softvfp
   4              		.eabi_attribute 20, 1
   5              		.eabi_attribute 21, 1
   6              		.eabi_attribute 23, 3
   7              		.eabi_attribute 24, 1
   8              		.eabi_attribute 25, 1
   9              		.eabi_attribute 26, 1
  10              		.eabi_attribute 30, 6
  11              		.eabi_attribute 34, 0
  12              		.eabi_attribute 18, 4
  13              		.thumb
  14              		.syntax unified
  15              		.file	"i2c_master.c"
  16              		.text
  17              	.Ltext0:
  18              		.cfi_sections	.debug_frame
  19              		.global	slaveBuf
  20              		.data
  21              		.align	2
  22              		.type	slaveBuf, %object
  23              		.size	slaveBuf, 100
  24              	slaveBuf:
  25 0000 15       		.byte	21
  26 0001 20       		.byte	32
  27 0002 21       		.byte	33
  28 0003 22       		.byte	34
  29 0004 23       		.byte	35
  30 0005 24       		.byte	36
  31 0006 25       		.byte	37
  32 0007 26       		.byte	38
  33 0008 27       		.byte	39
  34 0009 28       		.byte	40
  35 000a 00000000 		.space	90
  35      00000000 
  35      00000000 
  35      00000000 
  35      00000000 
  36              		.section	.text.i2c_status,"ax",%progbits
  37              		.align	2
  38              		.global	i2c_status
  39              		.code	16
  40              		.thumb_func
  41              		.type	i2c_status, %function
  42              	i2c_status:
  43              	.LFB35:
  44              		.file 1 "i2c_master.c"
   1:i2c_master.c  **** /* ========================================
   2:i2c_master.c  ****  *
   3:i2c_master.c  ****  * Copyright YOUR COMPANY, THE YEAR
   4:i2c_master.c  ****  * All Rights Reserved
   5:i2c_master.c  ****  * UNPUBLISHED, LICENSED SOFTWARE.
   6:i2c_master.c  ****  *
   7:i2c_master.c  ****  * CONFIDENTIAL AND PROPRIETARY INFORMATION
   8:i2c_master.c  ****  * WHICH IS THE PROPERTY OF your company.
   9:i2c_master.c  ****  *
ARM GAS  C:\Users\alexport\AppData\Local\Temp\cc8gQCAZ.s 			page 2


  10:i2c_master.c  ****  * ========================================
  11:i2c_master.c  **** */
  12:i2c_master.c  **** #include "i2c_master.h"
  13:i2c_master.c  **** 
  14:i2c_master.c  **** 
  15:i2c_master.c  **** // TEST I2C SLAVE DATA 
  16:i2c_master.c  **** uint8_t slaveBuf[I2CS_BUFF_SIZE]={21,32,33,34,35,36,37,38,39,40};
  17:i2c_master.c  **** 
  18:i2c_master.c  **** uint32_t i2c_status(uint8 slave){
  45              		.loc 1 18 0
  46              		.cfi_startproc
  47              		@ args = 0, pretend = 0, frame = 16
  48              		@ frame_needed = 1, uses_anonymous_args = 0
  49 0000 80B5     		push	{r7, lr}
  50              		.cfi_def_cfa_offset 8
  51              		.cfi_offset 7, -8
  52              		.cfi_offset 14, -4
  53 0002 84B0     		sub	sp, sp, #16
  54              		.cfi_def_cfa_offset 24
  55 0004 00AF     		add	r7, sp, #0
  56              		.cfi_def_cfa_register 7
  57 0006 0200     		movs	r2, r0
  58 0008 FB1D     		adds	r3, r7, #7
  59 000a 1A70     		strb	r2, [r3]
  19:i2c_master.c  ****     uint32_t status;
  20:i2c_master.c  ****     status = I2C_I2CMasterSendStart( slave, I2C_I2C_WRITE_XFER_MODE,1 ); 
  60              		.loc 1 20 0
  61 000c FB1D     		adds	r3, r7, #7
  62 000e 1B78     		ldrb	r3, [r3]
  63 0010 0122     		movs	r2, #1
  64 0012 0021     		movs	r1, #0
  65 0014 1800     		movs	r0, r3
  66 0016 FFF7FEFF 		bl	I2C_I2CMasterSendStart
  67 001a 0300     		movs	r3, r0
  68 001c FB60     		str	r3, [r7, #12]
  21:i2c_master.c  ****     I2C_I2CMasterSendStop(1);
  69              		.loc 1 21 0
  70 001e 0120     		movs	r0, #1
  71 0020 FFF7FEFF 		bl	I2C_I2CMasterSendStop
  22:i2c_master.c  ****     //CyDelay(1);
  23:i2c_master.c  ****     return status;
  72              		.loc 1 23 0
  73 0024 FB68     		ldr	r3, [r7, #12]
  24:i2c_master.c  **** }
  74              		.loc 1 24 0
  75 0026 1800     		movs	r0, r3
  76 0028 BD46     		mov	sp, r7
  77 002a 04B0     		add	sp, sp, #16
  78              		@ sp needed
  79 002c 80BD     		pop	{r7, pc}
  80              		.cfi_endproc
  81              	.LFE35:
  82              		.size	i2c_status, .-i2c_status
  83 002e C046     		.section	.text.i2c_Read_8,"ax",%progbits
  84              		.align	2
  85              		.global	i2c_Read_8
  86              		.code	16
ARM GAS  C:\Users\alexport\AppData\Local\Temp\cc8gQCAZ.s 			page 3


  87              		.thumb_func
  88              		.type	i2c_Read_8, %function
  89              	i2c_Read_8:
  90              	.LFB36:
  25:i2c_master.c  **** 
  26:i2c_master.c  **** 
  27:i2c_master.c  **** uint8 i2c_Read_8( uint8 slave, uint8 address )
  28:i2c_master.c  **** {
  91              		.loc 1 28 0
  92              		.cfi_startproc
  93              		@ args = 0, pretend = 0, frame = 16
  94              		@ frame_needed = 1, uses_anonymous_args = 0
  95 0000 80B5     		push	{r7, lr}
  96              		.cfi_def_cfa_offset 8
  97              		.cfi_offset 7, -8
  98              		.cfi_offset 14, -4
  99 0002 84B0     		sub	sp, sp, #16
 100              		.cfi_def_cfa_offset 24
 101 0004 00AF     		add	r7, sp, #0
 102              		.cfi_def_cfa_register 7
 103 0006 0200     		movs	r2, r0
 104 0008 FB1D     		adds	r3, r7, #7
 105 000a 1A70     		strb	r2, [r3]
 106 000c BB1D     		adds	r3, r7, #6
 107 000e 0A1C     		adds	r2, r1, #0
 108 0010 1A70     		strb	r2, [r3]
  29:i2c_master.c  ****     static uint8 theResult = 0;
  30:i2c_master.c  ****     uint8_t status;
  31:i2c_master.c  ****     //slave = slave >> 1;                                                         /* MasterSendStar
  32:i2c_master.c  ****     I2C_I2CMasterSendStart( slave, I2C_I2C_WRITE_XFER_MODE,1 );                 /* Send start write
 109              		.loc 1 32 0
 110 0012 FB1D     		adds	r3, r7, #7
 111 0014 1B78     		ldrb	r3, [r3]
 112 0016 0122     		movs	r2, #1
 113 0018 0021     		movs	r1, #0
 114 001a 1800     		movs	r0, r3
 115 001c FFF7FEFF 		bl	I2C_I2CMasterSendStart
  33:i2c_master.c  ****     I2C_I2CMasterWriteByte( address, 1 );                                         /* Send address *
 116              		.loc 1 33 0
 117 0020 BB1D     		adds	r3, r7, #6
 118 0022 1B78     		ldrb	r3, [r3]
 119 0024 0121     		movs	r1, #1
 120 0026 1800     		movs	r0, r3
 121 0028 FFF7FEFF 		bl	I2C_I2CMasterWriteByte
  34:i2c_master.c  ****     I2C_I2CMasterSendRestart( slave, I2C_I2C_READ_XFER_MODE,1 );                /* Send re-start re
 122              		.loc 1 34 0
 123 002c FB1D     		adds	r3, r7, #7
 124 002e 1B78     		ldrb	r3, [r3]
 125 0030 0122     		movs	r2, #1
 126 0032 0121     		movs	r1, #1
 127 0034 1800     		movs	r0, r3
 128 0036 FFF7FEFF 		bl	I2C_I2CMasterSendRestart
  35:i2c_master.c  ****     status = I2C_I2CMasterReadByte( I2C_I2C_NAK_DATA,&theResult, 1 );                    /* Receive
 129              		.loc 1 35 0
 130 003a 0A4B     		ldr	r3, .L5
 131 003c 0122     		movs	r2, #1
 132 003e 1900     		movs	r1, r3
ARM GAS  C:\Users\alexport\AppData\Local\Temp\cc8gQCAZ.s 			page 4


 133 0040 0120     		movs	r0, #1
 134 0042 FFF7FEFF 		bl	I2C_I2CMasterReadByte
 135 0046 0200     		movs	r2, r0
 136 0048 0F23     		movs	r3, #15
 137 004a FB18     		adds	r3, r7, r3
 138 004c 1A70     		strb	r2, [r3]
  36:i2c_master.c  ****     (void) I2C_I2CMasterSendStop(1);                                            /* Send stop */
 139              		.loc 1 36 0
 140 004e 0120     		movs	r0, #1
 141 0050 FFF7FEFF 		bl	I2C_I2CMasterSendStop
  37:i2c_master.c  ****     (void) I2C_I2CMasterClearStatus();                                         /* Clear status flag
 142              		.loc 1 37 0
 143 0054 FFF7FEFF 		bl	I2C_I2CMasterClearStatus
  38:i2c_master.c  ****     return( theResult );                                                        /* Return the resul
 144              		.loc 1 38 0
 145 0058 024B     		ldr	r3, .L5
 146 005a 1B78     		ldrb	r3, [r3]
  39:i2c_master.c  **** }
 147              		.loc 1 39 0
 148 005c 1800     		movs	r0, r3
 149 005e BD46     		mov	sp, r7
 150 0060 04B0     		add	sp, sp, #16
 151              		@ sp needed
 152 0062 80BD     		pop	{r7, pc}
 153              	.L6:
 154              		.align	2
 155              	.L5:
 156 0064 00000000 		.word	theResult.8530
 157              		.cfi_endproc
 158              	.LFE36:
 159              		.size	i2c_Read_8, .-i2c_Read_8
 160              		.section	.text.i2c_read_16,"ax",%progbits
 161              		.align	2
 162              		.global	i2c_read_16
 163              		.code	16
 164              		.thumb_func
 165              		.type	i2c_read_16, %function
 166              	i2c_read_16:
 167              	.LFB37:
  40:i2c_master.c  **** 
  41:i2c_master.c  **** uint16 i2c_read_16( uint8 slave, uint8 address )
  42:i2c_master.c  **** {
 168              		.loc 1 42 0
 169              		.cfi_startproc
 170              		@ args = 0, pretend = 0, frame = 16
 171              		@ frame_needed = 1, uses_anonymous_args = 0
 172 0000 80B5     		push	{r7, lr}
 173              		.cfi_def_cfa_offset 8
 174              		.cfi_offset 7, -8
 175              		.cfi_offset 14, -4
 176 0002 84B0     		sub	sp, sp, #16
 177              		.cfi_def_cfa_offset 24
 178 0004 00AF     		add	r7, sp, #0
 179              		.cfi_def_cfa_register 7
 180 0006 0200     		movs	r2, r0
 181 0008 FB1D     		adds	r3, r7, #7
 182 000a 1A70     		strb	r2, [r3]
ARM GAS  C:\Users\alexport\AppData\Local\Temp\cc8gQCAZ.s 			page 5


 183 000c BB1D     		adds	r3, r7, #6
 184 000e 0A1C     		adds	r2, r1, #0
 185 0010 1A70     		strb	r2, [r3]
  43:i2c_master.c  ****     uint16 theResult;
  44:i2c_master.c  ****     theResult = i2c_Read_8( slave, address );
 186              		.loc 1 44 0
 187 0012 BB1D     		adds	r3, r7, #6
 188 0014 1A78     		ldrb	r2, [r3]
 189 0016 FB1D     		adds	r3, r7, #7
 190 0018 1B78     		ldrb	r3, [r3]
 191 001a 1100     		movs	r1, r2
 192 001c 1800     		movs	r0, r3
 193 001e FFF7FEFF 		bl	i2c_Read_8
 194 0022 0300     		movs	r3, r0
 195 0024 1A00     		movs	r2, r3
 196 0026 0E23     		movs	r3, #14
 197 0028 FB18     		adds	r3, r7, r3
 198 002a 1A80     		strh	r2, [r3]
  45:i2c_master.c  ****     theResult <<= 8;
 199              		.loc 1 45 0
 200 002c 0E23     		movs	r3, #14
 201 002e FB18     		adds	r3, r7, r3
 202 0030 0E22     		movs	r2, #14
 203 0032 BA18     		adds	r2, r7, r2
 204 0034 1288     		ldrh	r2, [r2]
 205 0036 1202     		lsls	r2, r2, #8
 206 0038 1A80     		strh	r2, [r3]
  46:i2c_master.c  ****     theResult |= i2c_Read_8( slave, (address + 1) );
 207              		.loc 1 46 0
 208 003a BB1D     		adds	r3, r7, #6
 209 003c 1B78     		ldrb	r3, [r3]
 210 003e 0133     		adds	r3, r3, #1
 211 0040 DAB2     		uxtb	r2, r3
 212 0042 FB1D     		adds	r3, r7, #7
 213 0044 1B78     		ldrb	r3, [r3]
 214 0046 1100     		movs	r1, r2
 215 0048 1800     		movs	r0, r3
 216 004a FFF7FEFF 		bl	i2c_Read_8
 217 004e 0300     		movs	r3, r0
 218 0050 99B2     		uxth	r1, r3
 219 0052 0E23     		movs	r3, #14
 220 0054 FB18     		adds	r3, r7, r3
 221 0056 0E22     		movs	r2, #14
 222 0058 BA18     		adds	r2, r7, r2
 223 005a 1288     		ldrh	r2, [r2]
 224 005c 0A43     		orrs	r2, r1
 225 005e 1A80     		strh	r2, [r3]
  47:i2c_master.c  ****     return( theResult );
 226              		.loc 1 47 0
 227 0060 0E23     		movs	r3, #14
 228 0062 FB18     		adds	r3, r7, r3
 229 0064 1B88     		ldrh	r3, [r3]
  48:i2c_master.c  **** }
 230              		.loc 1 48 0
 231 0066 1800     		movs	r0, r3
 232 0068 BD46     		mov	sp, r7
 233 006a 04B0     		add	sp, sp, #16
ARM GAS  C:\Users\alexport\AppData\Local\Temp\cc8gQCAZ.s 			page 6


 234              		@ sp needed
 235 006c 80BD     		pop	{r7, pc}
 236              		.cfi_endproc
 237              	.LFE37:
 238              		.size	i2c_read_16, .-i2c_read_16
 239 006e C046     		.section	.text.i2c_write_8,"ax",%progbits
 240              		.align	2
 241              		.global	i2c_write_8
 242              		.code	16
 243              		.thumb_func
 244              		.type	i2c_write_8, %function
 245              	i2c_write_8:
 246              	.LFB38:
  49:i2c_master.c  **** 
  50:i2c_master.c  **** 
  51:i2c_master.c  **** void i2c_write_8( uint8 slave, uint8 address, uint8 data )
  52:i2c_master.c  **** {
 247              		.loc 1 52 0
 248              		.cfi_startproc
 249              		@ args = 0, pretend = 0, frame = 8
 250              		@ frame_needed = 1, uses_anonymous_args = 0
 251 0000 90B5     		push	{r4, r7, lr}
 252              		.cfi_def_cfa_offset 12
 253              		.cfi_offset 4, -12
 254              		.cfi_offset 7, -8
 255              		.cfi_offset 14, -4
 256 0002 83B0     		sub	sp, sp, #12
 257              		.cfi_def_cfa_offset 24
 258 0004 00AF     		add	r7, sp, #0
 259              		.cfi_def_cfa_register 7
 260 0006 0400     		movs	r4, r0
 261 0008 0800     		movs	r0, r1
 262 000a 1100     		movs	r1, r2
 263 000c FB1D     		adds	r3, r7, #7
 264 000e 221C     		adds	r2, r4, #0
 265 0010 1A70     		strb	r2, [r3]
 266 0012 BB1D     		adds	r3, r7, #6
 267 0014 021C     		adds	r2, r0, #0
 268 0016 1A70     		strb	r2, [r3]
 269 0018 7B1D     		adds	r3, r7, #5
 270 001a 0A1C     		adds	r2, r1, #0
 271 001c 1A70     		strb	r2, [r3]
  53:i2c_master.c  ****     //slave = slave >> 1;                                                         /* MasterSendStar
  54:i2c_master.c  ****     I2C_I2CMasterSendStart( slave, I2C_I2C_WRITE_XFER_MODE , 1 );                 /* Send start wri
 272              		.loc 1 54 0
 273 001e FB1D     		adds	r3, r7, #7
 274 0020 1B78     		ldrb	r3, [r3]
 275 0022 0122     		movs	r2, #1
 276 0024 0021     		movs	r1, #0
 277 0026 1800     		movs	r0, r3
 278 0028 FFF7FEFF 		bl	I2C_I2CMasterSendStart
  55:i2c_master.c  ****     I2C_I2CMasterWriteByte( address , 1 );                                         /* Send address 
 279              		.loc 1 55 0
 280 002c BB1D     		adds	r3, r7, #6
 281 002e 1B78     		ldrb	r3, [r3]
 282 0030 0121     		movs	r1, #1
 283 0032 1800     		movs	r0, r3
ARM GAS  C:\Users\alexport\AppData\Local\Temp\cc8gQCAZ.s 			page 7


 284 0034 FFF7FEFF 		bl	I2C_I2CMasterWriteByte
  56:i2c_master.c  ****     I2C_I2CMasterWriteByte( data ,1 );                                            /* Send byte */
 285              		.loc 1 56 0
 286 0038 7B1D     		adds	r3, r7, #5
 287 003a 1B78     		ldrb	r3, [r3]
 288 003c 0121     		movs	r1, #1
 289 003e 1800     		movs	r0, r3
 290 0040 FFF7FEFF 		bl	I2C_I2CMasterWriteByte
  57:i2c_master.c  ****     (void) I2C_I2CMasterSendStop(1);                                            /* Send stop */
 291              		.loc 1 57 0
 292 0044 0120     		movs	r0, #1
 293 0046 FFF7FEFF 		bl	I2C_I2CMasterSendStop
  58:i2c_master.c  ****     (void) I2C_I2CMasterClearStatus();                                         /* Clear status flag
 294              		.loc 1 58 0
 295 004a FFF7FEFF 		bl	I2C_I2CMasterClearStatus
  59:i2c_master.c  ****     CyDelay( 10u );                                                             /* Allow 10millisec
 296              		.loc 1 59 0
 297 004e 0A20     		movs	r0, #10
 298 0050 FFF7FEFF 		bl	CyDelay
  60:i2c_master.c  **** }
 299              		.loc 1 60 0
 300 0054 C046     		nop
 301 0056 BD46     		mov	sp, r7
 302 0058 03B0     		add	sp, sp, #12
 303              		@ sp needed
 304 005a 90BD     		pop	{r4, r7, pc}
 305              		.cfi_endproc
 306              	.LFE38:
 307              		.size	i2c_write_8, .-i2c_write_8
 308              		.section	.text.i2c_write_16,"ax",%progbits
 309              		.align	2
 310              		.global	i2c_write_16
 311              		.code	16
 312              		.thumb_func
 313              		.type	i2c_write_16, %function
 314              	i2c_write_16:
 315              	.LFB39:
  61:i2c_master.c  **** 
  62:i2c_master.c  **** 
  63:i2c_master.c  **** void i2c_write_16( uint8 slave, uint8 address, uint16 data )
  64:i2c_master.c  **** {
 316              		.loc 1 64 0
 317              		.cfi_startproc
 318              		@ args = 0, pretend = 0, frame = 16
 319              		@ frame_needed = 1, uses_anonymous_args = 0
 320 0000 90B5     		push	{r4, r7, lr}
 321              		.cfi_def_cfa_offset 12
 322              		.cfi_offset 4, -12
 323              		.cfi_offset 7, -8
 324              		.cfi_offset 14, -4
 325 0002 85B0     		sub	sp, sp, #20
 326              		.cfi_def_cfa_offset 32
 327 0004 00AF     		add	r7, sp, #0
 328              		.cfi_def_cfa_register 7
 329 0006 0400     		movs	r4, r0
 330 0008 0800     		movs	r0, r1
 331 000a 1100     		movs	r1, r2
ARM GAS  C:\Users\alexport\AppData\Local\Temp\cc8gQCAZ.s 			page 8


 332 000c FB1D     		adds	r3, r7, #7
 333 000e 221C     		adds	r2, r4, #0
 334 0010 1A70     		strb	r2, [r3]
 335 0012 BB1D     		adds	r3, r7, #6
 336 0014 021C     		adds	r2, r0, #0
 337 0016 1A70     		strb	r2, [r3]
 338 0018 3B1D     		adds	r3, r7, #4
 339 001a 0A1C     		adds	r2, r1, #0
 340 001c 1A80     		strh	r2, [r3]
  65:i2c_master.c  ****     uint8 byteToWrite;
  66:i2c_master.c  ****     byteToWrite = ( uint8 )( data >> 8 );                                       /* Load upper byte 
 341              		.loc 1 66 0
 342 001e 3B1D     		adds	r3, r7, #4
 343 0020 1B88     		ldrh	r3, [r3]
 344 0022 1B0A     		lsrs	r3, r3, #8
 345 0024 9AB2     		uxth	r2, r3
 346 0026 0F23     		movs	r3, #15
 347 0028 FB18     		adds	r3, r7, r3
 348 002a 1A70     		strb	r2, [r3]
  67:i2c_master.c  ****     i2c_write_8( slave, address, byteToWrite ); 
 349              		.loc 1 67 0
 350 002c 0F23     		movs	r3, #15
 351 002e FB18     		adds	r3, r7, r3
 352 0030 1A78     		ldrb	r2, [r3]
 353 0032 BB1D     		adds	r3, r7, #6
 354 0034 1978     		ldrb	r1, [r3]
 355 0036 FB1D     		adds	r3, r7, #7
 356 0038 1B78     		ldrb	r3, [r3]
 357 003a 1800     		movs	r0, r3
 358 003c FFF7FEFF 		bl	i2c_write_8
  68:i2c_master.c  ****     CyDelay( 10u );
 359              		.loc 1 68 0
 360 0040 0A20     		movs	r0, #10
 361 0042 FFF7FEFF 		bl	CyDelay
  69:i2c_master.c  ****     /* Write it */
  70:i2c_master.c  ****     byteToWrite = ( uint8 )( data );                                            /* Load lower byte 
 362              		.loc 1 70 0
 363 0046 0F23     		movs	r3, #15
 364 0048 FB18     		adds	r3, r7, r3
 365 004a 3A1D     		adds	r2, r7, #4
 366 004c 1288     		ldrh	r2, [r2]
 367 004e 1A70     		strb	r2, [r3]
  71:i2c_master.c  ****     i2c_write_8( slave, ( address + 1 ), byteToWrite );                    /* Write it */
 368              		.loc 1 71 0
 369 0050 BB1D     		adds	r3, r7, #6
 370 0052 1B78     		ldrb	r3, [r3]
 371 0054 0133     		adds	r3, r3, #1
 372 0056 D9B2     		uxtb	r1, r3
 373 0058 0F23     		movs	r3, #15
 374 005a FB18     		adds	r3, r7, r3
 375 005c 1A78     		ldrb	r2, [r3]
 376 005e FB1D     		adds	r3, r7, #7
 377 0060 1B78     		ldrb	r3, [r3]
 378 0062 1800     		movs	r0, r3
 379 0064 FFF7FEFF 		bl	i2c_write_8
  72:i2c_master.c  ****     CyDelay( 10u );                                                             /* Allow 10millisec
 380              		.loc 1 72 0
ARM GAS  C:\Users\alexport\AppData\Local\Temp\cc8gQCAZ.s 			page 9


 381 0068 0A20     		movs	r0, #10
 382 006a FFF7FEFF 		bl	CyDelay
  73:i2c_master.c  **** }
 383              		.loc 1 73 0
 384 006e C046     		nop
 385 0070 BD46     		mov	sp, r7
 386 0072 05B0     		add	sp, sp, #20
 387              		@ sp needed
 388 0074 90BD     		pop	{r4, r7, pc}
 389              		.cfi_endproc
 390              	.LFE39:
 391              		.size	i2c_write_16, .-i2c_write_16
 392 0076 C046     		.section	.text.slave_ReadDataRaw,"ax",%progbits
 393              		.align	2
 394              		.global	slave_ReadDataRaw
 395              		.code	16
 396              		.thumb_func
 397              		.type	slave_ReadDataRaw, %function
 398              	slave_ReadDataRaw:
 399              	.LFB40:
  74:i2c_master.c  **** 
  75:i2c_master.c  **** uint32 slave_ReadDataRaw(uint8 Reg, uint16 dataSize, uint8 *dataPtr){
 400              		.loc 1 75 0
 401              		.cfi_startproc
 402              		@ args = 0, pretend = 0, frame = 16
 403              		@ frame_needed = 1, uses_anonymous_args = 0
 404 0000 80B5     		push	{r7, lr}
 405              		.cfi_def_cfa_offset 8
 406              		.cfi_offset 7, -8
 407              		.cfi_offset 14, -4
 408 0002 84B0     		sub	sp, sp, #16
 409              		.cfi_def_cfa_offset 24
 410 0004 00AF     		add	r7, sp, #0
 411              		.cfi_def_cfa_register 7
 412 0006 3A60     		str	r2, [r7]
 413 0008 FB1D     		adds	r3, r7, #7
 414 000a 021C     		adds	r2, r0, #0
 415 000c 1A70     		strb	r2, [r3]
 416 000e 3B1D     		adds	r3, r7, #4
 417 0010 0A1C     		adds	r2, r1, #0
 418 0012 1A80     		strh	r2, [r3]
  76:i2c_master.c  **** uint8 txData[1];
  77:i2c_master.c  **** uint32 wrStatus;
  78:i2c_master.c  ****     txData[0] = Reg;
 419              		.loc 1 78 0
 420 0014 0823     		movs	r3, #8
 421 0016 FB18     		adds	r3, r7, r3
 422 0018 FA1D     		adds	r2, r7, #7
 423 001a 1278     		ldrb	r2, [r2]
 424 001c 1A70     		strb	r2, [r3]
  79:i2c_master.c  ****     while (I2C_I2CMasterStatus()== I2C_I2C_MSTAT_XFER_INP){};
 425              		.loc 1 79 0
 426 001e C046     		nop
 427              	.L12:
 428              		.loc 1 79 0 is_stmt 0 discriminator 1
 429 0020 FFF7FEFF 		bl	I2C_I2CMasterStatus
 430 0024 0300     		movs	r3, r0
ARM GAS  C:\Users\alexport\AppData\Local\Temp\cc8gQCAZ.s 			page 10


 431 0026 042B     		cmp	r3, #4
 432 0028 FAD0     		beq	.L12
  80:i2c_master.c  ****     wrStatus = I2C_I2CMasterWriteBuf(I2C_SENSOR_SLAVE_ADDR, txData, 1, I2C_I2C_MODE_NO_STOP);
 433              		.loc 1 80 0 is_stmt 1
 434 002a 0823     		movs	r3, #8
 435 002c F918     		adds	r1, r7, r3
 436 002e 0223     		movs	r3, #2
 437 0030 0122     		movs	r2, #1
 438 0032 6120     		movs	r0, #97
 439 0034 FFF7FEFF 		bl	I2C_I2CMasterWriteBuf
 440 0038 0300     		movs	r3, r0
 441 003a FB60     		str	r3, [r7, #12]
  81:i2c_master.c  ****     
  82:i2c_master.c  ****     if (I2C_I2C_MSTAT_ERR_ADDR_NAK ==I2C_I2CMasterStatus() ){
 442              		.loc 1 82 0
 443 003c FFF7FEFF 		bl	I2C_I2CMasterStatus
 444 0040 0300     		movs	r3, r0
 445 0042 202B     		cmp	r3, #32
 446 0044 01D1     		bne	.L17
  83:i2c_master.c  ****         wrStatus = I2C_I2C_MSTAT_ERR_ADDR_NAK;    
 447              		.loc 1 83 0
 448 0046 2023     		movs	r3, #32
 449 0048 FB60     		str	r3, [r7, #12]
 450              	.L17:
  84:i2c_master.c  ****     }
  85:i2c_master.c  ****     
  86:i2c_master.c  ****     while( (I2C_I2CMasterStatus() & I2C_I2C_MSTAT_WR_CMPLT) == 0){};
 451              		.loc 1 86 0
 452 004a C046     		nop
 453              	.L14:
 454              		.loc 1 86 0 is_stmt 0 discriminator 1
 455 004c FFF7FEFF 		bl	I2C_I2CMasterStatus
 456 0050 0200     		movs	r2, r0
 457 0052 0223     		movs	r3, #2
 458 0054 1340     		ands	r3, r2
 459 0056 F9D0     		beq	.L14
  87:i2c_master.c  ****     
  88:i2c_master.c  ****     I2C_I2CMasterReadBuf(I2C_SENSOR_SLAVE_ADDR, dataPtr, dataSize, I2C_I2C_MODE_REPEAT_START);
 460              		.loc 1 88 0 is_stmt 1
 461 0058 3B1D     		adds	r3, r7, #4
 462 005a 1A88     		ldrh	r2, [r3]
 463 005c 3968     		ldr	r1, [r7]
 464 005e 0123     		movs	r3, #1
 465 0060 6120     		movs	r0, #97
 466 0062 FFF7FEFF 		bl	I2C_I2CMasterReadBuf
  89:i2c_master.c  ****     while( (I2C_I2CMasterStatus() & I2C_I2C_MSTAT_RD_CMPLT) == 0){};
 467              		.loc 1 89 0
 468 0066 C046     		nop
 469              	.L15:
 470              		.loc 1 89 0 is_stmt 0 discriminator 1
 471 0068 FFF7FEFF 		bl	I2C_I2CMasterStatus
 472 006c 0200     		movs	r2, r0
 473 006e 0123     		movs	r3, #1
 474 0070 1340     		ands	r3, r2
 475 0072 F9D0     		beq	.L15
  90:i2c_master.c  ****     
  91:i2c_master.c  ****     //return I2C_NO_ERROR;  // Return success code if data is read successfully
ARM GAS  C:\Users\alexport\AppData\Local\Temp\cc8gQCAZ.s 			page 11


  92:i2c_master.c  ****     return wrStatus;
 476              		.loc 1 92 0 is_stmt 1
 477 0074 FB68     		ldr	r3, [r7, #12]
  93:i2c_master.c  **** }
 478              		.loc 1 93 0
 479 0076 1800     		movs	r0, r3
 480 0078 BD46     		mov	sp, r7
 481 007a 04B0     		add	sp, sp, #16
 482              		@ sp needed
 483 007c 80BD     		pop	{r7, pc}
 484              		.cfi_endproc
 485              	.LFE40:
 486              		.size	slave_ReadDataRaw, .-slave_ReadDataRaw
 487 007e C046     		.section	.text.slave_WriteDataRaw,"ax",%progbits
 488              		.align	2
 489              		.global	slave_WriteDataRaw
 490              		.code	16
 491              		.thumb_func
 492              		.type	slave_WriteDataRaw, %function
 493              	slave_WriteDataRaw:
 494              	.LFB41:
  94:i2c_master.c  **** 
  95:i2c_master.c  **** uint32 slave_WriteDataRaw(uint8 Reg, uint16 dataSize, uint8 *dataPtr){
 495              		.loc 1 95 0
 496              		.cfi_startproc
 497              		@ args = 0, pretend = 0, frame = 8
 498              		@ frame_needed = 1, uses_anonymous_args = 0
 499 0000 80B5     		push	{r7, lr}
 500              		.cfi_def_cfa_offset 8
 501              		.cfi_offset 7, -8
 502              		.cfi_offset 14, -4
 503 0002 82B0     		sub	sp, sp, #8
 504              		.cfi_def_cfa_offset 16
 505 0004 00AF     		add	r7, sp, #0
 506              		.cfi_def_cfa_register 7
 507 0006 3A60     		str	r2, [r7]
 508 0008 FB1D     		adds	r3, r7, #7
 509 000a 021C     		adds	r2, r0, #0
 510 000c 1A70     		strb	r2, [r3]
 511 000e 3B1D     		adds	r3, r7, #4
 512 0010 0A1C     		adds	r2, r1, #0
 513 0012 1A80     		strh	r2, [r3]
  96:i2c_master.c  ****     
  97:i2c_master.c  **** //    while (I2C_I2CMasterStatus()== I2C_I2C_MSTAT_XFER_INP){};
  98:i2c_master.c  **** //    I2C_I2CMasterWriteBuf(I2C_SLAVE_ADDR, &reg, 1, I2C_I2C_MODE_REPEAT_START);
  99:i2c_master.c  **** //    while( (I2C_I2CMasterStatus() & I2C_I2C_MSTAT_WR_CMPLT) == 0){};
 100:i2c_master.c  **** //    I2C_I2CMasterWriteBuf(I2C_SLAVE_ADDR, dataPtr, dataSize, I2C_I2C_MODE_COMPLETE_XFER);
 101:i2c_master.c  **** //    while( (I2C_I2CMasterStatus() & I2C_I2C_MSTAT_WR_CMPLT) == 0){};
 102:i2c_master.c  **** //    return I2C_NO_ERROR;
 103:i2c_master.c  ****     
 104:i2c_master.c  ****     
 105:i2c_master.c  ****     
 106:i2c_master.c  ****     I2C_I2CMasterWriteBuf(I2C_SENSOR_SLAVE_ADDR, dataPtr, dataSize+1,I2C_I2C_MODE_COMPLETE_XFER ); 
 514              		.loc 1 106 0
 515 0014 3B1D     		adds	r3, r7, #4
 516 0016 1B88     		ldrh	r3, [r3]
 517 0018 0133     		adds	r3, r3, #1
ARM GAS  C:\Users\alexport\AppData\Local\Temp\cc8gQCAZ.s 			page 12


 518 001a 1A00     		movs	r2, r3
 519 001c 3968     		ldr	r1, [r7]
 520 001e 0023     		movs	r3, #0
 521 0020 6120     		movs	r0, #97
 522 0022 FFF7FEFF 		bl	I2C_I2CMasterWriteBuf
 107:i2c_master.c  ****     
 108:i2c_master.c  ****     
 109:i2c_master.c  **** //    I2C_I2CMasterSendStart( I2C_SLAVE_ADDR, I2C_I2C_WRITE_XFER_MODE , 1 );                 /* Sen
 110:i2c_master.c  **** //    I2C_I2CMasterWriteByte( Reg , 1 );  
 111:i2c_master.c  **** //    for (uint32_t i = 0; i < dataSize; i++){/* Send address */
 112:i2c_master.c  **** //        I2C_I2CMasterWriteByte( *dataPtr ,1 );    
 113:i2c_master.c  **** //        dataPtr++;
 114:i2c_master.c  **** //    }
 115:i2c_master.c  **** //    (void) I2C_I2CMasterSendStop(1);   
 116:i2c_master.c  **** //    return I2C_NO_ERROR;
 117:i2c_master.c  ****     
 118:i2c_master.c  **** }
 523              		.loc 1 118 0
 524 0026 C046     		nop
 525 0028 1800     		movs	r0, r3
 526 002a BD46     		mov	sp, r7
 527 002c 02B0     		add	sp, sp, #8
 528              		@ sp needed
 529 002e 80BD     		pop	{r7, pc}
 530              		.cfi_endproc
 531              	.LFE41:
 532              		.size	slave_WriteDataRaw, .-slave_WriteDataRaw
 533              		.section	.text.SelectChannel,"ax",%progbits
 534              		.align	2
 535              		.global	SelectChannel
 536              		.code	16
 537              		.thumb_func
 538              		.type	SelectChannel, %function
 539              	SelectChannel:
 540              	.LFB42:
 119:i2c_master.c  **** 
 120:i2c_master.c  **** 
 121:i2c_master.c  **** 
 122:i2c_master.c  **** 
 123:i2c_master.c  **** 
 124:i2c_master.c  **** uint8_t SelectChannel(uint8_t channel)
 125:i2c_master.c  **** {
 541              		.loc 1 125 0
 542              		.cfi_startproc
 543              		@ args = 0, pretend = 0, frame = 16
 544              		@ frame_needed = 1, uses_anonymous_args = 0
 545 0000 80B5     		push	{r7, lr}
 546              		.cfi_def_cfa_offset 8
 547              		.cfi_offset 7, -8
 548              		.cfi_offset 14, -4
 549 0002 84B0     		sub	sp, sp, #16
 550              		.cfi_def_cfa_offset 24
 551 0004 00AF     		add	r7, sp, #0
 552              		.cfi_def_cfa_register 7
 553 0006 0200     		movs	r2, r0
 554 0008 FB1D     		adds	r3, r7, #7
 555 000a 1A70     		strb	r2, [r3]
ARM GAS  C:\Users\alexport\AppData\Local\Temp\cc8gQCAZ.s 			page 13


 126:i2c_master.c  ****     if (channel > 7)
 556              		.loc 1 126 0
 557 000c FB1D     		adds	r3, r7, #7
 558 000e 1B78     		ldrb	r3, [r3]
 559 0010 072B     		cmp	r3, #7
 560 0012 01D9     		bls	.L20
 127:i2c_master.c  ****         return 1; // Invalid channel
 561              		.loc 1 127 0
 562 0014 0123     		movs	r3, #1
 563 0016 1FE0     		b	.L21
 564              	.L20:
 128:i2c_master.c  **** 
 129:i2c_master.c  ****     uint8_t data = (1 << channel);
 565              		.loc 1 129 0
 566 0018 FB1D     		adds	r3, r7, #7
 567 001a 1B78     		ldrb	r3, [r3]
 568 001c 0122     		movs	r2, #1
 569 001e 9A40     		lsls	r2, r2, r3
 570 0020 0F23     		movs	r3, #15
 571 0022 FB18     		adds	r3, r7, r3
 572 0024 1A70     		strb	r2, [r3]
 130:i2c_master.c  ****     return I2C_I2CMasterSendStart(I2C_MUX_SLAVE_ADDR, I2C_I2C_WRITE_XFER_MODE,1) ||
 573              		.loc 1 130 0
 574 0026 0122     		movs	r2, #1
 575 0028 0021     		movs	r1, #0
 576 002a 7320     		movs	r0, #115
 577 002c FFF7FEFF 		bl	I2C_I2CMasterSendStart
 578 0030 031E     		subs	r3, r0, #0
 131:i2c_master.c  ****            I2C_I2CMasterWriteByte(data,1) ||
 579              		.loc 1 131 0
 580 0032 0DD1     		bne	.L22
 581              		.loc 1 131 0 is_stmt 0 discriminator 2
 582 0034 0F23     		movs	r3, #15
 583 0036 FB18     		adds	r3, r7, r3
 584 0038 1B78     		ldrb	r3, [r3]
 585 003a 0121     		movs	r1, #1
 586 003c 1800     		movs	r0, r3
 587 003e FFF7FEFF 		bl	I2C_I2CMasterWriteByte
 588 0042 031E     		subs	r3, r0, #0
 130:i2c_master.c  ****     return I2C_I2CMasterSendStart(I2C_MUX_SLAVE_ADDR, I2C_I2C_WRITE_XFER_MODE,1) ||
 589              		.loc 1 130 0 is_stmt 1 discriminator 2
 590 0044 04D1     		bne	.L22
 132:i2c_master.c  ****            I2C_I2CMasterSendStop(1);
 591              		.loc 1 132 0 discriminator 3
 592 0046 0120     		movs	r0, #1
 593 0048 FFF7FEFF 		bl	I2C_I2CMasterSendStop
 594 004c 031E     		subs	r3, r0, #0
 131:i2c_master.c  ****            I2C_I2CMasterWriteByte(data,1) ||
 595              		.loc 1 131 0 discriminator 3
 596 004e 01D0     		beq	.L23
 597              	.L22:
 131:i2c_master.c  ****            I2C_I2CMasterWriteByte(data,1) ||
 598              		.loc 1 131 0 is_stmt 0 discriminator 1
 599 0050 0123     		movs	r3, #1
 600 0052 00E0     		b	.L24
 601              	.L23:
 131:i2c_master.c  ****            I2C_I2CMasterWriteByte(data,1) ||
ARM GAS  C:\Users\alexport\AppData\Local\Temp\cc8gQCAZ.s 			page 14


 602              		.loc 1 131 0 discriminator 4
 603 0054 0023     		movs	r3, #0
 604              	.L24:
 130:i2c_master.c  ****     return I2C_I2CMasterSendStart(I2C_MUX_SLAVE_ADDR, I2C_I2C_WRITE_XFER_MODE,1) ||
 605              		.loc 1 130 0 is_stmt 1
 606 0056 DBB2     		uxtb	r3, r3
 607              	.L21:
 133:i2c_master.c  **** }
 608              		.loc 1 133 0
 609 0058 1800     		movs	r0, r3
 610 005a BD46     		mov	sp, r7
 611 005c 04B0     		add	sp, sp, #16
 612              		@ sp needed
 613 005e 80BD     		pop	{r7, pc}
 614              		.cfi_endproc
 615              	.LFE42:
 616              		.size	SelectChannel, .-SelectChannel
 617              		.section	.text.DisableAllChannels,"ax",%progbits
 618              		.align	2
 619              		.global	DisableAllChannels
 620              		.code	16
 621              		.thumb_func
 622              		.type	DisableAllChannels, %function
 623              	DisableAllChannels:
 624              	.LFB43:
 134:i2c_master.c  **** 
 135:i2c_master.c  **** uint8_t DisableAllChannels(void)
 136:i2c_master.c  **** {
 625              		.loc 1 136 0
 626              		.cfi_startproc
 627              		@ args = 0, pretend = 0, frame = 8
 628              		@ frame_needed = 1, uses_anonymous_args = 0
 629 0000 80B5     		push	{r7, lr}
 630              		.cfi_def_cfa_offset 8
 631              		.cfi_offset 7, -8
 632              		.cfi_offset 14, -4
 633 0002 82B0     		sub	sp, sp, #8
 634              		.cfi_def_cfa_offset 16
 635 0004 00AF     		add	r7, sp, #0
 636              		.cfi_def_cfa_register 7
 137:i2c_master.c  ****     uint8_t data = 0x00;
 637              		.loc 1 137 0
 638 0006 FB1D     		adds	r3, r7, #7
 639 0008 0022     		movs	r2, #0
 640 000a 1A70     		strb	r2, [r3]
 138:i2c_master.c  ****     return I2C_I2CMasterSendStart(I2C_MUX_SLAVE_ADDR, I2C_I2C_WRITE_XFER_MODE,1) ||
 641              		.loc 1 138 0
 642 000c 0122     		movs	r2, #1
 643 000e 0021     		movs	r1, #0
 644 0010 7320     		movs	r0, #115
 645 0012 FFF7FEFF 		bl	I2C_I2CMasterSendStart
 646 0016 031E     		subs	r3, r0, #0
 139:i2c_master.c  ****            I2C_I2CMasterWriteByte(data,1) ||
 647              		.loc 1 139 0
 648 0018 0CD1     		bne	.L26
 649              		.loc 1 139 0 is_stmt 0 discriminator 2
 650 001a FB1D     		adds	r3, r7, #7
ARM GAS  C:\Users\alexport\AppData\Local\Temp\cc8gQCAZ.s 			page 15


 651 001c 1B78     		ldrb	r3, [r3]
 652 001e 0121     		movs	r1, #1
 653 0020 1800     		movs	r0, r3
 654 0022 FFF7FEFF 		bl	I2C_I2CMasterWriteByte
 655 0026 031E     		subs	r3, r0, #0
 138:i2c_master.c  ****     return I2C_I2CMasterSendStart(I2C_MUX_SLAVE_ADDR, I2C_I2C_WRITE_XFER_MODE,1) ||
 656              		.loc 1 138 0 is_stmt 1 discriminator 2
 657 0028 04D1     		bne	.L26
 140:i2c_master.c  ****            I2C_I2CMasterSendStop(1);
 658              		.loc 1 140 0 discriminator 3
 659 002a 0120     		movs	r0, #1
 660 002c FFF7FEFF 		bl	I2C_I2CMasterSendStop
 661 0030 031E     		subs	r3, r0, #0
 139:i2c_master.c  ****            I2C_I2CMasterWriteByte(data,1) ||
 662              		.loc 1 139 0 discriminator 3
 663 0032 01D0     		beq	.L27
 664              	.L26:
 139:i2c_master.c  ****            I2C_I2CMasterWriteByte(data,1) ||
 665              		.loc 1 139 0 is_stmt 0 discriminator 1
 666 0034 0123     		movs	r3, #1
 667 0036 00E0     		b	.L28
 668              	.L27:
 139:i2c_master.c  ****            I2C_I2CMasterWriteByte(data,1) ||
 669              		.loc 1 139 0 discriminator 4
 670 0038 0023     		movs	r3, #0
 671              	.L28:
 138:i2c_master.c  ****     return I2C_I2CMasterSendStart(I2C_MUX_SLAVE_ADDR, I2C_I2C_WRITE_XFER_MODE,1) ||
 672              		.loc 1 138 0 is_stmt 1
 673 003a DBB2     		uxtb	r3, r3
 141:i2c_master.c  **** }
 674              		.loc 1 141 0
 675 003c 1800     		movs	r0, r3
 676 003e BD46     		mov	sp, r7
 677 0040 02B0     		add	sp, sp, #8
 678              		@ sp needed
 679 0042 80BD     		pop	{r7, pc}
 680              		.cfi_endproc
 681              	.LFE43:
 682              		.size	DisableAllChannels, .-DisableAllChannels
 683              		.section	.text.WriteReg,"ax",%progbits
 684              		.align	2
 685              		.global	WriteReg
 686              		.code	16
 687              		.thumb_func
 688              		.type	WriteReg, %function
 689              	WriteReg:
 690              	.LFB44:
 142:i2c_master.c  **** 
 143:i2c_master.c  **** void WriteReg(uint8 reg, uint8 value) {
 691              		.loc 1 143 0
 692              		.cfi_startproc
 693              		@ args = 0, pretend = 0, frame = 16
 694              		@ frame_needed = 1, uses_anonymous_args = 0
 695 0000 80B5     		push	{r7, lr}
 696              		.cfi_def_cfa_offset 8
 697              		.cfi_offset 7, -8
 698              		.cfi_offset 14, -4
ARM GAS  C:\Users\alexport\AppData\Local\Temp\cc8gQCAZ.s 			page 16


 699 0002 84B0     		sub	sp, sp, #16
 700              		.cfi_def_cfa_offset 24
 701 0004 00AF     		add	r7, sp, #0
 702              		.cfi_def_cfa_register 7
 703 0006 0200     		movs	r2, r0
 704 0008 FB1D     		adds	r3, r7, #7
 705 000a 1A70     		strb	r2, [r3]
 706 000c BB1D     		adds	r3, r7, #6
 707 000e 0A1C     		adds	r2, r1, #0
 708 0010 1A70     		strb	r2, [r3]
 144:i2c_master.c  ****     uint8 buf[2] = {reg, value};
 709              		.loc 1 144 0
 710 0012 0C23     		movs	r3, #12
 711 0014 FB18     		adds	r3, r7, r3
 712 0016 FA1D     		adds	r2, r7, #7
 713 0018 1278     		ldrb	r2, [r2]
 714 001a 1A70     		strb	r2, [r3]
 715 001c 0C23     		movs	r3, #12
 716 001e FB18     		adds	r3, r7, r3
 717 0020 BA1D     		adds	r2, r7, #6
 718 0022 1278     		ldrb	r2, [r2]
 719 0024 5A70     		strb	r2, [r3, #1]
 145:i2c_master.c  ****     I2C_I2CMasterWriteBuf(I2C_LED_SLAVE_ADDR, buf, 2, I2C_I2C_MODE_COMPLETE_XFER);
 720              		.loc 1 145 0
 721 0026 0C23     		movs	r3, #12
 722 0028 F918     		adds	r1, r7, r3
 723 002a 0023     		movs	r3, #0
 724 002c 0222     		movs	r2, #2
 725 002e 6020     		movs	r0, #96
 726 0030 FFF7FEFF 		bl	I2C_I2CMasterWriteBuf
 146:i2c_master.c  ****     while(I2C_I2CMasterStatus() & I2C_I2C_MSTAT_XFER_INP);
 727              		.loc 1 146 0
 728 0034 C046     		nop
 729              	.L31:
 730              		.loc 1 146 0 is_stmt 0 discriminator 1
 731 0036 FFF7FEFF 		bl	I2C_I2CMasterStatus
 732 003a 0200     		movs	r2, r0
 733 003c 0423     		movs	r3, #4
 734 003e 1340     		ands	r3, r2
 735 0040 F9D1     		bne	.L31
 147:i2c_master.c  **** }
 736              		.loc 1 147 0 is_stmt 1
 737 0042 C046     		nop
 738 0044 BD46     		mov	sp, r7
 739 0046 04B0     		add	sp, sp, #16
 740              		@ sp needed
 741 0048 80BD     		pop	{r7, pc}
 742              		.cfi_endproc
 743              	.LFE44:
 744              		.size	WriteReg, .-WriteReg
 745 004a C046     		.section	.text.I2C_Recover,"ax",%progbits
 746              		.align	2
 747              		.global	I2C_Recover
 748              		.code	16
 749              		.thumb_func
 750              		.type	I2C_Recover, %function
 751              	I2C_Recover:
ARM GAS  C:\Users\alexport\AppData\Local\Temp\cc8gQCAZ.s 			page 17


 752              	.LFB45:
 148:i2c_master.c  **** 
 149:i2c_master.c  **** 
 150:i2c_master.c  **** 
 151:i2c_master.c  **** void I2C_Recover(){
 753              		.loc 1 151 0
 754              		.cfi_startproc
 755              		@ args = 0, pretend = 0, frame = 0
 756              		@ frame_needed = 1, uses_anonymous_args = 0
 757 0000 80B5     		push	{r7, lr}
 758              		.cfi_def_cfa_offset 8
 759              		.cfi_offset 7, -8
 760              		.cfi_offset 14, -4
 761 0002 00AF     		add	r7, sp, #0
 762              		.cfi_def_cfa_register 7
 152:i2c_master.c  ****     I2C_Stop();
 763              		.loc 1 152 0
 764 0004 FFF7FEFF 		bl	I2C_Stop
 153:i2c_master.c  ****     I2C_Start();
 765              		.loc 1 153 0
 766 0008 FFF7FEFF 		bl	I2C_Start
 154:i2c_master.c  **** }
 767              		.loc 1 154 0
 768 000c C046     		nop
 769 000e BD46     		mov	sp, r7
 770              		@ sp needed
 771 0010 80BD     		pop	{r7, pc}
 772              		.cfi_endproc
 773              	.LFE45:
 774              		.size	I2C_Recover, .-I2C_Recover
 775 0012 C046     		.bss
 776              	theResult.8530:
 777 0000 00       		.space	1
 778              		.text
 779              	.Letext0:
 780              		.file 2 "c:\\program files (x86)\\cypress\\psoc creator\\4.4\\psoc creator\\import\\gnu\\arm\\5.4.
 781              		.file 3 "c:\\program files (x86)\\cypress\\psoc creator\\4.4\\psoc creator\\import\\gnu\\arm\\5.4.
 782              		.file 4 "Generated_Source\\PSoC4/cytypes.h"
 783              		.file 5 "Generated_Source\\PSoC4/blue_Stack.h"
 784              		.file 6 "Generated_Source\\PSoC4/blue_dis.h"
 785              		.section	.debug_info,"",%progbits
 786              	.Ldebug_info0:
 787 0000 D9050000 		.4byte	0x5d9
 788 0004 0400     		.2byte	0x4
 789 0006 00000000 		.4byte	.Ldebug_abbrev0
 790 000a 04       		.byte	0x4
 791 000b 01       		.uleb128 0x1
 792 000c B9050000 		.4byte	.LASF125
 793 0010 0C       		.byte	0xc
 794 0011 0E010000 		.4byte	.LASF126
 795 0015 130B0000 		.4byte	.LASF127
 796 0019 00000000 		.4byte	.Ldebug_ranges0+0
 797 001d 00000000 		.4byte	0
 798 0021 00000000 		.4byte	.Ldebug_line0
 799 0025 02       		.uleb128 0x2
 800 0026 01       		.byte	0x1
 801 0027 06       		.byte	0x6
ARM GAS  C:\Users\alexport\AppData\Local\Temp\cc8gQCAZ.s 			page 18


 802 0028 0D020000 		.4byte	.LASF0
 803 002c 03       		.uleb128 0x3
 804 002d 04010000 		.4byte	.LASF5
 805 0031 02       		.byte	0x2
 806 0032 1D       		.byte	0x1d
 807 0033 37000000 		.4byte	0x37
 808 0037 02       		.uleb128 0x2
 809 0038 01       		.byte	0x1
 810 0039 08       		.byte	0x8
 811 003a AF080000 		.4byte	.LASF1
 812 003e 02       		.uleb128 0x2
 813 003f 02       		.byte	0x2
 814 0040 05       		.byte	0x5
 815 0041 D2080000 		.4byte	.LASF2
 816 0045 02       		.uleb128 0x2
 817 0046 02       		.byte	0x2
 818 0047 07       		.byte	0x7
 819 0048 B8040000 		.4byte	.LASF3
 820 004c 02       		.uleb128 0x2
 821 004d 04       		.byte	0x4
 822 004e 05       		.byte	0x5
 823 004f 40010000 		.4byte	.LASF4
 824 0053 03       		.uleb128 0x3
 825 0054 66030000 		.4byte	.LASF6
 826 0058 02       		.byte	0x2
 827 0059 41       		.byte	0x41
 828 005a 5E000000 		.4byte	0x5e
 829 005e 02       		.uleb128 0x2
 830 005f 04       		.byte	0x4
 831 0060 07       		.byte	0x7
 832 0061 04040000 		.4byte	.LASF7
 833 0065 02       		.uleb128 0x2
 834 0066 08       		.byte	0x8
 835 0067 05       		.byte	0x5
 836 0068 FF010000 		.4byte	.LASF8
 837 006c 02       		.uleb128 0x2
 838 006d 08       		.byte	0x8
 839 006e 07       		.byte	0x7
 840 006f 49010000 		.4byte	.LASF9
 841 0073 04       		.uleb128 0x4
 842 0074 04       		.byte	0x4
 843 0075 05       		.byte	0x5
 844 0076 696E7400 		.ascii	"int\000"
 845 007a 02       		.uleb128 0x2
 846 007b 04       		.byte	0x4
 847 007c 07       		.byte	0x7
 848 007d C6030000 		.4byte	.LASF10
 849 0081 03       		.uleb128 0x3
 850 0082 710B0000 		.4byte	.LASF11
 851 0086 03       		.byte	0x3
 852 0087 18       		.byte	0x18
 853 0088 2C000000 		.4byte	0x2c
 854 008c 03       		.uleb128 0x3
 855 008d 0A0B0000 		.4byte	.LASF12
 856 0091 03       		.byte	0x3
 857 0092 30       		.byte	0x30
 858 0093 53000000 		.4byte	0x53
ARM GAS  C:\Users\alexport\AppData\Local\Temp\cc8gQCAZ.s 			page 19


 859 0097 05       		.uleb128 0x5
 860 0098 AD040000 		.4byte	.LASF13
 861 009c 04       		.byte	0x4
 862 009d FC01     		.2byte	0x1fc
 863 009f 37000000 		.4byte	0x37
 864 00a3 05       		.uleb128 0x5
 865 00a4 3F000000 		.4byte	.LASF14
 866 00a8 04       		.byte	0x4
 867 00a9 FD01     		.2byte	0x1fd
 868 00ab 45000000 		.4byte	0x45
 869 00af 05       		.uleb128 0x5
 870 00b0 3A030000 		.4byte	.LASF15
 871 00b4 04       		.byte	0x4
 872 00b5 FE01     		.2byte	0x1fe
 873 00b7 5E000000 		.4byte	0x5e
 874 00bb 02       		.uleb128 0x2
 875 00bc 04       		.byte	0x4
 876 00bd 04       		.byte	0x4
 877 00be 91080000 		.4byte	.LASF16
 878 00c2 02       		.uleb128 0x2
 879 00c3 08       		.byte	0x8
 880 00c4 04       		.byte	0x4
 881 00c5 09030000 		.4byte	.LASF17
 882 00c9 02       		.uleb128 0x2
 883 00ca 01       		.byte	0x1
 884 00cb 08       		.byte	0x8
 885 00cc EA090000 		.4byte	.LASF18
 886 00d0 02       		.uleb128 0x2
 887 00d1 08       		.byte	0x8
 888 00d2 04       		.byte	0x4
 889 00d3 AF090000 		.4byte	.LASF19
 890 00d7 02       		.uleb128 0x2
 891 00d8 04       		.byte	0x4
 892 00d9 07       		.byte	0x7
 893 00da 36070000 		.4byte	.LASF20
 894 00de 06       		.uleb128 0x6
 895 00df 04       		.byte	0x4
 896 00e0 97000000 		.4byte	0x97
 897 00e4 07       		.uleb128 0x7
 898 00e5 01       		.byte	0x1
 899 00e6 37000000 		.4byte	0x37
 900 00ea 05       		.byte	0x5
 901 00eb 3501     		.2byte	0x135
 902 00ed A2020000 		.4byte	0x2a2
 903 00f1 08       		.uleb128 0x8
 904 00f2 CB040000 		.4byte	.LASF21
 905 00f6 00       		.byte	0
 906 00f7 08       		.uleb128 0x8
 907 00f8 19020000 		.4byte	.LASF22
 908 00fc 01       		.byte	0x1
 909 00fd 08       		.uleb128 0x8
 910 00fe 2E010000 		.4byte	.LASF23
 911 0102 02       		.byte	0x2
 912 0103 08       		.uleb128 0x8
 913 0104 F10A0000 		.4byte	.LASF24
 914 0108 03       		.byte	0x3
 915 0109 08       		.uleb128 0x8
ARM GAS  C:\Users\alexport\AppData\Local\Temp\cc8gQCAZ.s 			page 20


 916 010a 60010000 		.4byte	.LASF25
 917 010e 04       		.byte	0x4
 918 010f 08       		.uleb128 0x8
 919 0110 23000000 		.4byte	.LASF26
 920 0114 05       		.byte	0x5
 921 0115 08       		.uleb128 0x8
 922 0116 00050000 		.4byte	.LASF27
 923 011a 06       		.byte	0x6
 924 011b 08       		.uleb128 0x8
 925 011c 8A060000 		.4byte	.LASF28
 926 0120 20       		.byte	0x20
 927 0121 08       		.uleb128 0x8
 928 0122 4B020000 		.4byte	.LASF29
 929 0126 21       		.byte	0x21
 930 0127 08       		.uleb128 0x8
 931 0128 38050000 		.4byte	.LASF30
 932 012c 22       		.byte	0x22
 933 012d 08       		.uleb128 0x8
 934 012e CB0A0000 		.4byte	.LASF31
 935 0132 23       		.byte	0x23
 936 0133 08       		.uleb128 0x8
 937 0134 E3070000 		.4byte	.LASF32
 938 0138 24       		.byte	0x24
 939 0139 08       		.uleb128 0x8
 940 013a 3F070000 		.4byte	.LASF33
 941 013e 25       		.byte	0x25
 942 013f 08       		.uleb128 0x8
 943 0140 A4020000 		.4byte	.LASF34
 944 0144 26       		.byte	0x26
 945 0145 08       		.uleb128 0x8
 946 0146 5C050000 		.4byte	.LASF35
 947 014a 27       		.byte	0x27
 948 014b 08       		.uleb128 0x8
 949 014c EF090000 		.4byte	.LASF36
 950 0150 28       		.byte	0x28
 951 0151 08       		.uleb128 0x8
 952 0152 B9010000 		.4byte	.LASF37
 953 0156 29       		.byte	0x29
 954 0157 08       		.uleb128 0x8
 955 0158 72000000 		.4byte	.LASF38
 956 015c 2A       		.byte	0x2a
 957 015d 08       		.uleb128 0x8
 958 015e 2C020000 		.4byte	.LASF39
 959 0162 2B       		.byte	0x2b
 960 0163 08       		.uleb128 0x8
 961 0164 A00B0000 		.4byte	.LASF40
 962 0168 2C       		.byte	0x2c
 963 0169 08       		.uleb128 0x8
 964 016a D6010000 		.4byte	.LASF41
 965 016e 2D       		.byte	0x2d
 966 016f 08       		.uleb128 0x8
 967 0170 440A0000 		.4byte	.LASF42
 968 0174 2E       		.byte	0x2e
 969 0175 08       		.uleb128 0x8
 970 0176 BC000000 		.4byte	.LASF43
 971 017a 2F       		.byte	0x2f
 972 017b 08       		.uleb128 0x8
ARM GAS  C:\Users\alexport\AppData\Local\Temp\cc8gQCAZ.s 			page 21


 973 017c A5070000 		.4byte	.LASF44
 974 0180 30       		.byte	0x30
 975 0181 08       		.uleb128 0x8
 976 0182 1B0C0000 		.4byte	.LASF45
 977 0186 31       		.byte	0x31
 978 0187 08       		.uleb128 0x8
 979 0188 84070000 		.4byte	.LASF46
 980 018c 32       		.byte	0x32
 981 018d 08       		.uleb128 0x8
 982 018e 88090000 		.4byte	.LASF47
 983 0192 33       		.byte	0x33
 984 0193 08       		.uleb128 0x8
 985 0194 16040000 		.4byte	.LASF48
 986 0198 34       		.byte	0x34
 987 0199 08       		.uleb128 0x8
 988 019a C6070000 		.4byte	.LASF49
 989 019e 35       		.byte	0x35
 990 019f 08       		.uleb128 0x8
 991 01a0 7B050000 		.4byte	.LASF50
 992 01a4 36       		.byte	0x36
 993 01a5 08       		.uleb128 0x8
 994 01a6 C2060000 		.4byte	.LASF51
 995 01aa 37       		.byte	0x37
 996 01ab 08       		.uleb128 0x8
 997 01ac 6E090000 		.4byte	.LASF52
 998 01b0 40       		.byte	0x40
 999 01b1 08       		.uleb128 0x8
 1000 01b2 53060000 		.4byte	.LASF53
 1001 01b6 41       		.byte	0x41
 1002 01b7 08       		.uleb128 0x8
 1003 01b8 5B0C0000 		.4byte	.LASF54
 1004 01bc 42       		.byte	0x42
 1005 01bd 08       		.uleb128 0x8
 1006 01be CC020000 		.4byte	.LASF55
 1007 01c2 43       		.byte	0x43
 1008 01c3 08       		.uleb128 0x8
 1009 01c4 48040000 		.4byte	.LASF56
 1010 01c8 44       		.byte	0x44
 1011 01c9 08       		.uleb128 0x8
 1012 01ca 6A080000 		.4byte	.LASF57
 1013 01ce 45       		.byte	0x45
 1014 01cf 08       		.uleb128 0x8
 1015 01d0 15070000 		.4byte	.LASF58
 1016 01d4 46       		.byte	0x46
 1017 01d5 08       		.uleb128 0x8
 1018 01d6 E2040000 		.4byte	.LASF59
 1019 01da 47       		.byte	0x47
 1020 01db 08       		.uleb128 0x8
 1021 01dc 790B0000 		.4byte	.LASF60
 1022 01e0 48       		.byte	0x48
 1023 01e1 08       		.uleb128 0x8
 1024 01e2 62020000 		.4byte	.LASF61
 1025 01e6 49       		.byte	0x49
 1026 01e7 08       		.uleb128 0x8
 1027 01e8 8B0A0000 		.4byte	.LASF62
 1028 01ec 4A       		.byte	0x4a
 1029 01ed 08       		.uleb128 0x8
ARM GAS  C:\Users\alexport\AppData\Local\Temp\cc8gQCAZ.s 			page 22


 1030 01ee E5000000 		.4byte	.LASF63
 1031 01f2 4B       		.byte	0x4b
 1032 01f3 08       		.uleb128 0x8
 1033 01f4 2E040000 		.4byte	.LASF64
 1034 01f8 4C       		.byte	0x4c
 1035 01f9 08       		.uleb128 0x8
 1036 01fa 6A070000 		.4byte	.LASF65
 1037 01fe 4D       		.byte	0x4d
 1038 01ff 08       		.uleb128 0x8
 1039 0200 7B020000 		.4byte	.LASF66
 1040 0204 4E       		.byte	0x4e
 1041 0205 08       		.uleb128 0x8
 1042 0206 26090000 		.4byte	.LASF67
 1043 020a 4F       		.byte	0x4f
 1044 020b 08       		.uleb128 0x8
 1045 020c 19050000 		.4byte	.LASF68
 1046 0210 50       		.byte	0x50
 1047 0211 08       		.uleb128 0x8
 1048 0212 EA020000 		.4byte	.LASF69
 1049 0216 51       		.byte	0x51
 1050 0217 08       		.uleb128 0x8
 1051 0218 13080000 		.4byte	.LASF70
 1052 021c 52       		.byte	0x52
 1053 021d 08       		.uleb128 0x8
 1054 021e DC080000 		.4byte	.LASF71
 1055 0222 53       		.byte	0x53
 1056 0223 08       		.uleb128 0x8
 1057 0224 4D090000 		.4byte	.LASF72
 1058 0228 54       		.byte	0x54
 1059 0229 08       		.uleb128 0x8
 1060 022a 66040000 		.4byte	.LASF73
 1061 022e 55       		.byte	0x55
 1062 022f 08       		.uleb128 0x8
 1063 0230 A4030000 		.4byte	.LASF74
 1064 0234 56       		.byte	0x56
 1065 0235 08       		.uleb128 0x8
 1066 0236 110A0000 		.4byte	.LASF75
 1067 023a 57       		.byte	0x57
 1068 023b 08       		.uleb128 0x8
 1069 023c 8A040000 		.4byte	.LASF76
 1070 0240 58       		.byte	0x58
 1071 0241 08       		.uleb128 0x8
 1072 0242 93010000 		.4byte	.LASF77
 1073 0246 70       		.byte	0x70
 1074 0247 08       		.uleb128 0x8
 1075 0248 EE0B0000 		.4byte	.LASF78
 1076 024c 71       		.byte	0x71
 1077 024d 08       		.uleb128 0x8
 1078 024e 6E060000 		.4byte	.LASF79
 1079 0252 72       		.byte	0x72
 1080 0253 08       		.uleb128 0x8
 1081 0254 F7060000 		.4byte	.LASF80
 1082 0258 73       		.byte	0x73
 1083 0259 08       		.uleb128 0x8
 1084 025a 4C080000 		.4byte	.LASF81
 1085 025e 74       		.byte	0x74
 1086 025f 08       		.uleb128 0x8
ARM GAS  C:\Users\alexport\AppData\Local\Temp\cc8gQCAZ.s 			page 23


 1087 0260 C40B0000 		.4byte	.LASF82
 1088 0264 75       		.byte	0x75
 1089 0265 08       		.uleb128 0x8
 1090 0266 9B000000 		.4byte	.LASF83
 1091 026a 76       		.byte	0x76
 1092 026b 08       		.uleb128 0x8
 1093 026c 53000000 		.4byte	.LASF84
 1094 0270 77       		.byte	0x77
 1095 0271 08       		.uleb128 0x8
 1096 0272 00000000 		.4byte	.LASF85
 1097 0276 78       		.byte	0x78
 1098 0277 08       		.uleb128 0x8
 1099 0278 680A0000 		.4byte	.LASF86
 1100 027c 79       		.byte	0x79
 1101 027d 08       		.uleb128 0x8
 1102 027e 71030000 		.4byte	.LASF87
 1103 0282 7A       		.byte	0x7a
 1104 0283 08       		.uleb128 0x8
 1105 0284 75010000 		.4byte	.LASF88
 1106 0288 FA       		.byte	0xfa
 1107 0289 08       		.uleb128 0x8
 1108 028a DF030000 		.4byte	.LASF89
 1109 028e FB       		.byte	0xfb
 1110 028f 08       		.uleb128 0x8
 1111 0290 FD080000 		.4byte	.LASF90
 1112 0294 FC       		.byte	0xfc
 1113 0295 08       		.uleb128 0x8
 1114 0296 BB090000 		.4byte	.LASF91
 1115 029a FD       		.byte	0xfd
 1116 029b 08       		.uleb128 0x8
 1117 029c 58030000 		.4byte	.LASF92
 1118 02a0 FF       		.byte	0xff
 1119 02a1 00       		.byte	0
 1120 02a2 09       		.uleb128 0x9
 1121 02a3 01       		.byte	0x1
 1122 02a4 37000000 		.4byte	0x37
 1123 02a8 06       		.byte	0x6
 1124 02a9 22       		.byte	0x22
 1125 02aa EB020000 		.4byte	0x2eb
 1126 02ae 08       		.uleb128 0x8
 1127 02af 3F0C0000 		.4byte	.LASF93
 1128 02b3 00       		.byte	0
 1129 02b4 08       		.uleb128 0x8
 1130 02b5 D3090000 		.4byte	.LASF94
 1131 02b9 01       		.byte	0x1
 1132 02ba 08       		.uleb128 0x8
 1133 02bb 97080000 		.4byte	.LASF95
 1134 02bf 02       		.byte	0x2
 1135 02c0 08       		.uleb128 0x8
 1136 02c1 41030000 		.4byte	.LASF96
 1137 02c5 03       		.byte	0x3
 1138 02c6 08       		.uleb128 0x8
 1139 02c7 23030000 		.4byte	.LASF97
 1140 02cb 04       		.byte	0x4
 1141 02cc 08       		.uleb128 0x8
 1142 02cd 0F090000 		.4byte	.LASF98
 1143 02d1 05       		.byte	0x5
ARM GAS  C:\Users\alexport\AppData\Local\Temp\cc8gQCAZ.s 			page 24


 1144 02d2 08       		.uleb128 0x8
 1145 02d3 AE060000 		.4byte	.LASF99
 1146 02d7 06       		.byte	0x6
 1147 02d8 08       		.uleb128 0x8
 1148 02d9 34080000 		.4byte	.LASF100
 1149 02dd 07       		.byte	0x7
 1150 02de 08       		.uleb128 0x8
 1151 02df A8050000 		.4byte	.LASF101
 1152 02e3 08       		.byte	0x8
 1153 02e4 08       		.uleb128 0x8
 1154 02e5 BD080000 		.4byte	.LASF102
 1155 02e9 09       		.byte	0x9
 1156 02ea 00       		.byte	0
 1157 02eb 0A       		.uleb128 0xa
 1158 02ec B20A0000 		.4byte	.LASF103
 1159 02f0 01       		.byte	0x1
 1160 02f1 12       		.byte	0x12
 1161 02f2 8C000000 		.4byte	0x8c
 1162 02f6 00000000 		.4byte	.LFB35
 1163 02fa 2E000000 		.4byte	.LFE35-.LFB35
 1164 02fe 01       		.uleb128 0x1
 1165 02ff 9C       		.byte	0x9c
 1166 0300 21030000 		.4byte	0x321
 1167 0304 0B       		.uleb128 0xb
 1168 0305 FE030000 		.4byte	.LASF105
 1169 0309 01       		.byte	0x1
 1170 030a 12       		.byte	0x12
 1171 030b 97000000 		.4byte	0x97
 1172 030f 02       		.uleb128 0x2
 1173 0310 91       		.byte	0x91
 1174 0311 6F       		.sleb128 -17
 1175 0312 0C       		.uleb128 0xc
 1176 0313 580B0000 		.4byte	.LASF107
 1177 0317 01       		.byte	0x1
 1178 0318 13       		.byte	0x13
 1179 0319 8C000000 		.4byte	0x8c
 1180 031d 02       		.uleb128 0x2
 1181 031e 91       		.byte	0x91
 1182 031f 74       		.sleb128 -12
 1183 0320 00       		.byte	0
 1184 0321 0A       		.uleb128 0xa
 1185 0322 99020000 		.4byte	.LASF104
 1186 0326 01       		.byte	0x1
 1187 0327 1B       		.byte	0x1b
 1188 0328 97000000 		.4byte	0x97
 1189 032c 00000000 		.4byte	.LFB36
 1190 0330 68000000 		.4byte	.LFE36-.LFB36
 1191 0334 01       		.uleb128 0x1
 1192 0335 9C       		.byte	0x9c
 1193 0336 76030000 		.4byte	0x376
 1194 033a 0B       		.uleb128 0xb
 1195 033b FE030000 		.4byte	.LASF105
 1196 033f 01       		.byte	0x1
 1197 0340 1B       		.byte	0x1b
 1198 0341 97000000 		.4byte	0x97
 1199 0345 02       		.uleb128 0x2
 1200 0346 91       		.byte	0x91
ARM GAS  C:\Users\alexport\AppData\Local\Temp\cc8gQCAZ.s 			page 25


 1201 0347 6F       		.sleb128 -17
 1202 0348 0B       		.uleb128 0xb
 1203 0349 59070000 		.4byte	.LASF106
 1204 034d 01       		.byte	0x1
 1205 034e 1B       		.byte	0x1b
 1206 034f 97000000 		.4byte	0x97
 1207 0353 02       		.uleb128 0x2
 1208 0354 91       		.byte	0x91
 1209 0355 6E       		.sleb128 -18
 1210 0356 0C       		.uleb128 0xc
 1211 0357 3A0A0000 		.4byte	.LASF108
 1212 035b 01       		.byte	0x1
 1213 035c 1D       		.byte	0x1d
 1214 035d 97000000 		.4byte	0x97
 1215 0361 05       		.uleb128 0x5
 1216 0362 03       		.byte	0x3
 1217 0363 00000000 		.4byte	theResult.8530
 1218 0367 0C       		.uleb128 0xc
 1219 0368 580B0000 		.4byte	.LASF107
 1220 036c 01       		.byte	0x1
 1221 036d 1E       		.byte	0x1e
 1222 036e 81000000 		.4byte	0x81
 1223 0372 02       		.uleb128 0x2
 1224 0373 91       		.byte	0x91
 1225 0374 77       		.sleb128 -9
 1226 0375 00       		.byte	0
 1227 0376 0A       		.uleb128 0xa
 1228 0377 47060000 		.4byte	.LASF109
 1229 037b 01       		.byte	0x1
 1230 037c 29       		.byte	0x29
 1231 037d A3000000 		.4byte	0xa3
 1232 0381 00000000 		.4byte	.LFB37
 1233 0385 6E000000 		.4byte	.LFE37-.LFB37
 1234 0389 01       		.uleb128 0x1
 1235 038a 9C       		.byte	0x9c
 1236 038b BA030000 		.4byte	0x3ba
 1237 038f 0B       		.uleb128 0xb
 1238 0390 FE030000 		.4byte	.LASF105
 1239 0394 01       		.byte	0x1
 1240 0395 29       		.byte	0x29
 1241 0396 97000000 		.4byte	0x97
 1242 039a 02       		.uleb128 0x2
 1243 039b 91       		.byte	0x91
 1244 039c 6F       		.sleb128 -17
 1245 039d 0B       		.uleb128 0xb
 1246 039e 59070000 		.4byte	.LASF106
 1247 03a2 01       		.byte	0x1
 1248 03a3 29       		.byte	0x29
 1249 03a4 97000000 		.4byte	0x97
 1250 03a8 02       		.uleb128 0x2
 1251 03a9 91       		.byte	0x91
 1252 03aa 6E       		.sleb128 -18
 1253 03ab 0C       		.uleb128 0xc
 1254 03ac 3A0A0000 		.4byte	.LASF108
 1255 03b0 01       		.byte	0x1
 1256 03b1 2B       		.byte	0x2b
 1257 03b2 A3000000 		.4byte	0xa3
ARM GAS  C:\Users\alexport\AppData\Local\Temp\cc8gQCAZ.s 			page 26


 1258 03b6 02       		.uleb128 0x2
 1259 03b7 91       		.byte	0x91
 1260 03b8 76       		.sleb128 -10
 1261 03b9 00       		.byte	0
 1262 03ba 0D       		.uleb128 0xd
 1263 03bb D3030000 		.4byte	.LASF111
 1264 03bf 01       		.byte	0x1
 1265 03c0 33       		.byte	0x33
 1266 03c1 00000000 		.4byte	.LFB38
 1267 03c5 5C000000 		.4byte	.LFE38-.LFB38
 1268 03c9 01       		.uleb128 0x1
 1269 03ca 9C       		.byte	0x9c
 1270 03cb FA030000 		.4byte	0x3fa
 1271 03cf 0B       		.uleb128 0xb
 1272 03d0 FE030000 		.4byte	.LASF105
 1273 03d4 01       		.byte	0x1
 1274 03d5 33       		.byte	0x33
 1275 03d6 97000000 		.4byte	0x97
 1276 03da 02       		.uleb128 0x2
 1277 03db 91       		.byte	0x91
 1278 03dc 6F       		.sleb128 -17
 1279 03dd 0B       		.uleb128 0xb
 1280 03de 59070000 		.4byte	.LASF106
 1281 03e2 01       		.byte	0x1
 1282 03e3 33       		.byte	0x33
 1283 03e4 97000000 		.4byte	0x97
 1284 03e8 02       		.uleb128 0x2
 1285 03e9 91       		.byte	0x91
 1286 03ea 6E       		.sleb128 -18
 1287 03eb 0B       		.uleb128 0xb
 1288 03ec B3040000 		.4byte	.LASF110
 1289 03f0 01       		.byte	0x1
 1290 03f1 33       		.byte	0x33
 1291 03f2 97000000 		.4byte	0x97
 1292 03f6 02       		.uleb128 0x2
 1293 03f7 91       		.byte	0x91
 1294 03f8 6D       		.sleb128 -19
 1295 03f9 00       		.byte	0
 1296 03fa 0D       		.uleb128 0xd
 1297 03fb 46000000 		.4byte	.LASF112
 1298 03ff 01       		.byte	0x1
 1299 0400 3F       		.byte	0x3f
 1300 0401 00000000 		.4byte	.LFB39
 1301 0405 76000000 		.4byte	.LFE39-.LFB39
 1302 0409 01       		.uleb128 0x1
 1303 040a 9C       		.byte	0x9c
 1304 040b 48040000 		.4byte	0x448
 1305 040f 0B       		.uleb128 0xb
 1306 0410 FE030000 		.4byte	.LASF105
 1307 0414 01       		.byte	0x1
 1308 0415 3F       		.byte	0x3f
 1309 0416 97000000 		.4byte	0x97
 1310 041a 02       		.uleb128 0x2
 1311 041b 91       		.byte	0x91
 1312 041c 67       		.sleb128 -25
 1313 041d 0B       		.uleb128 0xb
 1314 041e 59070000 		.4byte	.LASF106
ARM GAS  C:\Users\alexport\AppData\Local\Temp\cc8gQCAZ.s 			page 27


 1315 0422 01       		.byte	0x1
 1316 0423 3F       		.byte	0x3f
 1317 0424 97000000 		.4byte	0x97
 1318 0428 02       		.uleb128 0x2
 1319 0429 91       		.byte	0x91
 1320 042a 66       		.sleb128 -26
 1321 042b 0B       		.uleb128 0xb
 1322 042c B3040000 		.4byte	.LASF110
 1323 0430 01       		.byte	0x1
 1324 0431 3F       		.byte	0x3f
 1325 0432 A3000000 		.4byte	0xa3
 1326 0436 02       		.uleb128 0x2
 1327 0437 91       		.byte	0x91
 1328 0438 64       		.sleb128 -28
 1329 0439 0C       		.uleb128 0xc
 1330 043a 07080000 		.4byte	.LASF113
 1331 043e 01       		.byte	0x1
 1332 043f 41       		.byte	0x41
 1333 0440 97000000 		.4byte	0x97
 1334 0444 02       		.uleb128 0x2
 1335 0445 91       		.byte	0x91
 1336 0446 6F       		.sleb128 -17
 1337 0447 00       		.byte	0
 1338 0448 0A       		.uleb128 0xa
 1339 0449 5F0B0000 		.4byte	.LASF114
 1340 044d 01       		.byte	0x1
 1341 044e 4B       		.byte	0x4b
 1342 044f AF000000 		.4byte	0xaf
 1343 0453 00000000 		.4byte	.LFB40
 1344 0457 7E000000 		.4byte	.LFE40-.LFB40
 1345 045b 01       		.uleb128 0x1
 1346 045c 9C       		.byte	0x9c
 1347 045d A8040000 		.4byte	0x4a8
 1348 0461 0E       		.uleb128 0xe
 1349 0462 52656700 		.ascii	"Reg\000"
 1350 0466 01       		.byte	0x1
 1351 0467 4B       		.byte	0x4b
 1352 0468 97000000 		.4byte	0x97
 1353 046c 02       		.uleb128 0x2
 1354 046d 91       		.byte	0x91
 1355 046e 6F       		.sleb128 -17
 1356 046f 0B       		.uleb128 0xb
 1357 0470 95030000 		.4byte	.LASF115
 1358 0474 01       		.byte	0x1
 1359 0475 4B       		.byte	0x4b
 1360 0476 A3000000 		.4byte	0xa3
 1361 047a 02       		.uleb128 0x2
 1362 047b 91       		.byte	0x91
 1363 047c 6C       		.sleb128 -20
 1364 047d 0B       		.uleb128 0xb
 1365 047e FF070000 		.4byte	.LASF116
 1366 0482 01       		.byte	0x1
 1367 0483 4B       		.byte	0x4b
 1368 0484 DE000000 		.4byte	0xde
 1369 0488 02       		.uleb128 0x2
 1370 0489 91       		.byte	0x91
 1371 048a 68       		.sleb128 -24
ARM GAS  C:\Users\alexport\AppData\Local\Temp\cc8gQCAZ.s 			page 28


 1372 048b 0C       		.uleb128 0xc
 1373 048c 140C0000 		.4byte	.LASF117
 1374 0490 01       		.byte	0x1
 1375 0491 4C       		.byte	0x4c
 1376 0492 A8040000 		.4byte	0x4a8
 1377 0496 02       		.uleb128 0x2
 1378 0497 91       		.byte	0x91
 1379 0498 70       		.sleb128 -16
 1380 0499 0C       		.uleb128 0xc
 1381 049a E50B0000 		.4byte	.LASF118
 1382 049e 01       		.byte	0x1
 1383 049f 4D       		.byte	0x4d
 1384 04a0 AF000000 		.4byte	0xaf
 1385 04a4 02       		.uleb128 0x2
 1386 04a5 91       		.byte	0x91
 1387 04a6 74       		.sleb128 -12
 1388 04a7 00       		.byte	0
 1389 04a8 0F       		.uleb128 0xf
 1390 04a9 97000000 		.4byte	0x97
 1391 04ad B8040000 		.4byte	0x4b8
 1392 04b1 10       		.uleb128 0x10
 1393 04b2 D7000000 		.4byte	0xd7
 1394 04b6 00       		.byte	0
 1395 04b7 00       		.byte	0
 1396 04b8 0A       		.uleb128 0xa
 1397 04b9 1B010000 		.4byte	.LASF119
 1398 04bd 01       		.byte	0x1
 1399 04be 5F       		.byte	0x5f
 1400 04bf AF000000 		.4byte	0xaf
 1401 04c3 00000000 		.4byte	.LFB41
 1402 04c7 30000000 		.4byte	.LFE41-.LFB41
 1403 04cb 01       		.uleb128 0x1
 1404 04cc 9C       		.byte	0x9c
 1405 04cd FC040000 		.4byte	0x4fc
 1406 04d1 0E       		.uleb128 0xe
 1407 04d2 52656700 		.ascii	"Reg\000"
 1408 04d6 01       		.byte	0x1
 1409 04d7 5F       		.byte	0x5f
 1410 04d8 97000000 		.4byte	0x97
 1411 04dc 02       		.uleb128 0x2
 1412 04dd 91       		.byte	0x91
 1413 04de 77       		.sleb128 -9
 1414 04df 0B       		.uleb128 0xb
 1415 04e0 95030000 		.4byte	.LASF115
 1416 04e4 01       		.byte	0x1
 1417 04e5 5F       		.byte	0x5f
 1418 04e6 A3000000 		.4byte	0xa3
 1419 04ea 02       		.uleb128 0x2
 1420 04eb 91       		.byte	0x91
 1421 04ec 74       		.sleb128 -12
 1422 04ed 0B       		.uleb128 0xb
 1423 04ee FF070000 		.4byte	.LASF116
 1424 04f2 01       		.byte	0x1
 1425 04f3 5F       		.byte	0x5f
 1426 04f4 DE000000 		.4byte	0xde
 1427 04f8 02       		.uleb128 0x2
 1428 04f9 91       		.byte	0x91
ARM GAS  C:\Users\alexport\AppData\Local\Temp\cc8gQCAZ.s 			page 29


 1429 04fa 70       		.sleb128 -16
 1430 04fb 00       		.byte	0
 1431 04fc 0A       		.uleb128 0xa
 1432 04fd BD0A0000 		.4byte	.LASF120
 1433 0501 01       		.byte	0x1
 1434 0502 7C       		.byte	0x7c
 1435 0503 81000000 		.4byte	0x81
 1436 0507 00000000 		.4byte	.LFB42
 1437 050b 60000000 		.4byte	.LFE42-.LFB42
 1438 050f 01       		.uleb128 0x1
 1439 0510 9C       		.byte	0x9c
 1440 0511 32050000 		.4byte	0x532
 1441 0515 0B       		.uleb128 0xb
 1442 0516 45090000 		.4byte	.LASF121
 1443 051a 01       		.byte	0x1
 1444 051b 7C       		.byte	0x7c
 1445 051c 81000000 		.4byte	0x81
 1446 0520 02       		.uleb128 0x2
 1447 0521 91       		.byte	0x91
 1448 0522 6F       		.sleb128 -17
 1449 0523 0C       		.uleb128 0xc
 1450 0524 B3040000 		.4byte	.LASF110
 1451 0528 01       		.byte	0x1
 1452 0529 81       		.byte	0x81
 1453 052a 81000000 		.4byte	0x81
 1454 052e 02       		.uleb128 0x2
 1455 052f 91       		.byte	0x91
 1456 0530 77       		.sleb128 -9
 1457 0531 00       		.byte	0
 1458 0532 0A       		.uleb128 0xa
 1459 0533 10030000 		.4byte	.LASF122
 1460 0537 01       		.byte	0x1
 1461 0538 87       		.byte	0x87
 1462 0539 81000000 		.4byte	0x81
 1463 053d 00000000 		.4byte	.LFB43
 1464 0541 44000000 		.4byte	.LFE43-.LFB43
 1465 0545 01       		.uleb128 0x1
 1466 0546 9C       		.byte	0x9c
 1467 0547 5A050000 		.4byte	0x55a
 1468 054b 0C       		.uleb128 0xc
 1469 054c B3040000 		.4byte	.LASF110
 1470 0550 01       		.byte	0x1
 1471 0551 89       		.byte	0x89
 1472 0552 81000000 		.4byte	0x81
 1473 0556 02       		.uleb128 0x2
 1474 0557 91       		.byte	0x91
 1475 0558 77       		.sleb128 -9
 1476 0559 00       		.byte	0
 1477 055a 0D       		.uleb128 0xd
 1478 055b A90A0000 		.4byte	.LASF123
 1479 055f 01       		.byte	0x1
 1480 0560 8F       		.byte	0x8f
 1481 0561 00000000 		.4byte	.LFB44
 1482 0565 4A000000 		.4byte	.LFE44-.LFB44
 1483 0569 01       		.uleb128 0x1
 1484 056a 9C       		.byte	0x9c
 1485 056b 9A050000 		.4byte	0x59a
ARM GAS  C:\Users\alexport\AppData\Local\Temp\cc8gQCAZ.s 			page 30


 1486 056f 0E       		.uleb128 0xe
 1487 0570 72656700 		.ascii	"reg\000"
 1488 0574 01       		.byte	0x1
 1489 0575 8F       		.byte	0x8f
 1490 0576 97000000 		.4byte	0x97
 1491 057a 02       		.uleb128 0x2
 1492 057b 91       		.byte	0x91
 1493 057c 6F       		.sleb128 -17
 1494 057d 0B       		.uleb128 0xb
 1495 057e 9E030000 		.4byte	.LASF124
 1496 0582 01       		.byte	0x1
 1497 0583 8F       		.byte	0x8f
 1498 0584 97000000 		.4byte	0x97
 1499 0588 02       		.uleb128 0x2
 1500 0589 91       		.byte	0x91
 1501 058a 6E       		.sleb128 -18
 1502 058b 11       		.uleb128 0x11
 1503 058c 62756600 		.ascii	"buf\000"
 1504 0590 01       		.byte	0x1
 1505 0591 90       		.byte	0x90
 1506 0592 9A050000 		.4byte	0x59a
 1507 0596 02       		.uleb128 0x2
 1508 0597 91       		.byte	0x91
 1509 0598 74       		.sleb128 -12
 1510 0599 00       		.byte	0
 1511 059a 0F       		.uleb128 0xf
 1512 059b 97000000 		.4byte	0x97
 1513 059f AA050000 		.4byte	0x5aa
 1514 05a3 10       		.uleb128 0x10
 1515 05a4 D7000000 		.4byte	0xd7
 1516 05a8 01       		.byte	0x1
 1517 05a9 00       		.byte	0
 1518 05aa 12       		.uleb128 0x12
 1519 05ab 9C050000 		.4byte	.LASF128
 1520 05af 01       		.byte	0x1
 1521 05b0 97       		.byte	0x97
 1522 05b1 00000000 		.4byte	.LFB45
 1523 05b5 12000000 		.4byte	.LFE45-.LFB45
 1524 05b9 01       		.uleb128 0x1
 1525 05ba 9C       		.byte	0x9c
 1526 05bb 0F       		.uleb128 0xf
 1527 05bc 81000000 		.4byte	0x81
 1528 05c0 CB050000 		.4byte	0x5cb
 1529 05c4 10       		.uleb128 0x10
 1530 05c5 D7000000 		.4byte	0xd7
 1531 05c9 63       		.byte	0x63
 1532 05ca 00       		.byte	0
 1533 05cb 13       		.uleb128 0x13
 1534 05cc 61070000 		.4byte	.LASF129
 1535 05d0 01       		.byte	0x1
 1536 05d1 10       		.byte	0x10
 1537 05d2 BB050000 		.4byte	0x5bb
 1538 05d6 05       		.uleb128 0x5
 1539 05d7 03       		.byte	0x3
 1540 05d8 00000000 		.4byte	slaveBuf
 1541 05dc 00       		.byte	0
 1542              		.section	.debug_abbrev,"",%progbits
ARM GAS  C:\Users\alexport\AppData\Local\Temp\cc8gQCAZ.s 			page 31


 1543              	.Ldebug_abbrev0:
 1544 0000 01       		.uleb128 0x1
 1545 0001 11       		.uleb128 0x11
 1546 0002 01       		.byte	0x1
 1547 0003 25       		.uleb128 0x25
 1548 0004 0E       		.uleb128 0xe
 1549 0005 13       		.uleb128 0x13
 1550 0006 0B       		.uleb128 0xb
 1551 0007 03       		.uleb128 0x3
 1552 0008 0E       		.uleb128 0xe
 1553 0009 1B       		.uleb128 0x1b
 1554 000a 0E       		.uleb128 0xe
 1555 000b 55       		.uleb128 0x55
 1556 000c 17       		.uleb128 0x17
 1557 000d 11       		.uleb128 0x11
 1558 000e 01       		.uleb128 0x1
 1559 000f 10       		.uleb128 0x10
 1560 0010 17       		.uleb128 0x17
 1561 0011 00       		.byte	0
 1562 0012 00       		.byte	0
 1563 0013 02       		.uleb128 0x2
 1564 0014 24       		.uleb128 0x24
 1565 0015 00       		.byte	0
 1566 0016 0B       		.uleb128 0xb
 1567 0017 0B       		.uleb128 0xb
 1568 0018 3E       		.uleb128 0x3e
 1569 0019 0B       		.uleb128 0xb
 1570 001a 03       		.uleb128 0x3
 1571 001b 0E       		.uleb128 0xe
 1572 001c 00       		.byte	0
 1573 001d 00       		.byte	0
 1574 001e 03       		.uleb128 0x3
 1575 001f 16       		.uleb128 0x16
 1576 0020 00       		.byte	0
 1577 0021 03       		.uleb128 0x3
 1578 0022 0E       		.uleb128 0xe
 1579 0023 3A       		.uleb128 0x3a
 1580 0024 0B       		.uleb128 0xb
 1581 0025 3B       		.uleb128 0x3b
 1582 0026 0B       		.uleb128 0xb
 1583 0027 49       		.uleb128 0x49
 1584 0028 13       		.uleb128 0x13
 1585 0029 00       		.byte	0
 1586 002a 00       		.byte	0
 1587 002b 04       		.uleb128 0x4
 1588 002c 24       		.uleb128 0x24
 1589 002d 00       		.byte	0
 1590 002e 0B       		.uleb128 0xb
 1591 002f 0B       		.uleb128 0xb
 1592 0030 3E       		.uleb128 0x3e
 1593 0031 0B       		.uleb128 0xb
 1594 0032 03       		.uleb128 0x3
 1595 0033 08       		.uleb128 0x8
 1596 0034 00       		.byte	0
 1597 0035 00       		.byte	0
 1598 0036 05       		.uleb128 0x5
 1599 0037 16       		.uleb128 0x16
ARM GAS  C:\Users\alexport\AppData\Local\Temp\cc8gQCAZ.s 			page 32


 1600 0038 00       		.byte	0
 1601 0039 03       		.uleb128 0x3
 1602 003a 0E       		.uleb128 0xe
 1603 003b 3A       		.uleb128 0x3a
 1604 003c 0B       		.uleb128 0xb
 1605 003d 3B       		.uleb128 0x3b
 1606 003e 05       		.uleb128 0x5
 1607 003f 49       		.uleb128 0x49
 1608 0040 13       		.uleb128 0x13
 1609 0041 00       		.byte	0
 1610 0042 00       		.byte	0
 1611 0043 06       		.uleb128 0x6
 1612 0044 0F       		.uleb128 0xf
 1613 0045 00       		.byte	0
 1614 0046 0B       		.uleb128 0xb
 1615 0047 0B       		.uleb128 0xb
 1616 0048 49       		.uleb128 0x49
 1617 0049 13       		.uleb128 0x13
 1618 004a 00       		.byte	0
 1619 004b 00       		.byte	0
 1620 004c 07       		.uleb128 0x7
 1621 004d 04       		.uleb128 0x4
 1622 004e 01       		.byte	0x1
 1623 004f 0B       		.uleb128 0xb
 1624 0050 0B       		.uleb128 0xb
 1625 0051 49       		.uleb128 0x49
 1626 0052 13       		.uleb128 0x13
 1627 0053 3A       		.uleb128 0x3a
 1628 0054 0B       		.uleb128 0xb
 1629 0055 3B       		.uleb128 0x3b
 1630 0056 05       		.uleb128 0x5
 1631 0057 01       		.uleb128 0x1
 1632 0058 13       		.uleb128 0x13
 1633 0059 00       		.byte	0
 1634 005a 00       		.byte	0
 1635 005b 08       		.uleb128 0x8
 1636 005c 28       		.uleb128 0x28
 1637 005d 00       		.byte	0
 1638 005e 03       		.uleb128 0x3
 1639 005f 0E       		.uleb128 0xe
 1640 0060 1C       		.uleb128 0x1c
 1641 0061 0B       		.uleb128 0xb
 1642 0062 00       		.byte	0
 1643 0063 00       		.byte	0
 1644 0064 09       		.uleb128 0x9
 1645 0065 04       		.uleb128 0x4
 1646 0066 01       		.byte	0x1
 1647 0067 0B       		.uleb128 0xb
 1648 0068 0B       		.uleb128 0xb
 1649 0069 49       		.uleb128 0x49
 1650 006a 13       		.uleb128 0x13
 1651 006b 3A       		.uleb128 0x3a
 1652 006c 0B       		.uleb128 0xb
 1653 006d 3B       		.uleb128 0x3b
 1654 006e 0B       		.uleb128 0xb
 1655 006f 01       		.uleb128 0x1
 1656 0070 13       		.uleb128 0x13
ARM GAS  C:\Users\alexport\AppData\Local\Temp\cc8gQCAZ.s 			page 33


 1657 0071 00       		.byte	0
 1658 0072 00       		.byte	0
 1659 0073 0A       		.uleb128 0xa
 1660 0074 2E       		.uleb128 0x2e
 1661 0075 01       		.byte	0x1
 1662 0076 3F       		.uleb128 0x3f
 1663 0077 19       		.uleb128 0x19
 1664 0078 03       		.uleb128 0x3
 1665 0079 0E       		.uleb128 0xe
 1666 007a 3A       		.uleb128 0x3a
 1667 007b 0B       		.uleb128 0xb
 1668 007c 3B       		.uleb128 0x3b
 1669 007d 0B       		.uleb128 0xb
 1670 007e 27       		.uleb128 0x27
 1671 007f 19       		.uleb128 0x19
 1672 0080 49       		.uleb128 0x49
 1673 0081 13       		.uleb128 0x13
 1674 0082 11       		.uleb128 0x11
 1675 0083 01       		.uleb128 0x1
 1676 0084 12       		.uleb128 0x12
 1677 0085 06       		.uleb128 0x6
 1678 0086 40       		.uleb128 0x40
 1679 0087 18       		.uleb128 0x18
 1680 0088 9642     		.uleb128 0x2116
 1681 008a 19       		.uleb128 0x19
 1682 008b 01       		.uleb128 0x1
 1683 008c 13       		.uleb128 0x13
 1684 008d 00       		.byte	0
 1685 008e 00       		.byte	0
 1686 008f 0B       		.uleb128 0xb
 1687 0090 05       		.uleb128 0x5
 1688 0091 00       		.byte	0
 1689 0092 03       		.uleb128 0x3
 1690 0093 0E       		.uleb128 0xe
 1691 0094 3A       		.uleb128 0x3a
 1692 0095 0B       		.uleb128 0xb
 1693 0096 3B       		.uleb128 0x3b
 1694 0097 0B       		.uleb128 0xb
 1695 0098 49       		.uleb128 0x49
 1696 0099 13       		.uleb128 0x13
 1697 009a 02       		.uleb128 0x2
 1698 009b 18       		.uleb128 0x18
 1699 009c 00       		.byte	0
 1700 009d 00       		.byte	0
 1701 009e 0C       		.uleb128 0xc
 1702 009f 34       		.uleb128 0x34
 1703 00a0 00       		.byte	0
 1704 00a1 03       		.uleb128 0x3
 1705 00a2 0E       		.uleb128 0xe
 1706 00a3 3A       		.uleb128 0x3a
 1707 00a4 0B       		.uleb128 0xb
 1708 00a5 3B       		.uleb128 0x3b
 1709 00a6 0B       		.uleb128 0xb
 1710 00a7 49       		.uleb128 0x49
 1711 00a8 13       		.uleb128 0x13
 1712 00a9 02       		.uleb128 0x2
 1713 00aa 18       		.uleb128 0x18
ARM GAS  C:\Users\alexport\AppData\Local\Temp\cc8gQCAZ.s 			page 34


 1714 00ab 00       		.byte	0
 1715 00ac 00       		.byte	0
 1716 00ad 0D       		.uleb128 0xd
 1717 00ae 2E       		.uleb128 0x2e
 1718 00af 01       		.byte	0x1
 1719 00b0 3F       		.uleb128 0x3f
 1720 00b1 19       		.uleb128 0x19
 1721 00b2 03       		.uleb128 0x3
 1722 00b3 0E       		.uleb128 0xe
 1723 00b4 3A       		.uleb128 0x3a
 1724 00b5 0B       		.uleb128 0xb
 1725 00b6 3B       		.uleb128 0x3b
 1726 00b7 0B       		.uleb128 0xb
 1727 00b8 27       		.uleb128 0x27
 1728 00b9 19       		.uleb128 0x19
 1729 00ba 11       		.uleb128 0x11
 1730 00bb 01       		.uleb128 0x1
 1731 00bc 12       		.uleb128 0x12
 1732 00bd 06       		.uleb128 0x6
 1733 00be 40       		.uleb128 0x40
 1734 00bf 18       		.uleb128 0x18
 1735 00c0 9642     		.uleb128 0x2116
 1736 00c2 19       		.uleb128 0x19
 1737 00c3 01       		.uleb128 0x1
 1738 00c4 13       		.uleb128 0x13
 1739 00c5 00       		.byte	0
 1740 00c6 00       		.byte	0
 1741 00c7 0E       		.uleb128 0xe
 1742 00c8 05       		.uleb128 0x5
 1743 00c9 00       		.byte	0
 1744 00ca 03       		.uleb128 0x3
 1745 00cb 08       		.uleb128 0x8
 1746 00cc 3A       		.uleb128 0x3a
 1747 00cd 0B       		.uleb128 0xb
 1748 00ce 3B       		.uleb128 0x3b
 1749 00cf 0B       		.uleb128 0xb
 1750 00d0 49       		.uleb128 0x49
 1751 00d1 13       		.uleb128 0x13
 1752 00d2 02       		.uleb128 0x2
 1753 00d3 18       		.uleb128 0x18
 1754 00d4 00       		.byte	0
 1755 00d5 00       		.byte	0
 1756 00d6 0F       		.uleb128 0xf
 1757 00d7 01       		.uleb128 0x1
 1758 00d8 01       		.byte	0x1
 1759 00d9 49       		.uleb128 0x49
 1760 00da 13       		.uleb128 0x13
 1761 00db 01       		.uleb128 0x1
 1762 00dc 13       		.uleb128 0x13
 1763 00dd 00       		.byte	0
 1764 00de 00       		.byte	0
 1765 00df 10       		.uleb128 0x10
 1766 00e0 21       		.uleb128 0x21
 1767 00e1 00       		.byte	0
 1768 00e2 49       		.uleb128 0x49
 1769 00e3 13       		.uleb128 0x13
 1770 00e4 2F       		.uleb128 0x2f
ARM GAS  C:\Users\alexport\AppData\Local\Temp\cc8gQCAZ.s 			page 35


 1771 00e5 0B       		.uleb128 0xb
 1772 00e6 00       		.byte	0
 1773 00e7 00       		.byte	0
 1774 00e8 11       		.uleb128 0x11
 1775 00e9 34       		.uleb128 0x34
 1776 00ea 00       		.byte	0
 1777 00eb 03       		.uleb128 0x3
 1778 00ec 08       		.uleb128 0x8
 1779 00ed 3A       		.uleb128 0x3a
 1780 00ee 0B       		.uleb128 0xb
 1781 00ef 3B       		.uleb128 0x3b
 1782 00f0 0B       		.uleb128 0xb
 1783 00f1 49       		.uleb128 0x49
 1784 00f2 13       		.uleb128 0x13
 1785 00f3 02       		.uleb128 0x2
 1786 00f4 18       		.uleb128 0x18
 1787 00f5 00       		.byte	0
 1788 00f6 00       		.byte	0
 1789 00f7 12       		.uleb128 0x12
 1790 00f8 2E       		.uleb128 0x2e
 1791 00f9 00       		.byte	0
 1792 00fa 3F       		.uleb128 0x3f
 1793 00fb 19       		.uleb128 0x19
 1794 00fc 03       		.uleb128 0x3
 1795 00fd 0E       		.uleb128 0xe
 1796 00fe 3A       		.uleb128 0x3a
 1797 00ff 0B       		.uleb128 0xb
 1798 0100 3B       		.uleb128 0x3b
 1799 0101 0B       		.uleb128 0xb
 1800 0102 11       		.uleb128 0x11
 1801 0103 01       		.uleb128 0x1
 1802 0104 12       		.uleb128 0x12
 1803 0105 06       		.uleb128 0x6
 1804 0106 40       		.uleb128 0x40
 1805 0107 18       		.uleb128 0x18
 1806 0108 9642     		.uleb128 0x2116
 1807 010a 19       		.uleb128 0x19
 1808 010b 00       		.byte	0
 1809 010c 00       		.byte	0
 1810 010d 13       		.uleb128 0x13
 1811 010e 34       		.uleb128 0x34
 1812 010f 00       		.byte	0
 1813 0110 03       		.uleb128 0x3
 1814 0111 0E       		.uleb128 0xe
 1815 0112 3A       		.uleb128 0x3a
 1816 0113 0B       		.uleb128 0xb
 1817 0114 3B       		.uleb128 0x3b
 1818 0115 0B       		.uleb128 0xb
 1819 0116 49       		.uleb128 0x49
 1820 0117 13       		.uleb128 0x13
 1821 0118 3F       		.uleb128 0x3f
 1822 0119 19       		.uleb128 0x19
 1823 011a 02       		.uleb128 0x2
 1824 011b 18       		.uleb128 0x18
 1825 011c 00       		.byte	0
 1826 011d 00       		.byte	0
 1827 011e 00       		.byte	0
ARM GAS  C:\Users\alexport\AppData\Local\Temp\cc8gQCAZ.s 			page 36


 1828              		.section	.debug_aranges,"",%progbits
 1829 0000 6C000000 		.4byte	0x6c
 1830 0004 0200     		.2byte	0x2
 1831 0006 00000000 		.4byte	.Ldebug_info0
 1832 000a 04       		.byte	0x4
 1833 000b 00       		.byte	0
 1834 000c 0000     		.2byte	0
 1835 000e 0000     		.2byte	0
 1836 0010 00000000 		.4byte	.LFB35
 1837 0014 2E000000 		.4byte	.LFE35-.LFB35
 1838 0018 00000000 		.4byte	.LFB36
 1839 001c 68000000 		.4byte	.LFE36-.LFB36
 1840 0020 00000000 		.4byte	.LFB37
 1841 0024 6E000000 		.4byte	.LFE37-.LFB37
 1842 0028 00000000 		.4byte	.LFB38
 1843 002c 5C000000 		.4byte	.LFE38-.LFB38
 1844 0030 00000000 		.4byte	.LFB39
 1845 0034 76000000 		.4byte	.LFE39-.LFB39
 1846 0038 00000000 		.4byte	.LFB40
 1847 003c 7E000000 		.4byte	.LFE40-.LFB40
 1848 0040 00000000 		.4byte	.LFB41
 1849 0044 30000000 		.4byte	.LFE41-.LFB41
 1850 0048 00000000 		.4byte	.LFB42
 1851 004c 60000000 		.4byte	.LFE42-.LFB42
 1852 0050 00000000 		.4byte	.LFB43
 1853 0054 44000000 		.4byte	.LFE43-.LFB43
 1854 0058 00000000 		.4byte	.LFB44
 1855 005c 4A000000 		.4byte	.LFE44-.LFB44
 1856 0060 00000000 		.4byte	.LFB45
 1857 0064 12000000 		.4byte	.LFE45-.LFB45
 1858 0068 00000000 		.4byte	0
 1859 006c 00000000 		.4byte	0
 1860              		.section	.debug_ranges,"",%progbits
 1861              	.Ldebug_ranges0:
 1862 0000 00000000 		.4byte	.LFB35
 1863 0004 2E000000 		.4byte	.LFE35
 1864 0008 00000000 		.4byte	.LFB36
 1865 000c 68000000 		.4byte	.LFE36
 1866 0010 00000000 		.4byte	.LFB37
 1867 0014 6E000000 		.4byte	.LFE37
 1868 0018 00000000 		.4byte	.LFB38
 1869 001c 5C000000 		.4byte	.LFE38
 1870 0020 00000000 		.4byte	.LFB39
 1871 0024 76000000 		.4byte	.LFE39
 1872 0028 00000000 		.4byte	.LFB40
 1873 002c 7E000000 		.4byte	.LFE40
 1874 0030 00000000 		.4byte	.LFB41
 1875 0034 30000000 		.4byte	.LFE41
 1876 0038 00000000 		.4byte	.LFB42
 1877 003c 60000000 		.4byte	.LFE42
 1878 0040 00000000 		.4byte	.LFB43
 1879 0044 44000000 		.4byte	.LFE43
 1880 0048 00000000 		.4byte	.LFB44
 1881 004c 4A000000 		.4byte	.LFE44
 1882 0050 00000000 		.4byte	.LFB45
 1883 0054 12000000 		.4byte	.LFE45
 1884 0058 00000000 		.4byte	0
ARM GAS  C:\Users\alexport\AppData\Local\Temp\cc8gQCAZ.s 			page 37


 1885 005c 00000000 		.4byte	0
 1886              		.section	.debug_line,"",%progbits
 1887              	.Ldebug_line0:
 1888 0000 B6020000 		.section	.debug_str,"MS",%progbits,1
 1888      02006201 
 1888      00000201 
 1888      FB0E0D00 
 1888      01010101 
 1889              	.LASF85:
 1890 0000 4359424C 		.ascii	"CYBLE_EVT_L2CAP_CBFC_RX_CREDIT_IND\000"
 1890      455F4556 
 1890      545F4C32 
 1890      4341505F 
 1890      43424643 
 1891              	.LASF26:
 1892 0023 4359424C 		.ascii	"CYBLE_EVT_STACK_BUSY_STATUS\000"
 1892      455F4556 
 1892      545F5354 
 1892      41434B5F 
 1892      42555359 
 1893              	.LASF14:
 1894 003f 75696E74 		.ascii	"uint16\000"
 1894      313600
 1895              	.LASF112:
 1896 0046 6932635F 		.ascii	"i2c_write_16\000"
 1896      77726974 
 1896      655F3136 
 1896      00
 1897              	.LASF84:
 1898 0053 4359424C 		.ascii	"CYBLE_EVT_L2CAP_CBFC_DATA_READ\000"
 1898      455F4556 
 1898      545F4C32 
 1898      4341505F 
 1898      43424643 
 1899              	.LASF38:
 1900 0072 4359424C 		.ascii	"CYBLE_EVT_GAP_CONNECTION_UPDATE_COMPLETE\000"
 1900      455F4556 
 1900      545F4741 
 1900      505F434F 
 1900      4E4E4543 
 1901              	.LASF83:
 1902 009b 4359424C 		.ascii	"CYBLE_EVT_L2CAP_CBFC_DISCONN_CNF\000"
 1902      455F4556 
 1902      545F4C32 
 1902      4341505F 
 1902      43424643 
 1903              	.LASF43:
 1904 00bc 4359424C 		.ascii	"CYBLE_EVT_GAP_OOB_GENERATED_NOTIFICATION\000"
 1904      455F4556 
 1904      545F4741 
 1904      505F4F4F 
 1904      425F4745 
 1905              	.LASF63:
 1906 00e5 4359424C 		.ascii	"CYBLE_EVT_GATTC_READ_MULTI_RSP\000"
 1906      455F4556 
 1906      545F4741 
 1906      5454435F 
ARM GAS  C:\Users\alexport\AppData\Local\Temp\cc8gQCAZ.s 			page 38


 1906      52454144 
 1907              	.LASF5:
 1908 0104 5F5F7569 		.ascii	"__uint8_t\000"
 1908      6E74385F 
 1908      7400
 1909              	.LASF126:
 1910 010e 6932635F 		.ascii	"i2c_master.c\000"
 1910      6D617374 
 1910      65722E63 
 1910      00
 1911              	.LASF119:
 1912 011b 736C6176 		.ascii	"slave_WriteDataRaw\000"
 1912      655F5772 
 1912      69746544 
 1912      61746152 
 1912      617700
 1913              	.LASF23:
 1914 012e 4359424C 		.ascii	"CYBLE_EVT_TIMEOUT\000"
 1914      455F4556 
 1914      545F5449 
 1914      4D454F55 
 1914      5400
 1915              	.LASF4:
 1916 0140 6C6F6E67 		.ascii	"long int\000"
 1916      20696E74 
 1916      00
 1917              	.LASF9:
 1918 0149 6C6F6E67 		.ascii	"long long unsigned int\000"
 1918      206C6F6E 
 1918      6720756E 
 1918      7369676E 
 1918      65642069 
 1919              	.LASF25:
 1920 0160 4359424C 		.ascii	"CYBLE_EVT_HCI_STATUS\000"
 1920      455F4556 
 1920      545F4843 
 1920      495F5354 
 1920      41545553 
 1921              	.LASF88:
 1922 0175 4359424C 		.ascii	"CYBLE_EVT_PENDING_FLASH_WRITE\000"
 1922      455F4556 
 1922      545F5045 
 1922      4E44494E 
 1922      475F464C 
 1923              	.LASF77:
 1924 0193 4359424C 		.ascii	"CYBLE_EVT_L2CAP_CONN_PARAM_UPDATE_REQ\000"
 1924      455F4556 
 1924      545F4C32 
 1924      4341505F 
 1924      434F4E4E 
 1925              	.LASF37:
 1926 01b9 4359424C 		.ascii	"CYBLE_EVT_GAP_ENCRYPT_CHANGE\000"
 1926      455F4556 
 1926      545F4741 
 1926      505F454E 
 1926      43525950 
 1927              	.LASF41:
ARM GAS  C:\Users\alexport\AppData\Local\Temp\cc8gQCAZ.s 			page 39


 1928 01d6 4359424C 		.ascii	"CYBLE_EVT_GAP_NUMERIC_COMPARISON_REQUEST\000"
 1928      455F4556 
 1928      545F4741 
 1928      505F4E55 
 1928      4D455249 
 1929              	.LASF8:
 1930 01ff 6C6F6E67 		.ascii	"long long int\000"
 1930      206C6F6E 
 1930      6720696E 
 1930      7400
 1931              	.LASF0:
 1932 020d 7369676E 		.ascii	"signed char\000"
 1932      65642063 
 1932      68617200 
 1933              	.LASF22:
 1934 0219 4359424C 		.ascii	"CYBLE_EVT_STACK_ON\000"
 1934      455F4556 
 1934      545F5354 
 1934      41434B5F 
 1934      4F4E00
 1935              	.LASF39:
 1936 022c 4359424C 		.ascii	"CYBLE_EVT_GAPC_SCAN_START_STOP\000"
 1936      455F4556 
 1936      545F4741 
 1936      50435F53 
 1936      43414E5F 
 1937              	.LASF29:
 1938 024b 4359424C 		.ascii	"CYBLE_EVT_GAP_AUTH_REQ\000"
 1938      455F4556 
 1938      545F4741 
 1938      505F4155 
 1938      54485F52 
 1939              	.LASF61:
 1940 0262 4359424C 		.ascii	"CYBLE_EVT_GATTC_READ_RSP\000"
 1940      455F4556 
 1940      545F4741 
 1940      5454435F 
 1940      52454144 
 1941              	.LASF66:
 1942 027b 4359424C 		.ascii	"CYBLE_EVT_GATTS_WRITE_CMD_REQ\000"
 1942      455F4556 
 1942      545F4741 
 1942      5454535F 
 1942      57524954 
 1943              	.LASF104:
 1944 0299 6932635F 		.ascii	"i2c_Read_8\000"
 1944      52656164 
 1944      5F3800
 1945              	.LASF34:
 1946 02a4 4359424C 		.ascii	"CYBLE_EVT_GAPP_ADVERTISEMENT_START_STOP\000"
 1946      455F4556 
 1946      545F4741 
 1946      50505F41 
 1946      44564552 
 1947              	.LASF55:
 1948 02cc 4359424C 		.ascii	"CYBLE_EVT_GATTS_XCNHG_MTU_REQ\000"
 1948      455F4556 
ARM GAS  C:\Users\alexport\AppData\Local\Temp\cc8gQCAZ.s 			page 40


 1948      545F4741 
 1948      5454535F 
 1948      58434E48 
 1949              	.LASF69:
 1950 02ea 4359424C 		.ascii	"CYBLE_EVT_GATTC_EXEC_WRITE_RSP\000"
 1950      455F4556 
 1950      545F4741 
 1950      5454435F 
 1950      45584543 
 1951              	.LASF17:
 1952 0309 646F7562 		.ascii	"double\000"
 1952      6C6500
 1953              	.LASF122:
 1954 0310 44697361 		.ascii	"DisableAllChannels\000"
 1954      626C6541 
 1954      6C6C4368 
 1954      616E6E65 
 1954      6C7300
 1955              	.LASF97:
 1956 0323 4359424C 		.ascii	"CYBLE_DIS_FIRMWARE_REV\000"
 1956      455F4449 
 1956      535F4649 
 1956      524D5741 
 1956      52455F52 
 1957              	.LASF15:
 1958 033a 75696E74 		.ascii	"uint32\000"
 1958      333200
 1959              	.LASF96:
 1960 0341 4359424C 		.ascii	"CYBLE_DIS_HARDWARE_REV\000"
 1960      455F4449 
 1960      535F4841 
 1960      52445741 
 1960      52455F52 
 1961              	.LASF92:
 1962 0358 4359424C 		.ascii	"CYBLE_EVT_MAX\000"
 1962      455F4556 
 1962      545F4D41 
 1962      5800
 1963              	.LASF6:
 1964 0366 5F5F7569 		.ascii	"__uint32_t\000"
 1964      6E743332 
 1964      5F7400
 1965              	.LASF87:
 1966 0371 4359424C 		.ascii	"CYBLE_EVT_L2CAP_CBFC_DATA_WRITE_IND\000"
 1966      455F4556 
 1966      545F4C32 
 1966      4341505F 
 1966      43424643 
 1967              	.LASF115:
 1968 0395 64617461 		.ascii	"dataSize\000"
 1968      53697A65 
 1968      00
 1969              	.LASF124:
 1970 039e 76616C75 		.ascii	"value\000"
 1970      6500
 1971              	.LASF74:
 1972 03a4 4359424C 		.ascii	"CYBLE_EVT_GATTC_STOP_CMD_COMPLETE\000"
ARM GAS  C:\Users\alexport\AppData\Local\Temp\cc8gQCAZ.s 			page 41


 1972      455F4556 
 1972      545F4741 
 1972      5454435F 
 1972      53544F50 
 1973              	.LASF10:
 1974 03c6 756E7369 		.ascii	"unsigned int\000"
 1974      676E6564 
 1974      20696E74 
 1974      00
 1975              	.LASF111:
 1976 03d3 6932635F 		.ascii	"i2c_write_8\000"
 1976      77726974 
 1976      655F3800 
 1977              	.LASF89:
 1978 03df 4359424C 		.ascii	"CYBLE_EVT_LE_PING_AUTH_TIMEOUT\000"
 1978      455F4556 
 1978      545F4C45 
 1978      5F50494E 
 1978      475F4155 
 1979              	.LASF105:
 1980 03fe 736C6176 		.ascii	"slave\000"
 1980      6500
 1981              	.LASF7:
 1982 0404 6C6F6E67 		.ascii	"long unsigned int\000"
 1982      20756E73 
 1982      69676E65 
 1982      6420696E 
 1982      7400
 1983              	.LASF48:
 1984 0416 4359424C 		.ascii	"CYBLE_EVT_GAP_CONN_ESTB\000"
 1984      455F4556 
 1984      545F4741 
 1984      505F434F 
 1984      4E4E5F45 
 1985              	.LASF64:
 1986 042e 4359424C 		.ascii	"CYBLE_EVT_GATTS_WRITE_REQ\000"
 1986      455F4556 
 1986      545F4741 
 1986      5454535F 
 1986      57524954 
 1987              	.LASF56:
 1988 0448 4359424C 		.ascii	"CYBLE_EVT_GATTC_XCHNG_MTU_RSP\000"
 1988      455F4556 
 1988      545F4741 
 1988      5454435F 
 1988      5843484E 
 1989              	.LASF73:
 1990 0466 4359424C 		.ascii	"CYBLE_EVT_GATTS_DATA_SIGNED_CMD_REQ\000"
 1990      455F4556 
 1990      545F4741 
 1990      5454535F 
 1990      44415441 
 1991              	.LASF76:
 1992 048a 4359424C 		.ascii	"CYBLE_EVT_GATTC_LONG_PROCEDURE_END\000"
 1992      455F4556 
 1992      545F4741 
 1992      5454435F 
ARM GAS  C:\Users\alexport\AppData\Local\Temp\cc8gQCAZ.s 			page 42


 1992      4C4F4E47 
 1993              	.LASF13:
 1994 04ad 75696E74 		.ascii	"uint8\000"
 1994      3800
 1995              	.LASF110:
 1996 04b3 64617461 		.ascii	"data\000"
 1996      00
 1997              	.LASF3:
 1998 04b8 73686F72 		.ascii	"short unsigned int\000"
 1998      7420756E 
 1998      7369676E 
 1998      65642069 
 1998      6E7400
 1999              	.LASF21:
 2000 04cb 4359424C 		.ascii	"CYBLE_EVT_HOST_INVALID\000"
 2000      455F4556 
 2000      545F484F 
 2000      53545F49 
 2000      4E56414C 
 2001              	.LASF59:
 2002 04e2 4359424C 		.ascii	"CYBLE_EVT_GATTC_FIND_INFO_RSP\000"
 2002      455F4556 
 2002      545F4741 
 2002      5454435F 
 2002      46494E44 
 2003              	.LASF27:
 2004 0500 4359424C 		.ascii	"CYBLE_EVT_MEMORY_REQUEST\000"
 2004      455F4556 
 2004      545F4D45 
 2004      4D4F5259 
 2004      5F524551 
 2005              	.LASF68:
 2006 0519 4359424C 		.ascii	"CYBLE_EVT_GATTS_EXEC_WRITE_REQ\000"
 2006      455F4556 
 2006      545F4741 
 2006      5454535F 
 2006      45584543 
 2007              	.LASF30:
 2008 0538 4359424C 		.ascii	"CYBLE_EVT_GAP_PASSKEY_ENTRY_REQUEST\000"
 2008      455F4556 
 2008      545F4741 
 2008      505F5041 
 2008      53534B45 
 2009              	.LASF35:
 2010 055c 4359424C 		.ascii	"CYBLE_EVT_GAP_DEVICE_CONNECTED\000"
 2010      455F4556 
 2010      545F4741 
 2010      505F4445 
 2010      56494345 
 2011              	.LASF50:
 2012 057b 4359424C 		.ascii	"CYBLE_EVT_GAP_AUTH_REQ_REPLY_ERR\000"
 2012      455F4556 
 2012      545F4741 
 2012      505F4155 
 2012      54485F52 
 2013              	.LASF128:
 2014 059c 4932435F 		.ascii	"I2C_Recover\000"
ARM GAS  C:\Users\alexport\AppData\Local\Temp\cc8gQCAZ.s 			page 43


 2014      5265636F 
 2014      76657200 
 2015              	.LASF101:
 2016 05a8 4359424C 		.ascii	"CYBLE_DIS_PNP_ID\000"
 2016      455F4449 
 2016      535F504E 
 2016      505F4944 
 2016      00
 2017              	.LASF125:
 2018 05b9 474E5520 		.ascii	"GNU C11 5.4.1 20160609 (release) [ARM/embedded-5-br"
 2018      43313120 
 2018      352E342E 
 2018      31203230 
 2018      31363036 
 2019 05ec 616E6368 		.ascii	"anch revision 237715] -mcpu=cortex-m0 -mthumb -g -O"
 2019      20726576 
 2019      6973696F 
 2019      6E203233 
 2019      37373135 
 2020 061f 30202D66 		.ascii	"0 -ffunction-sections -ffat-lto-objects\000"
 2020      66756E63 
 2020      74696F6E 
 2020      2D736563 
 2020      74696F6E 
 2021              	.LASF109:
 2022 0647 6932635F 		.ascii	"i2c_read_16\000"
 2022      72656164 
 2022      5F313600 
 2023              	.LASF53:
 2024 0653 4359424C 		.ascii	"CYBLE_EVT_GATT_CONNECT_IND\000"
 2024      455F4556 
 2024      545F4741 
 2024      54545F43 
 2024      4F4E4E45 
 2025              	.LASF79:
 2026 066e 4359424C 		.ascii	"CYBLE_EVT_L2CAP_COMMAND_REJ\000"
 2026      455F4556 
 2026      545F4C32 
 2026      4341505F 
 2026      434F4D4D 
 2027              	.LASF28:
 2028 068a 4359424C 		.ascii	"CYBLE_EVT_GAPC_SCAN_PROGRESS_RESULT\000"
 2028      455F4556 
 2028      545F4741 
 2028      50435F53 
 2028      43414E5F 
 2029              	.LASF99:
 2030 06ae 4359424C 		.ascii	"CYBLE_DIS_SYSTEM_ID\000"
 2030      455F4449 
 2030      535F5359 
 2030      5354454D 
 2030      5F494400 
 2031              	.LASF51:
 2032 06c2 4359424C 		.ascii	"CYBLE_EVT_GAP_SMP_LOC_P256_KEYS_GEN_AND_SET_COMPLET"
 2032      455F4556 
 2032      545F4741 
 2032      505F534D 
ARM GAS  C:\Users\alexport\AppData\Local\Temp\cc8gQCAZ.s 			page 44


 2032      505F4C4F 
 2033 06f5 4500     		.ascii	"E\000"
 2034              	.LASF80:
 2035 06f7 4359424C 		.ascii	"CYBLE_EVT_L2CAP_CBFC_CONN_IND\000"
 2035      455F4556 
 2035      545F4C32 
 2035      4341505F 
 2035      43424643 
 2036              	.LASF58:
 2037 0715 4359424C 		.ascii	"CYBLE_EVT_GATTC_READ_BY_TYPE_RSP\000"
 2037      455F4556 
 2037      545F4741 
 2037      5454435F 
 2037      52454144 
 2038              	.LASF20:
 2039 0736 73697A65 		.ascii	"sizetype\000"
 2039      74797065 
 2039      00
 2040              	.LASF33:
 2041 073f 4359424C 		.ascii	"CYBLE_EVT_GAP_AUTH_FAILED\000"
 2041      455F4556 
 2041      545F4741 
 2041      505F4155 
 2041      54485F46 
 2042              	.LASF106:
 2043 0759 61646472 		.ascii	"address\000"
 2043      65737300 
 2044              	.LASF129:
 2045 0761 736C6176 		.ascii	"slaveBuf\000"
 2045      65427566 
 2045      00
 2046              	.LASF65:
 2047 076a 4359424C 		.ascii	"CYBLE_EVT_GATTC_WRITE_RSP\000"
 2047      455F4556 
 2047      545F4741 
 2047      5454435F 
 2047      57524954 
 2048              	.LASF46:
 2049 0784 4359424C 		.ascii	"CYBLE_EVT_GAPC_DIRECT_ADV_REPORT\000"
 2049      455F4556 
 2049      545F4741 
 2049      50435F44 
 2049      49524543 
 2050              	.LASF44:
 2051 07a5 4359424C 		.ascii	"CYBLE_EVT_GAP_DATA_LENGTH_CHANGE\000"
 2051      455F4556 
 2051      545F4741 
 2051      505F4441 
 2051      54415F4C 
 2052              	.LASF49:
 2053 07c6 4359424C 		.ascii	"CYBLE_EVT_GAP_SCAN_REQ_RECVD\000"
 2053      455F4556 
 2053      545F4741 
 2053      505F5343 
 2053      414E5F52 
 2054              	.LASF32:
 2055 07e3 4359424C 		.ascii	"CYBLE_EVT_GAP_AUTH_COMPLETE\000"
ARM GAS  C:\Users\alexport\AppData\Local\Temp\cc8gQCAZ.s 			page 45


 2055      455F4556 
 2055      545F4741 
 2055      505F4155 
 2055      54485F43 
 2056              	.LASF116:
 2057 07ff 64617461 		.ascii	"dataPtr\000"
 2057      50747200 
 2058              	.LASF113:
 2059 0807 62797465 		.ascii	"byteToWrite\000"
 2059      546F5772 
 2059      69746500 
 2060              	.LASF70:
 2061 0813 4359424C 		.ascii	"CYBLE_EVT_GATTC_HANDLE_VALUE_NTF\000"
 2061      455F4556 
 2061      545F4741 
 2061      5454435F 
 2061      48414E44 
 2062              	.LASF100:
 2063 0834 4359424C 		.ascii	"CYBLE_DIS_REG_CERT_DATA\000"
 2063      455F4449 
 2063      535F5245 
 2063      475F4345 
 2063      52545F44 
 2064              	.LASF81:
 2065 084c 4359424C 		.ascii	"CYBLE_EVT_L2CAP_CBFC_CONN_CNF\000"
 2065      455F4556 
 2065      545F4C32 
 2065      4341505F 
 2065      43424643 
 2066              	.LASF57:
 2067 086a 4359424C 		.ascii	"CYBLE_EVT_GATTC_READ_BY_GROUP_TYPE_RSP\000"
 2067      455F4556 
 2067      545F4741 
 2067      5454435F 
 2067      52454144 
 2068              	.LASF16:
 2069 0891 666C6F61 		.ascii	"float\000"
 2069      7400
 2070              	.LASF95:
 2071 0897 4359424C 		.ascii	"CYBLE_DIS_SERIAL_NUMBER\000"
 2071      455F4449 
 2071      535F5345 
 2071      5249414C 
 2071      5F4E554D 
 2072              	.LASF1:
 2073 08af 756E7369 		.ascii	"unsigned char\000"
 2073      676E6564 
 2073      20636861 
 2073      7200
 2074              	.LASF102:
 2075 08bd 4359424C 		.ascii	"CYBLE_DIS_CHAR_COUNT\000"
 2075      455F4449 
 2075      535F4348 
 2075      41525F43 
 2075      4F554E54 
 2076              	.LASF2:
 2077 08d2 73686F72 		.ascii	"short int\000"
ARM GAS  C:\Users\alexport\AppData\Local\Temp\cc8gQCAZ.s 			page 46


 2077      7420696E 
 2077      7400
 2078              	.LASF71:
 2079 08dc 4359424C 		.ascii	"CYBLE_EVT_GATTC_HANDLE_VALUE_IND\000"
 2079      455F4556 
 2079      545F4741 
 2079      5454435F 
 2079      48414E44 
 2080              	.LASF90:
 2081 08fd 4359424C 		.ascii	"CYBLE_EVT_HCI_PKT\000"
 2081      455F4556 
 2081      545F4843 
 2081      495F504B 
 2081      5400
 2082              	.LASF98:
 2083 090f 4359424C 		.ascii	"CYBLE_DIS_SOFTWARE_REV\000"
 2083      455F4449 
 2083      535F534F 
 2083      46545741 
 2083      52455F52 
 2084              	.LASF67:
 2085 0926 4359424C 		.ascii	"CYBLE_EVT_GATTS_PREP_WRITE_REQ\000"
 2085      455F4556 
 2085      545F4741 
 2085      5454535F 
 2085      50524550 
 2086              	.LASF121:
 2087 0945 6368616E 		.ascii	"channel\000"
 2087      6E656C00 
 2088              	.LASF72:
 2089 094d 4359424C 		.ascii	"CYBLE_EVT_GATTS_HANDLE_VALUE_CNF\000"
 2089      455F4556 
 2089      545F4741 
 2089      5454535F 
 2089      48414E44 
 2090              	.LASF52:
 2091 096e 4359424C 		.ascii	"CYBLE_EVT_GATTC_ERROR_RSP\000"
 2091      455F4556 
 2091      545F4741 
 2091      5454435F 
 2091      4552524F 
 2092              	.LASF47:
 2093 0988 4359424C 		.ascii	"CYBLE_EVT_GAP_SMP_NEGOTIATED_AUTH_INFO\000"
 2093      455F4556 
 2093      545F4741 
 2093      505F534D 
 2093      505F4E45 
 2094              	.LASF19:
 2095 09af 6C6F6E67 		.ascii	"long double\000"
 2095      20646F75 
 2095      626C6500 
 2096              	.LASF91:
 2097 09bb 4359424C 		.ascii	"CYBLE_EVT_FLASH_CORRUPT\000"
 2097      455F4556 
 2097      545F464C 
 2097      4153485F 
 2097      434F5252 
ARM GAS  C:\Users\alexport\AppData\Local\Temp\cc8gQCAZ.s 			page 47


 2098              	.LASF94:
 2099 09d3 4359424C 		.ascii	"CYBLE_DIS_MODEL_NUMBER\000"
 2099      455F4449 
 2099      535F4D4F 
 2099      44454C5F 
 2099      4E554D42 
 2100              	.LASF18:
 2101 09ea 63686172 		.ascii	"char\000"
 2101      00
 2102              	.LASF36:
 2103 09ef 4359424C 		.ascii	"CYBLE_EVT_GAP_DEVICE_DISCONNECTED\000"
 2103      455F4556 
 2103      545F4741 
 2103      505F4445 
 2103      56494345 
 2104              	.LASF75:
 2105 0a11 4359424C 		.ascii	"CYBLE_EVT_GATTS_READ_CHAR_VAL_ACCESS_REQ\000"
 2105      455F4556 
 2105      545F4741 
 2105      5454535F 
 2105      52454144 
 2106              	.LASF108:
 2107 0a3a 74686552 		.ascii	"theResult\000"
 2107      6573756C 
 2107      7400
 2108              	.LASF42:
 2109 0a44 4359424C 		.ascii	"CYBLE_EVT_GAP_KEYPRESS_NOTIFICATION\000"
 2109      455F4556 
 2109      545F4741 
 2109      505F4B45 
 2109      59505245 
 2110              	.LASF86:
 2111 0a68 4359424C 		.ascii	"CYBLE_EVT_L2CAP_CBFC_TX_CREDIT_IND\000"
 2111      455F4556 
 2111      545F4C32 
 2111      4341505F 
 2111      43424643 
 2112              	.LASF62:
 2113 0a8b 4359424C 		.ascii	"CYBLE_EVT_GATTC_READ_BLOB_RSP\000"
 2113      455F4556 
 2113      545F4741 
 2113      5454435F 
 2113      52454144 
 2114              	.LASF123:
 2115 0aa9 57726974 		.ascii	"WriteReg\000"
 2115      65526567 
 2115      00
 2116              	.LASF103:
 2117 0ab2 6932635F 		.ascii	"i2c_status\000"
 2117      73746174 
 2117      757300
 2118              	.LASF120:
 2119 0abd 53656C65 		.ascii	"SelectChannel\000"
 2119      63744368 
 2119      616E6E65 
 2119      6C00
 2120              	.LASF31:
ARM GAS  C:\Users\alexport\AppData\Local\Temp\cc8gQCAZ.s 			page 48


 2121 0acb 4359424C 		.ascii	"CYBLE_EVT_GAP_PASSKEY_DISPLAY_REQUEST\000"
 2121      455F4556 
 2121      545F4741 
 2121      505F5041 
 2121      53534B45 
 2122              	.LASF24:
 2123 0af1 4359424C 		.ascii	"CYBLE_EVT_HARDWARE_ERROR\000"
 2123      455F4556 
 2123      545F4841 
 2123      52445741 
 2123      52455F45 
 2124              	.LASF12:
 2125 0b0a 75696E74 		.ascii	"uint32_t\000"
 2125      33325F74 
 2125      00
 2126              	.LASF127:
 2127 0b13 433A5C55 		.ascii	"C:\\Users\\alexport\\OneDrive - Safeguard Analytics"
 2127      73657273 
 2127      5C616C65 
 2127      78706F72 
 2127      745C4F6E 
 2128 0b43 5C53412D 		.ascii	"\\SA-220\\SA-220.cydsn\000"
 2128      3232305C 
 2128      53412D32 
 2128      32302E63 
 2128      7964736E 
 2129              	.LASF107:
 2130 0b58 73746174 		.ascii	"status\000"
 2130      757300
 2131              	.LASF114:
 2132 0b5f 736C6176 		.ascii	"slave_ReadDataRaw\000"
 2132      655F5265 
 2132      61644461 
 2132      74615261 
 2132      7700
 2133              	.LASF11:
 2134 0b71 75696E74 		.ascii	"uint8_t\000"
 2134      385F7400 
 2135              	.LASF60:
 2136 0b79 4359424C 		.ascii	"CYBLE_EVT_GATTC_FIND_BY_TYPE_VALUE_RSP\000"
 2136      455F4556 
 2136      545F4741 
 2136      5454435F 
 2136      46494E44 
 2137              	.LASF40:
 2138 0ba0 4359424C 		.ascii	"CYBLE_EVT_GAP_KEYINFO_EXCHNGE_CMPLT\000"
 2138      455F4556 
 2138      545F4741 
 2138      505F4B45 
 2138      59494E46 
 2139              	.LASF82:
 2140 0bc4 4359424C 		.ascii	"CYBLE_EVT_L2CAP_CBFC_DISCONN_IND\000"
 2140      455F4556 
 2140      545F4C32 
 2140      4341505F 
 2140      43424643 
 2141              	.LASF118:
ARM GAS  C:\Users\alexport\AppData\Local\Temp\cc8gQCAZ.s 			page 49


 2142 0be5 77725374 		.ascii	"wrStatus\000"
 2142      61747573 
 2142      00
 2143              	.LASF78:
 2144 0bee 4359424C 		.ascii	"CYBLE_EVT_L2CAP_CONN_PARAM_UPDATE_RSP\000"
 2144      455F4556 
 2144      545F4C32 
 2144      4341505F 
 2144      434F4E4E 
 2145              	.LASF117:
 2146 0c14 74784461 		.ascii	"txData\000"
 2146      746100
 2147              	.LASF45:
 2148 0c1b 4359424C 		.ascii	"CYBLE_EVT_GAP_ENHANCE_CONN_COMPLETE\000"
 2148      455F4556 
 2148      545F4741 
 2148      505F454E 
 2148      48414E43 
 2149              	.LASF93:
 2150 0c3f 4359424C 		.ascii	"CYBLE_DIS_MANUFACTURER_NAME\000"
 2150      455F4449 
 2150      535F4D41 
 2150      4E554641 
 2150      43545552 
 2151              	.LASF54:
 2152 0c5b 4359424C 		.ascii	"CYBLE_EVT_GATT_DISCONNECT_IND\000"
 2152      455F4556 
 2152      545F4741 
 2152      54545F44 
 2152      4953434F 
 2153              		.ident	"GCC: (GNU Tools for ARM Embedded Processors) 5.4.1 20160609 (release) [ARM/embedded-5-bran
