ARM GAS  C:\Users\alexport\AppData\Local\Temp\cc5DETbb.s 			page 1


   1              		.syntax unified
   2              		.cpu cortex-m0
   3              		.fpu softvfp
   4              		.eabi_attribute 20, 1
   5              		.eabi_attribute 21, 1
   6              		.eabi_attribute 23, 3
   7              		.eabi_attribute 24, 1
   8              		.eabi_attribute 25, 1
   9              		.eabi_attribute 26, 1
  10              		.eabi_attribute 30, 6
  11              		.eabi_attribute 34, 0
  12              		.eabi_attribute 18, 4
  13              		.thumb
  14              		.syntax unified
  15              		.file	"I2C_1_I2C_INT.c"
  16              		.text
  17              	.Ltext0:
  18              		.cfi_sections	.debug_frame
  19              		.section	.text.I2C_1_I2C_ISR,"ax",%progbits
  20              		.align	2
  21              		.global	I2C_1_I2C_ISR
  22              		.code	16
  23              		.thumb_func
  24              		.type	I2C_1_I2C_ISR, %function
  25              	I2C_1_I2C_ISR:
  26              	.LFB2:
  27              		.file 1 "Generated_Source\\PSoC4\\I2C_1_I2C_INT.c"
   1:Generated_Source\PSoC4/I2C_1_I2C_INT.c **** /***************************************************************************//**
   2:Generated_Source\PSoC4/I2C_1_I2C_INT.c **** * \file I2C_1_I2C_INT.c
   3:Generated_Source\PSoC4/I2C_1_I2C_INT.c **** * \version 4.0
   4:Generated_Source\PSoC4/I2C_1_I2C_INT.c **** *
   5:Generated_Source\PSoC4/I2C_1_I2C_INT.c **** * \brief
   6:Generated_Source\PSoC4/I2C_1_I2C_INT.c **** *  This file provides the source code to the Interrupt Service Routine for
   7:Generated_Source\PSoC4/I2C_1_I2C_INT.c **** *  the SCB Component in I2C mode.
   8:Generated_Source\PSoC4/I2C_1_I2C_INT.c **** *
   9:Generated_Source\PSoC4/I2C_1_I2C_INT.c **** * Note:
  10:Generated_Source\PSoC4/I2C_1_I2C_INT.c **** *
  11:Generated_Source\PSoC4/I2C_1_I2C_INT.c **** ********************************************************************************
  12:Generated_Source\PSoC4/I2C_1_I2C_INT.c **** * \copyright
  13:Generated_Source\PSoC4/I2C_1_I2C_INT.c **** * Copyright 2013-2017, Cypress Semiconductor Corporation.  All rights reserved.
  14:Generated_Source\PSoC4/I2C_1_I2C_INT.c **** * You may use this file only in accordance with the license, terms, conditions,
  15:Generated_Source\PSoC4/I2C_1_I2C_INT.c **** * disclaimers, and limitations in the end user license agreement accompanying
  16:Generated_Source\PSoC4/I2C_1_I2C_INT.c **** * the software package with which this file was provided.
  17:Generated_Source\PSoC4/I2C_1_I2C_INT.c **** *******************************************************************************/
  18:Generated_Source\PSoC4/I2C_1_I2C_INT.c **** 
  19:Generated_Source\PSoC4/I2C_1_I2C_INT.c **** #include "I2C_1_PVT.h"
  20:Generated_Source\PSoC4/I2C_1_I2C_INT.c **** #include "I2C_1_I2C_PVT.h"
  21:Generated_Source\PSoC4/I2C_1_I2C_INT.c **** #include "cyapicallbacks.h"
  22:Generated_Source\PSoC4/I2C_1_I2C_INT.c **** 
  23:Generated_Source\PSoC4/I2C_1_I2C_INT.c **** 
  24:Generated_Source\PSoC4/I2C_1_I2C_INT.c **** /*******************************************************************************
  25:Generated_Source\PSoC4/I2C_1_I2C_INT.c **** * Function Name: I2C_1_I2C_ISR
  26:Generated_Source\PSoC4/I2C_1_I2C_INT.c **** ****************************************************************************//**
  27:Generated_Source\PSoC4/I2C_1_I2C_INT.c **** *
  28:Generated_Source\PSoC4/I2C_1_I2C_INT.c **** *  Handles the Interrupt Service Routine for the SCB I2C mode.
  29:Generated_Source\PSoC4/I2C_1_I2C_INT.c **** *
  30:Generated_Source\PSoC4/I2C_1_I2C_INT.c **** *******************************************************************************/
ARM GAS  C:\Users\alexport\AppData\Local\Temp\cc5DETbb.s 			page 2


  31:Generated_Source\PSoC4/I2C_1_I2C_INT.c **** CY_ISR(I2C_1_I2C_ISR)
  32:Generated_Source\PSoC4/I2C_1_I2C_INT.c **** {
  28              		.loc 1 32 0
  29              		.cfi_startproc
  30              		@ args = 0, pretend = 0, frame = 8
  31              		@ frame_needed = 1, uses_anonymous_args = 0
  32 0000 80B5     		push	{r7, lr}
  33              		.cfi_def_cfa_offset 8
  34              		.cfi_offset 7, -8
  35              		.cfi_offset 14, -4
  36 0002 82B0     		sub	sp, sp, #8
  37              		.cfi_def_cfa_offset 16
  38 0004 00AF     		add	r7, sp, #0
  39              		.cfi_def_cfa_register 7
  33:Generated_Source\PSoC4/I2C_1_I2C_INT.c ****     uint32 diffCount;
  34:Generated_Source\PSoC4/I2C_1_I2C_INT.c ****     uint32 endTransfer;
  35:Generated_Source\PSoC4/I2C_1_I2C_INT.c **** 
  36:Generated_Source\PSoC4/I2C_1_I2C_INT.c **** #ifdef I2C_1_I2C_ISR_ENTRY_CALLBACK
  37:Generated_Source\PSoC4/I2C_1_I2C_INT.c ****     I2C_1_I2C_ISR_EntryCallback();
  38:Generated_Source\PSoC4/I2C_1_I2C_INT.c **** #endif /* I2C_1_I2C_ISR_ENTRY_CALLBACK */
  39:Generated_Source\PSoC4/I2C_1_I2C_INT.c **** 
  40:Generated_Source\PSoC4/I2C_1_I2C_INT.c **** #if (I2C_1_I2C_CUSTOM_ADDRESS_HANDLER_CONST)
  41:Generated_Source\PSoC4/I2C_1_I2C_INT.c ****     uint32 response;
  42:Generated_Source\PSoC4/I2C_1_I2C_INT.c **** 
  43:Generated_Source\PSoC4/I2C_1_I2C_INT.c ****     response = I2C_1_I2C_ACK_ADDR;
  44:Generated_Source\PSoC4/I2C_1_I2C_INT.c **** #endif /* (I2C_1_I2C_CUSTOM_ADDRESS_HANDLER_CONST) */
  45:Generated_Source\PSoC4/I2C_1_I2C_INT.c **** 
  46:Generated_Source\PSoC4/I2C_1_I2C_INT.c ****     endTransfer = 0u; /* Continue active transfer */
  40              		.loc 1 46 0
  41 0006 0023     		movs	r3, #0
  42 0008 3B60     		str	r3, [r7]
  47:Generated_Source\PSoC4/I2C_1_I2C_INT.c **** 
  48:Generated_Source\PSoC4/I2C_1_I2C_INT.c ****     /* Calls customer routine if registered */
  49:Generated_Source\PSoC4/I2C_1_I2C_INT.c ****     if(NULL != I2C_1_customIntrHandler)
  43              		.loc 1 49 0
  44 000a CD4B     		ldr	r3, .L39
  45 000c 1B68     		ldr	r3, [r3]
  46 000e 002B     		cmp	r3, #0
  47 0010 02D0     		beq	.L2
  50:Generated_Source\PSoC4/I2C_1_I2C_INT.c ****     {
  51:Generated_Source\PSoC4/I2C_1_I2C_INT.c ****         I2C_1_customIntrHandler();
  48              		.loc 1 51 0
  49 0012 CB4B     		ldr	r3, .L39
  50 0014 1B68     		ldr	r3, [r3]
  51 0016 9847     		blx	r3
  52              	.L2:
  52:Generated_Source\PSoC4/I2C_1_I2C_INT.c ****     }
  53:Generated_Source\PSoC4/I2C_1_I2C_INT.c **** 
  54:Generated_Source\PSoC4/I2C_1_I2C_INT.c ****     if(I2C_1_CHECK_INTR_I2C_EC_MASKED(I2C_1_INTR_I2C_EC_WAKE_UP))
  53              		.loc 1 54 0
  54 0018 CA4B     		ldr	r3, .L39+4
  55 001a 1B68     		ldr	r3, [r3]
  56 001c 0122     		movs	r2, #1
  57 001e 1340     		ands	r3, r2
  58 0020 02D0     		beq	.L3
  55:Generated_Source\PSoC4/I2C_1_I2C_INT.c ****     {
  56:Generated_Source\PSoC4/I2C_1_I2C_INT.c ****         /* Mask-off after wakeup */
ARM GAS  C:\Users\alexport\AppData\Local\Temp\cc5DETbb.s 			page 3


  57:Generated_Source\PSoC4/I2C_1_I2C_INT.c ****         I2C_1_SetI2CExtClkInterruptMode(I2C_1_NO_INTR_SOURCES);
  59              		.loc 1 57 0
  60 0022 C94B     		ldr	r3, .L39+8
  61 0024 0022     		movs	r2, #0
  62 0026 1A60     		str	r2, [r3]
  63              	.L3:
  58:Generated_Source\PSoC4/I2C_1_I2C_INT.c ****     }
  59:Generated_Source\PSoC4/I2C_1_I2C_INT.c **** 
  60:Generated_Source\PSoC4/I2C_1_I2C_INT.c ****     /* Master and Slave error tracking:
  61:Generated_Source\PSoC4/I2C_1_I2C_INT.c ****     * Add the master state check to track only the master errors when the master is active or
  62:Generated_Source\PSoC4/I2C_1_I2C_INT.c ****     * track slave errors when the slave is active or idle.
  63:Generated_Source\PSoC4/I2C_1_I2C_INT.c ****     * A special MMS case: in the address phase with misplaced Start: the master sets the LOST_ARB a
  64:Generated_Source\PSoC4/I2C_1_I2C_INT.c ****     * slave BUS_ERR. The valid event is LOST_ARB comes from the master.
  65:Generated_Source\PSoC4/I2C_1_I2C_INT.c ****     */
  66:Generated_Source\PSoC4/I2C_1_I2C_INT.c ****     if(I2C_1_CHECK_I2C_FSM_MASTER)
  64              		.loc 1 66 0
  65 0028 C84B     		ldr	r3, .L39+12
  66 002a 1B78     		ldrb	r3, [r3]
  67 002c DBB2     		uxtb	r3, r3
  68 002e 2022     		movs	r2, #32
  69 0030 1340     		ands	r3, r2
  70 0032 DBB2     		uxtb	r3, r3
  71 0034 002B     		cmp	r3, #0
  72 0036 32D1     		bne	.L4
  67:Generated_Source\PSoC4/I2C_1_I2C_INT.c ****     {
  68:Generated_Source\PSoC4/I2C_1_I2C_INT.c ****         #if(I2C_1_I2C_MASTER)
  69:Generated_Source\PSoC4/I2C_1_I2C_INT.c ****         {
  70:Generated_Source\PSoC4/I2C_1_I2C_INT.c ****             /* INTR_MASTER_I2C_BUS_ERROR:
  71:Generated_Source\PSoC4/I2C_1_I2C_INT.c ****             * A misplaced Start or Stop condition occurred on the bus: complete the transaction.
  72:Generated_Source\PSoC4/I2C_1_I2C_INT.c ****             * The interrupt is cleared in I2C_FSM_EXIT_IDLE.
  73:Generated_Source\PSoC4/I2C_1_I2C_INT.c ****             */
  74:Generated_Source\PSoC4/I2C_1_I2C_INT.c ****             if(I2C_1_CHECK_INTR_MASTER_MASKED(I2C_1_INTR_MASTER_I2C_BUS_ERROR))
  75:Generated_Source\PSoC4/I2C_1_I2C_INT.c ****             {
  76:Generated_Source\PSoC4/I2C_1_I2C_INT.c ****                 I2C_1_mstrStatus |= (uint16) (I2C_1_I2C_MSTAT_ERR_XFER |
  77:Generated_Source\PSoC4/I2C_1_I2C_INT.c ****                                                          I2C_1_I2C_MSTAT_ERR_BUS_ERROR);
  78:Generated_Source\PSoC4/I2C_1_I2C_INT.c **** 
  79:Generated_Source\PSoC4/I2C_1_I2C_INT.c ****                 endTransfer = I2C_1_I2C_CMPLT_ANY_TRANSFER;
  80:Generated_Source\PSoC4/I2C_1_I2C_INT.c ****             }
  81:Generated_Source\PSoC4/I2C_1_I2C_INT.c **** 
  82:Generated_Source\PSoC4/I2C_1_I2C_INT.c ****             /* INTR_MASTER_I2C_ARB_LOST:
  83:Generated_Source\PSoC4/I2C_1_I2C_INT.c ****             * The MultiMaster lost arbitrage during transaction.
  84:Generated_Source\PSoC4/I2C_1_I2C_INT.c ****             * A Misplaced Start or Stop condition is treated as lost arbitration when the master dr
  85:Generated_Source\PSoC4/I2C_1_I2C_INT.c ****             * The interrupt source is cleared in I2C_FSM_EXIT_IDLE.
  86:Generated_Source\PSoC4/I2C_1_I2C_INT.c ****             */
  87:Generated_Source\PSoC4/I2C_1_I2C_INT.c ****             if(I2C_1_CHECK_INTR_MASTER_MASKED(I2C_1_INTR_MASTER_I2C_ARB_LOST))
  88:Generated_Source\PSoC4/I2C_1_I2C_INT.c ****             {
  89:Generated_Source\PSoC4/I2C_1_I2C_INT.c ****                 I2C_1_mstrStatus |= (uint16) (I2C_1_I2C_MSTAT_ERR_XFER |
  90:Generated_Source\PSoC4/I2C_1_I2C_INT.c ****                                                          I2C_1_I2C_MSTAT_ERR_ARB_LOST);
  91:Generated_Source\PSoC4/I2C_1_I2C_INT.c **** 
  92:Generated_Source\PSoC4/I2C_1_I2C_INT.c ****                 endTransfer = I2C_1_I2C_CMPLT_ANY_TRANSFER;
  93:Generated_Source\PSoC4/I2C_1_I2C_INT.c ****             }
  94:Generated_Source\PSoC4/I2C_1_I2C_INT.c **** 
  95:Generated_Source\PSoC4/I2C_1_I2C_INT.c ****             #if(I2C_1_I2C_MULTI_MASTER_SLAVE)
  96:Generated_Source\PSoC4/I2C_1_I2C_INT.c ****             {
  97:Generated_Source\PSoC4/I2C_1_I2C_INT.c ****                 /* I2C_MASTER_CMD_M_START_ON_IDLE:
  98:Generated_Source\PSoC4/I2C_1_I2C_INT.c ****                 * MultiMaster-Slave does not generate start, because Slave was addressed.
  99:Generated_Source\PSoC4/I2C_1_I2C_INT.c ****                 * Pass control to slave.
ARM GAS  C:\Users\alexport\AppData\Local\Temp\cc5DETbb.s 			page 4


 100:Generated_Source\PSoC4/I2C_1_I2C_INT.c ****                 */
 101:Generated_Source\PSoC4/I2C_1_I2C_INT.c ****                 if(I2C_1_CHECK_I2C_MASTER_CMD(I2C_1_I2C_MASTER_CMD_M_START_ON_IDLE))
 102:Generated_Source\PSoC4/I2C_1_I2C_INT.c ****                 {
 103:Generated_Source\PSoC4/I2C_1_I2C_INT.c ****                     I2C_1_mstrStatus |= (uint16) (I2C_1_I2C_MSTAT_ERR_XFER |
 104:Generated_Source\PSoC4/I2C_1_I2C_INT.c ****                                                              I2C_1_I2C_MSTAT_ERR_ABORT_XFER);
 105:Generated_Source\PSoC4/I2C_1_I2C_INT.c **** 
 106:Generated_Source\PSoC4/I2C_1_I2C_INT.c ****                     endTransfer = I2C_1_I2C_CMPLT_ANY_TRANSFER;
 107:Generated_Source\PSoC4/I2C_1_I2C_INT.c ****                 }
 108:Generated_Source\PSoC4/I2C_1_I2C_INT.c ****             }
 109:Generated_Source\PSoC4/I2C_1_I2C_INT.c ****             #endif
 110:Generated_Source\PSoC4/I2C_1_I2C_INT.c **** 
 111:Generated_Source\PSoC4/I2C_1_I2C_INT.c ****             /* The error handling common part:
 112:Generated_Source\PSoC4/I2C_1_I2C_INT.c ****             * Sets a completion flag of the master transaction and passes control to:
 113:Generated_Source\PSoC4/I2C_1_I2C_INT.c ****             *  - I2C_FSM_EXIT_IDLE - to complete transaction in case of: ARB_LOST or BUS_ERR.
 114:Generated_Source\PSoC4/I2C_1_I2C_INT.c ****             *  - I2C_FSM_IDLE      - to take chance for the slave to process incoming transaction.
 115:Generated_Source\PSoC4/I2C_1_I2C_INT.c ****             */
 116:Generated_Source\PSoC4/I2C_1_I2C_INT.c ****             if(0u != endTransfer)
 117:Generated_Source\PSoC4/I2C_1_I2C_INT.c ****             {
 118:Generated_Source\PSoC4/I2C_1_I2C_INT.c ****                 /* Set completion flags for master */
 119:Generated_Source\PSoC4/I2C_1_I2C_INT.c ****                 I2C_1_mstrStatus |= (uint16) I2C_1_GET_I2C_MSTAT_CMPLT;
 120:Generated_Source\PSoC4/I2C_1_I2C_INT.c **** 
 121:Generated_Source\PSoC4/I2C_1_I2C_INT.c ****                 #if(I2C_1_I2C_MULTI_MASTER_SLAVE)
 122:Generated_Source\PSoC4/I2C_1_I2C_INT.c ****                 {
 123:Generated_Source\PSoC4/I2C_1_I2C_INT.c ****                     if(I2C_1_CHECK_I2C_FSM_ADDR)
 124:Generated_Source\PSoC4/I2C_1_I2C_INT.c ****                     {
 125:Generated_Source\PSoC4/I2C_1_I2C_INT.c ****                         /* Start generation is set after another master starts accessing Slave.
 126:Generated_Source\PSoC4/I2C_1_I2C_INT.c ****                         * Clean-up master and turn to slave. Set state to IDLE.
 127:Generated_Source\PSoC4/I2C_1_I2C_INT.c ****                         */
 128:Generated_Source\PSoC4/I2C_1_I2C_INT.c ****                         if(I2C_1_CHECK_I2C_MASTER_CMD(I2C_1_I2C_MASTER_CMD_M_START_ON_IDLE))
 129:Generated_Source\PSoC4/I2C_1_I2C_INT.c ****                         {
 130:Generated_Source\PSoC4/I2C_1_I2C_INT.c ****                             I2C_1_I2C_MASTER_CLEAR_START;
 131:Generated_Source\PSoC4/I2C_1_I2C_INT.c **** 
 132:Generated_Source\PSoC4/I2C_1_I2C_INT.c ****                             endTransfer = I2C_1_I2C_CMPLT_ANY_TRANSFER; /* Pass control to Slave */
 133:Generated_Source\PSoC4/I2C_1_I2C_INT.c ****                         }
 134:Generated_Source\PSoC4/I2C_1_I2C_INT.c ****                         /* Valid arbitration lost on the address phase happens only when: master LO
 135:Generated_Source\PSoC4/I2C_1_I2C_INT.c ****                         * slave BUS_ERR is cleared. Only in that case set the state to IDLE without
 136:Generated_Source\PSoC4/I2C_1_I2C_INT.c ****                         */
 137:Generated_Source\PSoC4/I2C_1_I2C_INT.c ****                         else if((!I2C_1_CHECK_INTR_SLAVE_MASKED(I2C_1_INTR_SLAVE_I2C_BUS_ERROR))
 138:Generated_Source\PSoC4/I2C_1_I2C_INT.c ****                                && I2C_1_CHECK_INTR_MASTER_MASKED(I2C_1_INTR_MASTER_I2C_ARB_LOST))
 139:Generated_Source\PSoC4/I2C_1_I2C_INT.c ****                         {
 140:Generated_Source\PSoC4/I2C_1_I2C_INT.c ****                             endTransfer = I2C_1_I2C_CMPLT_ANY_TRANSFER; /* Pass control to Slave */
 141:Generated_Source\PSoC4/I2C_1_I2C_INT.c ****                         }
 142:Generated_Source\PSoC4/I2C_1_I2C_INT.c ****                         else
 143:Generated_Source\PSoC4/I2C_1_I2C_INT.c ****                         {
 144:Generated_Source\PSoC4/I2C_1_I2C_INT.c ****                             endTransfer = 0u; /* Causes I2C_FSM_EXIT_IDLE to be set below */
 145:Generated_Source\PSoC4/I2C_1_I2C_INT.c ****                         }
 146:Generated_Source\PSoC4/I2C_1_I2C_INT.c **** 
 147:Generated_Source\PSoC4/I2C_1_I2C_INT.c ****                         if(0u != endTransfer) /* Clean-up master to proceed with slave */
 148:Generated_Source\PSoC4/I2C_1_I2C_INT.c ****                         {
 149:Generated_Source\PSoC4/I2C_1_I2C_INT.c ****                             I2C_1_CLEAR_TX_FIFO; /* Shifter keeps address, clear it */
 150:Generated_Source\PSoC4/I2C_1_I2C_INT.c **** 
 151:Generated_Source\PSoC4/I2C_1_I2C_INT.c ****                             I2C_1_DISABLE_MASTER_AUTO_DATA_ACK; /* In case of reading disable autoA
 152:Generated_Source\PSoC4/I2C_1_I2C_INT.c **** 
 153:Generated_Source\PSoC4/I2C_1_I2C_INT.c ****                             /* Clean-up master interrupt sources */
 154:Generated_Source\PSoC4/I2C_1_I2C_INT.c ****                             I2C_1_ClearMasterInterruptSource(I2C_1_INTR_MASTER_ALL);
 155:Generated_Source\PSoC4/I2C_1_I2C_INT.c **** 
 156:Generated_Source\PSoC4/I2C_1_I2C_INT.c ****                             /* Disable data processing interrupts: they have to be cleared before *
ARM GAS  C:\Users\alexport\AppData\Local\Temp\cc5DETbb.s 			page 5


 157:Generated_Source\PSoC4/I2C_1_I2C_INT.c ****                             I2C_1_SetRxInterruptMode(I2C_1_NO_INTR_SOURCES);
 158:Generated_Source\PSoC4/I2C_1_I2C_INT.c ****                             I2C_1_SetTxInterruptMode(I2C_1_NO_INTR_SOURCES);
 159:Generated_Source\PSoC4/I2C_1_I2C_INT.c **** 
 160:Generated_Source\PSoC4/I2C_1_I2C_INT.c ****                             I2C_1_state = I2C_1_I2C_FSM_IDLE;
 161:Generated_Source\PSoC4/I2C_1_I2C_INT.c ****                         }
 162:Generated_Source\PSoC4/I2C_1_I2C_INT.c ****                         else
 163:Generated_Source\PSoC4/I2C_1_I2C_INT.c ****                         {
 164:Generated_Source\PSoC4/I2C_1_I2C_INT.c ****                             /* Set I2C_FSM_EXIT_IDLE for BUS_ERR and ARB_LOST (that is really bus e
 165:Generated_Source\PSoC4/I2C_1_I2C_INT.c ****                             I2C_1_state = I2C_1_I2C_FSM_EXIT_IDLE;
 166:Generated_Source\PSoC4/I2C_1_I2C_INT.c ****                         }
 167:Generated_Source\PSoC4/I2C_1_I2C_INT.c ****                     }
 168:Generated_Source\PSoC4/I2C_1_I2C_INT.c ****                     else
 169:Generated_Source\PSoC4/I2C_1_I2C_INT.c ****                     {
 170:Generated_Source\PSoC4/I2C_1_I2C_INT.c ****                         /* Set I2C_FSM_EXIT_IDLE if any other state than address */
 171:Generated_Source\PSoC4/I2C_1_I2C_INT.c ****                         I2C_1_state = I2C_1_I2C_FSM_EXIT_IDLE;
 172:Generated_Source\PSoC4/I2C_1_I2C_INT.c ****                     }
 173:Generated_Source\PSoC4/I2C_1_I2C_INT.c ****                 }
 174:Generated_Source\PSoC4/I2C_1_I2C_INT.c ****                 #else
 175:Generated_Source\PSoC4/I2C_1_I2C_INT.c ****                 {
 176:Generated_Source\PSoC4/I2C_1_I2C_INT.c ****                     /* In case of LOST*/
 177:Generated_Source\PSoC4/I2C_1_I2C_INT.c ****                     I2C_1_state = I2C_1_I2C_FSM_EXIT_IDLE;
 178:Generated_Source\PSoC4/I2C_1_I2C_INT.c ****                 }
 179:Generated_Source\PSoC4/I2C_1_I2C_INT.c ****                 #endif
 180:Generated_Source\PSoC4/I2C_1_I2C_INT.c ****             }
 181:Generated_Source\PSoC4/I2C_1_I2C_INT.c ****         }
 182:Generated_Source\PSoC4/I2C_1_I2C_INT.c ****         #endif
 183:Generated_Source\PSoC4/I2C_1_I2C_INT.c ****     }
 184:Generated_Source\PSoC4/I2C_1_I2C_INT.c ****     else /* (I2C_1_CHECK_I2C_FSM_SLAVE) */
 185:Generated_Source\PSoC4/I2C_1_I2C_INT.c ****     {
 186:Generated_Source\PSoC4/I2C_1_I2C_INT.c ****         #if(I2C_1_I2C_SLAVE)
 187:Generated_Source\PSoC4/I2C_1_I2C_INT.c ****         {
 188:Generated_Source\PSoC4/I2C_1_I2C_INT.c ****             /* INTR_SLAVE_I2C_BUS_ERROR or I2C_1_INTR_SLAVE_I2C_ARB_LOST:
 189:Generated_Source\PSoC4/I2C_1_I2C_INT.c ****             * A Misplaced Start or Stop condition occurred on the bus: set a flag
 190:Generated_Source\PSoC4/I2C_1_I2C_INT.c ****             * to notify an error condition.
 191:Generated_Source\PSoC4/I2C_1_I2C_INT.c ****             */
 192:Generated_Source\PSoC4/I2C_1_I2C_INT.c ****             if(I2C_1_CHECK_INTR_SLAVE_MASKED(I2C_1_INTR_SLAVE_I2C_BUS_ERROR |
  73              		.loc 1 192 0
  74 0038 C54B     		ldr	r3, .L39+16
  75 003a 1A68     		ldr	r2, [r3]
  76 003c 0223     		movs	r3, #2
  77 003e FF33     		adds	r3, r3, #255
  78 0040 1340     		ands	r3, r2
  79 0042 2CD0     		beq	.L4
 193:Generated_Source\PSoC4/I2C_1_I2C_INT.c ****                                                         I2C_1_INTR_SLAVE_I2C_ARB_LOST))
 194:Generated_Source\PSoC4/I2C_1_I2C_INT.c ****             {
 195:Generated_Source\PSoC4/I2C_1_I2C_INT.c ****                 if(I2C_1_CHECK_I2C_FSM_RD)
  80              		.loc 1 195 0
  81 0044 C14B     		ldr	r3, .L39+12
  82 0046 1B78     		ldrb	r3, [r3]
  83 0048 DBB2     		uxtb	r3, r3
  84 004a 0122     		movs	r2, #1
  85 004c 1340     		ands	r3, r2
  86 004e DBB2     		uxtb	r3, r3
  87 0050 002B     		cmp	r3, #0
  88 0052 10D0     		beq	.L5
 196:Generated_Source\PSoC4/I2C_1_I2C_INT.c ****                 {
 197:Generated_Source\PSoC4/I2C_1_I2C_INT.c ****                     /* TX direction: master reads from slave */
ARM GAS  C:\Users\alexport\AppData\Local\Temp\cc5DETbb.s 			page 6


 198:Generated_Source\PSoC4/I2C_1_I2C_INT.c ****                     I2C_1_slStatus &= (uint8) ~I2C_1_I2C_SSTAT_RD_BUSY;
  89              		.loc 1 198 0
  90 0054 BF4B     		ldr	r3, .L39+20
  91 0056 1B78     		ldrb	r3, [r3]
  92 0058 DBB2     		uxtb	r3, r3
  93 005a 0222     		movs	r2, #2
  94 005c 9343     		bics	r3, r2
  95 005e DAB2     		uxtb	r2, r3
  96 0060 BC4B     		ldr	r3, .L39+20
  97 0062 1A70     		strb	r2, [r3]
 199:Generated_Source\PSoC4/I2C_1_I2C_INT.c ****                     I2C_1_slStatus |= (uint8) (I2C_1_I2C_SSTAT_RD_ERR |
  98              		.loc 1 199 0
  99 0064 BB4B     		ldr	r3, .L39+20
 100 0066 1B78     		ldrb	r3, [r3]
 101 0068 DBB2     		uxtb	r3, r3
 102 006a 0922     		movs	r2, #9
 103 006c 1343     		orrs	r3, r2
 104 006e DAB2     		uxtb	r2, r3
 105 0070 B84B     		ldr	r3, .L39+20
 106 0072 1A70     		strb	r2, [r3]
 107 0074 10E0     		b	.L6
 108              	.L5:
 200:Generated_Source\PSoC4/I2C_1_I2C_INT.c ****                                                           I2C_1_I2C_SSTAT_RD_CMPLT);
 201:Generated_Source\PSoC4/I2C_1_I2C_INT.c ****                 }
 202:Generated_Source\PSoC4/I2C_1_I2C_INT.c ****                 else
 203:Generated_Source\PSoC4/I2C_1_I2C_INT.c ****                 {
 204:Generated_Source\PSoC4/I2C_1_I2C_INT.c ****                     /* RX direction: master writes into slave */
 205:Generated_Source\PSoC4/I2C_1_I2C_INT.c ****                     I2C_1_slStatus &= (uint8) ~I2C_1_I2C_SSTAT_WR_BUSY;
 109              		.loc 1 205 0
 110 0076 B74B     		ldr	r3, .L39+20
 111 0078 1B78     		ldrb	r3, [r3]
 112 007a DBB2     		uxtb	r3, r3
 113 007c 2022     		movs	r2, #32
 114 007e 9343     		bics	r3, r2
 115 0080 DAB2     		uxtb	r2, r3
 116 0082 B44B     		ldr	r3, .L39+20
 117 0084 1A70     		strb	r2, [r3]
 206:Generated_Source\PSoC4/I2C_1_I2C_INT.c ****                     I2C_1_slStatus |= (uint8) (I2C_1_I2C_SSTAT_WR_ERR |
 118              		.loc 1 206 0
 119 0086 B34B     		ldr	r3, .L39+20
 120 0088 1B78     		ldrb	r3, [r3]
 121 008a DBB2     		uxtb	r3, r3
 122 008c 7022     		movs	r2, #112
 123 008e 5242     		rsbs	r2, r2, #0
 124 0090 1343     		orrs	r3, r2
 125 0092 DAB2     		uxtb	r2, r3
 126 0094 AF4B     		ldr	r3, .L39+20
 127 0096 1A70     		strb	r2, [r3]
 128              	.L6:
 207:Generated_Source\PSoC4/I2C_1_I2C_INT.c ****                                                           I2C_1_I2C_SSTAT_WR_CMPLT);
 208:Generated_Source\PSoC4/I2C_1_I2C_INT.c ****                 }
 209:Generated_Source\PSoC4/I2C_1_I2C_INT.c **** 
 210:Generated_Source\PSoC4/I2C_1_I2C_INT.c ****                 I2C_1_state = I2C_1_I2C_FSM_EXIT_IDLE;
 129              		.loc 1 210 0
 130 0098 AC4B     		ldr	r3, .L39+12
 131 009a 0022     		movs	r2, #0
 132 009c 1A70     		strb	r2, [r3]
ARM GAS  C:\Users\alexport\AppData\Local\Temp\cc5DETbb.s 			page 7


 133              	.L4:
 211:Generated_Source\PSoC4/I2C_1_I2C_INT.c ****             }
 212:Generated_Source\PSoC4/I2C_1_I2C_INT.c ****         }
 213:Generated_Source\PSoC4/I2C_1_I2C_INT.c ****         #endif
 214:Generated_Source\PSoC4/I2C_1_I2C_INT.c ****     }
 215:Generated_Source\PSoC4/I2C_1_I2C_INT.c **** 
 216:Generated_Source\PSoC4/I2C_1_I2C_INT.c ****     /* States description:
 217:Generated_Source\PSoC4/I2C_1_I2C_INT.c ****     * Any Master operation starts from: the ADDR_RD/WR state as the master generates traffic on the
 218:Generated_Source\PSoC4/I2C_1_I2C_INT.c ****     * Any Slave operation starts from: the IDLE state as the slave always waits for actions from th
 219:Generated_Source\PSoC4/I2C_1_I2C_INT.c ****     */
 220:Generated_Source\PSoC4/I2C_1_I2C_INT.c **** 
 221:Generated_Source\PSoC4/I2C_1_I2C_INT.c ****     /* FSM Master */
 222:Generated_Source\PSoC4/I2C_1_I2C_INT.c ****     if(I2C_1_CHECK_I2C_FSM_MASTER)
 134              		.loc 1 222 0
 135 009e AB4B     		ldr	r3, .L39+12
 136 00a0 1B78     		ldrb	r3, [r3]
 137 00a2 DBB2     		uxtb	r3, r3
 138 00a4 2022     		movs	r2, #32
 139 00a6 1340     		ands	r3, r2
 140 00a8 DBB2     		uxtb	r3, r3
 141 00aa 002B     		cmp	r3, #0
 142 00ac 00D0     		beq	.LCB108
 143 00ae E6E1     		b	.L38	@long jump
 144              	.LCB108:
 223:Generated_Source\PSoC4/I2C_1_I2C_INT.c ****     {
 224:Generated_Source\PSoC4/I2C_1_I2C_INT.c ****         #if(I2C_1_I2C_MASTER)
 225:Generated_Source\PSoC4/I2C_1_I2C_INT.c ****         {
 226:Generated_Source\PSoC4/I2C_1_I2C_INT.c ****             /* INTR_MASTER_I2C_STOP:
 227:Generated_Source\PSoC4/I2C_1_I2C_INT.c ****             * A Stop condition was generated by the master: the end of the transaction.
 228:Generated_Source\PSoC4/I2C_1_I2C_INT.c ****             * Set completion flags to notify the API.
 229:Generated_Source\PSoC4/I2C_1_I2C_INT.c ****             */
 230:Generated_Source\PSoC4/I2C_1_I2C_INT.c ****             if(I2C_1_CHECK_INTR_MASTER_MASKED(I2C_1_INTR_MASTER_I2C_STOP))
 231:Generated_Source\PSoC4/I2C_1_I2C_INT.c ****             {
 232:Generated_Source\PSoC4/I2C_1_I2C_INT.c ****                 I2C_1_ClearMasterInterruptSource(I2C_1_INTR_MASTER_I2C_STOP);
 233:Generated_Source\PSoC4/I2C_1_I2C_INT.c **** 
 234:Generated_Source\PSoC4/I2C_1_I2C_INT.c ****                 I2C_1_mstrStatus |= (uint16) I2C_1_GET_I2C_MSTAT_CMPLT;
 235:Generated_Source\PSoC4/I2C_1_I2C_INT.c ****                 I2C_1_state       = I2C_1_I2C_FSM_IDLE;
 236:Generated_Source\PSoC4/I2C_1_I2C_INT.c ****             }
 237:Generated_Source\PSoC4/I2C_1_I2C_INT.c ****             else
 238:Generated_Source\PSoC4/I2C_1_I2C_INT.c ****             {
 239:Generated_Source\PSoC4/I2C_1_I2C_INT.c ****                 if(I2C_1_CHECK_I2C_FSM_ADDR) /* Address stage */
 240:Generated_Source\PSoC4/I2C_1_I2C_INT.c ****                 {
 241:Generated_Source\PSoC4/I2C_1_I2C_INT.c ****                     /* INTR_MASTER_I2C_NACK:
 242:Generated_Source\PSoC4/I2C_1_I2C_INT.c ****                     * The master sent an address but it was NACKed by the slave. Complete transacti
 243:Generated_Source\PSoC4/I2C_1_I2C_INT.c ****                     */
 244:Generated_Source\PSoC4/I2C_1_I2C_INT.c ****                     if(I2C_1_CHECK_INTR_MASTER_MASKED(I2C_1_INTR_MASTER_I2C_NACK))
 245:Generated_Source\PSoC4/I2C_1_I2C_INT.c ****                     {
 246:Generated_Source\PSoC4/I2C_1_I2C_INT.c ****                         I2C_1_ClearMasterInterruptSource(I2C_1_INTR_MASTER_I2C_NACK);
 247:Generated_Source\PSoC4/I2C_1_I2C_INT.c **** 
 248:Generated_Source\PSoC4/I2C_1_I2C_INT.c ****                         I2C_1_mstrStatus |= (uint16) (I2C_1_I2C_MSTAT_ERR_XFER |
 249:Generated_Source\PSoC4/I2C_1_I2C_INT.c ****                                                                  I2C_1_I2C_MSTAT_ERR_ADDR_NAK);
 250:Generated_Source\PSoC4/I2C_1_I2C_INT.c **** 
 251:Generated_Source\PSoC4/I2C_1_I2C_INT.c ****                         endTransfer = I2C_1_I2C_CMPLT_ANY_TRANSFER;
 252:Generated_Source\PSoC4/I2C_1_I2C_INT.c ****                     }
 253:Generated_Source\PSoC4/I2C_1_I2C_INT.c ****                     /* INTR_TX_UNDERFLOW. The master sent an address:
 254:Generated_Source\PSoC4/I2C_1_I2C_INT.c ****                     *  - TX direction: the clock is stretched after the ACK phase, because the TX F
 255:Generated_Source\PSoC4/I2C_1_I2C_INT.c ****                     *    EMPTY. The TX EMPTY cleans all the TX interrupt sources.
ARM GAS  C:\Users\alexport\AppData\Local\Temp\cc5DETbb.s 			page 8


 256:Generated_Source\PSoC4/I2C_1_I2C_INT.c ****                     *  - RX direction: the 1st byte is received, but there is no ACK permission,
 257:Generated_Source\PSoC4/I2C_1_I2C_INT.c ****                     *    the clock is stretched after 1 byte is received.
 258:Generated_Source\PSoC4/I2C_1_I2C_INT.c ****                     */
 259:Generated_Source\PSoC4/I2C_1_I2C_INT.c ****                     else
 260:Generated_Source\PSoC4/I2C_1_I2C_INT.c ****                     {
 261:Generated_Source\PSoC4/I2C_1_I2C_INT.c ****                         if(I2C_1_CHECK_I2C_FSM_RD) /* Reading */
 262:Generated_Source\PSoC4/I2C_1_I2C_INT.c ****                         {
 263:Generated_Source\PSoC4/I2C_1_I2C_INT.c ****                             I2C_1_state = I2C_1_I2C_FSM_MSTR_RD_DATA;
 264:Generated_Source\PSoC4/I2C_1_I2C_INT.c ****                         }
 265:Generated_Source\PSoC4/I2C_1_I2C_INT.c ****                         else /* Writing */
 266:Generated_Source\PSoC4/I2C_1_I2C_INT.c ****                         {
 267:Generated_Source\PSoC4/I2C_1_I2C_INT.c ****                             I2C_1_state = I2C_1_I2C_FSM_MSTR_WR_DATA;
 268:Generated_Source\PSoC4/I2C_1_I2C_INT.c ****                             if(0u != I2C_1_mstrWrBufSize)
 269:Generated_Source\PSoC4/I2C_1_I2C_INT.c ****                             {
 270:Generated_Source\PSoC4/I2C_1_I2C_INT.c ****                                 /* Enable INTR.TX_EMPTY if there is data to transmit */
 271:Generated_Source\PSoC4/I2C_1_I2C_INT.c ****                                 I2C_1_SetTxInterruptMode(I2C_1_INTR_TX_EMPTY);
 272:Generated_Source\PSoC4/I2C_1_I2C_INT.c ****                             }
 273:Generated_Source\PSoC4/I2C_1_I2C_INT.c ****                         }
 274:Generated_Source\PSoC4/I2C_1_I2C_INT.c ****                     }
 275:Generated_Source\PSoC4/I2C_1_I2C_INT.c ****                 }
 276:Generated_Source\PSoC4/I2C_1_I2C_INT.c **** 
 277:Generated_Source\PSoC4/I2C_1_I2C_INT.c ****                 if(I2C_1_CHECK_I2C_FSM_DATA) /* Data phase */
 278:Generated_Source\PSoC4/I2C_1_I2C_INT.c ****                 {
 279:Generated_Source\PSoC4/I2C_1_I2C_INT.c ****                     if(I2C_1_CHECK_I2C_FSM_RD) /* Reading */
 280:Generated_Source\PSoC4/I2C_1_I2C_INT.c ****                     {
 281:Generated_Source\PSoC4/I2C_1_I2C_INT.c ****                         /* INTR_RX_FULL:
 282:Generated_Source\PSoC4/I2C_1_I2C_INT.c ****                         * RX direction: the master received 8 bytes.
 283:Generated_Source\PSoC4/I2C_1_I2C_INT.c ****                         * Get data from RX FIFO and decide whether to ACK or  NACK the following by
 284:Generated_Source\PSoC4/I2C_1_I2C_INT.c ****                         */
 285:Generated_Source\PSoC4/I2C_1_I2C_INT.c ****                         if(I2C_1_CHECK_INTR_RX_MASKED(I2C_1_INTR_RX_FULL))
 286:Generated_Source\PSoC4/I2C_1_I2C_INT.c ****                         {
 287:Generated_Source\PSoC4/I2C_1_I2C_INT.c ****                             /* Calculate difference */
 288:Generated_Source\PSoC4/I2C_1_I2C_INT.c ****                             diffCount =  I2C_1_mstrRdBufSize -
 289:Generated_Source\PSoC4/I2C_1_I2C_INT.c ****                                         (I2C_1_mstrRdBufIndex + I2C_1_GET_RX_FIFO_ENTRIES);
 290:Generated_Source\PSoC4/I2C_1_I2C_INT.c **** 
 291:Generated_Source\PSoC4/I2C_1_I2C_INT.c ****                             /* Proceed transaction or end it when RX FIFO becomes FULL again */
 292:Generated_Source\PSoC4/I2C_1_I2C_INT.c ****                             if(diffCount > I2C_1_I2C_FIFO_SIZE)
 293:Generated_Source\PSoC4/I2C_1_I2C_INT.c ****                             {
 294:Generated_Source\PSoC4/I2C_1_I2C_INT.c ****                                 diffCount = I2C_1_I2C_FIFO_SIZE;
 295:Generated_Source\PSoC4/I2C_1_I2C_INT.c ****                             }
 296:Generated_Source\PSoC4/I2C_1_I2C_INT.c ****                             else
 297:Generated_Source\PSoC4/I2C_1_I2C_INT.c ****                             {
 298:Generated_Source\PSoC4/I2C_1_I2C_INT.c ****                                 if(0u == diffCount)
 299:Generated_Source\PSoC4/I2C_1_I2C_INT.c ****                                 {
 300:Generated_Source\PSoC4/I2C_1_I2C_INT.c ****                                     I2C_1_DISABLE_MASTER_AUTO_DATA_ACK;
 301:Generated_Source\PSoC4/I2C_1_I2C_INT.c **** 
 302:Generated_Source\PSoC4/I2C_1_I2C_INT.c ****                                     diffCount   = I2C_1_I2C_FIFO_SIZE;
 303:Generated_Source\PSoC4/I2C_1_I2C_INT.c ****                                     endTransfer = I2C_1_I2C_CMPLT_ANY_TRANSFER;
 304:Generated_Source\PSoC4/I2C_1_I2C_INT.c ****                                 }
 305:Generated_Source\PSoC4/I2C_1_I2C_INT.c ****                             }
 306:Generated_Source\PSoC4/I2C_1_I2C_INT.c **** 
 307:Generated_Source\PSoC4/I2C_1_I2C_INT.c ****                             for(; (0u != diffCount); diffCount--)
 308:Generated_Source\PSoC4/I2C_1_I2C_INT.c ****                             {
 309:Generated_Source\PSoC4/I2C_1_I2C_INT.c ****                                 I2C_1_mstrRdBufPtr[I2C_1_mstrRdBufIndex] = (uint8)
 310:Generated_Source\PSoC4/I2C_1_I2C_INT.c ****                                                                                         I2C_1_RX_FI
 311:Generated_Source\PSoC4/I2C_1_I2C_INT.c ****                                 I2C_1_mstrRdBufIndex++;
 312:Generated_Source\PSoC4/I2C_1_I2C_INT.c ****                             }
ARM GAS  C:\Users\alexport\AppData\Local\Temp\cc5DETbb.s 			page 9


 313:Generated_Source\PSoC4/I2C_1_I2C_INT.c ****                         }
 314:Generated_Source\PSoC4/I2C_1_I2C_INT.c ****                         /* INTR_RX_NOT_EMPTY:
 315:Generated_Source\PSoC4/I2C_1_I2C_INT.c ****                         * RX direction: the master received one data byte, ACK or NACK it.
 316:Generated_Source\PSoC4/I2C_1_I2C_INT.c ****                         * The last byte is stored and NACKed by the master. The NACK and Stop is
 317:Generated_Source\PSoC4/I2C_1_I2C_INT.c ****                         * generated by one command generate Stop.
 318:Generated_Source\PSoC4/I2C_1_I2C_INT.c ****                         */
 319:Generated_Source\PSoC4/I2C_1_I2C_INT.c ****                         else if(I2C_1_CHECK_INTR_RX_MASKED(I2C_1_INTR_RX_NOT_EMPTY))
 320:Generated_Source\PSoC4/I2C_1_I2C_INT.c ****                         {
 321:Generated_Source\PSoC4/I2C_1_I2C_INT.c ****                             /* Put data in component buffer */
 322:Generated_Source\PSoC4/I2C_1_I2C_INT.c ****                             I2C_1_mstrRdBufPtr[I2C_1_mstrRdBufIndex] = (uint8) I2C_1_RX_FIFO_RD_REG
 323:Generated_Source\PSoC4/I2C_1_I2C_INT.c ****                             I2C_1_mstrRdBufIndex++;
 324:Generated_Source\PSoC4/I2C_1_I2C_INT.c **** 
 325:Generated_Source\PSoC4/I2C_1_I2C_INT.c ****                             if(I2C_1_mstrRdBufIndex < I2C_1_mstrRdBufSize)
 326:Generated_Source\PSoC4/I2C_1_I2C_INT.c ****                             {
 327:Generated_Source\PSoC4/I2C_1_I2C_INT.c ****                                 I2C_1_I2C_MASTER_GENERATE_ACK;
 328:Generated_Source\PSoC4/I2C_1_I2C_INT.c ****                             }
 329:Generated_Source\PSoC4/I2C_1_I2C_INT.c ****                             else
 330:Generated_Source\PSoC4/I2C_1_I2C_INT.c ****                             {
 331:Generated_Source\PSoC4/I2C_1_I2C_INT.c ****                                endTransfer = I2C_1_I2C_CMPLT_ANY_TRANSFER;
 332:Generated_Source\PSoC4/I2C_1_I2C_INT.c ****                             }
 333:Generated_Source\PSoC4/I2C_1_I2C_INT.c ****                         }
 334:Generated_Source\PSoC4/I2C_1_I2C_INT.c ****                         else
 335:Generated_Source\PSoC4/I2C_1_I2C_INT.c ****                         {
 336:Generated_Source\PSoC4/I2C_1_I2C_INT.c ****                             /* Do nothing */
 337:Generated_Source\PSoC4/I2C_1_I2C_INT.c ****                         }
 338:Generated_Source\PSoC4/I2C_1_I2C_INT.c **** 
 339:Generated_Source\PSoC4/I2C_1_I2C_INT.c ****                         I2C_1_ClearRxInterruptSource(I2C_1_INTR_RX_ALL);
 340:Generated_Source\PSoC4/I2C_1_I2C_INT.c ****                     }
 341:Generated_Source\PSoC4/I2C_1_I2C_INT.c ****                     else /* Writing */
 342:Generated_Source\PSoC4/I2C_1_I2C_INT.c ****                     {
 343:Generated_Source\PSoC4/I2C_1_I2C_INT.c ****                         /* INTR_MASTER_I2C_NACK :
 344:Generated_Source\PSoC4/I2C_1_I2C_INT.c ****                         * The master writes data to the slave and NACK was received: not all the by
 345:Generated_Source\PSoC4/I2C_1_I2C_INT.c ****                         * written to the slave from the TX FIFO. Revert the index if there is data 
 346:Generated_Source\PSoC4/I2C_1_I2C_INT.c ****                         * the TX FIFO and pass control to a complete transfer.
 347:Generated_Source\PSoC4/I2C_1_I2C_INT.c ****                         */
 348:Generated_Source\PSoC4/I2C_1_I2C_INT.c ****                         if(I2C_1_CHECK_INTR_MASTER_MASKED(I2C_1_INTR_MASTER_I2C_NACK))
 349:Generated_Source\PSoC4/I2C_1_I2C_INT.c ****                         {
 350:Generated_Source\PSoC4/I2C_1_I2C_INT.c ****                             I2C_1_ClearMasterInterruptSource(I2C_1_INTR_MASTER_I2C_NACK);
 351:Generated_Source\PSoC4/I2C_1_I2C_INT.c **** 
 352:Generated_Source\PSoC4/I2C_1_I2C_INT.c ****                             /* Rollback write buffer index: NACKed byte remains in shifter */
 353:Generated_Source\PSoC4/I2C_1_I2C_INT.c ****                             I2C_1_mstrWrBufIndexTmp -= (I2C_1_GET_TX_FIFO_ENTRIES +
 354:Generated_Source\PSoC4/I2C_1_I2C_INT.c ****                                                                    I2C_1_GET_TX_FIFO_SR_VALID);
 355:Generated_Source\PSoC4/I2C_1_I2C_INT.c **** 
 356:Generated_Source\PSoC4/I2C_1_I2C_INT.c ****                             /* Update number of transferred bytes */
 357:Generated_Source\PSoC4/I2C_1_I2C_INT.c ****                             I2C_1_mstrWrBufIndex = I2C_1_mstrWrBufIndexTmp;
 358:Generated_Source\PSoC4/I2C_1_I2C_INT.c **** 
 359:Generated_Source\PSoC4/I2C_1_I2C_INT.c ****                             I2C_1_mstrStatus |= (uint16) (I2C_1_I2C_MSTAT_ERR_XFER |
 360:Generated_Source\PSoC4/I2C_1_I2C_INT.c ****                                                                      I2C_1_I2C_MSTAT_ERR_SHORT_XFER
 361:Generated_Source\PSoC4/I2C_1_I2C_INT.c **** 
 362:Generated_Source\PSoC4/I2C_1_I2C_INT.c ****                             I2C_1_CLEAR_TX_FIFO;
 363:Generated_Source\PSoC4/I2C_1_I2C_INT.c **** 
 364:Generated_Source\PSoC4/I2C_1_I2C_INT.c ****                             endTransfer = I2C_1_I2C_CMPLT_ANY_TRANSFER;
 365:Generated_Source\PSoC4/I2C_1_I2C_INT.c ****                         }
 366:Generated_Source\PSoC4/I2C_1_I2C_INT.c ****                         /* INTR_TX_EMPTY :
 367:Generated_Source\PSoC4/I2C_1_I2C_INT.c ****                         * TX direction: the TX FIFO is EMPTY, the data from the buffer needs to be 
 368:Generated_Source\PSoC4/I2C_1_I2C_INT.c ****                         * When there is no data in the component buffer, the underflow interrupt is
 369:Generated_Source\PSoC4/I2C_1_I2C_INT.c ****                         * enabled to catch when all the data has been transferred.
ARM GAS  C:\Users\alexport\AppData\Local\Temp\cc5DETbb.s 			page 10


 370:Generated_Source\PSoC4/I2C_1_I2C_INT.c ****                         */
 371:Generated_Source\PSoC4/I2C_1_I2C_INT.c ****                         else if(I2C_1_CHECK_INTR_TX_MASKED(I2C_1_INTR_TX_EMPTY))
 372:Generated_Source\PSoC4/I2C_1_I2C_INT.c ****                         {
 373:Generated_Source\PSoC4/I2C_1_I2C_INT.c ****                             while(I2C_1_I2C_FIFO_SIZE != I2C_1_GET_TX_FIFO_ENTRIES)
 374:Generated_Source\PSoC4/I2C_1_I2C_INT.c ****                             {
 375:Generated_Source\PSoC4/I2C_1_I2C_INT.c ****                                 /* The temporary mstrWrBufIndexTmp is used because slave could NACK
 376:Generated_Source\PSoC4/I2C_1_I2C_INT.c ****                                 * roll-back required in this case. The mstrWrBufIndex is updated at
 377:Generated_Source\PSoC4/I2C_1_I2C_INT.c ****                                 */
 378:Generated_Source\PSoC4/I2C_1_I2C_INT.c ****                                 if(I2C_1_mstrWrBufIndexTmp < I2C_1_mstrWrBufSize)
 379:Generated_Source\PSoC4/I2C_1_I2C_INT.c ****                                 {
 380:Generated_Source\PSoC4/I2C_1_I2C_INT.c ****                                 #if(!I2C_1_CY_SCBIP_V0)
 381:Generated_Source\PSoC4/I2C_1_I2C_INT.c ****                                    /* Clear INTR_TX.UNDERFLOW before putting the last byte into TX 
 382:Generated_Source\PSoC4/I2C_1_I2C_INT.c ****                                     * a proper trigger at the end of transaction when INTR_TX.UNDER
 383:Generated_Source\PSoC4/I2C_1_I2C_INT.c ****                                     * event. Ticket ID# 156735.
 384:Generated_Source\PSoC4/I2C_1_I2C_INT.c ****                                     */
 385:Generated_Source\PSoC4/I2C_1_I2C_INT.c ****                                     if(I2C_1_mstrWrBufIndexTmp == (I2C_1_mstrWrBufSize - 1u))
 386:Generated_Source\PSoC4/I2C_1_I2C_INT.c ****                                     {
 387:Generated_Source\PSoC4/I2C_1_I2C_INT.c ****                                         I2C_1_ClearTxInterruptSource(I2C_1_INTR_TX_UNDERFLOW);
 388:Generated_Source\PSoC4/I2C_1_I2C_INT.c ****                                         I2C_1_SetTxInterruptMode(I2C_1_INTR_TX_UNDERFLOW);
 389:Generated_Source\PSoC4/I2C_1_I2C_INT.c ****                                     }
 390:Generated_Source\PSoC4/I2C_1_I2C_INT.c ****                                  #endif /* (!I2C_1_CY_SCBIP_V0) */
 391:Generated_Source\PSoC4/I2C_1_I2C_INT.c **** 
 392:Generated_Source\PSoC4/I2C_1_I2C_INT.c ****                                     /* Put data into TX FIFO */
 393:Generated_Source\PSoC4/I2C_1_I2C_INT.c ****                                     I2C_1_TX_FIFO_WR_REG = (uint32) I2C_1_mstrWrBufPtr[I2C_1_mstrWr
 394:Generated_Source\PSoC4/I2C_1_I2C_INT.c ****                                     I2C_1_mstrWrBufIndexTmp++;
 395:Generated_Source\PSoC4/I2C_1_I2C_INT.c ****                                 }
 396:Generated_Source\PSoC4/I2C_1_I2C_INT.c ****                                 else
 397:Generated_Source\PSoC4/I2C_1_I2C_INT.c ****                                 {
 398:Generated_Source\PSoC4/I2C_1_I2C_INT.c ****                                     break; /* No more data to put */
 399:Generated_Source\PSoC4/I2C_1_I2C_INT.c ****                                 }
 400:Generated_Source\PSoC4/I2C_1_I2C_INT.c ****                             }
 401:Generated_Source\PSoC4/I2C_1_I2C_INT.c **** 
 402:Generated_Source\PSoC4/I2C_1_I2C_INT.c ****                         #if(I2C_1_CY_SCBIP_V0)
 403:Generated_Source\PSoC4/I2C_1_I2C_INT.c ****                             if(I2C_1_mstrWrBufIndexTmp == I2C_1_mstrWrBufSize)
 404:Generated_Source\PSoC4/I2C_1_I2C_INT.c ****                             {
 405:Generated_Source\PSoC4/I2C_1_I2C_INT.c ****                                 I2C_1_SetTxInterruptMode(I2C_1_INTR_TX_UNDERFLOW);
 406:Generated_Source\PSoC4/I2C_1_I2C_INT.c ****                             }
 407:Generated_Source\PSoC4/I2C_1_I2C_INT.c **** 
 408:Generated_Source\PSoC4/I2C_1_I2C_INT.c ****                             I2C_1_ClearTxInterruptSource(I2C_1_INTR_TX_ALL);
 409:Generated_Source\PSoC4/I2C_1_I2C_INT.c ****                         #else
 410:Generated_Source\PSoC4/I2C_1_I2C_INT.c ****                             I2C_1_ClearTxInterruptSource(I2C_1_INTR_TX_EMPTY);
 411:Generated_Source\PSoC4/I2C_1_I2C_INT.c ****                         #endif /* (I2C_1_CY_SCBIP_V0) */
 412:Generated_Source\PSoC4/I2C_1_I2C_INT.c ****                         }
 413:Generated_Source\PSoC4/I2C_1_I2C_INT.c ****                         /* INTR_TX_UNDERFLOW:
 414:Generated_Source\PSoC4/I2C_1_I2C_INT.c ****                         * TX direction: all data from the TX FIFO was transferred to the slave.
 415:Generated_Source\PSoC4/I2C_1_I2C_INT.c ****                         * The transaction needs to be completed.
 416:Generated_Source\PSoC4/I2C_1_I2C_INT.c ****                         */
 417:Generated_Source\PSoC4/I2C_1_I2C_INT.c ****                         else if(I2C_1_CHECK_INTR_TX_MASKED(I2C_1_INTR_TX_UNDERFLOW))
 418:Generated_Source\PSoC4/I2C_1_I2C_INT.c ****                         {
 419:Generated_Source\PSoC4/I2C_1_I2C_INT.c ****                             /* Update number of transferred bytes */
 420:Generated_Source\PSoC4/I2C_1_I2C_INT.c ****                             I2C_1_mstrWrBufIndex = I2C_1_mstrWrBufIndexTmp;
 421:Generated_Source\PSoC4/I2C_1_I2C_INT.c **** 
 422:Generated_Source\PSoC4/I2C_1_I2C_INT.c ****                             endTransfer = I2C_1_I2C_CMPLT_ANY_TRANSFER;
 423:Generated_Source\PSoC4/I2C_1_I2C_INT.c ****                         }
 424:Generated_Source\PSoC4/I2C_1_I2C_INT.c ****                         else
 425:Generated_Source\PSoC4/I2C_1_I2C_INT.c ****                         {
 426:Generated_Source\PSoC4/I2C_1_I2C_INT.c ****                             /* Do nothing */
ARM GAS  C:\Users\alexport\AppData\Local\Temp\cc5DETbb.s 			page 11


 427:Generated_Source\PSoC4/I2C_1_I2C_INT.c ****                         }
 428:Generated_Source\PSoC4/I2C_1_I2C_INT.c ****                     }
 429:Generated_Source\PSoC4/I2C_1_I2C_INT.c ****                 }
 430:Generated_Source\PSoC4/I2C_1_I2C_INT.c **** 
 431:Generated_Source\PSoC4/I2C_1_I2C_INT.c ****                 if(0u != endTransfer) /* Complete transfer */
 432:Generated_Source\PSoC4/I2C_1_I2C_INT.c ****                 {
 433:Generated_Source\PSoC4/I2C_1_I2C_INT.c ****                     /* Clean-up master after reading: only in case of NACK */
 434:Generated_Source\PSoC4/I2C_1_I2C_INT.c ****                     I2C_1_DISABLE_MASTER_AUTO_DATA_ACK;
 435:Generated_Source\PSoC4/I2C_1_I2C_INT.c **** 
 436:Generated_Source\PSoC4/I2C_1_I2C_INT.c ****                     /* Disable data processing interrupts: they have to be cleared before */
 437:Generated_Source\PSoC4/I2C_1_I2C_INT.c ****                     I2C_1_SetRxInterruptMode(I2C_1_NO_INTR_SOURCES);
 438:Generated_Source\PSoC4/I2C_1_I2C_INT.c ****                     I2C_1_SetTxInterruptMode(I2C_1_NO_INTR_SOURCES);
 439:Generated_Source\PSoC4/I2C_1_I2C_INT.c **** 
 440:Generated_Source\PSoC4/I2C_1_I2C_INT.c ****                     if(I2C_1_CHECK_I2C_MODE_NO_STOP(I2C_1_mstrControl))
 441:Generated_Source\PSoC4/I2C_1_I2C_INT.c ****                     {
 442:Generated_Source\PSoC4/I2C_1_I2C_INT.c ****                         /* On-going transaction is suspended: the ReStart is generated by the API r
 443:Generated_Source\PSoC4/I2C_1_I2C_INT.c ****                         I2C_1_mstrStatus |= (uint16) (I2C_1_I2C_MSTAT_XFER_HALT |
 444:Generated_Source\PSoC4/I2C_1_I2C_INT.c ****                                                                  I2C_1_GET_I2C_MSTAT_CMPLT);
 445:Generated_Source\PSoC4/I2C_1_I2C_INT.c **** 
 446:Generated_Source\PSoC4/I2C_1_I2C_INT.c ****                         I2C_1_state = I2C_1_I2C_FSM_MSTR_HALT;
 447:Generated_Source\PSoC4/I2C_1_I2C_INT.c ****                     }
 448:Generated_Source\PSoC4/I2C_1_I2C_INT.c ****                     else
 449:Generated_Source\PSoC4/I2C_1_I2C_INT.c ****                     {
 450:Generated_Source\PSoC4/I2C_1_I2C_INT.c ****                         /* Complete transaction: exclude the data processing state and generate Sto
 451:Generated_Source\PSoC4/I2C_1_I2C_INT.c ****                         * The completion status will be set after Stop generation.
 452:Generated_Source\PSoC4/I2C_1_I2C_INT.c ****                         * A special case is read: because NACK and Stop are generated by the comman
 453:Generated_Source\PSoC4/I2C_1_I2C_INT.c ****                         * Lost arbitration can occur during NACK generation when
 454:Generated_Source\PSoC4/I2C_1_I2C_INT.c ****                         * the other master is still reading from the slave.
 455:Generated_Source\PSoC4/I2C_1_I2C_INT.c ****                         */
 456:Generated_Source\PSoC4/I2C_1_I2C_INT.c ****                         I2C_1_I2C_MASTER_GENERATE_STOP;
 457:Generated_Source\PSoC4/I2C_1_I2C_INT.c ****                     }
 458:Generated_Source\PSoC4/I2C_1_I2C_INT.c ****                 }
 459:Generated_Source\PSoC4/I2C_1_I2C_INT.c ****             }
 460:Generated_Source\PSoC4/I2C_1_I2C_INT.c **** 
 461:Generated_Source\PSoC4/I2C_1_I2C_INT.c ****         } /* (I2C_1_I2C_MASTER) */
 462:Generated_Source\PSoC4/I2C_1_I2C_INT.c ****         #endif
 463:Generated_Source\PSoC4/I2C_1_I2C_INT.c **** 
 464:Generated_Source\PSoC4/I2C_1_I2C_INT.c ****     } /* (I2C_1_CHECK_I2C_FSM_MASTER) */
 465:Generated_Source\PSoC4/I2C_1_I2C_INT.c **** 
 466:Generated_Source\PSoC4/I2C_1_I2C_INT.c **** 
 467:Generated_Source\PSoC4/I2C_1_I2C_INT.c ****     /* FSM Slave */
 468:Generated_Source\PSoC4/I2C_1_I2C_INT.c ****     else if(I2C_1_CHECK_I2C_FSM_SLAVE)
 145              		.loc 1 468 0
 146 00b0 A64B     		ldr	r3, .L39+12
 147 00b2 1B78     		ldrb	r3, [r3]
 148 00b4 DBB2     		uxtb	r3, r3
 149 00b6 1022     		movs	r2, #16
 150 00b8 1340     		ands	r3, r2
 151 00ba DBB2     		uxtb	r3, r3
 152 00bc 002B     		cmp	r3, #0
 153 00be 00D1     		bne	.LCB116
 154 00c0 DBE1     		b	.L8	@long jump
 155              	.LCB116:
 469:Generated_Source\PSoC4/I2C_1_I2C_INT.c ****     {
 470:Generated_Source\PSoC4/I2C_1_I2C_INT.c ****         #if(I2C_1_I2C_SLAVE)
 471:Generated_Source\PSoC4/I2C_1_I2C_INT.c ****         {
 472:Generated_Source\PSoC4/I2C_1_I2C_INT.c ****             /* INTR_SLAVE_NACK:
ARM GAS  C:\Users\alexport\AppData\Local\Temp\cc5DETbb.s 			page 12


 473:Generated_Source\PSoC4/I2C_1_I2C_INT.c ****             * The master completes reading the slave: the appropriate flags have to be set.
 474:Generated_Source\PSoC4/I2C_1_I2C_INT.c ****             * The TX FIFO is cleared after an overflow condition is set.
 475:Generated_Source\PSoC4/I2C_1_I2C_INT.c ****             */
 476:Generated_Source\PSoC4/I2C_1_I2C_INT.c ****             if(I2C_1_CHECK_INTR_SLAVE_MASKED(I2C_1_INTR_SLAVE_I2C_NACK))
 156              		.loc 1 476 0
 157 00c2 A34B     		ldr	r3, .L39+16
 158 00c4 1B68     		ldr	r3, [r3]
 159 00c6 0222     		movs	r2, #2
 160 00c8 1340     		ands	r3, r2
 161 00ca 56D0     		beq	.L9
 477:Generated_Source\PSoC4/I2C_1_I2C_INT.c ****             {
 478:Generated_Source\PSoC4/I2C_1_I2C_INT.c ****                 I2C_1_ClearSlaveInterruptSource(I2C_1_INTR_SLAVE_I2C_NACK);
 162              		.loc 1 478 0
 163 00cc A24B     		ldr	r3, .L39+24
 164 00ce 0222     		movs	r2, #2
 165 00d0 1A60     		str	r2, [r3]
 479:Generated_Source\PSoC4/I2C_1_I2C_INT.c **** 
 480:Generated_Source\PSoC4/I2C_1_I2C_INT.c ****                 /* All entries that remain in TX FIFO are: FIFO Size + 1 (SHIFTER) */
 481:Generated_Source\PSoC4/I2C_1_I2C_INT.c ****                 diffCount = (I2C_1_GET_TX_FIFO_ENTRIES + I2C_1_GET_TX_FIFO_SR_VALID);
 166              		.loc 1 481 0
 167 00d2 A24B     		ldr	r3, .L39+28
 168 00d4 1B68     		ldr	r3, [r3]
 169 00d6 1F22     		movs	r2, #31
 170 00d8 1A40     		ands	r2, r3
 171 00da A04B     		ldr	r3, .L39+28
 172 00dc 1968     		ldr	r1, [r3]
 173 00de 8023     		movs	r3, #128
 174 00e0 1B02     		lsls	r3, r3, #8
 175 00e2 0B40     		ands	r3, r1
 176 00e4 01D0     		beq	.L10
 177              		.loc 1 481 0 is_stmt 0 discriminator 1
 178 00e6 0123     		movs	r3, #1
 179 00e8 00E0     		b	.L11
 180              	.L10:
 181              		.loc 1 481 0 discriminator 2
 182 00ea 0023     		movs	r3, #0
 183              	.L11:
 184              		.loc 1 481 0 discriminator 4
 185 00ec D318     		adds	r3, r2, r3
 186 00ee 7B60     		str	r3, [r7, #4]
 482:Generated_Source\PSoC4/I2C_1_I2C_INT.c **** 
 483:Generated_Source\PSoC4/I2C_1_I2C_INT.c ****                 if(I2C_1_slOverFlowCount > diffCount) /* Overflow */
 187              		.loc 1 483 0 is_stmt 1 discriminator 4
 188 00f0 9B4B     		ldr	r3, .L39+32
 189 00f2 1B78     		ldrb	r3, [r3]
 190 00f4 DBB2     		uxtb	r3, r3
 191 00f6 1A00     		movs	r2, r3
 192 00f8 7B68     		ldr	r3, [r7, #4]
 193 00fa 9A42     		cmp	r2, r3
 194 00fc 08D9     		bls	.L12
 484:Generated_Source\PSoC4/I2C_1_I2C_INT.c ****                 {
 485:Generated_Source\PSoC4/I2C_1_I2C_INT.c ****                     I2C_1_slStatus |= (uint8) I2C_1_I2C_SSTAT_RD_OVFL;
 195              		.loc 1 485 0
 196 00fe 954B     		ldr	r3, .L39+20
 197 0100 1B78     		ldrb	r3, [r3]
 198 0102 DBB2     		uxtb	r3, r3
 199 0104 0422     		movs	r2, #4
ARM GAS  C:\Users\alexport\AppData\Local\Temp\cc5DETbb.s 			page 13


 200 0106 1343     		orrs	r3, r2
 201 0108 DAB2     		uxtb	r2, r3
 202 010a 924B     		ldr	r3, .L39+20
 203 010c 1A70     		strb	r2, [r3]
 204 010e 0AE0     		b	.L13
 205              	.L12:
 486:Generated_Source\PSoC4/I2C_1_I2C_INT.c ****                 }
 487:Generated_Source\PSoC4/I2C_1_I2C_INT.c ****                 else /* No Overflow */
 488:Generated_Source\PSoC4/I2C_1_I2C_INT.c ****                 {
 489:Generated_Source\PSoC4/I2C_1_I2C_INT.c ****                     /* Roll-back temporary index */
 490:Generated_Source\PSoC4/I2C_1_I2C_INT.c ****                     I2C_1_slRdBufIndexTmp -= (diffCount - I2C_1_slOverFlowCount);
 206              		.loc 1 490 0
 207 0110 934B     		ldr	r3, .L39+32
 208 0112 1B78     		ldrb	r3, [r3]
 209 0114 DBB2     		uxtb	r3, r3
 210 0116 1A00     		movs	r2, r3
 211 0118 7B68     		ldr	r3, [r7, #4]
 212 011a 9A1A     		subs	r2, r3, r2
 213 011c 914B     		ldr	r3, .L39+36
 214 011e 1B68     		ldr	r3, [r3]
 215 0120 9A1A     		subs	r2, r3, r2
 216 0122 904B     		ldr	r3, .L39+36
 217 0124 1A60     		str	r2, [r3]
 218              	.L13:
 491:Generated_Source\PSoC4/I2C_1_I2C_INT.c ****                 }
 492:Generated_Source\PSoC4/I2C_1_I2C_INT.c **** 
 493:Generated_Source\PSoC4/I2C_1_I2C_INT.c ****                 /* Update slave of transferred bytes */
 494:Generated_Source\PSoC4/I2C_1_I2C_INT.c ****                 I2C_1_slRdBufIndex = I2C_1_slRdBufIndexTmp;
 219              		.loc 1 494 0
 220 0126 8F4B     		ldr	r3, .L39+36
 221 0128 1A68     		ldr	r2, [r3]
 222 012a 8F4B     		ldr	r3, .L39+40
 223 012c 1A60     		str	r2, [r3]
 495:Generated_Source\PSoC4/I2C_1_I2C_INT.c **** 
 496:Generated_Source\PSoC4/I2C_1_I2C_INT.c ****                 /* Clean-up TX FIFO */
 497:Generated_Source\PSoC4/I2C_1_I2C_INT.c ****                 I2C_1_SetTxInterruptMode(I2C_1_NO_INTR_SOURCES);
 224              		.loc 1 497 0
 225 012e 8F4B     		ldr	r3, .L39+44
 226 0130 0022     		movs	r2, #0
 227 0132 1A60     		str	r2, [r3]
 498:Generated_Source\PSoC4/I2C_1_I2C_INT.c ****                 I2C_1_slOverFlowCount = 0u;
 228              		.loc 1 498 0
 229 0134 8A4B     		ldr	r3, .L39+32
 230 0136 0022     		movs	r2, #0
 231 0138 1A70     		strb	r2, [r3]
 499:Generated_Source\PSoC4/I2C_1_I2C_INT.c ****                 I2C_1_CLEAR_TX_FIFO;
 232              		.loc 1 499 0
 233 013a 8D4B     		ldr	r3, .L39+48
 234 013c 8C4A     		ldr	r2, .L39+48
 235 013e 1268     		ldr	r2, [r2]
 236 0140 8021     		movs	r1, #128
 237 0142 4902     		lsls	r1, r1, #9
 238 0144 0A43     		orrs	r2, r1
 239 0146 1A60     		str	r2, [r3]
 240 0148 894B     		ldr	r3, .L39+48
 241 014a 894A     		ldr	r2, .L39+48
 242 014c 1268     		ldr	r2, [r2]
ARM GAS  C:\Users\alexport\AppData\Local\Temp\cc5DETbb.s 			page 14


 243 014e 8949     		ldr	r1, .L39+52
 244 0150 0A40     		ands	r2, r1
 245 0152 1A60     		str	r2, [r3]
 500:Generated_Source\PSoC4/I2C_1_I2C_INT.c **** 
 501:Generated_Source\PSoC4/I2C_1_I2C_INT.c ****                 /* Complete master reading */
 502:Generated_Source\PSoC4/I2C_1_I2C_INT.c ****                 I2C_1_slStatus &= (uint8) ~I2C_1_I2C_SSTAT_RD_BUSY;
 246              		.loc 1 502 0
 247 0154 7F4B     		ldr	r3, .L39+20
 248 0156 1B78     		ldrb	r3, [r3]
 249 0158 DBB2     		uxtb	r3, r3
 250 015a 0222     		movs	r2, #2
 251 015c 9343     		bics	r3, r2
 252 015e DAB2     		uxtb	r2, r3
 253 0160 7C4B     		ldr	r3, .L39+20
 254 0162 1A70     		strb	r2, [r3]
 503:Generated_Source\PSoC4/I2C_1_I2C_INT.c ****                 I2C_1_slStatus |= (uint8)  I2C_1_I2C_SSTAT_RD_CMPLT;
 255              		.loc 1 503 0
 256 0164 7B4B     		ldr	r3, .L39+20
 257 0166 1B78     		ldrb	r3, [r3]
 258 0168 DBB2     		uxtb	r3, r3
 259 016a 0122     		movs	r2, #1
 260 016c 1343     		orrs	r3, r2
 261 016e DAB2     		uxtb	r2, r3
 262 0170 784B     		ldr	r3, .L39+20
 263 0172 1A70     		strb	r2, [r3]
 504:Generated_Source\PSoC4/I2C_1_I2C_INT.c ****                 I2C_1_state     =  I2C_1_I2C_FSM_IDLE;
 264              		.loc 1 504 0
 265 0174 754B     		ldr	r3, .L39+12
 266 0176 1022     		movs	r2, #16
 267 0178 1A70     		strb	r2, [r3]
 268              	.L9:
 505:Generated_Source\PSoC4/I2C_1_I2C_INT.c ****                 
 506:Generated_Source\PSoC4/I2C_1_I2C_INT.c ****             #ifdef I2C_1_I2C_SLAVE_CMPLT_CALLBACK
 507:Generated_Source\PSoC4/I2C_1_I2C_INT.c ****                 /* Read complete */
 508:Generated_Source\PSoC4/I2C_1_I2C_INT.c ****                 I2C_1_I2C_SlaveCompleteCallback();
 509:Generated_Source\PSoC4/I2C_1_I2C_INT.c ****             #endif /* I2C_1_I2C_SLAVE_CMPLT_CALLBACK */
 510:Generated_Source\PSoC4/I2C_1_I2C_INT.c ****             }
 511:Generated_Source\PSoC4/I2C_1_I2C_INT.c **** 
 512:Generated_Source\PSoC4/I2C_1_I2C_INT.c **** 
 513:Generated_Source\PSoC4/I2C_1_I2C_INT.c ****             /* INTR_SLAVE_I2C_WRITE_STOP:
 514:Generated_Source\PSoC4/I2C_1_I2C_INT.c ****             * The master completes writing to the slave: the appropriate flags have to be set.
 515:Generated_Source\PSoC4/I2C_1_I2C_INT.c ****             * The RX FIFO contains 1-8 bytes from the previous transaction which needs to be read.
 516:Generated_Source\PSoC4/I2C_1_I2C_INT.c ****             * There is a possibility that RX FIFO contains an address, it needs to leave it there.
 517:Generated_Source\PSoC4/I2C_1_I2C_INT.c ****             */
 518:Generated_Source\PSoC4/I2C_1_I2C_INT.c ****             if(I2C_1_CHECK_INTR_SLAVE_MASKED(I2C_1_INTR_SLAVE_I2C_WRITE_STOP))
 269              		.loc 1 518 0
 270 017a 754B     		ldr	r3, .L39+16
 271 017c 1B68     		ldr	r3, [r3]
 272 017e 0822     		movs	r2, #8
 273 0180 1340     		ands	r3, r2
 274 0182 48D0     		beq	.L14
 519:Generated_Source\PSoC4/I2C_1_I2C_INT.c ****             {
 520:Generated_Source\PSoC4/I2C_1_I2C_INT.c ****                 I2C_1_ClearSlaveInterruptSource(I2C_1_INTR_SLAVE_I2C_WRITE_STOP);
 275              		.loc 1 520 0
 276 0184 744B     		ldr	r3, .L39+24
 277 0186 0822     		movs	r2, #8
 278 0188 1A60     		str	r2, [r3]
ARM GAS  C:\Users\alexport\AppData\Local\Temp\cc5DETbb.s 			page 15


 521:Generated_Source\PSoC4/I2C_1_I2C_INT.c **** 
 522:Generated_Source\PSoC4/I2C_1_I2C_INT.c ****                 /* Read bytes from RX FIFO when auto data ACK receive logic is enabled. Otherwise a
 523:Generated_Source\PSoC4/I2C_1_I2C_INT.c ****                 * were already read from the RX FIFO except for address byte which has to stay here
 524:Generated_Source\PSoC4/I2C_1_I2C_INT.c ****                 * I2C_ADDR_MATCH.
 525:Generated_Source\PSoC4/I2C_1_I2C_INT.c ****                 */
 526:Generated_Source\PSoC4/I2C_1_I2C_INT.c ****                 if (0u != (I2C_1_I2C_CTRL_REG & I2C_1_I2C_CTRL_S_READY_DATA_ACK))
 279              		.loc 1 526 0
 280 018a 7B4B     		ldr	r3, .L39+56
 281 018c 1A68     		ldr	r2, [r3]
 282 018e 8023     		movs	r3, #128
 283 0190 9B01     		lsls	r3, r3, #6
 284 0192 1340     		ands	r3, r2
 285 0194 19D0     		beq	.L15
 527:Generated_Source\PSoC4/I2C_1_I2C_INT.c ****                 {
 528:Generated_Source\PSoC4/I2C_1_I2C_INT.c ****                     while(0u != I2C_1_GET_RX_FIFO_ENTRIES)
 286              		.loc 1 528 0
 287 0196 0DE0     		b	.L16
 288              	.L17:
 529:Generated_Source\PSoC4/I2C_1_I2C_INT.c ****                     {
 530:Generated_Source\PSoC4/I2C_1_I2C_INT.c ****                         #if(I2C_1_CHECK_I2C_ACCEPT_ADDRESS)
 531:Generated_Source\PSoC4/I2C_1_I2C_INT.c ****                         {
 532:Generated_Source\PSoC4/I2C_1_I2C_INT.c ****                             if((1u == I2C_1_GET_RX_FIFO_ENTRIES) &&
 533:Generated_Source\PSoC4/I2C_1_I2C_INT.c ****                                (I2C_1_CHECK_INTR_SLAVE_MASKED(I2C_1_INTR_SLAVE_I2C_ADDR_MATCH)))
 534:Generated_Source\PSoC4/I2C_1_I2C_INT.c ****                             {
 535:Generated_Source\PSoC4/I2C_1_I2C_INT.c ****                                 break; /* Leave address in RX FIFO */
 536:Generated_Source\PSoC4/I2C_1_I2C_INT.c ****                             }
 537:Generated_Source\PSoC4/I2C_1_I2C_INT.c ****                         }
 538:Generated_Source\PSoC4/I2C_1_I2C_INT.c ****                         #endif
 539:Generated_Source\PSoC4/I2C_1_I2C_INT.c **** 
 540:Generated_Source\PSoC4/I2C_1_I2C_INT.c ****                         /* Put data in component buffer */
 541:Generated_Source\PSoC4/I2C_1_I2C_INT.c ****                         I2C_1_slWrBufPtr[I2C_1_slWrBufIndex] = (uint8) I2C_1_RX_FIFO_RD_REG;
 289              		.loc 1 541 0
 290 0198 784B     		ldr	r3, .L39+60
 291 019a 1A68     		ldr	r2, [r3]
 292 019c 784B     		ldr	r3, .L39+64
 293 019e 1B68     		ldr	r3, [r3]
 294 01a0 D218     		adds	r2, r2, r3
 295 01a2 784B     		ldr	r3, .L39+68
 296 01a4 1B68     		ldr	r3, [r3]
 297 01a6 DBB2     		uxtb	r3, r3
 298 01a8 1370     		strb	r3, [r2]
 542:Generated_Source\PSoC4/I2C_1_I2C_INT.c ****                         I2C_1_slWrBufIndex++;
 299              		.loc 1 542 0
 300 01aa 754B     		ldr	r3, .L39+64
 301 01ac 1B68     		ldr	r3, [r3]
 302 01ae 5A1C     		adds	r2, r3, #1
 303 01b0 734B     		ldr	r3, .L39+64
 304 01b2 1A60     		str	r2, [r3]
 305              	.L16:
 528:Generated_Source\PSoC4/I2C_1_I2C_INT.c ****                     {
 306              		.loc 1 528 0
 307 01b4 744B     		ldr	r3, .L39+72
 308 01b6 1B68     		ldr	r3, [r3]
 309 01b8 1F22     		movs	r2, #31
 310 01ba 1340     		ands	r3, r2
 311 01bc ECD1     		bne	.L17
 543:Generated_Source\PSoC4/I2C_1_I2C_INT.c ****                     }
ARM GAS  C:\Users\alexport\AppData\Local\Temp\cc5DETbb.s 			page 16


 544:Generated_Source\PSoC4/I2C_1_I2C_INT.c **** 
 545:Generated_Source\PSoC4/I2C_1_I2C_INT.c ****                     I2C_1_DISABLE_SLAVE_AUTO_DATA;
 312              		.loc 1 545 0
 313 01be 6E4B     		ldr	r3, .L39+56
 314 01c0 6D4A     		ldr	r2, .L39+56
 315 01c2 1268     		ldr	r2, [r2]
 316 01c4 7149     		ldr	r1, .L39+76
 317 01c6 0A40     		ands	r2, r1
 318 01c8 1A60     		str	r2, [r3]
 319              	.L15:
 546:Generated_Source\PSoC4/I2C_1_I2C_INT.c ****                 }
 547:Generated_Source\PSoC4/I2C_1_I2C_INT.c **** 
 548:Generated_Source\PSoC4/I2C_1_I2C_INT.c ****                 if(I2C_1_CHECK_INTR_RX(I2C_1_INTR_RX_OVERFLOW))
 320              		.loc 1 548 0
 321 01ca 714B     		ldr	r3, .L39+80
 322 01cc 1B68     		ldr	r3, [r3]
 323 01ce 2022     		movs	r2, #32
 324 01d0 1340     		ands	r3, r2
 325 01d2 07D0     		beq	.L18
 549:Generated_Source\PSoC4/I2C_1_I2C_INT.c ****                 {
 550:Generated_Source\PSoC4/I2C_1_I2C_INT.c ****                     I2C_1_slStatus |= (uint8) I2C_1_I2C_SSTAT_WR_OVFL;
 326              		.loc 1 550 0
 327 01d4 5F4B     		ldr	r3, .L39+20
 328 01d6 1B78     		ldrb	r3, [r3]
 329 01d8 DBB2     		uxtb	r3, r3
 330 01da 4022     		movs	r2, #64
 331 01dc 1343     		orrs	r3, r2
 332 01de DAB2     		uxtb	r2, r3
 333 01e0 5C4B     		ldr	r3, .L39+20
 334 01e2 1A70     		strb	r2, [r3]
 335              	.L18:
 551:Generated_Source\PSoC4/I2C_1_I2C_INT.c ****                 }
 552:Generated_Source\PSoC4/I2C_1_I2C_INT.c **** 
 553:Generated_Source\PSoC4/I2C_1_I2C_INT.c ****                 /* Clears RX interrupt sources triggered on data receiving */
 554:Generated_Source\PSoC4/I2C_1_I2C_INT.c ****                 I2C_1_SetRxInterruptMode(I2C_1_NO_INTR_SOURCES);
 336              		.loc 1 554 0
 337 01e4 6B4B     		ldr	r3, .L39+84
 338 01e6 0022     		movs	r2, #0
 339 01e8 1A60     		str	r2, [r3]
 555:Generated_Source\PSoC4/I2C_1_I2C_INT.c ****                 I2C_1_ClearRxInterruptSource(I2C_1_INTR_RX_ALL);
 340              		.loc 1 555 0
 341 01ea 694B     		ldr	r3, .L39+80
 342 01ec 6A4A     		ldr	r2, .L39+88
 343 01ee 1A60     		str	r2, [r3]
 556:Generated_Source\PSoC4/I2C_1_I2C_INT.c **** 
 557:Generated_Source\PSoC4/I2C_1_I2C_INT.c ****                 /* Complete master writing */
 558:Generated_Source\PSoC4/I2C_1_I2C_INT.c ****                 I2C_1_slStatus &= (uint8) ~I2C_1_I2C_SSTAT_WR_BUSY;
 344              		.loc 1 558 0
 345 01f0 584B     		ldr	r3, .L39+20
 346 01f2 1B78     		ldrb	r3, [r3]
 347 01f4 DBB2     		uxtb	r3, r3
 348 01f6 2022     		movs	r2, #32
 349 01f8 9343     		bics	r3, r2
 350 01fa DAB2     		uxtb	r2, r3
 351 01fc 554B     		ldr	r3, .L39+20
 352 01fe 1A70     		strb	r2, [r3]
 559:Generated_Source\PSoC4/I2C_1_I2C_INT.c ****                 I2C_1_slStatus |= (uint8)  I2C_1_I2C_SSTAT_WR_CMPLT;
ARM GAS  C:\Users\alexport\AppData\Local\Temp\cc5DETbb.s 			page 17


 353              		.loc 1 559 0
 354 0200 544B     		ldr	r3, .L39+20
 355 0202 1B78     		ldrb	r3, [r3]
 356 0204 DBB2     		uxtb	r3, r3
 357 0206 1022     		movs	r2, #16
 358 0208 1343     		orrs	r3, r2
 359 020a DAB2     		uxtb	r2, r3
 360 020c 514B     		ldr	r3, .L39+20
 361 020e 1A70     		strb	r2, [r3]
 560:Generated_Source\PSoC4/I2C_1_I2C_INT.c ****                 I2C_1_state     =  I2C_1_I2C_FSM_IDLE;
 362              		.loc 1 560 0
 363 0210 4E4B     		ldr	r3, .L39+12
 364 0212 1022     		movs	r2, #16
 365 0214 1A70     		strb	r2, [r3]
 366              	.L14:
 561:Generated_Source\PSoC4/I2C_1_I2C_INT.c **** 
 562:Generated_Source\PSoC4/I2C_1_I2C_INT.c ****             #ifdef I2C_1_I2C_SLAVE_CMPLT_CALLBACK
 563:Generated_Source\PSoC4/I2C_1_I2C_INT.c ****                 /* Write complete */
 564:Generated_Source\PSoC4/I2C_1_I2C_INT.c ****                 I2C_1_I2C_SlaveCompleteCallback();
 565:Generated_Source\PSoC4/I2C_1_I2C_INT.c ****             #endif /* I2C_1_I2C_SLAVE_CMPLT_CALLBACK */
 566:Generated_Source\PSoC4/I2C_1_I2C_INT.c ****             }
 567:Generated_Source\PSoC4/I2C_1_I2C_INT.c **** 
 568:Generated_Source\PSoC4/I2C_1_I2C_INT.c **** 
 569:Generated_Source\PSoC4/I2C_1_I2C_INT.c ****             /* INTR_SLAVE_I2C_ADDR_MATCH or INTR_SLAVE_I2C_GENERAL:
 570:Generated_Source\PSoC4/I2C_1_I2C_INT.c ****             * The address match or general call address event starts the slave operation:
 571:Generated_Source\PSoC4/I2C_1_I2C_INT.c ****             * after leaving the TX or RX direction has to be chosen.
 572:Generated_Source\PSoC4/I2C_1_I2C_INT.c ****             * The wakeup interrupt must be cleared only after an address match is set.
 573:Generated_Source\PSoC4/I2C_1_I2C_INT.c ****             */
 574:Generated_Source\PSoC4/I2C_1_I2C_INT.c ****         #if (I2C_1_I2C_CUSTOM_ADDRESS_HANDLER_CONST)
 575:Generated_Source\PSoC4/I2C_1_I2C_INT.c ****             if (I2C_1_CHECK_INTR_SLAVE_MASKED(I2C_1_INTR_SLAVE_I2C_ADDR_MATCH |
 576:Generated_Source\PSoC4/I2C_1_I2C_INT.c ****                                                          I2C_1_INTR_SLAVE_I2C_GENERAL))
 577:Generated_Source\PSoC4/I2C_1_I2C_INT.c ****         #else
 578:Generated_Source\PSoC4/I2C_1_I2C_INT.c ****             if (I2C_1_CHECK_INTR_SLAVE_MASKED(I2C_1_INTR_SLAVE_I2C_ADDR_MATCH))
 367              		.loc 1 578 0
 368 0216 4E4B     		ldr	r3, .L39+16
 369 0218 1B68     		ldr	r3, [r3]
 370 021a 4022     		movs	r2, #64
 371 021c 1340     		ands	r3, r2
 372 021e 53D0     		beq	.L19
 579:Generated_Source\PSoC4/I2C_1_I2C_INT.c ****         #endif /* (I2C_1_I2C_CUSTOM_ADDRESS_HANDLER_CONST) */
 580:Generated_Source\PSoC4/I2C_1_I2C_INT.c ****             {
 581:Generated_Source\PSoC4/I2C_1_I2C_INT.c ****                 /* Clear externally clocked address match interrupt source when internally clocked 
 582:Generated_Source\PSoC4/I2C_1_I2C_INT.c ****                 I2C_1_ClearI2CExtClkInterruptSource(I2C_1_INTR_I2C_EC_WAKE_UP);
 373              		.loc 1 582 0
 374 0220 5E4B     		ldr	r3, .L39+92
 375 0222 0122     		movs	r2, #1
 376 0224 1A60     		str	r2, [r3]
 583:Generated_Source\PSoC4/I2C_1_I2C_INT.c **** 
 584:Generated_Source\PSoC4/I2C_1_I2C_INT.c ****                 #if (I2C_1_I2C_CUSTOM_ADDRESS_HANDLER)
 585:Generated_Source\PSoC4/I2C_1_I2C_INT.c ****                 {
 586:Generated_Source\PSoC4/I2C_1_I2C_INT.c ****                     if (NULL != I2C_1_customAddressHandler)
 587:Generated_Source\PSoC4/I2C_1_I2C_INT.c ****                     {
 588:Generated_Source\PSoC4/I2C_1_I2C_INT.c ****                         /* Call custom address handler */
 589:Generated_Source\PSoC4/I2C_1_I2C_INT.c ****                         response = I2C_1_customAddressHandler();
 590:Generated_Source\PSoC4/I2C_1_I2C_INT.c ****                     }
 591:Generated_Source\PSoC4/I2C_1_I2C_INT.c ****                     else
 592:Generated_Source\PSoC4/I2C_1_I2C_INT.c ****                     {
ARM GAS  C:\Users\alexport\AppData\Local\Temp\cc5DETbb.s 			page 18


 593:Generated_Source\PSoC4/I2C_1_I2C_INT.c ****                         /* Read address from the RX FIFO. If there is no address underflow triggers
 594:Generated_Source\PSoC4/I2C_1_I2C_INT.c ****                         * component does not use that source. */
 595:Generated_Source\PSoC4/I2C_1_I2C_INT.c ****                         (void) I2C_1_RX_FIFO_RD_REG;
 596:Generated_Source\PSoC4/I2C_1_I2C_INT.c ****                         response = I2C_1_I2C_ACK_ADDR;
 597:Generated_Source\PSoC4/I2C_1_I2C_INT.c ****                     }
 598:Generated_Source\PSoC4/I2C_1_I2C_INT.c **** 
 599:Generated_Source\PSoC4/I2C_1_I2C_INT.c ****                     /* Clears RX sources after address was received in the RX FIFO */
 600:Generated_Source\PSoC4/I2C_1_I2C_INT.c ****                     I2C_1_ClearRxInterruptSource(I2C_1_INTR_RX_ALL);
 601:Generated_Source\PSoC4/I2C_1_I2C_INT.c ****                 }
 602:Generated_Source\PSoC4/I2C_1_I2C_INT.c ****                 #endif
 603:Generated_Source\PSoC4/I2C_1_I2C_INT.c **** 
 604:Generated_Source\PSoC4/I2C_1_I2C_INT.c ****             #if (I2C_1_I2C_CUSTOM_ADDRESS_HANDLER_CONST)
 605:Generated_Source\PSoC4/I2C_1_I2C_INT.c ****                 if (response == I2C_1_I2C_NAK_ADDR)
 606:Generated_Source\PSoC4/I2C_1_I2C_INT.c ****                 {
 607:Generated_Source\PSoC4/I2C_1_I2C_INT.c ****                 #if (!I2C_1_CY_SCBIP_V0)
 608:Generated_Source\PSoC4/I2C_1_I2C_INT.c ****                     /* Disable write stop interrupt source as it triggers after address was NACKed.
 609:Generated_Source\PSoC4/I2C_1_I2C_INT.c ****                     I2C_1_DISABLE_INTR_SLAVE(I2C_1_INTR_SLAVE_I2C_WRITE_STOP);
 610:Generated_Source\PSoC4/I2C_1_I2C_INT.c ****                 #endif /* (!I2C_1_CY_SCBIP_V0) */
 611:Generated_Source\PSoC4/I2C_1_I2C_INT.c **** 
 612:Generated_Source\PSoC4/I2C_1_I2C_INT.c ****                     /* Clear address match and stop history */
 613:Generated_Source\PSoC4/I2C_1_I2C_INT.c ****                     I2C_1_ClearSlaveInterruptSource(I2C_1_INTR_SLAVE_ALL);
 614:Generated_Source\PSoC4/I2C_1_I2C_INT.c **** 
 615:Generated_Source\PSoC4/I2C_1_I2C_INT.c ****                     /* ACK the address byte */
 616:Generated_Source\PSoC4/I2C_1_I2C_INT.c ****                     I2C_1_I2C_SLAVE_GENERATE_NACK;
 617:Generated_Source\PSoC4/I2C_1_I2C_INT.c ****                 }
 618:Generated_Source\PSoC4/I2C_1_I2C_INT.c ****                 else
 619:Generated_Source\PSoC4/I2C_1_I2C_INT.c ****             #endif /* (I2C_1_I2C_CUSTOM_ADDRESS_HANDLER_CONST) */
 620:Generated_Source\PSoC4/I2C_1_I2C_INT.c ****                 {
 621:Generated_Source\PSoC4/I2C_1_I2C_INT.c ****                     if(I2C_1_CHECK_I2C_STATUS(I2C_1_I2C_STATUS_S_READ))
 377              		.loc 1 621 0
 378 0226 5E4B     		ldr	r3, .L39+96
 379 0228 1B68     		ldr	r3, [r3]
 380 022a 1022     		movs	r2, #16
 381 022c 1340     		ands	r3, r2
 382 022e 12D0     		beq	.L20
 622:Generated_Source\PSoC4/I2C_1_I2C_INT.c ****                     /* TX direction: master reads from slave */
 623:Generated_Source\PSoC4/I2C_1_I2C_INT.c ****                     {
 624:Generated_Source\PSoC4/I2C_1_I2C_INT.c ****                         I2C_1_SetTxInterruptMode(I2C_1_INTR_TX_EMPTY);
 383              		.loc 1 624 0
 384 0230 4E4B     		ldr	r3, .L39+44
 385 0232 1022     		movs	r2, #16
 386 0234 1A60     		str	r2, [r3]
 625:Generated_Source\PSoC4/I2C_1_I2C_INT.c **** 
 626:Generated_Source\PSoC4/I2C_1_I2C_INT.c ****                         /* Set temporary index to address buffer clear from API */
 627:Generated_Source\PSoC4/I2C_1_I2C_INT.c ****                         I2C_1_slRdBufIndexTmp = I2C_1_slRdBufIndex;
 387              		.loc 1 627 0
 388 0236 4C4B     		ldr	r3, .L39+40
 389 0238 1A68     		ldr	r2, [r3]
 390 023a 4A4B     		ldr	r3, .L39+36
 391 023c 1A60     		str	r2, [r3]
 628:Generated_Source\PSoC4/I2C_1_I2C_INT.c **** 
 629:Generated_Source\PSoC4/I2C_1_I2C_INT.c ****                         /* Start master reading */
 630:Generated_Source\PSoC4/I2C_1_I2C_INT.c ****                         I2C_1_slStatus |= (uint8) I2C_1_I2C_SSTAT_RD_BUSY;
 392              		.loc 1 630 0
 393 023e 454B     		ldr	r3, .L39+20
 394 0240 1B78     		ldrb	r3, [r3]
 395 0242 DBB2     		uxtb	r3, r3
ARM GAS  C:\Users\alexport\AppData\Local\Temp\cc5DETbb.s 			page 19


 396 0244 0222     		movs	r2, #2
 397 0246 1343     		orrs	r3, r2
 398 0248 DAB2     		uxtb	r2, r3
 399 024a 424B     		ldr	r3, .L39+20
 400 024c 1A70     		strb	r2, [r3]
 631:Generated_Source\PSoC4/I2C_1_I2C_INT.c ****                         I2C_1_state     = I2C_1_I2C_FSM_SL_RD;
 401              		.loc 1 631 0
 402 024e 3F4B     		ldr	r3, .L39+12
 403 0250 1222     		movs	r2, #18
 404 0252 1A70     		strb	r2, [r3]
 405 0254 2CE0     		b	.L21
 406              	.L20:
 632:Generated_Source\PSoC4/I2C_1_I2C_INT.c ****                     }
 633:Generated_Source\PSoC4/I2C_1_I2C_INT.c ****                     else
 634:Generated_Source\PSoC4/I2C_1_I2C_INT.c ****                     /* RX direction: master writes into slave */
 635:Generated_Source\PSoC4/I2C_1_I2C_INT.c ****                     {
 636:Generated_Source\PSoC4/I2C_1_I2C_INT.c ****                         /* Calculate available buffer size */
 637:Generated_Source\PSoC4/I2C_1_I2C_INT.c ****                         diffCount = (I2C_1_slWrBufSize - I2C_1_slWrBufIndex);
 407              		.loc 1 637 0
 408 0256 534B     		ldr	r3, .L39+100
 409 0258 1A68     		ldr	r2, [r3]
 410 025a 494B     		ldr	r3, .L39+64
 411 025c 1B68     		ldr	r3, [r3]
 412 025e D31A     		subs	r3, r2, r3
 413 0260 7B60     		str	r3, [r7, #4]
 638:Generated_Source\PSoC4/I2C_1_I2C_INT.c **** 
 639:Generated_Source\PSoC4/I2C_1_I2C_INT.c ****                     #if (I2C_1_CY_SCBIP_V0)
 640:Generated_Source\PSoC4/I2C_1_I2C_INT.c ****                         if(diffCount < I2C_1_I2C_FIFO_SIZE)
 641:Generated_Source\PSoC4/I2C_1_I2C_INT.c ****                         /* Receive data: byte-by-byte */
 642:Generated_Source\PSoC4/I2C_1_I2C_INT.c ****                         {
 643:Generated_Source\PSoC4/I2C_1_I2C_INT.c ****                             I2C_1_SetRxInterruptMode(I2C_1_INTR_RX_NOT_EMPTY);
 644:Generated_Source\PSoC4/I2C_1_I2C_INT.c ****                         }
 645:Generated_Source\PSoC4/I2C_1_I2C_INT.c ****                         else
 646:Generated_Source\PSoC4/I2C_1_I2C_INT.c ****                         /* Receive data: into RX FIFO */
 647:Generated_Source\PSoC4/I2C_1_I2C_INT.c ****                         {
 648:Generated_Source\PSoC4/I2C_1_I2C_INT.c ****                             if(diffCount == I2C_1_I2C_FIFO_SIZE)
 649:Generated_Source\PSoC4/I2C_1_I2C_INT.c ****                             {
 650:Generated_Source\PSoC4/I2C_1_I2C_INT.c ****                                 /* NACK when RX FIFO become FULL */
 651:Generated_Source\PSoC4/I2C_1_I2C_INT.c ****                                 I2C_1_ENABLE_SLAVE_AUTO_DATA;
 652:Generated_Source\PSoC4/I2C_1_I2C_INT.c ****                             }
 653:Generated_Source\PSoC4/I2C_1_I2C_INT.c ****                             else
 654:Generated_Source\PSoC4/I2C_1_I2C_INT.c ****                             {
 655:Generated_Source\PSoC4/I2C_1_I2C_INT.c ****                                 /* Stretch clock when RX FIFO becomes FULL */
 656:Generated_Source\PSoC4/I2C_1_I2C_INT.c ****                                 I2C_1_ENABLE_SLAVE_AUTO_DATA_ACK;
 657:Generated_Source\PSoC4/I2C_1_I2C_INT.c ****                                 I2C_1_SetRxInterruptMode(I2C_1_INTR_RX_FULL);
 658:Generated_Source\PSoC4/I2C_1_I2C_INT.c ****                             }
 659:Generated_Source\PSoC4/I2C_1_I2C_INT.c ****                         }
 660:Generated_Source\PSoC4/I2C_1_I2C_INT.c **** 
 661:Generated_Source\PSoC4/I2C_1_I2C_INT.c ****                     #else
 662:Generated_Source\PSoC4/I2C_1_I2C_INT.c ****                         #if(I2C_1_CHECK_I2C_ACCEPT_ADDRESS)
 663:Generated_Source\PSoC4/I2C_1_I2C_INT.c ****                         {
 664:Generated_Source\PSoC4/I2C_1_I2C_INT.c ****                             /* Enable RX.NOT_EMPTY interrupt source to receive byte by byte.
 665:Generated_Source\PSoC4/I2C_1_I2C_INT.c ****                             * The byte by byte receive is always chosen for the case when an addres
 666:Generated_Source\PSoC4/I2C_1_I2C_INT.c ****                             * in RX FIFO. Ticket ID#175559.
 667:Generated_Source\PSoC4/I2C_1_I2C_INT.c ****                             */
 668:Generated_Source\PSoC4/I2C_1_I2C_INT.c ****                             I2C_1_SetRxInterruptMode(I2C_1_INTR_RX_NOT_EMPTY);
 669:Generated_Source\PSoC4/I2C_1_I2C_INT.c ****                         }
ARM GAS  C:\Users\alexport\AppData\Local\Temp\cc5DETbb.s 			page 20


 670:Generated_Source\PSoC4/I2C_1_I2C_INT.c ****                         #else
 671:Generated_Source\PSoC4/I2C_1_I2C_INT.c ****                         {
 672:Generated_Source\PSoC4/I2C_1_I2C_INT.c ****                             if(diffCount < I2C_1_I2C_FIFO_SIZE)
 414              		.loc 1 672 0
 415 0262 7B68     		ldr	r3, [r7, #4]
 416 0264 072B     		cmp	r3, #7
 417 0266 03D8     		bhi	.L22
 673:Generated_Source\PSoC4/I2C_1_I2C_INT.c ****                             /* Receive data: byte-by-byte */
 674:Generated_Source\PSoC4/I2C_1_I2C_INT.c ****                             {
 675:Generated_Source\PSoC4/I2C_1_I2C_INT.c ****                                 I2C_1_SetRxInterruptMode(I2C_1_INTR_RX_NOT_EMPTY);
 418              		.loc 1 675 0
 419 0268 4A4B     		ldr	r3, .L39+84
 420 026a 0422     		movs	r2, #4
 421 026c 1A60     		str	r2, [r3]
 422 026e 14E0     		b	.L23
 423              	.L22:
 676:Generated_Source\PSoC4/I2C_1_I2C_INT.c ****                             }
 677:Generated_Source\PSoC4/I2C_1_I2C_INT.c ****                             else
 678:Generated_Source\PSoC4/I2C_1_I2C_INT.c ****                             /* Receive data: into RX FIFO */
 679:Generated_Source\PSoC4/I2C_1_I2C_INT.c ****                             {
 680:Generated_Source\PSoC4/I2C_1_I2C_INT.c ****                                 if(diffCount == I2C_1_I2C_FIFO_SIZE)
 424              		.loc 1 680 0
 425 0270 7B68     		ldr	r3, [r7, #4]
 426 0272 082B     		cmp	r3, #8
 427 0274 07D1     		bne	.L24
 681:Generated_Source\PSoC4/I2C_1_I2C_INT.c ****                                 {
 682:Generated_Source\PSoC4/I2C_1_I2C_INT.c ****                                     /* NACK when RX FIFO become FULL */
 683:Generated_Source\PSoC4/I2C_1_I2C_INT.c ****                                     I2C_1_ENABLE_SLAVE_AUTO_DATA;
 428              		.loc 1 683 0
 429 0276 404B     		ldr	r3, .L39+56
 430 0278 3F4A     		ldr	r2, .L39+56
 431 027a 1268     		ldr	r2, [r2]
 432 027c A021     		movs	r1, #160
 433 027e 0902     		lsls	r1, r1, #8
 434 0280 0A43     		orrs	r2, r1
 435 0282 1A60     		str	r2, [r3]
 436 0284 09E0     		b	.L23
 437              	.L24:
 684:Generated_Source\PSoC4/I2C_1_I2C_INT.c ****                                 }
 685:Generated_Source\PSoC4/I2C_1_I2C_INT.c ****                                 else
 686:Generated_Source\PSoC4/I2C_1_I2C_INT.c ****                                 {
 687:Generated_Source\PSoC4/I2C_1_I2C_INT.c ****                                     /* Stretch clock when RX FIFO becomes FULL */
 688:Generated_Source\PSoC4/I2C_1_I2C_INT.c ****                                     I2C_1_ENABLE_SLAVE_AUTO_DATA_ACK;
 438              		.loc 1 688 0
 439 0286 3C4B     		ldr	r3, .L39+56
 440 0288 3B4A     		ldr	r2, .L39+56
 441 028a 1268     		ldr	r2, [r2]
 442 028c 8021     		movs	r1, #128
 443 028e 8901     		lsls	r1, r1, #6
 444 0290 0A43     		orrs	r2, r1
 445 0292 1A60     		str	r2, [r3]
 689:Generated_Source\PSoC4/I2C_1_I2C_INT.c ****                                     I2C_1_SetRxInterruptMode(I2C_1_INTR_RX_FULL);
 446              		.loc 1 689 0
 447 0294 3F4B     		ldr	r3, .L39+84
 448 0296 0822     		movs	r2, #8
 449 0298 1A60     		str	r2, [r3]
 450              	.L23:
ARM GAS  C:\Users\alexport\AppData\Local\Temp\cc5DETbb.s 			page 21


 690:Generated_Source\PSoC4/I2C_1_I2C_INT.c ****                                 }
 691:Generated_Source\PSoC4/I2C_1_I2C_INT.c ****                             }
 692:Generated_Source\PSoC4/I2C_1_I2C_INT.c ****                         }
 693:Generated_Source\PSoC4/I2C_1_I2C_INT.c ****                         #endif
 694:Generated_Source\PSoC4/I2C_1_I2C_INT.c ****                     #endif /* (I2C_1_CY_SCBIP_V0) */
 695:Generated_Source\PSoC4/I2C_1_I2C_INT.c **** 
 696:Generated_Source\PSoC4/I2C_1_I2C_INT.c ****                         /* Start master reading */
 697:Generated_Source\PSoC4/I2C_1_I2C_INT.c ****                         I2C_1_slStatus |= (uint8) I2C_1_I2C_SSTAT_WR_BUSY;
 451              		.loc 1 697 0
 452 029a 2E4B     		ldr	r3, .L39+20
 453 029c 1B78     		ldrb	r3, [r3]
 454 029e DBB2     		uxtb	r3, r3
 455 02a0 2022     		movs	r2, #32
 456 02a2 1343     		orrs	r3, r2
 457 02a4 DAB2     		uxtb	r2, r3
 458 02a6 2B4B     		ldr	r3, .L39+20
 459 02a8 1A70     		strb	r2, [r3]
 698:Generated_Source\PSoC4/I2C_1_I2C_INT.c ****                         I2C_1_state     = I2C_1_I2C_FSM_SL_WR;
 460              		.loc 1 698 0
 461 02aa 284B     		ldr	r3, .L39+12
 462 02ac 1122     		movs	r2, #17
 463 02ae 1A70     		strb	r2, [r3]
 464              	.L21:
 699:Generated_Source\PSoC4/I2C_1_I2C_INT.c ****                     }
 700:Generated_Source\PSoC4/I2C_1_I2C_INT.c **** 
 701:Generated_Source\PSoC4/I2C_1_I2C_INT.c ****                     /* Clear address match and stop history */
 702:Generated_Source\PSoC4/I2C_1_I2C_INT.c ****                     I2C_1_ClearSlaveInterruptSource(I2C_1_INTR_SLAVE_ALL);
 465              		.loc 1 702 0
 466 02b0 294B     		ldr	r3, .L39+24
 467 02b2 3D4A     		ldr	r2, .L39+104
 468 02b4 1A60     		str	r2, [r3]
 703:Generated_Source\PSoC4/I2C_1_I2C_INT.c **** 
 704:Generated_Source\PSoC4/I2C_1_I2C_INT.c ****                 #if (!I2C_1_CY_SCBIP_V0)
 705:Generated_Source\PSoC4/I2C_1_I2C_INT.c ****                     /* Enable write stop interrupt source as it triggers after address was NACKed. 
 706:Generated_Source\PSoC4/I2C_1_I2C_INT.c ****                     I2C_1_ENABLE_INTR_SLAVE(I2C_1_INTR_SLAVE_I2C_WRITE_STOP);
 469              		.loc 1 706 0
 470 02b6 3D4B     		ldr	r3, .L39+108
 471 02b8 3C4A     		ldr	r2, .L39+108
 472 02ba 1268     		ldr	r2, [r2]
 473 02bc 0821     		movs	r1, #8
 474 02be 0A43     		orrs	r2, r1
 475 02c0 1A60     		str	r2, [r3]
 707:Generated_Source\PSoC4/I2C_1_I2C_INT.c ****                 #endif /* (!I2C_1_CY_SCBIP_V0) */
 708:Generated_Source\PSoC4/I2C_1_I2C_INT.c **** 
 709:Generated_Source\PSoC4/I2C_1_I2C_INT.c ****                     /* ACK the address byte */
 710:Generated_Source\PSoC4/I2C_1_I2C_INT.c ****                     I2C_1_I2C_SLAVE_GENERATE_ACK;
 476              		.loc 1 710 0
 477 02c2 3B4B     		ldr	r3, .L39+112
 478 02c4 0122     		movs	r2, #1
 479 02c6 1A60     		str	r2, [r3]
 480              	.L19:
 711:Generated_Source\PSoC4/I2C_1_I2C_INT.c ****                 }
 712:Generated_Source\PSoC4/I2C_1_I2C_INT.c ****             }
 713:Generated_Source\PSoC4/I2C_1_I2C_INT.c **** 
 714:Generated_Source\PSoC4/I2C_1_I2C_INT.c ****             /* I2C_1_INTR_RX_FULL:
 715:Generated_Source\PSoC4/I2C_1_I2C_INT.c ****             * Get data from the RX FIFO and decide whether to ACK or NACK the following bytes
 716:Generated_Source\PSoC4/I2C_1_I2C_INT.c ****             */
ARM GAS  C:\Users\alexport\AppData\Local\Temp\cc5DETbb.s 			page 22


 717:Generated_Source\PSoC4/I2C_1_I2C_INT.c ****             if(I2C_1_CHECK_INTR_RX_MASKED(I2C_1_INTR_RX_FULL))
 481              		.loc 1 717 0
 482 02c8 3A4B     		ldr	r3, .L39+116
 483 02ca 1B68     		ldr	r3, [r3]
 484 02cc 0822     		movs	r2, #8
 485 02ce 1340     		ands	r3, r2
 486 02d0 72D0     		beq	.L25
 718:Generated_Source\PSoC4/I2C_1_I2C_INT.c ****             {
 719:Generated_Source\PSoC4/I2C_1_I2C_INT.c ****                 /* Calculate available buffer size to take into account that RX FIFO is FULL */
 720:Generated_Source\PSoC4/I2C_1_I2C_INT.c ****                 diffCount =  I2C_1_slWrBufSize -
 487              		.loc 1 720 0
 488 02d2 344B     		ldr	r3, .L39+100
 489 02d4 1A68     		ldr	r2, [r3]
 490 02d6 2A4B     		ldr	r3, .L39+64
 491 02d8 1B68     		ldr	r3, [r3]
 492 02da D31A     		subs	r3, r2, r3
 493 02dc 083B     		subs	r3, r3, #8
 494 02de 7B60     		str	r3, [r7, #4]
 721:Generated_Source\PSoC4/I2C_1_I2C_INT.c ****                             (I2C_1_slWrBufIndex + I2C_1_I2C_FIFO_SIZE);
 722:Generated_Source\PSoC4/I2C_1_I2C_INT.c **** 
 723:Generated_Source\PSoC4/I2C_1_I2C_INT.c ****                 if(diffCount > I2C_1_I2C_FIFO_SIZE) /* Proceed transaction */
 495              		.loc 1 723 0
 496 02e0 7B68     		ldr	r3, [r7, #4]
 497 02e2 082B     		cmp	r3, #8
 498 02e4 04D9     		bls	.L26
 724:Generated_Source\PSoC4/I2C_1_I2C_INT.c ****                 {
 725:Generated_Source\PSoC4/I2C_1_I2C_INT.c ****                     diffCount   = I2C_1_I2C_FIFO_SIZE;
 499              		.loc 1 725 0
 500 02e6 0823     		movs	r3, #8
 501 02e8 7B60     		str	r3, [r7, #4]
 726:Generated_Source\PSoC4/I2C_1_I2C_INT.c ****                     endTransfer = 0u;  /* Continue active transfer */
 502              		.loc 1 726 0
 503 02ea 0023     		movs	r3, #0
 504 02ec 3B60     		str	r3, [r7]
 505 02ee 13E0     		b	.L28
 506              	.L26:
 727:Generated_Source\PSoC4/I2C_1_I2C_INT.c ****                 }
 728:Generated_Source\PSoC4/I2C_1_I2C_INT.c ****                 else /* End when FIFO becomes FULL again */
 729:Generated_Source\PSoC4/I2C_1_I2C_INT.c ****                 {
 730:Generated_Source\PSoC4/I2C_1_I2C_INT.c ****                     endTransfer = I2C_1_I2C_CMPLT_ANY_TRANSFER;
 507              		.loc 1 730 0
 508 02f0 0123     		movs	r3, #1
 509 02f2 3B60     		str	r3, [r7]
 731:Generated_Source\PSoC4/I2C_1_I2C_INT.c ****                 }
 732:Generated_Source\PSoC4/I2C_1_I2C_INT.c **** 
 733:Generated_Source\PSoC4/I2C_1_I2C_INT.c ****                 for(; (0u != diffCount); diffCount--)
 510              		.loc 1 733 0
 511 02f4 10E0     		b	.L28
 512              	.L29:
 734:Generated_Source\PSoC4/I2C_1_I2C_INT.c ****                 {
 735:Generated_Source\PSoC4/I2C_1_I2C_INT.c ****                     /* Put data in component buffer */
 736:Generated_Source\PSoC4/I2C_1_I2C_INT.c ****                     I2C_1_slWrBufPtr[I2C_1_slWrBufIndex] = (uint8) I2C_1_RX_FIFO_RD_REG;
 513              		.loc 1 736 0 discriminator 2
 514 02f6 214B     		ldr	r3, .L39+60
 515 02f8 1A68     		ldr	r2, [r3]
 516 02fa 214B     		ldr	r3, .L39+64
 517 02fc 1B68     		ldr	r3, [r3]
ARM GAS  C:\Users\alexport\AppData\Local\Temp\cc5DETbb.s 			page 23


 518 02fe D218     		adds	r2, r2, r3
 519 0300 204B     		ldr	r3, .L39+68
 520 0302 1B68     		ldr	r3, [r3]
 521 0304 DBB2     		uxtb	r3, r3
 522 0306 1370     		strb	r3, [r2]
 737:Generated_Source\PSoC4/I2C_1_I2C_INT.c ****                     I2C_1_slWrBufIndex++;
 523              		.loc 1 737 0 discriminator 2
 524 0308 1D4B     		ldr	r3, .L39+64
 525 030a 1B68     		ldr	r3, [r3]
 526 030c 5A1C     		adds	r2, r3, #1
 527 030e 1C4B     		ldr	r3, .L39+64
 528 0310 1A60     		str	r2, [r3]
 733:Generated_Source\PSoC4/I2C_1_I2C_INT.c ****                 {
 529              		.loc 1 733 0 discriminator 2
 530 0312 7B68     		ldr	r3, [r7, #4]
 531 0314 013B     		subs	r3, r3, #1
 532 0316 7B60     		str	r3, [r7, #4]
 533              	.L28:
 733:Generated_Source\PSoC4/I2C_1_I2C_INT.c ****                 {
 534              		.loc 1 733 0 is_stmt 0 discriminator 1
 535 0318 7B68     		ldr	r3, [r7, #4]
 536 031a 002B     		cmp	r3, #0
 537 031c EBD1     		bne	.L29
 738:Generated_Source\PSoC4/I2C_1_I2C_INT.c ****                 }
 739:Generated_Source\PSoC4/I2C_1_I2C_INT.c **** 
 740:Generated_Source\PSoC4/I2C_1_I2C_INT.c ****                 if(0u != endTransfer) /* End transfer sending NACK */
 538              		.loc 1 740 0 is_stmt 1
 539 031e 3B68     		ldr	r3, [r7]
 540 0320 002B     		cmp	r3, #0
 541 0322 09D0     		beq	.L30
 741:Generated_Source\PSoC4/I2C_1_I2C_INT.c ****                 {
 742:Generated_Source\PSoC4/I2C_1_I2C_INT.c ****                     I2C_1_ENABLE_SLAVE_AUTO_DATA_NACK;
 542              		.loc 1 742 0
 543 0324 144B     		ldr	r3, .L39+56
 544 0326 144A     		ldr	r2, .L39+56
 545 0328 1268     		ldr	r2, [r2]
 546 032a 8021     		movs	r1, #128
 547 032c 0902     		lsls	r1, r1, #8
 548 032e 0A43     		orrs	r2, r1
 549 0330 1A60     		str	r2, [r3]
 743:Generated_Source\PSoC4/I2C_1_I2C_INT.c **** 
 744:Generated_Source\PSoC4/I2C_1_I2C_INT.c ****                     /* INTR_RX_FULL triggers earlier than INTR_SLAVE_I2C_STOP:
 745:Generated_Source\PSoC4/I2C_1_I2C_INT.c ****                     * disable all RX interrupt sources.
 746:Generated_Source\PSoC4/I2C_1_I2C_INT.c ****                     */
 747:Generated_Source\PSoC4/I2C_1_I2C_INT.c ****                     I2C_1_SetRxInterruptMode(I2C_1_NO_INTR_SOURCES);
 550              		.loc 1 747 0
 551 0332 184B     		ldr	r3, .L39+84
 552 0334 0022     		movs	r2, #0
 553 0336 1A60     		str	r2, [r3]
 554              	.L30:
 748:Generated_Source\PSoC4/I2C_1_I2C_INT.c ****                 }
 749:Generated_Source\PSoC4/I2C_1_I2C_INT.c **** 
 750:Generated_Source\PSoC4/I2C_1_I2C_INT.c ****                 I2C_1_ClearRxInterruptSource(I2C_1_INTR_RX_FULL);
 555              		.loc 1 750 0
 556 0338 154B     		ldr	r3, .L39+80
 557 033a 0822     		movs	r2, #8
 558 033c 1A60     		str	r2, [r3]
ARM GAS  C:\Users\alexport\AppData\Local\Temp\cc5DETbb.s 			page 24


 559 033e 68E0     		b	.L31
 560              	.L40:
 561              		.align	2
 562              	.L39:
 563 0340 00000000 		.word	I2C_1_customIntrHandler
 564 0344 8C0E2540 		.word	1076170380
 565 0348 880E2540 		.word	1076170376
 566 034c 00000000 		.word	I2C_1_state
 567 0350 4C0F2540 		.word	1076170572
 568 0354 00000000 		.word	I2C_1_slStatus
 569 0358 400F2540 		.word	1076170560
 570 035c 08022540 		.word	1076167176
 571 0360 00000000 		.word	I2C_1_slOverFlowCount
 572 0364 00000000 		.word	I2C_1_slRdBufIndexTmp
 573 0368 00000000 		.word	I2C_1_slRdBufIndex
 574 036c 880F2540 		.word	1076170632
 575 0370 04022540 		.word	1076167172
 576 0374 FFFFFEFF 		.word	-65537
 577 0378 60002540 		.word	1076166752
 578 037c 00000000 		.word	I2C_1_slWrBufPtr
 579 0380 00000000 		.word	I2C_1_slWrBufIndex
 580 0384 40032540 		.word	1076167488
 581 0388 08032540 		.word	1076167432
 582 038c FF5FFFFF 		.word	-40961
 583 0390 C00F2540 		.word	1076170688
 584 0394 C80F2540 		.word	1076170696
 585 0398 ED0F0000 		.word	4077
 586 039c 800E2540 		.word	1076170368
 587 03a0 64002540 		.word	1076166756
 588 03a4 00000000 		.word	I2C_1_slWrBufSize
 589 03a8 FF0F0000 		.word	4095
 590 03ac 480F2540 		.word	1076170568
 591 03b0 6C002540 		.word	1076166764
 592 03b4 CC0F2540 		.word	1076170700
 593              	.L25:
 751:Generated_Source\PSoC4/I2C_1_I2C_INT.c ****             }
 752:Generated_Source\PSoC4/I2C_1_I2C_INT.c ****             /* I2C_1_INTR_RX_NOT_EMPTY:
 753:Generated_Source\PSoC4/I2C_1_I2C_INT.c ****             * The buffer size is less than 8: it requires processing in byte-by-byte mode.
 754:Generated_Source\PSoC4/I2C_1_I2C_INT.c ****             */
 755:Generated_Source\PSoC4/I2C_1_I2C_INT.c ****             else if(I2C_1_CHECK_INTR_RX_MASKED(I2C_1_INTR_RX_NOT_EMPTY))
 594              		.loc 1 755 0
 595 03b8 334B     		ldr	r3, .L41
 596 03ba 1B68     		ldr	r3, [r3]
 597 03bc 0422     		movs	r2, #4
 598 03be 1340     		ands	r3, r2
 599 03c0 27D0     		beq	.L31
 756:Generated_Source\PSoC4/I2C_1_I2C_INT.c ****             {
 757:Generated_Source\PSoC4/I2C_1_I2C_INT.c ****                 diffCount = I2C_1_RX_FIFO_RD_REG;
 600              		.loc 1 757 0
 601 03c2 324B     		ldr	r3, .L41+4
 602 03c4 1B68     		ldr	r3, [r3]
 603 03c6 7B60     		str	r3, [r7, #4]
 758:Generated_Source\PSoC4/I2C_1_I2C_INT.c **** 
 759:Generated_Source\PSoC4/I2C_1_I2C_INT.c ****                 if(I2C_1_slWrBufIndex < I2C_1_slWrBufSize)
 604              		.loc 1 759 0
 605 03c8 314B     		ldr	r3, .L41+8
 606 03ca 1A68     		ldr	r2, [r3]
ARM GAS  C:\Users\alexport\AppData\Local\Temp\cc5DETbb.s 			page 25


 607 03cc 314B     		ldr	r3, .L41+12
 608 03ce 1B68     		ldr	r3, [r3]
 609 03d0 9A42     		cmp	r2, r3
 610 03d2 10D2     		bcs	.L32
 760:Generated_Source\PSoC4/I2C_1_I2C_INT.c ****                 {
 761:Generated_Source\PSoC4/I2C_1_I2C_INT.c ****                     I2C_1_I2C_SLAVE_GENERATE_ACK;
 611              		.loc 1 761 0
 612 03d4 304B     		ldr	r3, .L41+16
 613 03d6 0122     		movs	r2, #1
 614 03d8 1A60     		str	r2, [r3]
 762:Generated_Source\PSoC4/I2C_1_I2C_INT.c **** 
 763:Generated_Source\PSoC4/I2C_1_I2C_INT.c ****                     /* Put data into component buffer */
 764:Generated_Source\PSoC4/I2C_1_I2C_INT.c ****                     I2C_1_slWrBufPtr[I2C_1_slWrBufIndex] = (uint8) diffCount;
 615              		.loc 1 764 0
 616 03da 304B     		ldr	r3, .L41+20
 617 03dc 1A68     		ldr	r2, [r3]
 618 03de 2C4B     		ldr	r3, .L41+8
 619 03e0 1B68     		ldr	r3, [r3]
 620 03e2 D318     		adds	r3, r2, r3
 621 03e4 7A68     		ldr	r2, [r7, #4]
 622 03e6 D2B2     		uxtb	r2, r2
 623 03e8 1A70     		strb	r2, [r3]
 765:Generated_Source\PSoC4/I2C_1_I2C_INT.c ****                     I2C_1_slWrBufIndex++;
 624              		.loc 1 765 0
 625 03ea 294B     		ldr	r3, .L41+8
 626 03ec 1B68     		ldr	r3, [r3]
 627 03ee 5A1C     		adds	r2, r3, #1
 628 03f0 274B     		ldr	r3, .L41+8
 629 03f2 1A60     		str	r2, [r3]
 630 03f4 0AE0     		b	.L33
 631              	.L32:
 766:Generated_Source\PSoC4/I2C_1_I2C_INT.c ****                 }
 767:Generated_Source\PSoC4/I2C_1_I2C_INT.c ****                 else /* Overflow: there is no space in write buffer */
 768:Generated_Source\PSoC4/I2C_1_I2C_INT.c ****                 {
 769:Generated_Source\PSoC4/I2C_1_I2C_INT.c ****                     I2C_1_I2C_SLAVE_GENERATE_NACK;
 632              		.loc 1 769 0
 633 03f6 284B     		ldr	r3, .L41+16
 634 03f8 0222     		movs	r2, #2
 635 03fa 1A60     		str	r2, [r3]
 770:Generated_Source\PSoC4/I2C_1_I2C_INT.c **** 
 771:Generated_Source\PSoC4/I2C_1_I2C_INT.c ****                     I2C_1_slStatus |= (uint8) I2C_1_I2C_SSTAT_WR_OVFL;
 636              		.loc 1 771 0
 637 03fc 284B     		ldr	r3, .L41+24
 638 03fe 1B78     		ldrb	r3, [r3]
 639 0400 DBB2     		uxtb	r3, r3
 640 0402 4022     		movs	r2, #64
 641 0404 1343     		orrs	r3, r2
 642 0406 DAB2     		uxtb	r2, r3
 643 0408 254B     		ldr	r3, .L41+24
 644 040a 1A70     		strb	r2, [r3]
 645              	.L33:
 772:Generated_Source\PSoC4/I2C_1_I2C_INT.c ****                 }
 773:Generated_Source\PSoC4/I2C_1_I2C_INT.c **** 
 774:Generated_Source\PSoC4/I2C_1_I2C_INT.c ****                 I2C_1_ClearRxInterruptSource(I2C_1_INTR_RX_NOT_EMPTY);
 646              		.loc 1 774 0
 647 040c 254B     		ldr	r3, .L41+28
 648 040e 0422     		movs	r2, #4
ARM GAS  C:\Users\alexport\AppData\Local\Temp\cc5DETbb.s 			page 26


 649 0410 1A60     		str	r2, [r3]
 650              	.L31:
 775:Generated_Source\PSoC4/I2C_1_I2C_INT.c ****             }
 776:Generated_Source\PSoC4/I2C_1_I2C_INT.c ****             else
 777:Generated_Source\PSoC4/I2C_1_I2C_INT.c ****             {
 778:Generated_Source\PSoC4/I2C_1_I2C_INT.c ****                 /* Does nothing */
 779:Generated_Source\PSoC4/I2C_1_I2C_INT.c ****             }
 780:Generated_Source\PSoC4/I2C_1_I2C_INT.c **** 
 781:Generated_Source\PSoC4/I2C_1_I2C_INT.c **** 
 782:Generated_Source\PSoC4/I2C_1_I2C_INT.c ****             /* I2C_1_INTR_TX_EMPTY:
 783:Generated_Source\PSoC4/I2C_1_I2C_INT.c ****             * The master reads the slave: provide data to read or 0xFF in the case of the end of th
 784:Generated_Source\PSoC4/I2C_1_I2C_INT.c ****             * The overflow condition must be captured, but not set until the end of transaction.
 785:Generated_Source\PSoC4/I2C_1_I2C_INT.c ****             * There is a possibility of a false overflow due to TX FIFO utilization.
 786:Generated_Source\PSoC4/I2C_1_I2C_INT.c ****             */
 787:Generated_Source\PSoC4/I2C_1_I2C_INT.c ****             if(I2C_1_CHECK_INTR_TX_MASKED(I2C_1_INTR_TX_EMPTY))
 651              		.loc 1 787 0
 652 0412 254B     		ldr	r3, .L41+32
 653 0414 1B68     		ldr	r3, [r3]
 654 0416 1022     		movs	r2, #16
 655 0418 1340     		ands	r3, r2
 656 041a 30D0     		beq	.L38
 788:Generated_Source\PSoC4/I2C_1_I2C_INT.c ****             {
 789:Generated_Source\PSoC4/I2C_1_I2C_INT.c ****                 while(I2C_1_I2C_FIFO_SIZE != I2C_1_GET_TX_FIFO_ENTRIES)
 657              		.loc 1 789 0
 658 041c 23E0     		b	.L35
 659              	.L37:
 790:Generated_Source\PSoC4/I2C_1_I2C_INT.c ****                 {
 791:Generated_Source\PSoC4/I2C_1_I2C_INT.c ****                     /* Temporary slRdBufIndexTmp is used because the master can NACK the byte and
 792:Generated_Source\PSoC4/I2C_1_I2C_INT.c ****                     * index roll-back is required in this case. The slRdBufIndex is updated at the 
 793:Generated_Source\PSoC4/I2C_1_I2C_INT.c ****                     * of the read transfer.
 794:Generated_Source\PSoC4/I2C_1_I2C_INT.c ****                     */
 795:Generated_Source\PSoC4/I2C_1_I2C_INT.c ****                     if(I2C_1_slRdBufIndexTmp < I2C_1_slRdBufSize)
 660              		.loc 1 795 0
 661 041e 234B     		ldr	r3, .L41+36
 662 0420 1A68     		ldr	r2, [r3]
 663 0422 234B     		ldr	r3, .L41+40
 664 0424 1B68     		ldr	r3, [r3]
 665 0426 9A42     		cmp	r2, r3
 666 0428 0ED2     		bcs	.L36
 796:Generated_Source\PSoC4/I2C_1_I2C_INT.c ****                     /* Data from buffer */
 797:Generated_Source\PSoC4/I2C_1_I2C_INT.c ****                     {
 798:Generated_Source\PSoC4/I2C_1_I2C_INT.c ****                         I2C_1_TX_FIFO_WR_REG = (uint32) I2C_1_slRdBufPtr[I2C_1_slRdBufIndexTmp];
 667              		.loc 1 798 0
 668 042a 224A     		ldr	r2, .L41+44
 669 042c 224B     		ldr	r3, .L41+48
 670 042e 1968     		ldr	r1, [r3]
 671 0430 1E4B     		ldr	r3, .L41+36
 672 0432 1B68     		ldr	r3, [r3]
 673 0434 CB18     		adds	r3, r1, r3
 674 0436 1B78     		ldrb	r3, [r3]
 675 0438 DBB2     		uxtb	r3, r3
 676 043a 1360     		str	r3, [r2]
 799:Generated_Source\PSoC4/I2C_1_I2C_INT.c ****                         I2C_1_slRdBufIndexTmp++;
 677              		.loc 1 799 0
 678 043c 1B4B     		ldr	r3, .L41+36
 679 043e 1B68     		ldr	r3, [r3]
 680 0440 5A1C     		adds	r2, r3, #1
ARM GAS  C:\Users\alexport\AppData\Local\Temp\cc5DETbb.s 			page 27


 681 0442 1A4B     		ldr	r3, .L41+36
 682 0444 1A60     		str	r2, [r3]
 683 0446 0EE0     		b	.L35
 684              	.L36:
 800:Generated_Source\PSoC4/I2C_1_I2C_INT.c ****                     }
 801:Generated_Source\PSoC4/I2C_1_I2C_INT.c ****                     else
 802:Generated_Source\PSoC4/I2C_1_I2C_INT.c ****                     /* Probably Overflow */
 803:Generated_Source\PSoC4/I2C_1_I2C_INT.c ****                     {
 804:Generated_Source\PSoC4/I2C_1_I2C_INT.c ****                         I2C_1_TX_FIFO_WR_REG = I2C_1_I2C_SLAVE_OVFL_RETURN;
 685              		.loc 1 804 0
 686 0448 1A4B     		ldr	r3, .L41+44
 687 044a FF22     		movs	r2, #255
 688 044c 1A60     		str	r2, [r3]
 805:Generated_Source\PSoC4/I2C_1_I2C_INT.c **** 
 806:Generated_Source\PSoC4/I2C_1_I2C_INT.c ****                         if(I2C_1_slOverFlowCount <= I2C_1_I2C_TX_OVERFLOW_COUNT)
 689              		.loc 1 806 0
 690 044e 1B4B     		ldr	r3, .L41+52
 691 0450 1B78     		ldrb	r3, [r3]
 692 0452 DBB2     		uxtb	r3, r3
 693 0454 0A2B     		cmp	r3, #10
 694 0456 06D8     		bhi	.L35
 807:Generated_Source\PSoC4/I2C_1_I2C_INT.c ****                         {
 808:Generated_Source\PSoC4/I2C_1_I2C_INT.c ****                             /* Get counter in range of overflow. */
 809:Generated_Source\PSoC4/I2C_1_I2C_INT.c ****                             I2C_1_slOverFlowCount++;
 695              		.loc 1 809 0
 696 0458 184B     		ldr	r3, .L41+52
 697 045a 1B78     		ldrb	r3, [r3]
 698 045c DBB2     		uxtb	r3, r3
 699 045e 0133     		adds	r3, r3, #1
 700 0460 DAB2     		uxtb	r2, r3
 701 0462 164B     		ldr	r3, .L41+52
 702 0464 1A70     		strb	r2, [r3]
 703              	.L35:
 789:Generated_Source\PSoC4/I2C_1_I2C_INT.c ****                 {
 704              		.loc 1 789 0
 705 0466 164B     		ldr	r3, .L41+56
 706 0468 1B68     		ldr	r3, [r3]
 707 046a 1F22     		movs	r2, #31
 708 046c 1340     		ands	r3, r2
 709 046e 082B     		cmp	r3, #8
 710 0470 D5D1     		bne	.L37
 810:Generated_Source\PSoC4/I2C_1_I2C_INT.c ****                         }
 811:Generated_Source\PSoC4/I2C_1_I2C_INT.c ****                     }
 812:Generated_Source\PSoC4/I2C_1_I2C_INT.c ****                 }
 813:Generated_Source\PSoC4/I2C_1_I2C_INT.c **** 
 814:Generated_Source\PSoC4/I2C_1_I2C_INT.c ****                 I2C_1_ClearTxInterruptSource(I2C_1_INTR_TX_EMPTY);
 711              		.loc 1 814 0
 712 0472 144B     		ldr	r3, .L41+60
 713 0474 1022     		movs	r2, #16
 714 0476 1A60     		str	r2, [r3]
 815:Generated_Source\PSoC4/I2C_1_I2C_INT.c ****             }
 816:Generated_Source\PSoC4/I2C_1_I2C_INT.c **** 
 817:Generated_Source\PSoC4/I2C_1_I2C_INT.c ****         }  /* (I2C_1_I2C_SLAVE) */
 818:Generated_Source\PSoC4/I2C_1_I2C_INT.c ****         #endif
 819:Generated_Source\PSoC4/I2C_1_I2C_INT.c ****     }
 820:Generated_Source\PSoC4/I2C_1_I2C_INT.c **** 
 821:Generated_Source\PSoC4/I2C_1_I2C_INT.c **** 
ARM GAS  C:\Users\alexport\AppData\Local\Temp\cc5DETbb.s 			page 28


 822:Generated_Source\PSoC4/I2C_1_I2C_INT.c ****     /* FSM EXIT:
 823:Generated_Source\PSoC4/I2C_1_I2C_INT.c ****     * Slave:  INTR_SLAVE_I2C_BUS_ERROR, INTR_SLAVE_I2C_ARB_LOST
 824:Generated_Source\PSoC4/I2C_1_I2C_INT.c ****     * Master: INTR_MASTER_I2C_BUS_ERROR, INTR_MASTER_I2C_ARB_LOST.
 825:Generated_Source\PSoC4/I2C_1_I2C_INT.c ****     */
 826:Generated_Source\PSoC4/I2C_1_I2C_INT.c ****     else
 827:Generated_Source\PSoC4/I2C_1_I2C_INT.c ****     {
 828:Generated_Source\PSoC4/I2C_1_I2C_INT.c ****         I2C_1_I2CFwBlockReset();
 829:Generated_Source\PSoC4/I2C_1_I2C_INT.c ****         
 830:Generated_Source\PSoC4/I2C_1_I2C_INT.c ****     #ifdef I2C_1_I2C_SLAVE_CMPLT_CALLBACK
 831:Generated_Source\PSoC4/I2C_1_I2C_INT.c ****         #if(I2C_1_I2C_SLAVE)
 832:Generated_Source\PSoC4/I2C_1_I2C_INT.c ****         {
 833:Generated_Source\PSoC4/I2C_1_I2C_INT.c ****             /* Error condition: read or write complete is set */
 834:Generated_Source\PSoC4/I2C_1_I2C_INT.c ****             I2C_1_I2C_SlaveCompleteCallback();
 835:Generated_Source\PSoC4/I2C_1_I2C_INT.c ****         }
 836:Generated_Source\PSoC4/I2C_1_I2C_INT.c ****         #endif
 837:Generated_Source\PSoC4/I2C_1_I2C_INT.c ****     #endif /* I2C_1_I2C_SLAVE_CMPLT_CALLBACK */
 838:Generated_Source\PSoC4/I2C_1_I2C_INT.c ****     }
 839:Generated_Source\PSoC4/I2C_1_I2C_INT.c **** 
 840:Generated_Source\PSoC4/I2C_1_I2C_INT.c **** #ifdef I2C_1_I2C_ISR_EXIT_CALLBACK
 841:Generated_Source\PSoC4/I2C_1_I2C_INT.c ****     I2C_1_I2C_ISR_ExitCallback();
 842:Generated_Source\PSoC4/I2C_1_I2C_INT.c **** #endif /* I2C_1_I2C_ISR_EXIT_CALLBACK */
 843:Generated_Source\PSoC4/I2C_1_I2C_INT.c **** 
 844:Generated_Source\PSoC4/I2C_1_I2C_INT.c **** }
 715              		.loc 1 844 0
 716 0478 01E0     		b	.L38
 717              	.L8:
 828:Generated_Source\PSoC4/I2C_1_I2C_INT.c ****         
 718              		.loc 1 828 0
 719 047a FFF7FEFF 		bl	I2C_1_I2CFwBlockReset
 720              	.L38:
 721              		.loc 1 844 0
 722 047e C046     		nop
 723 0480 BD46     		mov	sp, r7
 724 0482 02B0     		add	sp, sp, #8
 725              		@ sp needed
 726 0484 80BD     		pop	{r7, pc}
 727              	.L42:
 728 0486 C046     		.align	2
 729              	.L41:
 730 0488 CC0F2540 		.word	1076170700
 731 048c 40032540 		.word	1076167488
 732 0490 00000000 		.word	I2C_1_slWrBufIndex
 733 0494 00000000 		.word	I2C_1_slWrBufSize
 734 0498 6C002540 		.word	1076166764
 735 049c 00000000 		.word	I2C_1_slWrBufPtr
 736 04a0 00000000 		.word	I2C_1_slStatus
 737 04a4 C00F2540 		.word	1076170688
 738 04a8 8C0F2540 		.word	1076170636
 739 04ac 00000000 		.word	I2C_1_slRdBufIndexTmp
 740 04b0 00000000 		.word	I2C_1_slRdBufSize
 741 04b4 40022540 		.word	1076167232
 742 04b8 00000000 		.word	I2C_1_slRdBufPtr
 743 04bc 00000000 		.word	I2C_1_slOverFlowCount
 744 04c0 08022540 		.word	1076167176
 745 04c4 800F2540 		.word	1076170624
 746              		.cfi_endproc
 747              	.LFE2:
ARM GAS  C:\Users\alexport\AppData\Local\Temp\cc5DETbb.s 			page 29


 748              		.size	I2C_1_I2C_ISR, .-I2C_1_I2C_ISR
 749              		.text
 750              	.Letext0:
 751              		.file 2 "Generated_Source\\PSoC4/cytypes.h"
 752              		.file 3 "Generated_Source\\PSoC4\\I2C_1_PVT.h"
 753              		.file 4 "Generated_Source\\PSoC4\\I2C_1_I2C_PVT.h"