ARM GAS  C:\Users\alexport\AppData\Local\Temp\cc8gQCAZ.s 			page 1


   1              		.syntax unified
   2              		.cpu cortex-m0
   3              		.fpu softvfp
   4              		.eabi_attribute 20, 1
   5              		.eabi_attribute 21, 1
   6              		.eabi_attribute 23, 3
   7              		.eabi_attribute 24, 1
   8              		.eabi_attribute 25, 1
   9              		.eabi_attribute 26, 1
  10              		.eabi_attribute 30, 6
  11              		.eabi_attribute 34, 0
  12              		.eabi_attribute 18, 4
  13              		.thumb
  14              		.syntax unified
  15              		.file	"i2c_master.c"
  16              		.text
  17              	.Ltext0:
  18              		.cfi_sections	.debug_frame
  19              		.global	slaveBuf
  20              		.data
  21              		.align	2
  22              		.type	slaveBuf, %object
  23              		.size	slaveBuf, 100
  24              	slaveBuf:
  25 0000 15       		.byte	21
  26 0001 20       		.byte	32
  27 0002 21       		.byte	33
  28 0003 22       		.byte	34
  29 0004 23       		.byte	35
  30 0005 24       		.byte	36
  31 0006 25       		.byte	37
  32 0007 26       		.byte	38
  33 0008 27       		.byte	39
  34 0009 28       		.byte	40
  35 000a 00000000 		.space	90
  35      00000000 
  35      00000000 
  35      00000000 
  35      00000000 
  36              		.section	.text.i2c_status,"ax",%progbits
  37              		.align	2
  38              		.global	i2c_status
  39              		.code	16
  40              		.thumb_func
  41              		.type	i2c_status, %function
  42              	i2c_status:
  43              	.LFB35:
  44              		.file 1 "i2c_master.c"
   1:i2c_master.c  **** /* ========================================
   2:i2c_master.c  ****  *
   3:i2c_master.c  ****  * Copyright YOUR COMPANY, THE YEAR
   4:i2c_master.c  ****  * All Rights Reserved
   5:i2c_master.c  ****  * UNPUBLISHED, LICENSED SOFTWARE.
   6:i2c_master.c  ****  *
   7:i2c_master.c  ****  * CONFIDENTIAL AND PROPRIETARY INFORMATION
   8:i2c_master.c  ****  * WHICH IS THE PROPERTY OF your company.
   9:i2c_master.c  ****  *
ARM GAS  C:\Users\alexport\AppData\Local\Temp\cc8gQCAZ.s 			page 2


  10:i2c_master.c  ****  * ========================================
  11:i2c_master.c  **** */
  12:i2c_master.c  **** #include "i2c_master.h"
  13:i2c_master.c  **** 
  14:i2c_master.c  **** 
  15:i2c_master.c  **** // TEST I2C SLAVE DATA 
  16:i2c_master.c  **** uint8_t slaveBuf[I2CS_BUFF_SIZE]={21,32,33,34,35,36,37,38,39,40};
  17:i2c_master.c  **** 
  18:i2c_master.c  **** uint32_t i2c_status(uint8 slave){
  45              		.loc 1 18 0
  46              		.cfi_startproc
  47              		@ args = 0, pretend = 0, frame = 16
  48              		@ frame_needed = 1, uses_anonymous_args = 0
  49 0000 80B5     		push	{r7, lr}
  50              		.cfi_def_cfa_offset 8
  51              		.cfi_offset 7, -8
  52              		.cfi_offset 14, -4
  53 0002 84B0     		sub	sp, sp, #16
  54              		.cfi_def_cfa_offset 24
  55 0004 00AF     		add	r7, sp, #0
  56              		.cfi_def_cfa_register 7
  57 0006 0200     		movs	r2, r0
  58 0008 FB1D     		adds	r3, r7, #7
  59 000a 1A70     		strb	r2, [r3]
  19:i2c_master.c  ****     uint32_t status;
  20:i2c_master.c  ****     status = I2C_I2CMasterSendStart( slave, I2C_I2C_WRITE_XFER_MODE,1 ); 
  60              		.loc 1 20 0
  61 000c FB1D     		adds	r3, r7, #7
  62 000e 1B78     		ldrb	r3, [r3]
  63 0010 0122     		movs	r2, #1
  64 0012 0021     		movs	r1, #0
  65 0014 1800     		movs	r0, r3
  66 0016 FFF7FEFF 		bl	I2C_I2CMasterSendStart
  67 001a 0300     		movs	r3, r0
  68 001c FB60     		str	r3, [r7, #12]
  21:i2c_master.c  ****     I2C_I2CMasterSendStop(1);
  69              		.loc 1 21 0
  70 001e 0120     		movs	r0, #1
  71 0020 FFF7FEFF 		bl	I2C_I2CMasterSendStop
  22:i2c_master.c  ****     //CyDelay(1);
  23:i2c_master.c  ****     return status;
  72              		.loc 1 23 0
  73 0024 FB68     		ldr	r3, [r7, #12]
  24:i2c_master.c  **** }
  74              		.loc 1 24 0
  75 0026 1800     		movs	r0, r3
  76 0028 BD46     		mov	sp, r7
  77 002a 04B0     		add	sp, sp, #16
  78              		@ sp needed
  79 002c 80BD     		pop	{r7, pc}
  80              		.cfi_endproc
  81              	.LFE35:
  82              		.size	i2c_status, .-i2c_status
  83 002e C046     		.section	.text.i2c_Read_8,"ax",%progbits
  84              		.align	2
  85              		.global	i2c_Read_8
  86              		.code	16
ARM GAS  C:\Users\alexport\AppData\Local\Temp\cc8gQCAZ.s 			page 3


  87              		.thumb_func
  88              		.type	i2c_Read_8, %function
  89              	i2c_Read_8:
  90              	.LFB36:
  25:i2c_master.c  **** 
  26:i2c_master.c  **** 
  27:i2c_master.c  **** uint8 i2c_Read_8( uint8 slave, uint8 address )
  28:i2c_master.c  **** {
  91              		.loc 1 28 0
  92              		.cfi_startproc
  93              		@ args = 0, pretend = 0, frame = 16
  94              		@ frame_needed = 1, uses_anonymous_args = 0
  95 0000 80B5     		push	{r7, lr}
  96              		.cfi_def_cfa_offset 8
  97              		.cfi_offset 7, -8
  98              		.cfi_offset 14, -4
  99 0002 84B0     		sub	sp, sp, #16
 100              		.cfi_def_cfa_offset 24
 101 0004 00AF     		add	r7, sp, #0
 102              		.cfi_def_cfa_register 7
 103 0006 0200     		movs	r2, r0
 104 0008 FB1D     		adds	r3, r7, #7
 105 000a 1A70     		strb	r2, [r3]
 106 000c BB1D     		adds	r3, r7, #6
 107 000e 0A1C     		adds	r2, r1, #0
 108 0010 1A70     		strb	r2, [r3]
  29:i2c_master.c  ****     static uint8 theResult = 0;
  30:i2c_master.c  ****     uint8_t status;
  31:i2c_master.c  ****     //slave = slave >> 1;                                                         /* MasterSendStar
  32:i2c_master.c  ****     I2C_I2CMasterSendStart( slave, I2C_I2C_WRITE_XFER_MODE,1 );                 /* Send start write
 109              		.loc 1 32 0
 110 0012 FB1D     		adds	r3, r7, #7
 111 0014 1B78     		ldrb	r3, [r3]
 112 0016 0122     		movs	r2, #1
 113 0018 0021     		movs	r1, #0
 114 001a 1800     		movs	r0, r3
 115 001c FFF7FEFF 		bl	I2C_I2CMasterSendStart
  33:i2c_master.c  ****     I2C_I2CMasterWriteByte( address, 1 );                                         /* Send address *
 116              		.loc 1 33 0
 117 0020 BB1D     		adds	r3, r7, #6
 118 0022 1B78     		ldrb	r3, [r3]
 119 0024 0121     		movs	r1, #1
 120 0026 1800     		movs	r0, r3
 121 0028 FFF7FEFF 		bl	I2C_I2CMasterWriteByte
  34:i2c_master.c  ****     I2C_I2CMasterSendRestart( slave, I2C_I2C_READ_XFER_MODE,1 );                /* Send re-start re
 122              		.loc 1 34 0
 123 002c FB1D     		adds	r3, r7, #7
 124 002e 1B78     		ldrb	r3, [r3]
 125 0030 0122     		movs	r2, #1
 126 0032 0121     		movs	r1, #1
 127 0034 1800     		movs	r0, r3
 128 0036 FFF7FEFF 		bl	I2C_I2CMasterSendRestart
  35:i2c_master.c  ****     status = I2C_I2CMasterReadByte( I2C_I2C_NAK_DATA,&theResult, 1 );                    /* Receive
 129              		.loc 1 35 0
 130 003a 0A4B     		ldr	r3, .L5
 131 003c 0122     		movs	r2, #1
 132 003e 1900     		movs	r1, r3
ARM GAS  C:\Users\alexport\AppData\Local\Temp\cc8gQCAZ.s 			page 4


 133 0040 0120     		movs	r0, #1
 134 0042 FFF7FEFF 		bl	I2C_I2CMasterReadByte
 135 0046 0200     		movs	r2, r0
 136 0048 0F23     		movs	r3, #15
 137 004a FB18     		adds	r3, r7, r3
 138 004c 1A70     		strb	r2, [r3]
  36:i2c_master.c  ****     (void) I2C_I2CMasterSendStop(1);                                            /* Send stop */
 139              		.loc 1 36 0
 140 004e 0120     		movs	r0, #1
 141 0050 FFF7FEFF 		bl	I2C_I2CMasterSendStop
  37:i2c_master.c  ****     (void) I2C_I2CMasterClearStatus();                                         /* Clear status flag
 142              		.loc 1 37 0
 143 0054 FFF7FEFF 		bl	I2C_I2CMasterClearStatus
  38:i2c_master.c  ****     return( theResult );                                                        /* Return the resul
 144              		.loc 1 38 0
 145 0058 024B     		ldr	r3, .L5
 146 005a 1B78     		ldrb	r3, [r3]
  39:i2c_master.c  **** }
 147              		.loc 1 39 0
 148 005c 1800     		movs	r0, r3
 149 005e BD46     		mov	sp, r7
 150 0060 04B0     		add	sp, sp, #16
 151              		@ sp needed
 152 0062 80BD     		pop	{r7, pc}
 153              	.L6:
 154              		.align	2
 155              	.L5:
 156 0064 00000000 		.word	theResult.8530
 157              		.cfi_endproc
 158              	.LFE36:
 159              		.size	i2c_Read_8, .-i2c_Read_8
 160              		.section	.text.i2c_read_16,"ax",%progbits
 161              		.align	2
 162              		.global	i2c_read_16
 163              		.code	16
 164              		.thumb_func
 165              		.type	i2c_read_16, %function
 166              	i2c_read_16:
 167              	.LFB37:
  40:i2c_master.c  **** 
  41:i2c_master.c  **** uint16 i2c_read_16( uint8 slave, uint8 address )
  42:i2c_master.c  **** {
 168              		.loc 1 42 0
 169              		.cfi_startproc
 170              		@ args = 0, pretend = 0, frame = 16
 171              		@ frame_needed = 1, uses_anonymous_args = 0
 172 0000 80B5     		push	{r7, lr}
 173              		.cfi_def_cfa_offset 8
 174              		.cfi_offset 7, -8
 175              		.cfi_offset 14, -4
 176 0002 84B0     		sub	sp, sp, #16
 177              		.cfi_def_cfa_offset 24
 178 0004 00AF     		add	r7, sp, #0
 179              		.cfi_def_cfa_register 7
 180 0006 0200     		movs	r2, r0
 181 0008 FB1D     		adds	r3, r7, #7
 182 000a 1A70     		strb	r2, [r3]
ARM GAS  C:\Users\alexport\AppData\Local\Temp\cc8gQCAZ.s 			page 5


 183 000c BB1D     		adds	r3, r7, #6
 184 000e 0A1C     		adds	r2, r1, #0
 185 0010 1A70     		strb	r2, [r3]
  43:i2c_master.c  ****     uint16 theResult;
  44:i2c_master.c  ****     theResult = i2c_Read_8( slave, address );
 186              		.loc 1 44 0
 187 0012 BB1D     		adds	r3, r7, #6
 188 0014 1A78     		ldrb	r2, [r3]
 189 0016 FB1D     		adds	r3, r7, #7
 190 0018 1B78     		ldrb	r3, [r3]
 191 001a 1100     		movs	r1, r2
 192 001c 1800     		movs	r0, r3
 193 001e FFF7FEFF 		bl	i2c_Read_8
 194 0022 0300     		movs	r3, r0
 195 0024 1A00     		movs	r2, r3
 196 0026 0E23     		movs	r3, #14
 197 0028 FB18     		adds	r3, r7, r3
 198 002a 1A80     		strh	r2, [r3]
  45:i2c_master.c  ****     theResult <<= 8;
 199              		.loc 1 45 0
 200 002c 0E23     		movs	r3, #14
 201 002e FB18     		adds	r3, r7, r3
 202 0030 0E22     		movs	r2, #14
 203 0032 BA18     		adds	r2, r7, r2
 204 0034 1288     		ldrh	r2, [r2]
 205 0036 1202     		lsls	r2, r2, #8
 206 0038 1A80     		strh	r2, [r3]
  46:i2c_master.c  ****     theResult |= i2c_Read_8( slave, (address + 1) );
 207              		.loc 1 46 0
 208 003a BB1D     		adds	r3, r7, #6
 209 003c 1B78     		ldrb	r3, [r3]
 210 003e 0133     		adds	r3, r3, #1
 211 0040 DAB2     		uxtb	r2, r3
 212 0042 FB1D     		adds	r3, r7, #7
 213 0044 1B78     		ldrb	r3, [r3]
 214 0046 1100     		movs	r1, r2
 215 0048 1800     		movs	r0, r3
 216 004a FFF7FEFF 		bl	i2c_Read_8
 217 004e 0300     		movs	r3, r0
 218 0050 99B2     		uxth	r1, r3
 219 0052 0E23     		movs	r3, #14
 220 0054 FB18     		adds	r3, r7, r3
 221 0056 0E22     		movs	r2, #14
 222 0058 BA18     		adds	r2, r7, r2
 223 005a 1288     		ldrh	r2, [r2]
 224 005c 0A43     		orrs	r2, r1
 225 005e 1A80     		strh	r2, [r3]
  47:i2c_master.c  ****     return( theResult );
 226              		.loc 1 47 0
 227 0060 0E23     		movs	r3, #14
 228 0062 FB18     		adds	r3, r7, r3
 229 0064 1B88     		ldrh	r3, [r3]
  48:i2c_master.c  **** }
 230              		.loc 1 48 0
 231 0066 1800     		movs	r0, r3
 232 0068 BD46     		mov	sp, r7
 233 006a 04B0     		add	sp, sp, #16
ARM GAS  C:\Users\alexport\AppData\Local\Temp\cc8gQCAZ.s 			page 6


 234              		@ sp needed
 235 006c 80BD     		pop	{r7, pc}
 236              		.cfi_endproc
 237              	.LFE37:
 238              		.size	i2c_read_16, .-i2c_read_16
 239 006e C046     		.section	.text.i2c_write_8,"ax",%progbits
 240              		.align	2
 241              		.global	i2c_write_8
 242              		.code	16
 243              		.thumb_func
 244              		.type	i2c_write_8, %function
 245              	i2c_write_8:
 246              	.LFB38:
  49:i2c_master.c  **** 
  50:i2c_master.c  **** 
  51:i2c_master.c  **** void i2c_write_8( uint8 slave, uint8 address, uint8 data )
  52:i2c_master.c  **** {
 247              		.loc 1 52 0
 248              		.cfi_startproc
 249              		@ args = 0, pretend = 0, frame = 8
 250              		@ frame_needed = 1, uses_anonymous_args = 0
 251 0000 90B5     		push	{r4, r7, lr}
 252              		.cfi_def_cfa_offset 12
 253              		.cfi_offset 4, -12
 254              		.cfi_offset 7, -8
 255              		.cfi_offset 14, -4
 256 0002 83B0     		sub	sp, sp, #12
 257              		.cfi_def_cfa_offset 24
 258 0004 00AF     		add	r7, sp, #0
 259              		.cfi_def_cfa_register 7
 260 0006 0400     		movs	r4, r0
 261 0008 0800     		movs	r0, r1
 262 000a 1100     		movs	r1, r2
 263 000c FB1D     		adds	r3, r7, #7
 264 000e 221C     		adds	r2, r4, #0
 265 0010 1A70     		strb	r2, [r3]
 266 0012 BB1D     		adds	r3, r7, #6
 267 0014 021C     		adds	r2, r0, #0
 268 0016 1A70     		strb	r2, [r3]
 269 0018 7B1D     		adds	r3, r7, #5
 270 001a 0A1C     		adds	r2, r1, #0
 271 001c 1A70     		strb	r2, [r3]
  53:i2c_master.c  ****     //slave = slave >> 1;                                                         /* MasterSendStar
  54:i2c_master.c  ****     I2C_I2CMasterSendStart( slave, I2C_I2C_WRITE_XFER_MODE , 1 );                 /* Send start wri
 272              		.loc 1 54 0
 273 001e FB1D     		adds	r3, r7, #7
 274 0020 1B78     		ldrb	r3, [r3]
 275 0022 0122     		movs	r2, #1
 276 0024 0021     		movs	r1, #0
 277 0026 1800     		movs	r0, r3
 278 0028 FFF7FEFF 		bl	I2C_I2CMasterSendStart
  55:i2c_master.c  ****     I2C_I2CMasterWriteByte( address , 1 );                                         /* Send address 
 279              		.loc 1 55 0
 280 002c BB1D     		adds	r3, r7, #6
 281 002e 1B78     		ldrb	r3, [r3]
 282 0030 0121     		movs	r1, #1
 283 0032 1800     		movs	r0, r3
ARM GAS  C:\Users\alexport\AppData\Local\Temp\cc8gQCAZ.s 			page 7


 284 0034 FFF7FEFF 		bl	I2C_I2CMasterWriteByte
  56:i2c_master.c  ****     I2C_I2CMasterWriteByte( data ,1 );                                            /* Send byte */
 285              		.loc 1 56 0
 286 0038 7B1D     		adds	r3, r7, #5
 287 003a 1B78     		ldrb	r3, [r3]
 288 003c 0121     		movs	r1, #1
 289 003e 1800     		movs	r0, r3
 290 0040 FFF7FEFF 		bl	I2C_I2CMasterWriteByte
  57:i2c_master.c  ****     (void) I2C_I2CMasterSendStop(1);                                            /* Send stop */
 291              		.loc 1 57 0
 292 0044 0120     		movs	r0, #1
 293 0046 FFF7FEFF 		bl	I2C_I2CMasterSendStop
  58:i2c_master.c  ****     (void) I2C_I2CMasterClearStatus();                                         /* Clear status flag
 294              		.loc 1 58 0
 295 004a FFF7FEFF 		bl	I2C_I2CMasterClearStatus
  59:i2c_master.c  ****     CyDelay( 10u );                                                             /* Allow 10millisec
 296              		.loc 1 59 0
 297 004e 0A20     		movs	r0, #10
 298 0050 FFF7FEFF 		bl	CyDelay
  60:i2c_master.c  **** }
 299              		.loc 1 60 0
 300 0054 C046     		nop
 301 0056 BD46     		mov	sp, r7
 302 0058 03B0     		add	sp, sp, #12
 303              		@ sp needed
 304 005a 90BD     		pop	{r4, r7, pc}
 305              		.cfi_endproc
 306              	.LFE38:
 307              		.size	i2c_write_8, .-i2c_write_8
 308              		.section	.text.i2c_write_16,"ax",%progbits
 309              		.align	2
 310              		.global	i2c_write_16
 311              		.code	16
 312              		.thumb_func
 313              		.type	i2c_write_16, %function
 314              	i2c_write_16:
 315              	.LFB39:
  61:i2c_master.c  **** 
  62:i2c_master.c  **** 
  63:i2c_master.c  **** void i2c_write_16( uint8 slave, uint8 address, uint16 data )
  64:i2c_master.c  **** {
 316              		.loc 1 64 0
 317              		.cfi_startproc
 318              		@ args = 0, pretend = 0, frame = 16
 319              		@ frame_needed = 1, uses_anonymous_args = 0
 320 0000 90B5     		push	{r4, r7, lr}
 321              		.cfi_def_cfa_offset 12
 322              		.cfi_offset 4, -12
 323              		.cfi_offset 7, -8
 324              		.cfi_offset 14, -4
 325 0002 85B0     		sub	sp, sp, #20
 326              		.cfi_def_cfa_offset 32
 327 0004 00AF     		add	r7, sp, #0
 328              		.cfi_def_cfa_register 7
 329 0006 0400     		movs	r4, r0
 330 0008 0800     		movs	r0, r1
 331 000a 1100     		movs	r1, r2
ARM GAS  C:\Users\alexport\AppData\Local\Temp\cc8gQCAZ.s 			page 8


 332 000c FB1D     		adds	r3, r7, #7
 333 000e 221C     		adds	r2, r4, #0
 334 0010 1A70     		strb	r2, [r3]
 335 0012 BB1D     		adds	r3, r7, #6
 336 0014 021C     		adds	r2, r0, #0
 337 0016 1A70     		strb	r2, [r3]
 338 0018 3B1D     		adds	r3, r7, #4
 339 001a 0A1C     		adds	r2, r1, #0
 340 001c 1A80     		strh	r2, [r3]
  65:i2c_master.c  ****     uint8 byteToWrite;
  66:i2c_master.c  ****     byteToWrite = ( uint8 )( data >> 8 );                                       /* Load upper byte 
 341              		.loc 1 66 0
 342 001e 3B1D     		adds	r3, r7, #4
 343 0020 1B88     		ldrh	r3, [r3]
 344 0022 1B0A     		lsrs	r3, r3, #8
 345 0024 9AB2     		uxth	r2, r3
 346 0026 0F23     		movs	r3, #15
 347 0028 FB18     		adds	r3, r7, r3
 348 002a 1A70     		strb	r2, [r3]
  67:i2c_master.c  ****     i2c_write_8( slave, address, byteToWrite ); 
 349              		.loc 1 67 0
 350 002c 0F23     		movs	r3, #15
 351 002e FB18     		adds	r3, r7, r3
 352 0030 1A78     		ldrb	r2, [r3]
 353 0032 BB1D     		adds	r3, r7, #6
 354 0034 1978     		ldrb	r1, [r3]
 355 0036 FB1D     		adds	r3, r7, #7
 356 0038 1B78     		ldrb	r3, [r3]
 357 003a 1800     		movs	r0, r3
 358 003c FFF7FEFF 		bl	i2c_write_8
  68:i2c_master.c  ****     CyDelay( 10u );
 359              		.loc 1 68 0
 360 0040 0A20     		movs	r0, #10
 361 0042 FFF7FEFF 		bl	CyDelay
  69:i2c_master.c  ****     /* Write it */
  70:i2c_master.c  ****     byteToWrite = ( uint8 )( data );                                            /* Load lower byte 
 362              		.loc 1 70 0
 363 0046 0F23     		movs	r3, #15
 364 0048 FB18     		adds	r3, r7, r3
 365 004a 3A1D     		adds	r2, r7, #4
 366 004c 1288     		ldrh	r2, [r2]
 367 004e 1A70     		strb	r2, [r3]
  71:i2c_master.c  ****     i2c_write_8( slave, ( address + 1 ), byteToWrite );                    /* Write it */
 368              		.loc 1 71 0
 369 0050 BB1D     		adds	r3, r7, #6
 370 0052 1B78     		ldrb	r3, [r3]
 371 0054 0133     		adds	r3, r3, #1
 372 0056 D9B2     		uxtb	r1, r3
 373 0058 0F23     		movs	r3, #15
 374 005a FB18     		adds	r3, r7, r3
 375 005c 1A78     		ldrb	r2, [r3]
 376 005e FB1D     		adds	r3, r7, #7
 377 0060 1B78     		ldrb	r3, [r3]
 378 0062 1800     		movs	r0, r3
 379 0064 FFF7FEFF 		bl	i2c_write_8
  72:i2c_master.c  ****     CyDelay( 10u );                                                             /* Allow 10millisec
 380              		.loc 1 72 0
ARM GAS  C:\Users\alexport\AppData\Local\Temp\cc8gQCAZ.s 			page 9


 381 0068 0A20     		movs	r0, #10
 382 006a FFF7FEFF 		bl	CyDelay
  73:i2c_master.c  **** }
 383              		.loc 1 73 0
 384 006e C046     		nop
 385 0070 BD46     		mov	sp, r7
 386 0072 05B0     		add	sp, sp, #20
 387              		@ sp needed
 388 0074 90BD     		pop	{r4, r7, pc}
 389              		.cfi_endproc
 390              	.LFE39:
 391              		.size	i2c_write_16, .-i2c_write_16
 392 0076 C046     		.section	.text.slave_ReadDataRaw,"ax",%progbits
 393              		.align	2
 394              		.global	slave_ReadDataRaw
 395              		.code	16
 396              		.thumb_func
 397              		.type	slave_ReadDataRaw, %function
 398              	slave_ReadDataRaw:
 399              	.LFB40:
  74:i2c_master.c  **** 
  75:i2c_master.c  **** uint32 slave_ReadDataRaw(uint8 Reg, uint16 dataSize, uint8 *dataPtr){
 400              		.loc 1 75 0
 401              		.cfi_startproc
 402              		@ args = 0, pretend = 0, frame = 16
 403              		@ frame_needed = 1, uses_anonymous_args = 0
 404 0000 80B5     		push	{r7, lr}
 405              		.cfi_def_cfa_offset 8
 406              		.cfi_offset 7, -8
 407              		.cfi_offset 14, -4
 408 0002 84B0     		sub	sp, sp, #16
 409              		.cfi_def_cfa_offset 24
 410 0004 00AF     		add	r7, sp, #0
 411              		.cfi_def_cfa_register 7
 412 0006 3A60     		str	r2, [r7]
 413 0008 FB1D     		adds	r3, r7, #7
 414 000a 021C     		adds	r2, r0, #0
 415 000c 1A70     		strb	r2, [r3]
 416 000e 3B1D     		adds	r3, r7, #4
 417 0010 0A1C     		adds	r2, r1, #0
 418 0012 1A80     		strh	r2, [r3]
  76:i2c_master.c  **** uint8 txData[1];
  77:i2c_master.c  **** uint32 wrStatus;
  78:i2c_master.c  ****     txData[0] = Reg;
 419              		.loc 1 78 0
 420 0014 0823     		movs	r3, #8
 421 0016 FB18     		adds	r3, r7, r3
 422 0018 FA1D     		adds	r2, r7, #7
 423 001a 1278     		ldrb	r2, [r2]
 424 001c 1A70     		strb	r2, [r3]
  79:i2c_master.c  ****     while (I2C_I2CMasterStatus()== I2C_I2C_MSTAT_XFER_INP){};
 425              		.loc 1 79 0
 426 001e C046     		nop
 427              	.L12:
 428              		.loc 1 79 0 is_stmt 0 discriminator 1
 429 0020 FFF7FEFF 		bl	I2C_I2CMasterStatus
 430 0024 0300     		movs	r3, r0
ARM GAS  C:\Users\alexport\AppData\Local\Temp\cc8gQCAZ.s 			page 10


 431 0026 042B     		cmp	r3, #4
 432 0028 FAD0     		beq	.L12
  80:i2c_master.c  ****     wrStatus = I2C_I2CMasterWriteBuf(I2C_SENSOR_SLAVE_ADDR, txData, 1, I2C_I2C_MODE_NO_STOP);
 433              		.loc 1 80 0 is_stmt 1
 434 002a 0823     		movs	r3, #8
 435 002c F918     		adds	r1, r7, r3
 436 002e 0223     		movs	r3, #2
 437 0030 0122     		movs	r2, #1
 438 0032 6120     		movs	r0, #97
 439 0034 FFF7FEFF 		bl	I2C_I2CMasterWriteBuf
 440 0038 0300     		movs	r3, r0
 441 003a FB60     		str	r3, [r7, #12]
  81:i2c_master.c  ****     
  82:i2c_master.c  ****     if (I2C_I2C_MSTAT_ERR_ADDR_NAK ==I2C_I2CMasterStatus() ){
 442              		.loc 1 82 0
 443 003c FFF7FEFF 		bl	I2C_I2CMasterStatus
 444 0040 0300     		movs	r3, r0
 445 0042 202B     		cmp	r3, #32
 446 0044 01D1     		bne	.L17
  83:i2c_master.c  ****         wrStatus = I2C_I2C_MSTAT_ERR_ADDR_NAK;    
 447              		.loc 1 83 0
 448 0046 2023     		movs	r3, #32
 449 0048 FB60     		str	r3, [r7, #12]
 450              	.L17:
  84:i2c_master.c  ****     }
  85:i2c_master.c  ****     
  86:i2c_master.c  ****     while( (I2C_I2CMasterStatus() & I2C_I2C_MSTAT_WR_CMPLT) == 0){};
 451              		.loc 1 86 0
 452 004a C046     		nop
 453              	.L14:
 454              		.loc 1 86 0 is_stmt 0 discriminator 1
 455 004c FFF7FEFF 		bl	I2C_I2CMasterStatus
 456 0050 0200     		movs	r2, r0
 457 0052 0223     		movs	r3, #2
 458 0054 1340     		ands	r3, r2
 459 0056 F9D0     		beq	.L14
  87:i2c_master.c  ****     
  88:i2c_master.c  ****     I2C_I2CMasterReadBuf(I2C_SENSOR_SLAVE_ADDR, dataPtr, dataSize, I2C_I2C_MODE_REPEAT_START);
 460              		.loc 1 88 0 is_stmt 1
 461 0058 3B1D     		adds	r3, r7, #4
 462 005a 1A88     		ldrh	r2, [r3]
 463 005c 3968     		ldr	r1, [r7]
 464 005e 0123     		movs	r3, #1
 465 0060 6120     		movs	r0, #97
 466 0062 FFF7FEFF 		bl	I2C_I2CMasterReadBuf
  89:i2c_master.c  ****     while( (I2C_I2CMasterStatus() & I2C_I2C_MSTAT_RD_CMPLT) == 0){};
 467              		.loc 1 89 0
 468 0066 C046     		nop
 469              	.L15:
 470              		.loc 1 89 0 is_stmt 0 discriminator 1
 471 0068 FFF7FEFF 		bl	I2C_I2CMasterStatus
 472 006c 0200     		movs	r2, r0
 473 006e 0123     		movs	r3, #1
 474 0070 1340     		ands	r3, r2
 475 0072 F9D0     		beq	.L15
  90:i2c_master.c  ****     
  91:i2c_master.c  ****     //return I2C_NO_ERROR;  // Return success code if data is read successfully
ARM GAS  C:\Users\alexport\AppData\Local\Temp\cc8gQCAZ.s 			page 11


  92:i2c_master.c  ****     return wrStatus;
 476              		.loc 1 92 0 is_stmt 1
 477 0074 FB68     		ldr	r3, [r7, #12]
  93:i2c_master.c  **** }
 478              		.loc 1 93 0
 479 0076 1800     		movs	r0, r3
 480 0078 BD46     		mov	sp, r7
 481 007a 04B0     		add	sp, sp, #16
 482              		@ sp needed
 483 007c 80BD     		pop	{r7, pc}
 484              		.cfi_endproc
 485              	.LFE40:
 486              		.size	slave_ReadDataRaw, .-slave_ReadDataRaw
 487 007e C046     		.section	.text.slave_WriteDataRaw,"ax",%progbits
 488              		.align	2
 489              		.global	slave_WriteDataRaw
 490              		.code	16
 491              		.thumb_func
 492              		.type	slave_WriteDataRaw, %function
 493              	slave_WriteDataRaw:
 494              	.LFB41:
  94:i2c_master.c  **** 
  95:i2c_master.c  **** uint32 slave_WriteDataRaw(uint8 Reg, uint16 dataSize, uint8 *dataPtr){
 495              		.loc 1 95 0
 496              		.cfi_startproc
 497              		@ args = 0, pretend = 0, frame = 8
 498              		@ frame_needed = 1, uses_anonymous_args = 0
 499 0000 80B5     		push	{r7, lr}
 500              		.cfi_def_cfa_offset 8
 501              		.cfi_offset 7, -8
 502              		.cfi_offset 14, -4
 503 0002 82B0     		sub	sp, sp, #8
 504              		.cfi_def_cfa_offset 16
 505 0004 00AF     		add	r7, sp, #0
 506              		.cfi_def_cfa_register 7
 507 0006 3A60     		str	r2, [r7]
 508 0008 FB1D     		adds	r3, r7, #7
 509 000a 021C     		adds	r2, r0, #0
 510 000c 1A70     		strb	r2, [r3]
 511 000e 3B1D     		adds	r3, r7, #4
 512 0010 0A1C     		adds	r2, r1, #0
 513 0012 1A80     		strh	r2, [r3]
  96:i2c_master.c  ****     
  97:i2c_master.c  **** //    while (I2C_I2CMasterStatus()== I2C_I2C_MSTAT_XFER_INP){};
  98:i2c_master.c  **** //    I2C_I2CMasterWriteBuf(I2C_SLAVE_ADDR, &reg, 1, I2C_I2C_MODE_REPEAT_START);
  99:i2c_master.c  **** //    while( (I2C_I2CMasterStatus() & I2C_I2C_MSTAT_WR_CMPLT) == 0){};
 100:i2c_master.c  **** //    I2C_I2CMasterWriteBuf(I2C_SLAVE_ADDR, dataPtr, dataSize, I2C_I2C_MODE_COMPLETE_XFER);
 101:i2c_master.c  **** //    while( (I2C_I2CMasterStatus() & I2C_I2C_MSTAT_WR_CMPLT) == 0){};
 102:i2c_master.c  **** //    return I2C_NO_ERROR;
 103:i2c_master.c  ****     
 104:i2c_master.c  ****     
 105:i2c_master.c  ****     
 106:i2c_master.c  ****     I2C_I2CMasterWriteBuf(I2C_SENSOR_SLAVE_ADDR, dataPtr, dataSize+1,I2C_I2C_MODE_COMPLETE_XFER ); 
 514              		.loc 1 106 0
 515 0014 3B1D     		adds	r3, r7, #4
 516 0016 1B88     		ldrh	r3, [r3]
 517 0018 0133     		adds	r3, r3, #1
ARM GAS  C:\Users\alexport\AppData\Local\Temp\cc8gQCAZ.s 			page 12


 518 001a 1A00     		movs	r2, r3
 519 001c 3968     		ldr	r1, [r7]
 520 001e 0023     		movs	r3, #0
 521 0020 6120     		movs	r0, #97
 522 0022 FFF7FEFF 		bl	I2C_I2CMasterWriteBuf
 107:i2c_master.c  ****     
 108:i2c_master.c  ****     
 109:i2c_master.c  **** //    I2C_I2CMasterSendStart( I2C_SLAVE_ADDR, I2C_I2C_WRITE_XFER_MODE , 1 );                 /* Sen
 110:i2c_master.c  **** //    I2C_I2CMasterWriteByte( Reg , 1 );  
 111:i2c_master.c  **** //    for (uint32_t i = 0; i < dataSize; i++){/* Send address */
 112:i2c_master.c  **** //        I2C_I2CMasterWriteByte( *dataPtr ,1 );    
 113:i2c_master.c  **** //        dataPtr++;
 114:i2c_master.c  **** //    }
 115:i2c_master.c  **** //    (void) I2C_I2CMasterSendStop(1);   
 116:i2c_master.c  **** //    return I2C_NO_ERROR;
 117:i2c_master.c  ****     
 118:i2c_master.c  **** }
 523              		.loc 1 118 0
 524 0026 C046     		nop
 525 0028 1800     		movs	r0, r3
 526 002a BD46     		mov	sp, r7
 527 002c 02B0     		add	sp, sp, #8
 528              		@ sp needed
 529 002e 80BD     		pop	{r7, pc}
 530              		.cfi_endproc
 531              	.LFE41:
 532              		.size	slave_WriteDataRaw, .-slave_WriteDataRaw
 533              		.section	.text.SelectChannel,"ax",%progbits
 534              		.align	2
 535              		.global	SelectChannel
 536              		.code	16
 537              		.thumb_func
 538              		.type	SelectChannel, %function
 539              	SelectChannel:
 540              	.LFB42:
 119:i2c_master.c  **** 
 120:i2c_master.c  **** 
 121:i2c_master.c  **** 
 122:i2c_master.c  **** 
 123:i2c_master.c  **** 
 124:i2c_master.c  **** uint8_t SelectChannel(uint8_t channel)
 125:i2c_master.c  **** {
 541              		.loc 1 125 0
 542              		.cfi_startproc
 543              		@ args = 0, pretend = 0, frame = 16
 544              		@ frame_needed = 1, uses_anonymous_args = 0
 545 0000 80B5     		push	{r7, lr}
 546              		.cfi_def_cfa_offset 8
 547              		.cfi_offset 7, -8
 548              		.cfi_offset 14, -4
 549 0002 84B0     		sub	sp, sp, #16
 550              		.cfi_def_cfa_offset 24
 551 0004 00AF     		add	r7, sp, #0
 552              		.cfi_def_cfa_register 7
 553 0006 0200     		movs	r2, r0
 554 0008 FB1D     		adds	r3, r7, #7
 555 000a 1A70     		strb	r2, [r3]
ARM GAS  C:\Users\alexport\AppData\Local\Temp\cc8gQCAZ.s 			page 13


 126:i2c_master.c  ****     if (channel > 7)
 556              		.loc 1 126 0
 557 000c FB1D     		adds	r3, r7, #7
 558 000e 1B78     		ldrb	r3, [r3]
 559 0010 072B     		cmp	r3, #7
 560 0012 01D9     		bls	.L20
 127:i2c_master.c  ****         return 1; // Invalid channel
 561              		.loc 1 127 0
 562 0014 0123     		movs	r3, #1
 563 0016 1FE0     		b	.L21
 564              	.L20:
 128:i2c_master.c  **** 
 129:i2c_master.c  ****     uint8_t data = (1 << channel);
 565              		.loc 1 129 0
 566 0018 FB1D     		adds	r3, r7, #7
 567 001a 1B78     		ldrb	r3, [r3]
 568 001c 0122     		movs	r2, #1
 569 001e 9A40     		lsls	r2, r2, r3
 570 0020 0F23     		movs	r3, #15
 571 0022 FB18     		adds	r3, r7, r3
 572 0024 1A70     		strb	r2, [r3]
 130:i2c_master.c  ****     return I2C_I2CMasterSendStart(I2C_MUX_SLAVE_ADDR, I2C_I2C_WRITE_XFER_MODE,1) ||
 573              		.loc 1 130 0
 574 0026 0122     		movs	r2, #1
 575 0028 0021     		movs	r1, #0
 576 002a 7320     		movs	r0, #115
 577 002c FFF7FEFF 		bl	I2C_I2CMasterSendStart
 578 0030 031E     		subs	r3, r0, #0
 131:i2c_master.c  ****            I2C_I2CMasterWriteByte(data,1) ||
 579              		.loc 1 131 0
 580 0032 0DD1     		bne	.L22
 581              		.loc 1 131 0 is_stmt 0 discriminator 2
 582 0034 0F23     		movs	r3, #15
 583 0036 FB18     		adds	r3, r7, r3
 584 0038 1B78     		ldrb	r3, [r3]
 585 003a 0121     		movs	r1, #1
 586 003c 1800     		movs	r0, r3
 587 003e FFF7FEFF 		bl	I2C_I2CMasterWriteByte
 588 0042 031E     		subs	r3, r0, #0
 130:i2c_master.c  ****     return I2C_I2CMasterSendStart(I2C_MUX_SLAVE_ADDR, I2C_I2C_WRITE_XFER_MODE,1) ||
 589              		.loc 1 130 0 is_stmt 1 discriminator 2
 590 0044 04D1     		bne	.L22
 132:i2c_master.c  ****            I2C_I2CMasterSendStop(1);
 591              		.loc 1 132 0 discriminator 3
 592 0046 0120     		movs	r0, #1
 593 0048 FFF7FEFF 		bl	I2C_I2CMasterSendStop
 594 004c 031E     		subs	r3, r0, #0
 131:i2c_master.c  ****            I2C_I2CMasterWriteByte(data,1) ||
 595              		.loc 1 131 0 discriminator 3
 596 004e 01D0     		beq	.L23
 597              	.L22:
 131:i2c_master.c  ****            I2C_I2CMasterWriteByte(data,1) ||
 598              		.loc 1 131 0 is_stmt 0 discriminator 1
 599 0050 0123     		movs	r3, #1
 600 0052 00E0     		b	.L24
 601              	.L23:
 131:i2c_master.c  ****            I2C_I2CMasterWriteByte(data,1) ||
ARM GAS  C:\Users\alexport\AppData\Local\Temp\cc8gQCAZ.s 			page 14


 602              		.loc 1 131 0 discriminator 4
 603 0054 0023     		movs	r3, #0
 604              	.L24:
 130:i2c_master.c  ****     return I2C_I2CMasterSendStart(I2C_MUX_SLAVE_ADDR, I2C_I2C_WRITE_XFER_MODE,1) ||
 605              		.loc 1 130 0 is_stmt 1
 606 0056 DBB2     		uxtb	r3, r3
 607              	.L21:
 133:i2c_master.c  **** }
 608              		.loc 1 133 0
 609 0058 1800     		movs	r0, r3
 610 005a BD46     		mov	sp, r7
 611 005c 04B0     		add	sp, sp, #16
 612              		@ sp needed
 613 005e 80BD     		pop	{r7, pc}
 614              		.cfi_endproc
 615              	.LFE42:
 616              		.size	SelectChannel, .-SelectChannel
 617              		.section	.text.DisableAllChannels,"ax",%progbits
 618              		.align	2
 619              		.global	DisableAllChannels
 620              		.code	16
 621              		.thumb_func
 622              		.type	DisableAllChannels, %function
 623              	DisableAllChannels:
 624              	.LFB43:
 134:i2c_master.c  **** 
 135:i2c_master.c  **** uint8_t DisableAllChannels(void)
 136:i2c_master.c  **** {
 625              		.loc 1 136 0
 626              		.cfi_startproc
 627              		@ args = 0, pretend = 0, frame = 8
 628              		@ frame_needed = 1, uses_anonymous_args = 0
 629 0000 80B5     		push	{r7, lr}
 630              		.cfi_def_cfa_offset 8
 631              		.cfi_offset 7, -8
 632              		.cfi_offset 14, -4
 633 0002 82B0     		sub	sp, sp, #8
 634              		.cfi_def_cfa_offset 16
 635 0004 00AF     		add	r7, sp, #0
 636              		.cfi_def_cfa_register 7
 137:i2c_master.c  ****     uint8_t data = 0x00;
 637              		.loc 1 137 0
 638 0006 FB1D     		adds	r3, r7, #7
 639 0008 0022     		movs	r2, #0
 640 000a 1A70     		strb	r2, [r3]
 138:i2c_master.c  ****     return I2C_I2CMasterSendStart(I2C_MUX_SLAVE_ADDR, I2C_I2C_WRITE_XFER_MODE,1) ||
 641              		.loc 1 138 0
 642 000c 0122     		movs	r2, #1
 643 000e 0021     		movs	r1, #0
 644 0010 7320     		movs	r0, #115
 645 0012 FFF7FEFF 		bl	I2C_I2CMasterSendStart
 646 0016 031E     		subs	r3, r0, #0
 139:i2c_master.c  ****            I2C_I2CMasterWriteByte(data,1) ||
 647              		.loc 1 139 0
 648 0018 0CD1     		bne	.L26
 649              		.loc 1 139 0 is_stmt 0 discriminator 2
 650 001a FB1D     		adds	r3, r7, #7
ARM GAS  C:\Users\alexport\AppData\Local\Temp\cc8gQCAZ.s 			page 15


 651 001c 1B78     		ldrb	r3, [r3]
 652 001e 0121     		movs	r1, #1
 653 0020 1800     		movs	r0, r3
 654 0022 FFF7FEFF 		bl	I2C_I2CMasterWriteByte
 655 0026 031E     		subs	r3, r0, #0
 138:i2c_master.c  ****     return I2C_I2CMasterSendStart(I2C_MUX_SLAVE_ADDR, I2C_I2C_WRITE_XFER_MODE,1) ||
 656              		.loc 1 138 0 is_stmt 1 discriminator 2
 657 0028 04D1     		bne	.L26
 140:i2c_master.c  ****            I2C_I2CMasterSendStop(1);
 658              		.loc 1 140 0 discriminator 3
 659 002a 0120     		movs	r0, #1
 660 002c FFF7FEFF 		bl	I2C_I2CMasterSendStop
 661 0030 031E     		subs	r3, r0, #0
 139:i2c_master.c  ****            I2C_I2CMasterWriteByte(data,1) ||
 662              		.loc 1 139 0 discriminator 3
 663 0032 01D0     		beq	.L27
 664              	.L26:
 139:i2c_master.c  ****            I2C_I2CMasterWriteByte(data,1) ||
 665              		.loc 1 139 0 is_stmt 0 discriminator 1
 666 0034 0123     		movs	r3, #1
 667 0036 00E0     		b	.L28
 668              	.L27:
 139:i2c_master.c  ****            I2C_I2CMasterWriteByte(data,1) ||
 669              		.loc 1 139 0 discriminator 4
 670 0038 0023     		movs	r3, #0
 671              	.L28:
 138:i2c_master.c  ****     return I2C_I2CMasterSendStart(I2C_MUX_SLAVE_ADDR, I2C_I2C_WRITE_XFER_MODE,1) ||
 672              		.loc 1 138 0 is_stmt 1
 673 003a DBB2     		uxtb	r3, r3
 141:i2c_master.c  **** }
 674              		.loc 1 141 0
 675 003c 1800     		movs	r0, r3
 676 003e BD46     		mov	sp, r7
 677 0040 02B0     		add	sp, sp, #8
 678              		@ sp needed
 679 0042 80BD     		pop	{r7, pc}
 680              		.cfi_endproc
 681              	.LFE43:
 682              		.size	DisableAllChannels, .-DisableAllChannels
 683              		.section	.text.WriteReg,"ax",%progbits
 684              		.align	2
 685              		.global	WriteReg
 686              		.code	16
 687              		.thumb_func
 688              		.type	WriteReg, %function
 689              	WriteReg:
 690              	.LFB44:
 142:i2c_master.c  **** 
 143:i2c_master.c  **** void WriteReg(uint8 reg, uint8 value) {
 691              		.loc 1 143 0
 692              		.cfi_startproc
 693              		@ args = 0, pretend = 0, frame = 16
 694              		@ frame_needed = 1, uses_anonymous_args = 0
 695 0000 80B5     		push	{r7, lr}
 696              		.cfi_def_cfa_offset 8
 697              		.cfi_offset 7, -8
 698              		.cfi_offset 14, -4
ARM GAS  C:\Users\alexport\AppData\Local\Temp\cc8gQCAZ.s 			page 16


 699 0002 84B0     		sub	sp, sp, #16
 700              		.cfi_def_cfa_offset 24
 701 0004 00AF     		add	r7, sp, #0
 702              		.cfi_def_cfa_register 7
 703 0006 0200     		movs	r2, r0
 704 0008 FB1D     		adds	r3, r7, #7
 705 000a 1A70     		strb	r2, [r3]
 706 000c BB1D     		adds	r3, r7, #6
 707 000e 0A1C     		adds	r2, r1, #0
 708 0010 1A70     		strb	r2, [r3]
 144:i2c_master.c  ****     uint8 buf[2] = {reg, value};
 709              		.loc 1 144 0
 710 0012 0C23     		movs	r3, #12
 711 0014 FB18     		adds	r3, r7, r3
 712 0016 FA1D     		adds	r2, r7, #7
 713 0018 1278     		ldrb	r2, [r2]
 714 001a 1A70     		strb	r2, [r3]
 715 001c 0C23     		movs	r3, #12
 716 001e FB18     		adds	r3, r7, r3
 717 0020 BA1D     		adds	r2, r7, #6
 718 0022 1278     		ldrb	r2, [r2]
 719 0024 5A70     		strb	r2, [r3, #1]
 145:i2c_master.c  ****     I2C_I2CMasterWriteBuf(I2C_LED_SLAVE_ADDR, buf, 2, I2C_I2C_MODE_COMPLETE_XFER);
 720              		.loc 1 145 0
 721 0026 0C23     		movs	r3, #12
 722 0028 F918     		adds	r1, r7, r3
 723 002a 0023     		movs	r3, #0
 724 002c 0222     		movs	r2, #2
 725 002e 6020     		movs	r0, #96
 726 0030 FFF7FEFF 		bl	I2C_I2CMasterWriteBuf
 146:i2c_master.c  ****     while(I2C_I2CMasterStatus() & I2C_I2C_MSTAT_XFER_INP);
 727              		.loc 1 146 0
 728 0034 C046     		nop
 729              	.L31:
 730              		.loc 1 146 0 is_stmt 0 discriminator 1
 731 0036 FFF7FEFF 		bl	I2C_I2CMasterStatus
 732 003a 0200     		movs	r2, r0
 733 003c 0423     		movs	r3, #4
 734 003e 1340     		ands	r3, r2
 735 0040 F9D1     		bne	.L31
 147:i2c_master.c  **** }
 736              		.loc 1 147 0 is_stmt 1
 737 0042 C046     		nop
 738 0044 BD46     		mov	sp, r7
 739 0046 04B0     		add	sp, sp, #16
 740              		@ sp needed
 741 0048 80BD     		pop	{r7, pc}
 742              		.cfi_endproc
 743              	.LFE44:
 744              		.size	WriteReg, .-WriteReg
 745 004a C046     		.section	.text.I2C_Recover,"ax",%progbits
 746              		.align	2
 747              		.global	I2C_Recover
 748              		.code	16
 749              		.thumb_func
 750              		.type	I2C_Recover, %function
 751              	I2C_Recover:
ARM GAS  C:\Users\alexport\AppData\Local\Temp\cc8gQCAZ.s 			page 17


 752              	.LFB45:
 148:i2c_master.c  **** 
 149:i2c_master.c  **** 
 150:i2c_master.c  **** 
 151:i2c_master.c  **** void I2C_Recover(){
 753              		.loc 1 151 0
 754              		.cfi_startproc
 755              		@ args = 0, pretend = 0, frame = 0
 756              		@ frame_needed = 1, uses_anonymous_args = 0
 757 0000 80B5     		push	{r7, lr}
 758              		.cfi_def_cfa_offset 8
 759              		.cfi_offset 7, -8
 760              		.cfi_offset 14, -4
 761 0002 00AF     		add	r7, sp, #0
 762              		.cfi_def_cfa_register 7
 152:i2c_master.c  ****     I2C_Stop();
 763              		.loc 1 152 0
 764 0004 FFF7FEFF 		bl	I2C_Stop
 153:i2c_master.c  ****     I2C_Start();
 765              		.loc 1 153 0
 766 0008 FFF7FEFF 		bl	I2C_Start
 154:i2c_master.c  **** }
 767              		.loc 1 154 0
 768 000c C046     		nop
 769 000e BD46     		mov	sp, r7
 770              		@ sp needed
 771 0010 80BD     		pop	{r7, pc}
 772              		.cfi_endproc
 773              	.LFE45:
 774              		.size	I2C_Recover, .-I2C_Recover
 775 0012 C046     		.bss
 776              	theResult.8530:
 777 0000 00       		.space	1
 778              		.text
 779              	.Letext0:
 780              		.file 2 "c:\\program files (x86)\\cypress\\psoc creator\\4.4\\psoc creator\\import\\gnu\\arm\\5.4.
 781              		.file 3 "c:\\program files (x86)\\cypress\\psoc creator\\4.4\\psoc creator\\import\\gnu\\arm\\5.4.
 782              		.file 4 "Generated_Source\\PSoC4/cytypes.h"
 783              		.file 5 "Generated_Source\\PSoC4/blue_Stack.h"
 784              		.file 6 "Generated_Source\\PSoC4/blue_dis.h"