ARM GAS  C:\Users\alexport\AppData\Local\Temp\ccqWCGXp.s 			page 1


   1              		.syntax unified
   2              		.cpu cortex-m0
   3              		.fpu softvfp
   4              		.eabi_attribute 20, 1
   5              		.eabi_attribute 21, 1
   6              		.eabi_attribute 23, 3
   7              		.eabi_attribute 24, 1
   8              		.eabi_attribute 25, 1
   9              		.eabi_attribute 26, 1
  10              		.eabi_attribute 30, 6
  11              		.eabi_attribute 34, 0
  12              		.eabi_attribute 18, 4
  13              		.thumb
  14              		.syntax unified
  15              		.file	"I2CS_EZI2C_INT.c"
  16              		.text
  17              	.Ltext0:
  18              		.cfi_sections	.debug_frame
  19              		.section	.text.I2CS_EZI2C_STRETCH_ISR,"ax",%progbits
  20              		.align	2
  21              		.global	I2CS_EZI2C_STRETCH_ISR
  22              		.code	16
  23              		.thumb_func
  24              		.type	I2CS_EZI2C_STRETCH_ISR, %function
  25              	I2CS_EZI2C_STRETCH_ISR:
  26              	.LFB2:
  27              		.file 1 "Generated_Source\\PSoC4\\I2CS_EZI2C_INT.c"
   1:Generated_Source\PSoC4/I2CS_EZI2C_INT.c **** /***************************************************************************//**
   2:Generated_Source\PSoC4/I2CS_EZI2C_INT.c **** * \file I2CS_EZI2C_INT.c
   3:Generated_Source\PSoC4/I2CS_EZI2C_INT.c **** * \version 4.0
   4:Generated_Source\PSoC4/I2CS_EZI2C_INT.c **** *
   5:Generated_Source\PSoC4/I2CS_EZI2C_INT.c **** * \brief
   6:Generated_Source\PSoC4/I2CS_EZI2C_INT.c **** *  This file provides the source code to the Interrupt Service Routine for
   7:Generated_Source\PSoC4/I2CS_EZI2C_INT.c **** *  the SCB Component in EZI2C mode.
   8:Generated_Source\PSoC4/I2CS_EZI2C_INT.c **** *
   9:Generated_Source\PSoC4/I2CS_EZI2C_INT.c **** * Note:
  10:Generated_Source\PSoC4/I2CS_EZI2C_INT.c **** *
  11:Generated_Source\PSoC4/I2CS_EZI2C_INT.c **** ********************************************************************************
  12:Generated_Source\PSoC4/I2CS_EZI2C_INT.c **** * \copyright
  13:Generated_Source\PSoC4/I2CS_EZI2C_INT.c **** * Copyright 2013-2017, Cypress Semiconductor Corporation.  All rights reserved.
  14:Generated_Source\PSoC4/I2CS_EZI2C_INT.c **** * You may use this file only in accordance with the license, terms, conditions,
  15:Generated_Source\PSoC4/I2CS_EZI2C_INT.c **** * disclaimers, and limitations in the end user license agreement accompanying
  16:Generated_Source\PSoC4/I2CS_EZI2C_INT.c **** * the software package with which this file was provided.
  17:Generated_Source\PSoC4/I2CS_EZI2C_INT.c **** *******************************************************************************/
  18:Generated_Source\PSoC4/I2CS_EZI2C_INT.c **** 
  19:Generated_Source\PSoC4/I2CS_EZI2C_INT.c **** #include "I2CS_PVT.h"
  20:Generated_Source\PSoC4/I2CS_EZI2C_INT.c **** #include "I2CS_EZI2C_PVT.h"
  21:Generated_Source\PSoC4/I2CS_EZI2C_INT.c **** #include "cyapicallbacks.h"
  22:Generated_Source\PSoC4/I2CS_EZI2C_INT.c **** 
  23:Generated_Source\PSoC4/I2CS_EZI2C_INT.c **** #if(I2CS_EZI2C_SCL_STRETCH_ENABLE_CONST)
  24:Generated_Source\PSoC4/I2CS_EZI2C_INT.c ****     /*******************************************************************************
  25:Generated_Source\PSoC4/I2CS_EZI2C_INT.c ****     * Function Name: I2CS_EZI2C_STRETCH_ISR
  26:Generated_Source\PSoC4/I2CS_EZI2C_INT.c ****     ****************************************************************************//**
  27:Generated_Source\PSoC4/I2CS_EZI2C_INT.c ****     *
  28:Generated_Source\PSoC4/I2CS_EZI2C_INT.c ****     *  Handles the Interrupt Service Routine for the SCB EZI2C mode.
  29:Generated_Source\PSoC4/I2CS_EZI2C_INT.c ****     *  The clock stretching is used during operation.
  30:Generated_Source\PSoC4/I2CS_EZI2C_INT.c ****     *
ARM GAS  C:\Users\alexport\AppData\Local\Temp\ccqWCGXp.s 			page 2


  31:Generated_Source\PSoC4/I2CS_EZI2C_INT.c ****     *******************************************************************************/
  32:Generated_Source\PSoC4/I2CS_EZI2C_INT.c ****     CY_ISR_PROTO(I2CS_EZI2C_STRETCH_ISR)
  33:Generated_Source\PSoC4/I2CS_EZI2C_INT.c ****     {
  28              		.loc 1 33 0
  29              		.cfi_startproc
  30              		@ args = 0, pretend = 0, frame = 32
  31              		@ frame_needed = 1, uses_anonymous_args = 0
  32 0000 80B5     		push	{r7, lr}
  33              		.cfi_def_cfa_offset 8
  34              		.cfi_offset 7, -8
  35              		.cfi_offset 14, -4
  36 0002 88B0     		sub	sp, sp, #32
  37              		.cfi_def_cfa_offset 40
  38 0004 00AF     		add	r7, sp, #0
  39              		.cfi_def_cfa_register 7
  34:Generated_Source\PSoC4/I2CS_EZI2C_INT.c ****         static uint16 locBufSize;
  35:Generated_Source\PSoC4/I2CS_EZI2C_INT.c ****         uint32 locIndex;
  36:Generated_Source\PSoC4/I2CS_EZI2C_INT.c ****         uint32 locStatus;
  37:Generated_Source\PSoC4/I2CS_EZI2C_INT.c **** 
  38:Generated_Source\PSoC4/I2CS_EZI2C_INT.c ****         uint32 endTransfer;
  39:Generated_Source\PSoC4/I2CS_EZI2C_INT.c ****         uint32 fifoIndex;
  40:Generated_Source\PSoC4/I2CS_EZI2C_INT.c ****         uint32 locByte;
  41:Generated_Source\PSoC4/I2CS_EZI2C_INT.c **** 
  42:Generated_Source\PSoC4/I2CS_EZI2C_INT.c ****         uint32 locIntrCause;
  43:Generated_Source\PSoC4/I2CS_EZI2C_INT.c ****         uint32 locIntrSlave;
  44:Generated_Source\PSoC4/I2CS_EZI2C_INT.c **** 
  45:Generated_Source\PSoC4/I2CS_EZI2C_INT.c ****     #ifdef I2CS_EZI2C_STRETCH_ISR_ENTRY_CALLBACK
  46:Generated_Source\PSoC4/I2CS_EZI2C_INT.c ****         I2CS_EZI2C_STRETCH_ISR_EntryCallback();
  47:Generated_Source\PSoC4/I2CS_EZI2C_INT.c ****     #endif /* I2CS_EZI2C_STRETCH_ISR_ENTRY_CALLBACK */
  48:Generated_Source\PSoC4/I2CS_EZI2C_INT.c **** 
  49:Generated_Source\PSoC4/I2CS_EZI2C_INT.c ****     #if(I2CS_SECONDARY_ADDRESS_ENABLE_CONST)
  50:Generated_Source\PSoC4/I2CS_EZI2C_INT.c ****         /* Variable intended to be used with either buffer */
  51:Generated_Source\PSoC4/I2CS_EZI2C_INT.c ****         static volatile uint8 * I2CS_dataBuffer; /* Pointer to data buffer              */
  52:Generated_Source\PSoC4/I2CS_EZI2C_INT.c ****         static uint16 I2CS_bufSizeBuf;           /* Size of buffer in bytes             */
  53:Generated_Source\PSoC4/I2CS_EZI2C_INT.c ****         static uint16 I2CS_protectBuf;           /* Start index of write protected area */
  54:Generated_Source\PSoC4/I2CS_EZI2C_INT.c **** 
  55:Generated_Source\PSoC4/I2CS_EZI2C_INT.c ****         static uint8 activeAddress;
  56:Generated_Source\PSoC4/I2CS_EZI2C_INT.c ****         uint32 ackResponse;
  57:Generated_Source\PSoC4/I2CS_EZI2C_INT.c **** 
  58:Generated_Source\PSoC4/I2CS_EZI2C_INT.c ****         ackResponse = I2CS_EZI2C_ACK_RECEIVED_ADDRESS;
  59:Generated_Source\PSoC4/I2CS_EZI2C_INT.c ****     #endif /* (I2CS_SECONDARY_ADDRESS_ENABLE_CONST) */
  60:Generated_Source\PSoC4/I2CS_EZI2C_INT.c **** 
  61:Generated_Source\PSoC4/I2CS_EZI2C_INT.c ****     #if !defined (CY_REMOVE_I2CS_CUSTOM_INTR_HANDLER)
  62:Generated_Source\PSoC4/I2CS_EZI2C_INT.c ****         if(NULL != I2CS_customIntrHandler)
  40              		.loc 1 62 0
  41 0006 C74B     		ldr	r3, .L40
  42 0008 1B68     		ldr	r3, [r3]
  43 000a 002B     		cmp	r3, #0
  44 000c 02D0     		beq	.L2
  63:Generated_Source\PSoC4/I2CS_EZI2C_INT.c ****         {
  64:Generated_Source\PSoC4/I2CS_EZI2C_INT.c ****             I2CS_customIntrHandler();
  45              		.loc 1 64 0
  46 000e C54B     		ldr	r3, .L40
  47 0010 1B68     		ldr	r3, [r3]
  48 0012 9847     		blx	r3
  49              	.L2:
  65:Generated_Source\PSoC4/I2CS_EZI2C_INT.c ****         }
ARM GAS  C:\Users\alexport\AppData\Local\Temp\ccqWCGXp.s 			page 3


  66:Generated_Source\PSoC4/I2CS_EZI2C_INT.c ****     #else
  67:Generated_Source\PSoC4/I2CS_EZI2C_INT.c ****         CY_I2CS_CUSTOM_INTR_HANDLER();
  68:Generated_Source\PSoC4/I2CS_EZI2C_INT.c ****     #endif /* !defined (CY_REMOVE_I2CS_CUSTOM_INTR_HANDLER) */
  69:Generated_Source\PSoC4/I2CS_EZI2C_INT.c **** 
  70:Generated_Source\PSoC4/I2CS_EZI2C_INT.c ****         /* Make local copy of global variable */
  71:Generated_Source\PSoC4/I2CS_EZI2C_INT.c ****         locIndex = I2CS_EZI2C_GET_INDEX(activeAddress);
  50              		.loc 1 71 0
  51 0014 C44B     		ldr	r3, .L40+4
  52 0016 1B88     		ldrh	r3, [r3]
  53 0018 FB61     		str	r3, [r7, #28]
  72:Generated_Source\PSoC4/I2CS_EZI2C_INT.c **** 
  73:Generated_Source\PSoC4/I2CS_EZI2C_INT.c ****         /* Get interrupt sources */
  74:Generated_Source\PSoC4/I2CS_EZI2C_INT.c ****         locIntrSlave = I2CS_GetSlaveInterruptSource();
  54              		.loc 1 74 0
  55 001a C44B     		ldr	r3, .L40+8
  56 001c 1B68     		ldr	r3, [r3]
  57 001e FB60     		str	r3, [r7, #12]
  75:Generated_Source\PSoC4/I2CS_EZI2C_INT.c ****         locIntrCause = I2CS_GetInterruptCause();
  58              		.loc 1 75 0
  59 0020 C34B     		ldr	r3, .L40+12
  60 0022 1B68     		ldr	r3, [r3]
  61 0024 BB60     		str	r3, [r7, #8]
  76:Generated_Source\PSoC4/I2CS_EZI2C_INT.c **** 
  77:Generated_Source\PSoC4/I2CS_EZI2C_INT.c ****         /* INTR_SLAVE.I2C_ARB_LOST and INTR_SLAVE_I2C.BUS_ERROR */
  78:Generated_Source\PSoC4/I2CS_EZI2C_INT.c ****         /* Handles errors on the bus. There are cases when both bits are set.
  79:Generated_Source\PSoC4/I2CS_EZI2C_INT.c ****         * The error recovery is common: re-enable the scb IP. The content of the RX FIFO is lost.
  80:Generated_Source\PSoC4/I2CS_EZI2C_INT.c ****         */
  81:Generated_Source\PSoC4/I2CS_EZI2C_INT.c ****         if(0u != (locIntrSlave & (I2CS_INTR_SLAVE_I2C_ARB_LOST |
  62              		.loc 1 81 0
  63 0026 FA68     		ldr	r2, [r7, #12]
  64 0028 0223     		movs	r3, #2
  65 002a FF33     		adds	r3, r3, #255
  66 002c 1340     		ands	r3, r2
  67 002e 49D0     		beq	.L3
  82:Generated_Source\PSoC4/I2CS_EZI2C_INT.c ****                                   I2CS_INTR_SLAVE_I2C_BUS_ERROR)))
  83:Generated_Source\PSoC4/I2CS_EZI2C_INT.c ****         {
  84:Generated_Source\PSoC4/I2CS_EZI2C_INT.c ****             I2CS_CTRL_REG &= (uint32) ~I2CS_CTRL_ENABLED; /* Disable SCB block */
  68              		.loc 1 84 0
  69 0030 C04B     		ldr	r3, .L40+16
  70 0032 C04A     		ldr	r2, .L40+16
  71 0034 1268     		ldr	r2, [r2]
  72 0036 5200     		lsls	r2, r2, #1
  73 0038 5208     		lsrs	r2, r2, #1
  74 003a 1A60     		str	r2, [r3]
  85:Generated_Source\PSoC4/I2CS_EZI2C_INT.c **** 
  86:Generated_Source\PSoC4/I2CS_EZI2C_INT.c ****         #if(I2CS_CY_SCBIP_V0)
  87:Generated_Source\PSoC4/I2CS_EZI2C_INT.c ****             if(0u != ((uint8) I2CS_EZI2C_STATUS_BUSY & I2CS_curStatus))
  88:Generated_Source\PSoC4/I2CS_EZI2C_INT.c ****         #endif /* (I2CS_CY_SCBIP_V0) */
  89:Generated_Source\PSoC4/I2CS_EZI2C_INT.c ****             {
  90:Generated_Source\PSoC4/I2CS_EZI2C_INT.c ****                 I2CS_curStatus &= (uint8) ~I2CS_EZI2C_STATUS_BUSY;
  75              		.loc 1 90 0
  76 003c BE4B     		ldr	r3, .L40+20
  77 003e 1B78     		ldrb	r3, [r3]
  78 0040 DBB2     		uxtb	r3, r3
  79 0042 2022     		movs	r2, #32
  80 0044 9343     		bics	r3, r2
  81 0046 DAB2     		uxtb	r2, r3
ARM GAS  C:\Users\alexport\AppData\Local\Temp\ccqWCGXp.s 			page 4


  82 0048 BB4B     		ldr	r3, .L40+20
  83 004a 1A70     		strb	r2, [r3]
  91:Generated_Source\PSoC4/I2CS_EZI2C_INT.c ****                 I2CS_curStatus |= (uint8)  I2CS_EZI2C_STATUS_ERR;
  84              		.loc 1 91 0
  85 004c BA4B     		ldr	r3, .L40+20
  86 004e 1B78     		ldrb	r3, [r3]
  87 0050 DBB2     		uxtb	r3, r3
  88 0052 1022     		movs	r2, #16
  89 0054 1343     		orrs	r3, r2
  90 0056 DAB2     		uxtb	r2, r3
  91 0058 B74B     		ldr	r3, .L40+20
  92 005a 1A70     		strb	r2, [r3]
  92:Generated_Source\PSoC4/I2CS_EZI2C_INT.c **** 
  93:Generated_Source\PSoC4/I2CS_EZI2C_INT.c ****                 /* INTR_TX_EMPTY is enabled in the address phase to receive data */
  94:Generated_Source\PSoC4/I2CS_EZI2C_INT.c ****                 if(0u == (I2CS_GetTxInterruptMode() & I2CS_INTR_TX_EMPTY))
  93              		.loc 1 94 0
  94 005c B74B     		ldr	r3, .L40+24
  95 005e 1B68     		ldr	r3, [r3]
  96 0060 1022     		movs	r2, #16
  97 0062 1340     		ands	r3, r2
  98 0064 0FD1     		bne	.L4
  95:Generated_Source\PSoC4/I2CS_EZI2C_INT.c ****                 {
  96:Generated_Source\PSoC4/I2CS_EZI2C_INT.c ****                     /* Write complete */
  97:Generated_Source\PSoC4/I2CS_EZI2C_INT.c ****                     if(I2CS_indexBuf1 != I2CS_offsetBuf1)
  99              		.loc 1 97 0
 100 0066 B64B     		ldr	r3, .L40+28
 101 0068 1B78     		ldrb	r3, [r3]
 102 006a 9AB2     		uxth	r2, r3
 103 006c AE4B     		ldr	r3, .L40+4
 104 006e 1B88     		ldrh	r3, [r3]
 105 0070 9A42     		cmp	r2, r3
 106 0072 10D0     		beq	.L6
  98:Generated_Source\PSoC4/I2CS_EZI2C_INT.c ****                     {
  99:Generated_Source\PSoC4/I2CS_EZI2C_INT.c ****                         I2CS_curStatus |= (uint8) I2CS_INTR_SLAVE_I2C_WRITE_STOP;
 107              		.loc 1 99 0
 108 0074 B04B     		ldr	r3, .L40+20
 109 0076 1B78     		ldrb	r3, [r3]
 110 0078 DBB2     		uxtb	r3, r3
 111 007a 0822     		movs	r2, #8
 112 007c 1343     		orrs	r3, r2
 113 007e DAB2     		uxtb	r2, r3
 114 0080 AD4B     		ldr	r3, .L40+20
 115 0082 1A70     		strb	r2, [r3]
 116 0084 07E0     		b	.L6
 117              	.L4:
 100:Generated_Source\PSoC4/I2CS_EZI2C_INT.c ****                     }
 101:Generated_Source\PSoC4/I2CS_EZI2C_INT.c ****                 }
 102:Generated_Source\PSoC4/I2CS_EZI2C_INT.c ****                 else
 103:Generated_Source\PSoC4/I2CS_EZI2C_INT.c ****                 {
 104:Generated_Source\PSoC4/I2CS_EZI2C_INT.c ****                     /* Read complete */
 105:Generated_Source\PSoC4/I2CS_EZI2C_INT.c ****                     I2CS_curStatus |= (uint8) I2CS_INTR_SLAVE_I2C_NACK;
 118              		.loc 1 105 0
 119 0086 AC4B     		ldr	r3, .L40+20
 120 0088 1B78     		ldrb	r3, [r3]
 121 008a DBB2     		uxtb	r3, r3
 122 008c 0222     		movs	r2, #2
 123 008e 1343     		orrs	r3, r2
ARM GAS  C:\Users\alexport\AppData\Local\Temp\ccqWCGXp.s 			page 5


 124 0090 DAB2     		uxtb	r2, r3
 125 0092 A94B     		ldr	r3, .L40+20
 126 0094 1A70     		strb	r2, [r3]
 127              	.L6:
 106:Generated_Source\PSoC4/I2CS_EZI2C_INT.c ****                 }
 107:Generated_Source\PSoC4/I2CS_EZI2C_INT.c ****             }
 108:Generated_Source\PSoC4/I2CS_EZI2C_INT.c **** 
 109:Generated_Source\PSoC4/I2CS_EZI2C_INT.c ****             I2CS_DISABLE_SLAVE_AUTO_DATA;
 128              		.loc 1 109 0
 129 0096 AB4B     		ldr	r3, .L40+32
 130 0098 AA4A     		ldr	r2, .L40+32
 131 009a 1268     		ldr	r2, [r2]
 132 009c AA49     		ldr	r1, .L40+36
 133 009e 0A40     		ands	r2, r1
 134 00a0 1A60     		str	r2, [r3]
 110:Generated_Source\PSoC4/I2CS_EZI2C_INT.c **** 
 111:Generated_Source\PSoC4/I2CS_EZI2C_INT.c ****             /* Disable TX and RX interrupt sources */
 112:Generated_Source\PSoC4/I2CS_EZI2C_INT.c ****             I2CS_SetRxInterruptMode(I2CS_NO_INTR_SOURCES);
 135              		.loc 1 112 0
 136 00a2 AA4B     		ldr	r3, .L40+40
 137 00a4 0022     		movs	r2, #0
 138 00a6 1A60     		str	r2, [r3]
 113:Generated_Source\PSoC4/I2CS_EZI2C_INT.c ****             I2CS_SetTxInterruptMode(I2CS_NO_INTR_SOURCES);
 139              		.loc 1 113 0
 140 00a8 A44B     		ldr	r3, .L40+24
 141 00aa 0022     		movs	r2, #0
 142 00ac 1A60     		str	r2, [r3]
 114:Generated_Source\PSoC4/I2CS_EZI2C_INT.c **** 
 115:Generated_Source\PSoC4/I2CS_EZI2C_INT.c ****         #if(I2CS_CY_SCBIP_V0)
 116:Generated_Source\PSoC4/I2CS_EZI2C_INT.c ****             /* Clear interrupt sources as they are not automatically cleared after SCB is disabled 
 117:Generated_Source\PSoC4/I2CS_EZI2C_INT.c ****             I2CS_ClearRxInterruptSource(I2CS_INTR_RX_ALL);
 118:Generated_Source\PSoC4/I2CS_EZI2C_INT.c ****             I2CS_ClearSlaveInterruptSource(I2CS_INTR_SLAVE_ALL);
 119:Generated_Source\PSoC4/I2CS_EZI2C_INT.c ****         #endif /* (I2CS_CY_SCBIP_V0) */
 120:Generated_Source\PSoC4/I2CS_EZI2C_INT.c **** 
 121:Generated_Source\PSoC4/I2CS_EZI2C_INT.c ****             I2CS_fsmState = I2CS_EZI2C_FSM_IDLE;
 143              		.loc 1 121 0
 144 00ae A84B     		ldr	r3, .L40+44
 145 00b0 0022     		movs	r2, #0
 146 00b2 1A70     		strb	r2, [r3]
 122:Generated_Source\PSoC4/I2CS_EZI2C_INT.c **** 
 123:Generated_Source\PSoC4/I2CS_EZI2C_INT.c ****             I2CS_CTRL_REG |= (uint32) I2CS_CTRL_ENABLED;  /* Enable SCB block */
 147              		.loc 1 123 0
 148 00b4 9F4B     		ldr	r3, .L40+16
 149 00b6 9F4A     		ldr	r2, .L40+16
 150 00b8 1268     		ldr	r2, [r2]
 151 00ba 8021     		movs	r1, #128
 152 00bc 0906     		lsls	r1, r1, #24
 153 00be 0A43     		orrs	r2, r1
 154 00c0 1A60     		str	r2, [r3]
 155 00c2 9DE1     		b	.L7
 156              	.L3:
 124:Generated_Source\PSoC4/I2CS_EZI2C_INT.c ****         }
 125:Generated_Source\PSoC4/I2CS_EZI2C_INT.c ****         else
 126:Generated_Source\PSoC4/I2CS_EZI2C_INT.c ****         {
 127:Generated_Source\PSoC4/I2CS_EZI2C_INT.c ****             /* INTR_I2C_EC_WAKE_UP */
 128:Generated_Source\PSoC4/I2CS_EZI2C_INT.c ****             /* Wakes up device from deep sleep */
 129:Generated_Source\PSoC4/I2CS_EZI2C_INT.c ****             if(0u != (locIntrCause & I2CS_INTR_CAUSE_I2C_EC))
ARM GAS  C:\Users\alexport\AppData\Local\Temp\ccqWCGXp.s 			page 6


 157              		.loc 1 129 0
 158 00c4 BB68     		ldr	r3, [r7, #8]
 159 00c6 1022     		movs	r2, #16
 160 00c8 1340     		ands	r3, r2
 161 00ca 02D0     		beq	.L8
 130:Generated_Source\PSoC4/I2CS_EZI2C_INT.c ****             {
 131:Generated_Source\PSoC4/I2CS_EZI2C_INT.c ****                 /* Disables wakeup interrupt source but does not clear it. It is cleared in INTR_SL
 132:Generated_Source\PSoC4/I2CS_EZI2C_INT.c ****                 I2CS_SetI2CExtClkInterruptMode(I2CS_NO_INTR_SOURCES);
 162              		.loc 1 132 0
 163 00cc A14B     		ldr	r3, .L40+48
 164 00ce 0022     		movs	r2, #0
 165 00d0 1A60     		str	r2, [r3]
 166              	.L8:
 133:Generated_Source\PSoC4/I2CS_EZI2C_INT.c ****             }
 134:Generated_Source\PSoC4/I2CS_EZI2C_INT.c **** 
 135:Generated_Source\PSoC4/I2CS_EZI2C_INT.c ****             if(0u != (locIntrCause & (I2CS_INTR_CAUSE_RX | I2CS_INTR_CAUSE_SLAVE)))
 167              		.loc 1 135 0
 168 00d2 BB68     		ldr	r3, [r7, #8]
 169 00d4 0A22     		movs	r2, #10
 170 00d6 1340     		ands	r3, r2
 171 00d8 00D1     		bne	.LCB133
 172 00da C5E0     		b	.L9	@long jump
 173              	.LCB133:
 136:Generated_Source\PSoC4/I2CS_EZI2C_INT.c ****             {
 137:Generated_Source\PSoC4/I2CS_EZI2C_INT.c ****                 /* INTR_RX.NOT_EMPTY */
 138:Generated_Source\PSoC4/I2CS_EZI2C_INT.c ****                 /* Receives data byte-by-byte. Does not use RX FIFO capabilities */
 139:Generated_Source\PSoC4/I2CS_EZI2C_INT.c ****                 if (0u != (I2CS_GetRxInterruptSourceMasked() & I2CS_INTR_RX_NOT_EMPTY))
 174              		.loc 1 139 0
 175 00dc 9E4B     		ldr	r3, .L40+52
 176 00de 1B68     		ldr	r3, [r3]
 177 00e0 0422     		movs	r2, #4
 178 00e2 1340     		ands	r3, r2
 179 00e4 00D1     		bne	.LCB139
 180 00e6 71E0     		b	.L10	@long jump
 181              	.LCB139:
 140:Generated_Source\PSoC4/I2CS_EZI2C_INT.c ****                 {
 141:Generated_Source\PSoC4/I2CS_EZI2C_INT.c ****                 #if(I2CS_SECONDARY_ADDRESS_ENABLE_CONST)
 142:Generated_Source\PSoC4/I2CS_EZI2C_INT.c ****                     /* If I2C_STOP service is delayed to I2C_ADDR_MATCH the address byte is in the 
 143:Generated_Source\PSoC4/I2CS_EZI2C_INT.c ****                     * RX_NOT_EMPTY is enabled. The address byte has to stay into RX FIFO therefore
 144:Generated_Source\PSoC4/I2CS_EZI2C_INT.c ****                     * RX.NOT_EMPTY service has to be skipped. The address byte has to be read by I2
 145:Generated_Source\PSoC4/I2CS_EZI2C_INT.c ****                     */
 146:Generated_Source\PSoC4/I2CS_EZI2C_INT.c ****                     if (0u == (locIntrCause & I2CS_INTR_CAUSE_SLAVE))
 147:Generated_Source\PSoC4/I2CS_EZI2C_INT.c ****                 #endif /* (I2CS_SECONDARY_ADDRESS_ENABLE_CONST) */
 148:Generated_Source\PSoC4/I2CS_EZI2C_INT.c ****                     {
 149:Generated_Source\PSoC4/I2CS_EZI2C_INT.c ****                         locByte = I2CS_RX_FIFO_RD_REG;
 182              		.loc 1 149 0
 183 00e8 9C4B     		ldr	r3, .L40+56
 184 00ea 1B68     		ldr	r3, [r3]
 185 00ec 7B60     		str	r3, [r7, #4]
 150:Generated_Source\PSoC4/I2CS_EZI2C_INT.c **** 
 151:Generated_Source\PSoC4/I2CS_EZI2C_INT.c ****                         switch(I2CS_fsmState)
 186              		.loc 1 151 0
 187 00ee 984B     		ldr	r3, .L40+44
 188 00f0 1B78     		ldrb	r3, [r3]
 189 00f2 002B     		cmp	r3, #0
 190 00f4 1DD0     		beq	.L12
 191 00f6 012B     		cmp	r3, #1
ARM GAS  C:\Users\alexport\AppData\Local\Temp\ccqWCGXp.s 			page 7


 192 00f8 60D1     		bne	.L39
 152:Generated_Source\PSoC4/I2CS_EZI2C_INT.c ****                         {
 153:Generated_Source\PSoC4/I2CS_EZI2C_INT.c ****                         case I2CS_EZI2C_FSM_BYTE_WRITE:
 154:Generated_Source\PSoC4/I2CS_EZI2C_INT.c ****                             if(0u != locBufSize)
 193              		.loc 1 154 0
 194 00fa 994B     		ldr	r3, .L40+60
 195 00fc 1B88     		ldrh	r3, [r3]
 196 00fe 002B     		cmp	r3, #0
 197 0100 13D0     		beq	.L14
 155:Generated_Source\PSoC4/I2CS_EZI2C_INT.c ****                             {
 156:Generated_Source\PSoC4/I2CS_EZI2C_INT.c ****                                 /* Store data byte and ACK */
 157:Generated_Source\PSoC4/I2CS_EZI2C_INT.c ****                                 I2CS_I2C_SLAVE_GENERATE_ACK;
 198              		.loc 1 157 0
 199 0102 984B     		ldr	r3, .L40+64
 200 0104 0122     		movs	r2, #1
 201 0106 1A60     		str	r2, [r3]
 158:Generated_Source\PSoC4/I2CS_EZI2C_INT.c **** 
 159:Generated_Source\PSoC4/I2CS_EZI2C_INT.c ****                                 I2CS_dataBuffer1[locIndex] = (uint8) locByte;
 202              		.loc 1 159 0
 203 0108 974B     		ldr	r3, .L40+68
 204 010a 1A68     		ldr	r2, [r3]
 205 010c FB69     		ldr	r3, [r7, #28]
 206 010e D318     		adds	r3, r2, r3
 207 0110 7A68     		ldr	r2, [r7, #4]
 208 0112 D2B2     		uxtb	r2, r2
 209 0114 1A70     		strb	r2, [r3]
 160:Generated_Source\PSoC4/I2CS_EZI2C_INT.c ****                                 locIndex++;
 210              		.loc 1 160 0
 211 0116 FB69     		ldr	r3, [r7, #28]
 212 0118 0133     		adds	r3, r3, #1
 213 011a FB61     		str	r3, [r7, #28]
 161:Generated_Source\PSoC4/I2CS_EZI2C_INT.c ****                                 locBufSize--;
 214              		.loc 1 161 0
 215 011c 904B     		ldr	r3, .L40+60
 216 011e 1B88     		ldrh	r3, [r3]
 217 0120 013B     		subs	r3, r3, #1
 218 0122 9AB2     		uxth	r2, r3
 219 0124 8E4B     		ldr	r3, .L40+60
 220 0126 1A80     		strh	r2, [r3]
 162:Generated_Source\PSoC4/I2CS_EZI2C_INT.c ****                             }
 163:Generated_Source\PSoC4/I2CS_EZI2C_INT.c ****                             else
 164:Generated_Source\PSoC4/I2CS_EZI2C_INT.c ****                             {
 165:Generated_Source\PSoC4/I2CS_EZI2C_INT.c ****                                 /* Discard data byte and NACK */
 166:Generated_Source\PSoC4/I2CS_EZI2C_INT.c ****                                 I2CS_I2C_SLAVE_GENERATE_NACK;
 167:Generated_Source\PSoC4/I2CS_EZI2C_INT.c ****                             }
 168:Generated_Source\PSoC4/I2CS_EZI2C_INT.c ****                             break;
 221              		.loc 1 168 0
 222 0128 4CE0     		b	.L16
 223              	.L14:
 166:Generated_Source\PSoC4/I2CS_EZI2C_INT.c ****                             }
 224              		.loc 1 166 0
 225 012a 8E4B     		ldr	r3, .L40+64
 226 012c 0222     		movs	r2, #2
 227 012e 1A60     		str	r2, [r3]
 228              		.loc 1 168 0
 229 0130 48E0     		b	.L16
 230              	.L12:
ARM GAS  C:\Users\alexport\AppData\Local\Temp\ccqWCGXp.s 			page 8


 169:Generated_Source\PSoC4/I2CS_EZI2C_INT.c **** 
 170:Generated_Source\PSoC4/I2CS_EZI2C_INT.c ****                     #if(I2CS_SUB_ADDRESS_SIZE16_CONST)
 171:Generated_Source\PSoC4/I2CS_EZI2C_INT.c ****                         case I2CS_EZI2C_FSM_OFFSET_HI8:
 172:Generated_Source\PSoC4/I2CS_EZI2C_INT.c **** 
 173:Generated_Source\PSoC4/I2CS_EZI2C_INT.c ****                             I2CS_I2C_SLAVE_GENERATE_ACK;
 174:Generated_Source\PSoC4/I2CS_EZI2C_INT.c **** 
 175:Generated_Source\PSoC4/I2CS_EZI2C_INT.c ****                             /* Store offset most significant byre */
 176:Generated_Source\PSoC4/I2CS_EZI2C_INT.c ****                             locBufSize = (uint16) ((uint8) locByte);
 177:Generated_Source\PSoC4/I2CS_EZI2C_INT.c **** 
 178:Generated_Source\PSoC4/I2CS_EZI2C_INT.c ****                             I2CS_fsmState = I2CS_EZI2C_FSM_OFFSET_LO8;
 179:Generated_Source\PSoC4/I2CS_EZI2C_INT.c **** 
 180:Generated_Source\PSoC4/I2CS_EZI2C_INT.c ****                             break;
 181:Generated_Source\PSoC4/I2CS_EZI2C_INT.c ****                     #endif /* (I2CS_SUB_ADDRESS_SIZE16_CONST) */
 182:Generated_Source\PSoC4/I2CS_EZI2C_INT.c **** 
 183:Generated_Source\PSoC4/I2CS_EZI2C_INT.c ****                         case I2CS_EZI2C_FSM_OFFSET_LO8:
 184:Generated_Source\PSoC4/I2CS_EZI2C_INT.c **** 
 185:Generated_Source\PSoC4/I2CS_EZI2C_INT.c ****                             #if (I2CS_SUB_ADDRESS_SIZE16)
 186:Generated_Source\PSoC4/I2CS_EZI2C_INT.c ****                             {
 187:Generated_Source\PSoC4/I2CS_EZI2C_INT.c ****                                 /* Collect 2 bytes offset */
 188:Generated_Source\PSoC4/I2CS_EZI2C_INT.c ****                                 locByte = ((uint32) ((uint32) locBufSize << 8u)) | locByte;
 189:Generated_Source\PSoC4/I2CS_EZI2C_INT.c ****                             }
 190:Generated_Source\PSoC4/I2CS_EZI2C_INT.c ****                             #endif
 191:Generated_Source\PSoC4/I2CS_EZI2C_INT.c **** 
 192:Generated_Source\PSoC4/I2CS_EZI2C_INT.c ****                             /* Check offset against buffer size */
 193:Generated_Source\PSoC4/I2CS_EZI2C_INT.c ****                             if(locByte < (uint32) I2CS_bufSizeBuf1)
 231              		.loc 1 193 0
 232 0132 8E4B     		ldr	r3, .L40+72
 233 0134 1B88     		ldrh	r3, [r3]
 234 0136 1A00     		movs	r2, r3
 235 0138 7B68     		ldr	r3, [r7, #4]
 236 013a 9A42     		cmp	r2, r3
 237 013c 3AD9     		bls	.L17
 194:Generated_Source\PSoC4/I2CS_EZI2C_INT.c ****                             {
 195:Generated_Source\PSoC4/I2CS_EZI2C_INT.c ****                                 I2CS_I2C_SLAVE_GENERATE_ACK;
 238              		.loc 1 195 0
 239 013e 894B     		ldr	r3, .L40+64
 240 0140 0122     		movs	r2, #1
 241 0142 1A60     		str	r2, [r3]
 196:Generated_Source\PSoC4/I2CS_EZI2C_INT.c **** 
 197:Generated_Source\PSoC4/I2CS_EZI2C_INT.c ****                                 /* Update local buffer index with new offset */
 198:Generated_Source\PSoC4/I2CS_EZI2C_INT.c ****                                 locIndex = locByte;
 242              		.loc 1 198 0
 243 0144 7B68     		ldr	r3, [r7, #4]
 244 0146 FB61     		str	r3, [r7, #28]
 199:Generated_Source\PSoC4/I2CS_EZI2C_INT.c **** 
 200:Generated_Source\PSoC4/I2CS_EZI2C_INT.c ****                                 /* Get available buffer size to write */
 201:Generated_Source\PSoC4/I2CS_EZI2C_INT.c ****                                 locBufSize = (uint16) ((locByte < I2CS_protectBuf1) ?
 245              		.loc 1 201 0
 246 0148 894B     		ldr	r3, .L40+76
 247 014a 1B88     		ldrh	r3, [r3]
 248 014c 1A00     		movs	r2, r3
 249 014e 7B68     		ldr	r3, [r7, #4]
 250 0150 9A42     		cmp	r2, r3
 251 0152 06D9     		bls	.L18
 252              		.loc 1 201 0 is_stmt 0 discriminator 1
 253 0154 864B     		ldr	r3, .L40+76
 254 0156 1A88     		ldrh	r2, [r3]
ARM GAS  C:\Users\alexport\AppData\Local\Temp\ccqWCGXp.s 			page 9


 255 0158 7B68     		ldr	r3, [r7, #4]
 256 015a 9BB2     		uxth	r3, r3
 257 015c D31A     		subs	r3, r2, r3
 258 015e 9AB2     		uxth	r2, r3
 259 0160 00E0     		b	.L19
 260              	.L18:
 261              		.loc 1 201 0 discriminator 2
 262 0162 0022     		movs	r2, #0
 263              	.L19:
 264              		.loc 1 201 0 discriminator 4
 265 0164 7E4B     		ldr	r3, .L40+60
 266 0166 1A80     		strh	r2, [r3]
 202:Generated_Source\PSoC4/I2CS_EZI2C_INT.c ****                                                        (I2CS_protectBuf1 - locByte) : (0u));
 203:Generated_Source\PSoC4/I2CS_EZI2C_INT.c **** 
 204:Generated_Source\PSoC4/I2CS_EZI2C_INT.c ****                             #if(I2CS_CY_SCBIP_V0)
 205:Generated_Source\PSoC4/I2CS_EZI2C_INT.c **** 
 206:Generated_Source\PSoC4/I2CS_EZI2C_INT.c ****                                 if(locBufSize < I2CS_EZI2C_FIFO_SIZE)
 207:Generated_Source\PSoC4/I2CS_EZI2C_INT.c ****                                 {
 208:Generated_Source\PSoC4/I2CS_EZI2C_INT.c ****                                     /* Set FSM state to receive byte by byte */
 209:Generated_Source\PSoC4/I2CS_EZI2C_INT.c ****                                     I2CS_fsmState = I2CS_EZI2C_FSM_BYTE_WRITE;
 210:Generated_Source\PSoC4/I2CS_EZI2C_INT.c ****                                 }
 211:Generated_Source\PSoC4/I2CS_EZI2C_INT.c ****                                 /* Receive RX FIFO chunks */
 212:Generated_Source\PSoC4/I2CS_EZI2C_INT.c ****                                 else if(locBufSize == I2CS_EZI2C_FIFO_SIZE)
 213:Generated_Source\PSoC4/I2CS_EZI2C_INT.c ****                                 {
 214:Generated_Source\PSoC4/I2CS_EZI2C_INT.c ****                                     I2CS_ENABLE_SLAVE_AUTO_DATA; /* NACK when RX FIFO is full */
 215:Generated_Source\PSoC4/I2CS_EZI2C_INT.c ****                                     I2CS_SetRxInterruptMode(I2CS_NO_INTR_SOURCES);
 216:Generated_Source\PSoC4/I2CS_EZI2C_INT.c ****                                 }
 217:Generated_Source\PSoC4/I2CS_EZI2C_INT.c ****                                 else
 218:Generated_Source\PSoC4/I2CS_EZI2C_INT.c ****                                 {
 219:Generated_Source\PSoC4/I2CS_EZI2C_INT.c ****                                     I2CS_ENABLE_SLAVE_AUTO_DATA_ACK; /* Stretch when RX FIFO is ful
 220:Generated_Source\PSoC4/I2CS_EZI2C_INT.c ****                                     I2CS_SetRxInterruptMode(I2CS_INTR_RX_FULL);
 221:Generated_Source\PSoC4/I2CS_EZI2C_INT.c ****                                 }
 222:Generated_Source\PSoC4/I2CS_EZI2C_INT.c **** 
 223:Generated_Source\PSoC4/I2CS_EZI2C_INT.c ****                             #else
 224:Generated_Source\PSoC4/I2CS_EZI2C_INT.c **** 
 225:Generated_Source\PSoC4/I2CS_EZI2C_INT.c ****                                 #if(I2CS_SECONDARY_ADDRESS_ENABLE)
 226:Generated_Source\PSoC4/I2CS_EZI2C_INT.c ****                                 {
 227:Generated_Source\PSoC4/I2CS_EZI2C_INT.c ****                                     /* Set FSM state to receive byte by byte.
 228:Generated_Source\PSoC4/I2CS_EZI2C_INT.c ****                                     * The byte by byte receive is always chosen for two addresses. 
 229:Generated_Source\PSoC4/I2CS_EZI2C_INT.c ****                                     */
 230:Generated_Source\PSoC4/I2CS_EZI2C_INT.c ****                                     I2CS_fsmState = I2CS_EZI2C_FSM_BYTE_WRITE;
 231:Generated_Source\PSoC4/I2CS_EZI2C_INT.c ****                                 }
 232:Generated_Source\PSoC4/I2CS_EZI2C_INT.c ****                                 #else
 233:Generated_Source\PSoC4/I2CS_EZI2C_INT.c ****                                 {
 234:Generated_Source\PSoC4/I2CS_EZI2C_INT.c ****                                     if (locBufSize < I2CS_EZI2C_FIFO_SIZE)
 267              		.loc 1 234 0 is_stmt 1 discriminator 4
 268 0168 7D4B     		ldr	r3, .L40+60
 269 016a 1B88     		ldrh	r3, [r3]
 270 016c 072B     		cmp	r3, #7
 271 016e 03D8     		bhi	.L20
 235:Generated_Source\PSoC4/I2CS_EZI2C_INT.c ****                                     {
 236:Generated_Source\PSoC4/I2CS_EZI2C_INT.c ****                                         /* Set FSM state to receive byte by byte */
 237:Generated_Source\PSoC4/I2CS_EZI2C_INT.c ****                                         I2CS_fsmState = I2CS_EZI2C_FSM_BYTE_WRITE;
 272              		.loc 1 237 0
 273 0170 774B     		ldr	r3, .L40+44
 274 0172 0122     		movs	r2, #1
 275 0174 1A70     		strb	r2, [r3]
ARM GAS  C:\Users\alexport\AppData\Local\Temp\ccqWCGXp.s 			page 10


 276 0176 18E0     		b	.L21
 277              	.L20:
 238:Generated_Source\PSoC4/I2CS_EZI2C_INT.c ****                                     }
 239:Generated_Source\PSoC4/I2CS_EZI2C_INT.c ****                                     /* Receive RX FIFO chunks */
 240:Generated_Source\PSoC4/I2CS_EZI2C_INT.c ****                                     else if (locBufSize == I2CS_EZI2C_FIFO_SIZE)
 278              		.loc 1 240 0
 279 0178 794B     		ldr	r3, .L40+60
 280 017a 1B88     		ldrh	r3, [r3]
 281 017c 082B     		cmp	r3, #8
 282 017e 0AD1     		bne	.L22
 241:Generated_Source\PSoC4/I2CS_EZI2C_INT.c ****                                     {
 242:Generated_Source\PSoC4/I2CS_EZI2C_INT.c ****                                         I2CS_ENABLE_SLAVE_AUTO_DATA; /* NACK when RX FIFO is full *
 283              		.loc 1 242 0
 284 0180 704B     		ldr	r3, .L40+32
 285 0182 704A     		ldr	r2, .L40+32
 286 0184 1268     		ldr	r2, [r2]
 287 0186 A021     		movs	r1, #160
 288 0188 0902     		lsls	r1, r1, #8
 289 018a 0A43     		orrs	r2, r1
 290 018c 1A60     		str	r2, [r3]
 243:Generated_Source\PSoC4/I2CS_EZI2C_INT.c ****                                         I2CS_SetRxInterruptMode(I2CS_NO_INTR_SOURCES);
 291              		.loc 1 243 0
 292 018e 6F4B     		ldr	r3, .L40+40
 293 0190 0022     		movs	r2, #0
 294 0192 1A60     		str	r2, [r3]
 295 0194 09E0     		b	.L21
 296              	.L22:
 244:Generated_Source\PSoC4/I2CS_EZI2C_INT.c ****                                     }
 245:Generated_Source\PSoC4/I2CS_EZI2C_INT.c ****                                     else
 246:Generated_Source\PSoC4/I2CS_EZI2C_INT.c ****                                     {
 247:Generated_Source\PSoC4/I2CS_EZI2C_INT.c ****                                         I2CS_ENABLE_SLAVE_AUTO_DATA_ACK; /* Stretch when RX FIFO is
 297              		.loc 1 247 0
 298 0196 6B4B     		ldr	r3, .L40+32
 299 0198 6A4A     		ldr	r2, .L40+32
 300 019a 1268     		ldr	r2, [r2]
 301 019c 8021     		movs	r1, #128
 302 019e 8901     		lsls	r1, r1, #6
 303 01a0 0A43     		orrs	r2, r1
 304 01a2 1A60     		str	r2, [r3]
 248:Generated_Source\PSoC4/I2CS_EZI2C_INT.c ****                                         I2CS_SetRxInterruptMode(I2CS_INTR_RX_FULL);
 305              		.loc 1 248 0
 306 01a4 694B     		ldr	r3, .L40+40
 307 01a6 0822     		movs	r2, #8
 308 01a8 1A60     		str	r2, [r3]
 309              	.L21:
 249:Generated_Source\PSoC4/I2CS_EZI2C_INT.c ****                                     }
 250:Generated_Source\PSoC4/I2CS_EZI2C_INT.c ****                                 }
 251:Generated_Source\PSoC4/I2CS_EZI2C_INT.c ****                                 #endif
 252:Generated_Source\PSoC4/I2CS_EZI2C_INT.c **** 
 253:Generated_Source\PSoC4/I2CS_EZI2C_INT.c ****                             #endif /* (I2CS_CY_SCBIP_V0) */
 254:Generated_Source\PSoC4/I2CS_EZI2C_INT.c **** 
 255:Generated_Source\PSoC4/I2CS_EZI2C_INT.c ****                                 /* Store local offset into global variable */
 256:Generated_Source\PSoC4/I2CS_EZI2C_INT.c ****                                 I2CS_EZI2C_SET_OFFSET(activeAddress, locIndex);
 310              		.loc 1 256 0
 311 01aa FB69     		ldr	r3, [r7, #28]
 312 01ac DAB2     		uxtb	r2, r3
 313 01ae 644B     		ldr	r3, .L40+28
ARM GAS  C:\Users\alexport\AppData\Local\Temp\ccqWCGXp.s 			page 11


 314 01b0 1A70     		strb	r2, [r3]
 257:Generated_Source\PSoC4/I2CS_EZI2C_INT.c ****                             }
 258:Generated_Source\PSoC4/I2CS_EZI2C_INT.c ****                             else
 259:Generated_Source\PSoC4/I2CS_EZI2C_INT.c ****                             {
 260:Generated_Source\PSoC4/I2CS_EZI2C_INT.c ****                                 /* Discard offset byte and NACK */
 261:Generated_Source\PSoC4/I2CS_EZI2C_INT.c ****                                 I2CS_I2C_SLAVE_GENERATE_NACK;
 262:Generated_Source\PSoC4/I2CS_EZI2C_INT.c ****                             }
 263:Generated_Source\PSoC4/I2CS_EZI2C_INT.c ****                             break;
 315              		.loc 1 263 0
 316 01b2 07E0     		b	.L16
 317              	.L17:
 261:Generated_Source\PSoC4/I2CS_EZI2C_INT.c ****                             }
 318              		.loc 1 261 0
 319 01b4 6B4B     		ldr	r3, .L40+64
 320 01b6 0222     		movs	r2, #2
 321 01b8 1A60     		str	r2, [r3]
 322              		.loc 1 263 0
 323 01ba 03E0     		b	.L16
 324              	.L39:
 264:Generated_Source\PSoC4/I2CS_EZI2C_INT.c **** 
 265:Generated_Source\PSoC4/I2CS_EZI2C_INT.c ****                         default:
 266:Generated_Source\PSoC4/I2CS_EZI2C_INT.c ****                             CYASSERT(0u != 0u); /* Should never get there */
 325              		.loc 1 266 0
 326 01bc 0020     		movs	r0, #0
 327 01be FFF7FEFF 		bl	CyHalt
 267:Generated_Source\PSoC4/I2CS_EZI2C_INT.c ****                             break;
 328              		.loc 1 267 0
 329 01c2 C046     		nop
 330              	.L16:
 268:Generated_Source\PSoC4/I2CS_EZI2C_INT.c ****                         }
 269:Generated_Source\PSoC4/I2CS_EZI2C_INT.c **** 
 270:Generated_Source\PSoC4/I2CS_EZI2C_INT.c ****                         I2CS_ClearRxInterruptSource(I2CS_INTR_RX_NOT_EMPTY);
 331              		.loc 1 270 0
 332 01c4 6B4B     		ldr	r3, .L40+80
 333 01c6 0422     		movs	r2, #4
 334 01c8 1A60     		str	r2, [r3]
 335 01ca 4DE0     		b	.L9
 336              	.L10:
 271:Generated_Source\PSoC4/I2CS_EZI2C_INT.c ****                     }
 272:Generated_Source\PSoC4/I2CS_EZI2C_INT.c ****                 }
 273:Generated_Source\PSoC4/I2CS_EZI2C_INT.c ****                 /* INTR_RX.FULL, INTR_SLAVE.I2C_STOP */
 274:Generated_Source\PSoC4/I2CS_EZI2C_INT.c ****                 /* Receive FIFO chunks: auto data ACK is enabled */
 275:Generated_Source\PSoC4/I2CS_EZI2C_INT.c ****                 else if (0u != (I2CS_I2C_CTRL_REG & I2CS_I2C_CTRL_S_READY_DATA_ACK))
 337              		.loc 1 275 0
 338 01cc 5D4B     		ldr	r3, .L40+32
 339 01ce 1A68     		ldr	r2, [r3]
 340 01d0 8023     		movs	r3, #128
 341 01d2 9B01     		lsls	r3, r3, #6
 342 01d4 1340     		ands	r3, r2
 343 01d6 47D0     		beq	.L9
 276:Generated_Source\PSoC4/I2CS_EZI2C_INT.c ****                 {
 277:Generated_Source\PSoC4/I2CS_EZI2C_INT.c ****                     /* Slave interrupt (I2C_STOP or I2C_ADDR_MATCH) leads to completion of read.
 278:Generated_Source\PSoC4/I2CS_EZI2C_INT.c ****                     * A completion event has a higher priority than the FIFO full.
 279:Generated_Source\PSoC4/I2CS_EZI2C_INT.c ****                     * Read remaining data from RX FIFO.
 280:Generated_Source\PSoC4/I2CS_EZI2C_INT.c ****                     */
 281:Generated_Source\PSoC4/I2CS_EZI2C_INT.c ****                     if(0u != (locIntrCause & I2CS_INTR_CAUSE_SLAVE))
 344              		.loc 1 281 0
ARM GAS  C:\Users\alexport\AppData\Local\Temp\ccqWCGXp.s 			page 12


 345 01d8 BB68     		ldr	r3, [r7, #8]
 346 01da 0222     		movs	r2, #2
 347 01dc 1340     		ands	r3, r2
 348 01de 0DD0     		beq	.L24
 282:Generated_Source\PSoC4/I2CS_EZI2C_INT.c ****                     {
 283:Generated_Source\PSoC4/I2CS_EZI2C_INT.c ****                         /* Read remaining bytes from RX FIFO */
 284:Generated_Source\PSoC4/I2CS_EZI2C_INT.c ****                         fifoIndex = I2CS_GET_RX_FIFO_ENTRIES;
 349              		.loc 1 284 0
 350 01e0 654B     		ldr	r3, .L40+84
 351 01e2 1B68     		ldr	r3, [r3]
 352 01e4 1F22     		movs	r2, #31
 353 01e6 1340     		ands	r3, r2
 354 01e8 3B61     		str	r3, [r7, #16]
 285:Generated_Source\PSoC4/I2CS_EZI2C_INT.c **** 
 286:Generated_Source\PSoC4/I2CS_EZI2C_INT.c ****                         #if(I2CS_SECONDARY_ADDRESS_ENABLE)
 287:Generated_Source\PSoC4/I2CS_EZI2C_INT.c ****                         {
 288:Generated_Source\PSoC4/I2CS_EZI2C_INT.c ****                             /* Update with current address match */
 289:Generated_Source\PSoC4/I2CS_EZI2C_INT.c ****                             if(I2CS_CHECK_INTR_SLAVE_MASKED(I2CS_INTR_SLAVE_I2C_ADDR_MATCH))
 290:Generated_Source\PSoC4/I2CS_EZI2C_INT.c ****                             {
 291:Generated_Source\PSoC4/I2CS_EZI2C_INT.c ****                                 /* Update RX FIFO entries as address byte is there now */
 292:Generated_Source\PSoC4/I2CS_EZI2C_INT.c ****                                 fifoIndex = I2CS_GET_RX_FIFO_ENTRIES;
 293:Generated_Source\PSoC4/I2CS_EZI2C_INT.c **** 
 294:Generated_Source\PSoC4/I2CS_EZI2C_INT.c ****                                 /* If SR is valid, RX FIFO is full and address is in SHIFTER:
 295:Generated_Source\PSoC4/I2CS_EZI2C_INT.c ****                                 * read 8 entries and leave address in RX FIFO for further processin
 296:Generated_Source\PSoC4/I2CS_EZI2C_INT.c ****                                 * If SR is invalid, address is already in RX FIFO: read (entries-1)
 297:Generated_Source\PSoC4/I2CS_EZI2C_INT.c ****                                 */
 298:Generated_Source\PSoC4/I2CS_EZI2C_INT.c ****                                 fifoIndex -= ((0u != I2CS_GET_RX_FIFO_SR_VALID) ? (0u) : (1u));
 299:Generated_Source\PSoC4/I2CS_EZI2C_INT.c ****                             }
 300:Generated_Source\PSoC4/I2CS_EZI2C_INT.c ****                         }
 301:Generated_Source\PSoC4/I2CS_EZI2C_INT.c ****                         #endif
 302:Generated_Source\PSoC4/I2CS_EZI2C_INT.c **** 
 303:Generated_Source\PSoC4/I2CS_EZI2C_INT.c ****                         I2CS_DISABLE_SLAVE_AUTO_DATA;
 355              		.loc 1 303 0
 356 01ea 564B     		ldr	r3, .L40+32
 357 01ec 554A     		ldr	r2, .L40+32
 358 01ee 1268     		ldr	r2, [r2]
 359 01f0 5549     		ldr	r1, .L40+36
 360 01f2 0A40     		ands	r2, r1
 361 01f4 1A60     		str	r2, [r3]
 304:Generated_Source\PSoC4/I2CS_EZI2C_INT.c ****                         endTransfer = I2CS_EZI2C_CONTINUE_TRANSFER;
 362              		.loc 1 304 0
 363 01f6 0123     		movs	r3, #1
 364 01f8 7B61     		str	r3, [r7, #20]
 365 01fa 22E0     		b	.L27
 366              	.L24:
 305:Generated_Source\PSoC4/I2CS_EZI2C_INT.c ****                     }
 306:Generated_Source\PSoC4/I2CS_EZI2C_INT.c ****                     else
 307:Generated_Source\PSoC4/I2CS_EZI2C_INT.c ****                     /* INTR_RX_FULL */
 308:Generated_Source\PSoC4/I2CS_EZI2C_INT.c ****                     /* Continue transfer or disable INTR_RX_FULL to catch completion event. */
 309:Generated_Source\PSoC4/I2CS_EZI2C_INT.c ****                     {
 310:Generated_Source\PSoC4/I2CS_EZI2C_INT.c ****                         /* Calculate buffer size available to write data into */
 311:Generated_Source\PSoC4/I2CS_EZI2C_INT.c ****                         locBufSize -= (uint16) I2CS_EZI2C_FIFO_SIZE;
 367              		.loc 1 311 0
 368 01fc 584B     		ldr	r3, .L40+60
 369 01fe 1B88     		ldrh	r3, [r3]
 370 0200 083B     		subs	r3, r3, #8
 371 0202 9AB2     		uxth	r2, r3
ARM GAS  C:\Users\alexport\AppData\Local\Temp\ccqWCGXp.s 			page 13


 372 0204 564B     		ldr	r3, .L40+60
 373 0206 1A80     		strh	r2, [r3]
 312:Generated_Source\PSoC4/I2CS_EZI2C_INT.c **** 
 313:Generated_Source\PSoC4/I2CS_EZI2C_INT.c ****                         if(locBufSize <= I2CS_EZI2C_FIFO_SIZE)
 374              		.loc 1 313 0
 375 0208 554B     		ldr	r3, .L40+60
 376 020a 1B88     		ldrh	r3, [r3]
 377 020c 082B     		cmp	r3, #8
 378 020e 05D8     		bhi	.L26
 314:Generated_Source\PSoC4/I2CS_EZI2C_INT.c ****                         {
 315:Generated_Source\PSoC4/I2CS_EZI2C_INT.c ****                             /* Send NACK when RX FIFO overflow */
 316:Generated_Source\PSoC4/I2CS_EZI2C_INT.c ****                             fifoIndex   = locBufSize;
 379              		.loc 1 316 0
 380 0210 534B     		ldr	r3, .L40+60
 381 0212 1B88     		ldrh	r3, [r3]
 382 0214 3B61     		str	r3, [r7, #16]
 317:Generated_Source\PSoC4/I2CS_EZI2C_INT.c ****                             endTransfer = I2CS_EZI2C_COMPLETE_TRANSFER;
 383              		.loc 1 317 0
 384 0216 0023     		movs	r3, #0
 385 0218 7B61     		str	r3, [r7, #20]
 386 021a 12E0     		b	.L27
 387              	.L26:
 318:Generated_Source\PSoC4/I2CS_EZI2C_INT.c ****                         }
 319:Generated_Source\PSoC4/I2CS_EZI2C_INT.c ****                         else
 320:Generated_Source\PSoC4/I2CS_EZI2C_INT.c ****                         {
 321:Generated_Source\PSoC4/I2CS_EZI2C_INT.c ****                             /* Continue  transaction */
 322:Generated_Source\PSoC4/I2CS_EZI2C_INT.c ****                             fifoIndex   = I2CS_EZI2C_FIFO_SIZE;
 388              		.loc 1 322 0
 389 021c 0823     		movs	r3, #8
 390 021e 3B61     		str	r3, [r7, #16]
 323:Generated_Source\PSoC4/I2CS_EZI2C_INT.c ****                             endTransfer = I2CS_EZI2C_CONTINUE_TRANSFER;
 391              		.loc 1 323 0
 392 0220 0123     		movs	r3, #1
 393 0222 7B61     		str	r3, [r7, #20]
 324:Generated_Source\PSoC4/I2CS_EZI2C_INT.c ****                         }
 325:Generated_Source\PSoC4/I2CS_EZI2C_INT.c ****                     }
 326:Generated_Source\PSoC4/I2CS_EZI2C_INT.c **** 
 327:Generated_Source\PSoC4/I2CS_EZI2C_INT.c ****                     for(; (0u != fifoIndex); fifoIndex--)
 394              		.loc 1 327 0
 395 0224 0DE0     		b	.L27
 396              	.L28:
 328:Generated_Source\PSoC4/I2CS_EZI2C_INT.c ****                     {
 329:Generated_Source\PSoC4/I2CS_EZI2C_INT.c ****                         /* Store data in buffer */
 330:Generated_Source\PSoC4/I2CS_EZI2C_INT.c ****                         I2CS_dataBuffer1[locIndex] = (uint8) I2CS_RX_FIFO_RD_REG;
 397              		.loc 1 330 0 discriminator 2
 398 0226 504B     		ldr	r3, .L40+68
 399 0228 1A68     		ldr	r2, [r3]
 400 022a FB69     		ldr	r3, [r7, #28]
 401 022c D218     		adds	r2, r2, r3
 402 022e 4B4B     		ldr	r3, .L40+56
 403 0230 1B68     		ldr	r3, [r3]
 404 0232 DBB2     		uxtb	r3, r3
 405 0234 1370     		strb	r3, [r2]
 331:Generated_Source\PSoC4/I2CS_EZI2C_INT.c ****                         locIndex++;
 406              		.loc 1 331 0 discriminator 2
 407 0236 FB69     		ldr	r3, [r7, #28]
 408 0238 0133     		adds	r3, r3, #1
ARM GAS  C:\Users\alexport\AppData\Local\Temp\ccqWCGXp.s 			page 14


 409 023a FB61     		str	r3, [r7, #28]
 327:Generated_Source\PSoC4/I2CS_EZI2C_INT.c ****                     {
 410              		.loc 1 327 0 discriminator 2
 411 023c 3B69     		ldr	r3, [r7, #16]
 412 023e 013B     		subs	r3, r3, #1
 413 0240 3B61     		str	r3, [r7, #16]
 414              	.L27:
 327:Generated_Source\PSoC4/I2CS_EZI2C_INT.c ****                     {
 415              		.loc 1 327 0 is_stmt 0 discriminator 1
 416 0242 3B69     		ldr	r3, [r7, #16]
 417 0244 002B     		cmp	r3, #0
 418 0246 EED1     		bne	.L28
 332:Generated_Source\PSoC4/I2CS_EZI2C_INT.c ****                     }
 333:Generated_Source\PSoC4/I2CS_EZI2C_INT.c **** 
 334:Generated_Source\PSoC4/I2CS_EZI2C_INT.c ****                     /* Complete transfer sending NACK when RX FIFO overflow */
 335:Generated_Source\PSoC4/I2CS_EZI2C_INT.c ****                     if(I2CS_EZI2C_COMPLETE_TRANSFER == endTransfer)
 419              		.loc 1 335 0 is_stmt 1
 420 0248 7B69     		ldr	r3, [r7, #20]
 421 024a 002B     		cmp	r3, #0
 422 024c 09D1     		bne	.L29
 336:Generated_Source\PSoC4/I2CS_EZI2C_INT.c ****                     {
 337:Generated_Source\PSoC4/I2CS_EZI2C_INT.c ****                         I2CS_ENABLE_SLAVE_AUTO_DATA_NACK;
 423              		.loc 1 337 0
 424 024e 3D4B     		ldr	r3, .L40+32
 425 0250 3C4A     		ldr	r2, .L40+32
 426 0252 1268     		ldr	r2, [r2]
 427 0254 8021     		movs	r1, #128
 428 0256 0902     		lsls	r1, r1, #8
 429 0258 0A43     		orrs	r2, r1
 430 025a 1A60     		str	r2, [r3]
 338:Generated_Source\PSoC4/I2CS_EZI2C_INT.c **** 
 339:Generated_Source\PSoC4/I2CS_EZI2C_INT.c ****                         /* Disable INTR_RX_FULL during last RX FIFO chunk reception */
 340:Generated_Source\PSoC4/I2CS_EZI2C_INT.c ****                         I2CS_SetRxInterruptMode(I2CS_NO_INTR_SOURCES);
 431              		.loc 1 340 0
 432 025c 3B4B     		ldr	r3, .L40+40
 433 025e 0022     		movs	r2, #0
 434 0260 1A60     		str	r2, [r3]
 435              	.L29:
 341:Generated_Source\PSoC4/I2CS_EZI2C_INT.c ****                     }
 342:Generated_Source\PSoC4/I2CS_EZI2C_INT.c **** 
 343:Generated_Source\PSoC4/I2CS_EZI2C_INT.c ****                     I2CS_ClearRxInterruptSource(I2CS_INTR_RX_FULL |
 436              		.loc 1 343 0
 437 0262 444B     		ldr	r3, .L40+80
 438 0264 0C22     		movs	r2, #12
 439 0266 1A60     		str	r2, [r3]
 440              	.L9:
 344:Generated_Source\PSoC4/I2CS_EZI2C_INT.c ****                                                             I2CS_INTR_RX_NOT_EMPTY);
 345:Generated_Source\PSoC4/I2CS_EZI2C_INT.c ****                 }
 346:Generated_Source\PSoC4/I2CS_EZI2C_INT.c ****                 else
 347:Generated_Source\PSoC4/I2CS_EZI2C_INT.c ****                 {
 348:Generated_Source\PSoC4/I2CS_EZI2C_INT.c ****                     /* Exit for slave interrupts which are not active for RX direction:
 349:Generated_Source\PSoC4/I2CS_EZI2C_INT.c ****                     * INTR_SLAVE.I2C_ADDR_MATCH and INTR_SLAVE.I2C_STOP while byte-by-byte receptio
 350:Generated_Source\PSoC4/I2CS_EZI2C_INT.c ****                     */
 351:Generated_Source\PSoC4/I2CS_EZI2C_INT.c ****                 }
 352:Generated_Source\PSoC4/I2CS_EZI2C_INT.c ****             }
 353:Generated_Source\PSoC4/I2CS_EZI2C_INT.c **** 
 354:Generated_Source\PSoC4/I2CS_EZI2C_INT.c ****             if(0u != (locIntrCause & I2CS_INTR_CAUSE_SLAVE))
ARM GAS  C:\Users\alexport\AppData\Local\Temp\ccqWCGXp.s 			page 15


 441              		.loc 1 354 0
 442 0268 BB68     		ldr	r3, [r7, #8]
 443 026a 0222     		movs	r2, #2
 444 026c 1340     		ands	r3, r2
 445 026e 00D1     		bne	.LCB382
 446 0270 9FE0     		b	.L30	@long jump
 447              	.LCB382:
 355:Generated_Source\PSoC4/I2CS_EZI2C_INT.c ****             {
 356:Generated_Source\PSoC4/I2CS_EZI2C_INT.c ****                 /* INTR_SLAVE.I2C_STOP */
 357:Generated_Source\PSoC4/I2CS_EZI2C_INT.c ****                 /* Catch Stop condition: completion of write or read transfer */
 358:Generated_Source\PSoC4/I2CS_EZI2C_INT.c ****             #if(!I2CS_SECONDARY_ADDRESS_ENABLE_CONST)
 359:Generated_Source\PSoC4/I2CS_EZI2C_INT.c ****                 if(0u != (locIntrSlave & I2CS_INTR_SLAVE_I2C_STOP))
 448              		.loc 1 359 0
 449 0272 FB68     		ldr	r3, [r7, #12]
 450 0274 1022     		movs	r2, #16
 451 0276 1340     		ands	r3, r2
 452 0278 27D0     		beq	.L31
 360:Generated_Source\PSoC4/I2CS_EZI2C_INT.c ****             #else
 361:Generated_Source\PSoC4/I2CS_EZI2C_INT.c ****                 /* Prevent triggering when matched address was NACKed */
 362:Generated_Source\PSoC4/I2CS_EZI2C_INT.c ****                 if((0u != (locIntrSlave & I2CS_INTR_SLAVE_I2C_STOP)) &&
 363:Generated_Source\PSoC4/I2CS_EZI2C_INT.c ****                    (0u != ((uint8) I2CS_EZI2C_STATUS_BUSY & I2CS_curStatus)))
 364:Generated_Source\PSoC4/I2CS_EZI2C_INT.c ****             #endif
 365:Generated_Source\PSoC4/I2CS_EZI2C_INT.c ****                 {
 366:Generated_Source\PSoC4/I2CS_EZI2C_INT.c ****                     /* Disable TX and RX interrupt sources */
 367:Generated_Source\PSoC4/I2CS_EZI2C_INT.c ****                     I2CS_SetRxInterruptMode(I2CS_NO_INTR_SOURCES);
 453              		.loc 1 367 0
 454 027a 344B     		ldr	r3, .L40+40
 455 027c 0022     		movs	r2, #0
 456 027e 1A60     		str	r2, [r3]
 368:Generated_Source\PSoC4/I2CS_EZI2C_INT.c ****                     I2CS_SetTxInterruptMode(I2CS_NO_INTR_SOURCES);
 457              		.loc 1 368 0
 458 0280 2E4B     		ldr	r3, .L40+24
 459 0282 0022     		movs	r2, #0
 460 0284 1A60     		str	r2, [r3]
 369:Generated_Source\PSoC4/I2CS_EZI2C_INT.c **** 
 370:Generated_Source\PSoC4/I2CS_EZI2C_INT.c ****                     /* Set read completion mask */
 371:Generated_Source\PSoC4/I2CS_EZI2C_INT.c ****                     locStatus = I2CS_INTR_SLAVE_I2C_NACK;
 461              		.loc 1 371 0
 462 0286 0223     		movs	r3, #2
 463 0288 BB61     		str	r3, [r7, #24]
 372:Generated_Source\PSoC4/I2CS_EZI2C_INT.c **** 
 373:Generated_Source\PSoC4/I2CS_EZI2C_INT.c ****                     /* Check if buffer content was modified: the address phase resets the locIndex 
 374:Generated_Source\PSoC4/I2CS_EZI2C_INT.c ****                     if(locIndex != I2CS_EZI2C_GET_OFFSET(activeAddress))
 464              		.loc 1 374 0
 465 028a 2D4B     		ldr	r3, .L40+28
 466 028c 1B78     		ldrb	r3, [r3]
 467 028e 1A00     		movs	r2, r3
 468 0290 FB69     		ldr	r3, [r7, #28]
 469 0292 9A42     		cmp	r2, r3
 470 0294 03D0     		beq	.L32
 375:Generated_Source\PSoC4/I2CS_EZI2C_INT.c ****                     {
 376:Generated_Source\PSoC4/I2CS_EZI2C_INT.c ****                         locStatus |= I2CS_INTR_SLAVE_I2C_WRITE_STOP;
 471              		.loc 1 376 0
 472 0296 BB69     		ldr	r3, [r7, #24]
 473 0298 0822     		movs	r2, #8
 474 029a 1343     		orrs	r3, r2
 475 029c BB61     		str	r3, [r7, #24]
ARM GAS  C:\Users\alexport\AppData\Local\Temp\ccqWCGXp.s 			page 16


 476              	.L32:
 377:Generated_Source\PSoC4/I2CS_EZI2C_INT.c ****                     }
 378:Generated_Source\PSoC4/I2CS_EZI2C_INT.c **** 
 379:Generated_Source\PSoC4/I2CS_EZI2C_INT.c ****                     /* Complete read or write transaction */
 380:Generated_Source\PSoC4/I2CS_EZI2C_INT.c ****                     locStatus &= locIntrSlave;
 477              		.loc 1 380 0
 478 029e BB69     		ldr	r3, [r7, #24]
 479 02a0 FA68     		ldr	r2, [r7, #12]
 480 02a2 1340     		ands	r3, r2
 481 02a4 BB61     		str	r3, [r7, #24]
 381:Generated_Source\PSoC4/I2CS_EZI2C_INT.c ****                     I2CS_EZI2C_UPDATE_LOC_STATUS(activeAddress, locStatus);
 382:Generated_Source\PSoC4/I2CS_EZI2C_INT.c ****                     locStatus |= (uint32)  I2CS_curStatus;
 482              		.loc 1 382 0
 483 02a6 244B     		ldr	r3, .L40+20
 484 02a8 1B78     		ldrb	r3, [r3]
 485 02aa DBB2     		uxtb	r3, r3
 486 02ac 1A00     		movs	r2, r3
 487 02ae BB69     		ldr	r3, [r7, #24]
 488 02b0 1343     		orrs	r3, r2
 489 02b2 BB61     		str	r3, [r7, #24]
 383:Generated_Source\PSoC4/I2CS_EZI2C_INT.c ****                     locStatus &= (uint32) ~I2CS_EZI2C_STATUS_BUSY;
 490              		.loc 1 383 0
 491 02b4 BB69     		ldr	r3, [r7, #24]
 492 02b6 2022     		movs	r2, #32
 493 02b8 9343     		bics	r3, r2
 494 02ba BB61     		str	r3, [r7, #24]
 384:Generated_Source\PSoC4/I2CS_EZI2C_INT.c ****                     I2CS_curStatus = (uint8) locStatus;
 495              		.loc 1 384 0
 496 02bc BB69     		ldr	r3, [r7, #24]
 497 02be DAB2     		uxtb	r2, r3
 498 02c0 1D4B     		ldr	r3, .L40+20
 499 02c2 1A70     		strb	r2, [r3]
 385:Generated_Source\PSoC4/I2CS_EZI2C_INT.c **** 
 386:Generated_Source\PSoC4/I2CS_EZI2C_INT.c ****                     I2CS_fsmState = I2CS_EZI2C_FSM_IDLE;
 500              		.loc 1 386 0
 501 02c4 224B     		ldr	r3, .L40+44
 502 02c6 0022     		movs	r2, #0
 503 02c8 1A70     		strb	r2, [r3]
 504              	.L31:
 387:Generated_Source\PSoC4/I2CS_EZI2C_INT.c **** 
 388:Generated_Source\PSoC4/I2CS_EZI2C_INT.c ****                     #if(I2CS_SECONDARY_ADDRESS_ENABLE)
 389:Generated_Source\PSoC4/I2CS_EZI2C_INT.c ****                     {
 390:Generated_Source\PSoC4/I2CS_EZI2C_INT.c ****                         /* Store local index into global variable, before address phase */
 391:Generated_Source\PSoC4/I2CS_EZI2C_INT.c ****                         I2CS_EZI2C_SET_INDEX(activeAddress, locIndex);
 392:Generated_Source\PSoC4/I2CS_EZI2C_INT.c ****                     }
 393:Generated_Source\PSoC4/I2CS_EZI2C_INT.c ****                     #endif
 394:Generated_Source\PSoC4/I2CS_EZI2C_INT.c ****                 }
 395:Generated_Source\PSoC4/I2CS_EZI2C_INT.c **** 
 396:Generated_Source\PSoC4/I2CS_EZI2C_INT.c ****                 /* INTR_SLAVE.I2C_ADDR_MATCH */
 397:Generated_Source\PSoC4/I2CS_EZI2C_INT.c ****                 /* The matched address is received: the slave starts its operation.
 398:Generated_Source\PSoC4/I2CS_EZI2C_INT.c ****                 * INTR_SLAVE_I2C_STOP updates the buffer index before the address phase for two add
 399:Generated_Source\PSoC4/I2CS_EZI2C_INT.c ****                 * This is done to update buffer index correctly before the address phase changes it
 400:Generated_Source\PSoC4/I2CS_EZI2C_INT.c ****                 */
 401:Generated_Source\PSoC4/I2CS_EZI2C_INT.c ****                 if(0u != (locIntrSlave & I2CS_INTR_SLAVE_I2C_ADDR_MATCH))
 505              		.loc 1 401 0
 506 02ca FB68     		ldr	r3, [r7, #12]
 507 02cc 4022     		movs	r2, #64
ARM GAS  C:\Users\alexport\AppData\Local\Temp\ccqWCGXp.s 			page 17


 508 02ce 1340     		ands	r3, r2
 509 02d0 6CD0     		beq	.L33
 402:Generated_Source\PSoC4/I2CS_EZI2C_INT.c ****                 {
 403:Generated_Source\PSoC4/I2CS_EZI2C_INT.c ****                     #if(I2CS_SECONDARY_ADDRESS_ENABLE)
 404:Generated_Source\PSoC4/I2CS_EZI2C_INT.c ****                     {
 405:Generated_Source\PSoC4/I2CS_EZI2C_INT.c ****                         /* Read address byte from RX FIFO */
 406:Generated_Source\PSoC4/I2CS_EZI2C_INT.c ****                         locByte = I2CS_GET_I2C_7BIT_ADDRESS(I2CS_RX_FIFO_RD_REG);
 407:Generated_Source\PSoC4/I2CS_EZI2C_INT.c **** 
 408:Generated_Source\PSoC4/I2CS_EZI2C_INT.c ****                         I2CS_ClearRxInterruptSource(I2CS_INTR_RX_NOT_EMPTY);
 409:Generated_Source\PSoC4/I2CS_EZI2C_INT.c **** 
 410:Generated_Source\PSoC4/I2CS_EZI2C_INT.c ****                         /* Check received address against device addresses */
 411:Generated_Source\PSoC4/I2CS_EZI2C_INT.c ****                         if(I2CS_addrBuf1 == locByte)
 412:Generated_Source\PSoC4/I2CS_EZI2C_INT.c ****                         {
 413:Generated_Source\PSoC4/I2CS_EZI2C_INT.c ****                             /* Set buffer exposed to primary slave address */
 414:Generated_Source\PSoC4/I2CS_EZI2C_INT.c ****                             I2CS_dataBuffer = I2CS_dataBuffer1;
 415:Generated_Source\PSoC4/I2CS_EZI2C_INT.c ****                             I2CS_bufSizeBuf = I2CS_bufSizeBuf1;
 416:Generated_Source\PSoC4/I2CS_EZI2C_INT.c ****                             I2CS_protectBuf = I2CS_protectBuf1;
 417:Generated_Source\PSoC4/I2CS_EZI2C_INT.c **** 
 418:Generated_Source\PSoC4/I2CS_EZI2C_INT.c ****                             activeAddress = I2CS_EZI2C_ACTIVE_ADDRESS1;
 419:Generated_Source\PSoC4/I2CS_EZI2C_INT.c ****                         }
 420:Generated_Source\PSoC4/I2CS_EZI2C_INT.c ****                         else if(I2CS_addrBuf2 == locByte)
 421:Generated_Source\PSoC4/I2CS_EZI2C_INT.c ****                         {
 422:Generated_Source\PSoC4/I2CS_EZI2C_INT.c ****                             /* Set buffer exposed to secondary slave address */
 423:Generated_Source\PSoC4/I2CS_EZI2C_INT.c ****                             I2CS_dataBuffer = I2CS_dataBuffer2;
 424:Generated_Source\PSoC4/I2CS_EZI2C_INT.c ****                             I2CS_bufSizeBuf = I2CS_bufSizeBuf2;
 425:Generated_Source\PSoC4/I2CS_EZI2C_INT.c ****                             I2CS_protectBuf = I2CS_protectBuf2;
 426:Generated_Source\PSoC4/I2CS_EZI2C_INT.c **** 
 427:Generated_Source\PSoC4/I2CS_EZI2C_INT.c ****                             activeAddress = I2CS_EZI2C_ACTIVE_ADDRESS2;
 428:Generated_Source\PSoC4/I2CS_EZI2C_INT.c ****                         }
 429:Generated_Source\PSoC4/I2CS_EZI2C_INT.c ****                         else
 430:Generated_Source\PSoC4/I2CS_EZI2C_INT.c ****                         {
 431:Generated_Source\PSoC4/I2CS_EZI2C_INT.c ****                             /* Address does not match */
 432:Generated_Source\PSoC4/I2CS_EZI2C_INT.c ****                             ackResponse = I2CS_EZI2C_NACK_RECEIVED_ADDRESS;
 433:Generated_Source\PSoC4/I2CS_EZI2C_INT.c ****                         }
 434:Generated_Source\PSoC4/I2CS_EZI2C_INT.c ****                     }
 435:Generated_Source\PSoC4/I2CS_EZI2C_INT.c ****                     #endif
 436:Generated_Source\PSoC4/I2CS_EZI2C_INT.c **** 
 437:Generated_Source\PSoC4/I2CS_EZI2C_INT.c ****                 #if(I2CS_SECONDARY_ADDRESS_ENABLE_CONST)
 438:Generated_Source\PSoC4/I2CS_EZI2C_INT.c ****                     if(I2CS_EZI2C_NACK_RECEIVED_ADDRESS == ackResponse)
 439:Generated_Source\PSoC4/I2CS_EZI2C_INT.c ****                     {
 440:Generated_Source\PSoC4/I2CS_EZI2C_INT.c ****                         /* Clear interrupt sources before NACK address */
 441:Generated_Source\PSoC4/I2CS_EZI2C_INT.c ****                         I2CS_ClearI2CExtClkInterruptSource(I2CS_INTR_I2C_EC_WAKE_UP);
 442:Generated_Source\PSoC4/I2CS_EZI2C_INT.c ****                         I2CS_ClearSlaveInterruptSource(I2CS_INTR_SLAVE_ALL);
 443:Generated_Source\PSoC4/I2CS_EZI2C_INT.c **** 
 444:Generated_Source\PSoC4/I2CS_EZI2C_INT.c ****                     #if(!I2CS_CY_SCBIP_V0)
 445:Generated_Source\PSoC4/I2CS_EZI2C_INT.c ****                         /* Disable INTR_I2C_STOP to not trigger after matched address is NACKed. Ti
 446:Generated_Source\PSoC4/I2CS_EZI2C_INT.c ****                         I2CS_DISABLE_INTR_SLAVE(I2CS_INTR_SLAVE_I2C_STOP);
 447:Generated_Source\PSoC4/I2CS_EZI2C_INT.c ****                     #endif /* (!I2CS_CY_SCBIP_V0) */
 448:Generated_Source\PSoC4/I2CS_EZI2C_INT.c **** 
 449:Generated_Source\PSoC4/I2CS_EZI2C_INT.c ****                         /* NACK address byte: it does not match neither primary nor secondary */
 450:Generated_Source\PSoC4/I2CS_EZI2C_INT.c ****                         I2CS_I2C_SLAVE_GENERATE_NACK;
 451:Generated_Source\PSoC4/I2CS_EZI2C_INT.c ****                     }
 452:Generated_Source\PSoC4/I2CS_EZI2C_INT.c ****                     else
 453:Generated_Source\PSoC4/I2CS_EZI2C_INT.c ****                 #endif /* (I2CS_SECONDARY_ADDRESS_ENABLE_CONST) */
 454:Generated_Source\PSoC4/I2CS_EZI2C_INT.c ****                     {
 455:Generated_Source\PSoC4/I2CS_EZI2C_INT.c **** 
 456:Generated_Source\PSoC4/I2CS_EZI2C_INT.c ****                     #if(I2CS_SCB_MODE_UNCONFIG_CONST_CFG)
ARM GAS  C:\Users\alexport\AppData\Local\Temp\ccqWCGXp.s 			page 18


 457:Generated_Source\PSoC4/I2CS_EZI2C_INT.c ****                         if(!I2CS_SECONDARY_ADDRESS_ENABLE)
 458:Generated_Source\PSoC4/I2CS_EZI2C_INT.c ****                         {
 459:Generated_Source\PSoC4/I2CS_EZI2C_INT.c ****                             /* Set buffer exposed to primary slave address */
 460:Generated_Source\PSoC4/I2CS_EZI2C_INT.c ****                             I2CS_dataBuffer = I2CS_dataBuffer1;
 461:Generated_Source\PSoC4/I2CS_EZI2C_INT.c ****                             I2CS_bufSizeBuf = I2CS_bufSizeBuf1;
 462:Generated_Source\PSoC4/I2CS_EZI2C_INT.c ****                             I2CS_protectBuf = I2CS_protectBuf1;
 463:Generated_Source\PSoC4/I2CS_EZI2C_INT.c **** 
 464:Generated_Source\PSoC4/I2CS_EZI2C_INT.c ****                             activeAddress = I2CS_EZI2C_ACTIVE_ADDRESS1;
 465:Generated_Source\PSoC4/I2CS_EZI2C_INT.c ****                         }
 466:Generated_Source\PSoC4/I2CS_EZI2C_INT.c ****                     #endif /* (I2CS_SCB_MODE_UNCONFIG_CONST_CFG) */
 467:Generated_Source\PSoC4/I2CS_EZI2C_INT.c **** 
 468:Generated_Source\PSoC4/I2CS_EZI2C_INT.c ****                         /* Bus becomes busy after address is received */
 469:Generated_Source\PSoC4/I2CS_EZI2C_INT.c ****                         I2CS_curStatus |= (uint8) I2CS_EZI2C_STATUS_BUSY;
 510              		.loc 1 469 0
 511 02d2 194B     		ldr	r3, .L40+20
 512 02d4 1B78     		ldrb	r3, [r3]
 513 02d6 DBB2     		uxtb	r3, r3
 514 02d8 2022     		movs	r2, #32
 515 02da 1343     		orrs	r3, r2
 516 02dc DAB2     		uxtb	r2, r3
 517 02de 164B     		ldr	r3, .L40+20
 518 02e0 1A70     		strb	r2, [r3]
 470:Generated_Source\PSoC4/I2CS_EZI2C_INT.c **** 
 471:Generated_Source\PSoC4/I2CS_EZI2C_INT.c ****                         /* Slave is read or written: set current offset */
 472:Generated_Source\PSoC4/I2CS_EZI2C_INT.c ****                         locIndex = I2CS_EZI2C_GET_OFFSET(activeAddress);
 519              		.loc 1 472 0
 520 02e2 174B     		ldr	r3, .L40+28
 521 02e4 1B78     		ldrb	r3, [r3]
 522 02e6 FB61     		str	r3, [r7, #28]
 473:Generated_Source\PSoC4/I2CS_EZI2C_INT.c **** 
 474:Generated_Source\PSoC4/I2CS_EZI2C_INT.c ****                         /* Check transaction direction */
 475:Generated_Source\PSoC4/I2CS_EZI2C_INT.c ****                         if(I2CS_CHECK_I2C_STATUS(I2CS_I2C_STATUS_S_READ))
 523              		.loc 1 475 0
 524 02e8 244B     		ldr	r3, .L40+88
 525 02ea 1B68     		ldr	r3, [r3]
 526 02ec 1022     		movs	r2, #16
 527 02ee 1340     		ands	r3, r2
 528 02f0 4AD0     		beq	.L34
 476:Generated_Source\PSoC4/I2CS_EZI2C_INT.c ****                         {
 477:Generated_Source\PSoC4/I2CS_EZI2C_INT.c ****                             /* Calculate slave buffer size */
 478:Generated_Source\PSoC4/I2CS_EZI2C_INT.c ****                             locBufSize = I2CS_bufSizeBuf1 - (uint16) locIndex;
 529              		.loc 1 478 0
 530 02f2 1E4B     		ldr	r3, .L40+72
 531 02f4 1A88     		ldrh	r2, [r3]
 532 02f6 FB69     		ldr	r3, [r7, #28]
 533 02f8 9BB2     		uxth	r3, r3
 534 02fa D31A     		subs	r3, r2, r3
 535 02fc 9AB2     		uxth	r2, r3
 536 02fe 184B     		ldr	r3, .L40+60
 537 0300 1A80     		strh	r2, [r3]
 479:Generated_Source\PSoC4/I2CS_EZI2C_INT.c **** 
 480:Generated_Source\PSoC4/I2CS_EZI2C_INT.c ****                             /* Clear TX FIFO to start fill from offset */
 481:Generated_Source\PSoC4/I2CS_EZI2C_INT.c ****                             I2CS_CLEAR_TX_FIFO;
 538              		.loc 1 481 0
 539 0302 1F4B     		ldr	r3, .L40+92
 540 0304 1E4A     		ldr	r2, .L40+92
 541 0306 1268     		ldr	r2, [r2]
ARM GAS  C:\Users\alexport\AppData\Local\Temp\ccqWCGXp.s 			page 19


 542 0308 8021     		movs	r1, #128
 543 030a 4902     		lsls	r1, r1, #9
 544 030c 0A43     		orrs	r2, r1
 545 030e 1A60     		str	r2, [r3]
 546 0310 1B4B     		ldr	r3, .L40+92
 547 0312 1B4A     		ldr	r2, .L40+92
 548 0314 1268     		ldr	r2, [r2]
 549 0316 1B49     		ldr	r1, .L40+96
 550 0318 0A40     		ands	r2, r1
 551 031a 1A60     		str	r2, [r3]
 482:Generated_Source\PSoC4/I2CS_EZI2C_INT.c ****                             I2CS_SetTxInterruptMode(I2CS_INTR_TX_EMPTY);
 552              		.loc 1 482 0
 553 031c 074B     		ldr	r3, .L40+24
 554 031e 1022     		movs	r2, #16
 555 0320 1A60     		str	r2, [r3]
 556 0322 34E0     		b	.L35
 557              	.L41:
 558              		.align	2
 559              	.L40:
 560 0324 00000000 		.word	I2CS_customIntrHandler
 561 0328 00000000 		.word	I2CS_indexBuf1
 562 032c 400F2540 		.word	1076170560
 563 0330 000E2540 		.word	1076170240
 564 0334 00002540 		.word	1076166656
 565 0338 00000000 		.word	I2CS_curStatus
 566 033c 880F2540 		.word	1076170632
 567 0340 00000000 		.word	I2CS_offsetBuf1
 568 0344 60002540 		.word	1076166752
 569 0348 FF5FFFFF 		.word	-40961
 570 034c C80F2540 		.word	1076170696
 571 0350 00000000 		.word	I2CS_fsmState
 572 0354 880E2540 		.word	1076170376
 573 0358 CC0F2540 		.word	1076170700
 574 035c 40032540 		.word	1076167488
 575 0360 00000000 		.word	locBufSize.4971
 576 0364 6C002540 		.word	1076166764
 577 0368 00000000 		.word	I2CS_dataBuffer1
 578 036c 00000000 		.word	I2CS_bufSizeBuf1
 579 0370 00000000 		.word	I2CS_protectBuf1
 580 0374 C00F2540 		.word	1076170688
 581 0378 08032540 		.word	1076167432
 582 037c 64002540 		.word	1076166756
 583 0380 04022540 		.word	1076167172
 584 0384 FFFFFEFF 		.word	-65537
 585              	.L34:
 483:Generated_Source\PSoC4/I2CS_EZI2C_INT.c ****                         }
 484:Generated_Source\PSoC4/I2CS_EZI2C_INT.c ****                         else
 485:Generated_Source\PSoC4/I2CS_EZI2C_INT.c ****                         {
 486:Generated_Source\PSoC4/I2CS_EZI2C_INT.c ****                             /* Master writes: enable reception interrupt. The FSM state was set in 
 487:Generated_Source\PSoC4/I2CS_EZI2C_INT.c ****                             I2CS_SetRxInterruptMode(I2CS_INTR_RX_NOT_EMPTY);
 586              		.loc 1 487 0
 587 0388 214B     		ldr	r3, .L42
 588 038a 0422     		movs	r2, #4
 589 038c 1A60     		str	r2, [r3]
 590              	.L35:
 488:Generated_Source\PSoC4/I2CS_EZI2C_INT.c ****                         }
 489:Generated_Source\PSoC4/I2CS_EZI2C_INT.c **** 
ARM GAS  C:\Users\alexport\AppData\Local\Temp\ccqWCGXp.s 			page 20


 490:Generated_Source\PSoC4/I2CS_EZI2C_INT.c ****                         /* Clear interrupt sources before ACK address */
 491:Generated_Source\PSoC4/I2CS_EZI2C_INT.c ****                         I2CS_ClearI2CExtClkInterruptSource(I2CS_INTR_I2C_EC_WAKE_UP);
 591              		.loc 1 491 0
 592 038e 214B     		ldr	r3, .L42+4
 593 0390 0122     		movs	r2, #1
 594 0392 1A60     		str	r2, [r3]
 492:Generated_Source\PSoC4/I2CS_EZI2C_INT.c ****                         I2CS_ClearSlaveInterruptSource(I2CS_INTR_SLAVE_ALL);
 595              		.loc 1 492 0
 596 0394 204B     		ldr	r3, .L42+8
 597 0396 214A     		ldr	r2, .L42+12
 598 0398 1A60     		str	r2, [r3]
 493:Generated_Source\PSoC4/I2CS_EZI2C_INT.c **** 
 494:Generated_Source\PSoC4/I2CS_EZI2C_INT.c ****                     #if (!I2CS_CY_SCBIP_V0)
 495:Generated_Source\PSoC4/I2CS_EZI2C_INT.c ****                         /* Enable STOP to trigger after address match is ACKed. Ticket ID#156094 */
 496:Generated_Source\PSoC4/I2CS_EZI2C_INT.c ****                         I2CS_ENABLE_INTR_SLAVE(I2CS_INTR_SLAVE_I2C_STOP);
 599              		.loc 1 496 0
 600 039a 214B     		ldr	r3, .L42+16
 601 039c 204A     		ldr	r2, .L42+16
 602 039e 1268     		ldr	r2, [r2]
 603 03a0 1021     		movs	r1, #16
 604 03a2 0A43     		orrs	r2, r1
 605 03a4 1A60     		str	r2, [r3]
 497:Generated_Source\PSoC4/I2CS_EZI2C_INT.c ****                     #endif /* (!I2CS_CY_SCBIP_V0) */
 498:Generated_Source\PSoC4/I2CS_EZI2C_INT.c **** 
 499:Generated_Source\PSoC4/I2CS_EZI2C_INT.c ****                         /* ACK the address byte */
 500:Generated_Source\PSoC4/I2CS_EZI2C_INT.c ****                         I2CS_I2C_SLAVE_GENERATE_ACK;
 606              		.loc 1 500 0
 607 03a6 1F4B     		ldr	r3, .L42+20
 608 03a8 0122     		movs	r2, #1
 609 03aa 1A60     		str	r2, [r3]
 610              	.L33:
 501:Generated_Source\PSoC4/I2CS_EZI2C_INT.c ****                     }
 502:Generated_Source\PSoC4/I2CS_EZI2C_INT.c ****                 }
 503:Generated_Source\PSoC4/I2CS_EZI2C_INT.c **** 
 504:Generated_Source\PSoC4/I2CS_EZI2C_INT.c ****                 /* Clear slave interrupt sources */
 505:Generated_Source\PSoC4/I2CS_EZI2C_INT.c ****                 I2CS_ClearSlaveInterruptSource(locIntrSlave);
 611              		.loc 1 505 0
 612 03ac 1A4B     		ldr	r3, .L42+8
 613 03ae FA68     		ldr	r2, [r7, #12]
 614 03b0 1A60     		str	r2, [r3]
 615              	.L30:
 506:Generated_Source\PSoC4/I2CS_EZI2C_INT.c ****             }
 507:Generated_Source\PSoC4/I2CS_EZI2C_INT.c **** 
 508:Generated_Source\PSoC4/I2CS_EZI2C_INT.c ****             /* INTR_TX.EMPTY */
 509:Generated_Source\PSoC4/I2CS_EZI2C_INT.c ****             /* Transmits data to the master: loads data into the TX FIFO. The 0xFF sends out if the
 510:Generated_Source\PSoC4/I2CS_EZI2C_INT.c ****             * out the buffer. The address reception with a read flag clears the TX FIFO to be loade
 511:Generated_Source\PSoC4/I2CS_EZI2C_INT.c ****             */
 512:Generated_Source\PSoC4/I2CS_EZI2C_INT.c ****             if(0u != (I2CS_GetInterruptCause() & I2CS_INTR_CAUSE_TX))
 616              		.loc 1 512 0
 617 03b2 1D4B     		ldr	r3, .L42+24
 618 03b4 1B68     		ldr	r3, [r3]
 619 03b6 0422     		movs	r2, #4
 620 03b8 1340     		ands	r3, r2
 621 03ba 21D0     		beq	.L7
 622              	.L38:
 513:Generated_Source\PSoC4/I2CS_EZI2C_INT.c ****             {
 514:Generated_Source\PSoC4/I2CS_EZI2C_INT.c ****                 /* Put data into TX FIFO until there is a room */
ARM GAS  C:\Users\alexport\AppData\Local\Temp\ccqWCGXp.s 			page 21


 515:Generated_Source\PSoC4/I2CS_EZI2C_INT.c ****                 do
 516:Generated_Source\PSoC4/I2CS_EZI2C_INT.c ****                 {
 517:Generated_Source\PSoC4/I2CS_EZI2C_INT.c ****                     /* Check transmit buffer range: locBufSize calculates after address reception *
 518:Generated_Source\PSoC4/I2CS_EZI2C_INT.c ****                     if(0u != locBufSize)
 623              		.loc 1 518 0
 624 03bc 1B4B     		ldr	r3, .L42+28
 625 03be 1B88     		ldrh	r3, [r3]
 626 03c0 002B     		cmp	r3, #0
 627 03c2 11D0     		beq	.L36
 519:Generated_Source\PSoC4/I2CS_EZI2C_INT.c ****                     {
 520:Generated_Source\PSoC4/I2CS_EZI2C_INT.c ****                         I2CS_TX_FIFO_WR_REG = (uint32) I2CS_dataBuffer1[locIndex];
 628              		.loc 1 520 0
 629 03c4 1A4A     		ldr	r2, .L42+32
 630 03c6 1B4B     		ldr	r3, .L42+36
 631 03c8 1968     		ldr	r1, [r3]
 632 03ca FB69     		ldr	r3, [r7, #28]
 633 03cc CB18     		adds	r3, r1, r3
 634 03ce 1B78     		ldrb	r3, [r3]
 635 03d0 DBB2     		uxtb	r3, r3
 636 03d2 1360     		str	r3, [r2]
 521:Generated_Source\PSoC4/I2CS_EZI2C_INT.c ****                         locIndex++;
 637              		.loc 1 521 0
 638 03d4 FB69     		ldr	r3, [r7, #28]
 639 03d6 0133     		adds	r3, r3, #1
 640 03d8 FB61     		str	r3, [r7, #28]
 522:Generated_Source\PSoC4/I2CS_EZI2C_INT.c ****                         locBufSize--;
 641              		.loc 1 522 0
 642 03da 144B     		ldr	r3, .L42+28
 643 03dc 1B88     		ldrh	r3, [r3]
 644 03de 013B     		subs	r3, r3, #1
 645 03e0 9AB2     		uxth	r2, r3
 646 03e2 124B     		ldr	r3, .L42+28
 647 03e4 1A80     		strh	r2, [r3]
 648 03e6 02E0     		b	.L37
 649              	.L36:
 523:Generated_Source\PSoC4/I2CS_EZI2C_INT.c ****                     }
 524:Generated_Source\PSoC4/I2CS_EZI2C_INT.c ****                     else
 525:Generated_Source\PSoC4/I2CS_EZI2C_INT.c ****                     {
 526:Generated_Source\PSoC4/I2CS_EZI2C_INT.c ****                         I2CS_TX_FIFO_WR_REG = I2CS_EZI2C_OVFL_RETURN;
 650              		.loc 1 526 0
 651 03e8 114B     		ldr	r3, .L42+32
 652 03ea FF22     		movs	r2, #255
 653 03ec 1A60     		str	r2, [r3]
 654              	.L37:
 527:Generated_Source\PSoC4/I2CS_EZI2C_INT.c ****                     }
 528:Generated_Source\PSoC4/I2CS_EZI2C_INT.c ****                 }
 529:Generated_Source\PSoC4/I2CS_EZI2C_INT.c ****                 while(I2CS_EZI2C_FIFO_SIZE != I2CS_GET_TX_FIFO_ENTRIES);
 655              		.loc 1 529 0
 656 03ee 124B     		ldr	r3, .L42+40
 657 03f0 1B68     		ldr	r3, [r3]
 658 03f2 1F22     		movs	r2, #31
 659 03f4 1340     		ands	r3, r2
 660 03f6 082B     		cmp	r3, #8
 661 03f8 E0D1     		bne	.L38
 530:Generated_Source\PSoC4/I2CS_EZI2C_INT.c **** 
 531:Generated_Source\PSoC4/I2CS_EZI2C_INT.c ****                 I2CS_ClearTxInterruptSource(I2CS_INTR_TX_EMPTY);
 662              		.loc 1 531 0
ARM GAS  C:\Users\alexport\AppData\Local\Temp\ccqWCGXp.s 			page 22


 663 03fa 104B     		ldr	r3, .L42+44
 664 03fc 1022     		movs	r2, #16
 665 03fe 1A60     		str	r2, [r3]
 666              	.L7:
 532:Generated_Source\PSoC4/I2CS_EZI2C_INT.c ****             }
 533:Generated_Source\PSoC4/I2CS_EZI2C_INT.c ****         }
 534:Generated_Source\PSoC4/I2CS_EZI2C_INT.c **** 
 535:Generated_Source\PSoC4/I2CS_EZI2C_INT.c ****         /* Store local index copy into global variable */
 536:Generated_Source\PSoC4/I2CS_EZI2C_INT.c ****         I2CS_EZI2C_SET_INDEX(activeAddress, locIndex);
 667              		.loc 1 536 0
 668 0400 FB69     		ldr	r3, [r7, #28]
 669 0402 9AB2     		uxth	r2, r3
 670 0404 0E4B     		ldr	r3, .L42+48
 671 0406 1A80     		strh	r2, [r3]
 537:Generated_Source\PSoC4/I2CS_EZI2C_INT.c **** 
 538:Generated_Source\PSoC4/I2CS_EZI2C_INT.c ****     #ifdef I2CS_EZI2C_STRETCH_ISR_EXIT_CALLBACK
 539:Generated_Source\PSoC4/I2CS_EZI2C_INT.c ****         I2CS_EZI2C_STRETCH_ISR_ExitCallback();
 540:Generated_Source\PSoC4/I2CS_EZI2C_INT.c ****     #endif /* I2CS_EZI2C_STRETCH_ISR_EXIT_CALLBACK */
 541:Generated_Source\PSoC4/I2CS_EZI2C_INT.c **** 
 542:Generated_Source\PSoC4/I2CS_EZI2C_INT.c ****     }
 672              		.loc 1 542 0
 673 0408 C046     		nop
 674 040a BD46     		mov	sp, r7
 675 040c 08B0     		add	sp, sp, #32
 676              		@ sp needed
 677 040e 80BD     		pop	{r7, pc}
 678              	.L43:
 679              		.align	2
 680              	.L42:
 681 0410 C80F2540 		.word	1076170696
 682 0414 800E2540 		.word	1076170368
 683 0418 400F2540 		.word	1076170560
 684 041c FF0F0000 		.word	4095
 685 0420 480F2540 		.word	1076170568
 686 0424 6C002540 		.word	1076166764
 687 0428 000E2540 		.word	1076170240
 688 042c 00000000 		.word	locBufSize.4971
 689 0430 40022540 		.word	1076167232
 690 0434 00000000 		.word	I2CS_dataBuffer1
 691 0438 08022540 		.word	1076167176
 692 043c 800F2540 		.word	1076170624
 693 0440 00000000 		.word	I2CS_indexBuf1
 694              		.cfi_endproc
 695              	.LFE2:
 696              		.size	I2CS_EZI2C_STRETCH_ISR, .-I2CS_EZI2C_STRETCH_ISR
 697              		.bss
 698              		.align	1
 699              	locBufSize.4971:
 700 0000 0000     		.space	2
 701              		.text
 702              	.Letext0:
 703              		.file 2 "Generated_Source\\PSoC4/cytypes.h"
 704              		.file 3 "Generated_Source\\PSoC4\\I2CS_PVT.h"
 705              		.file 4 "Generated_Source\\PSoC4\\I2CS_EZI2C_PVT.h"