ARM GAS  C:\Users\alexport\AppData\Local\Temp\ccYhjsve.s 			page 1


   1              		.syntax unified
   2              		.cpu cortex-m0
   3              		.fpu softvfp
   4              		.eabi_attribute 20, 1
   5              		.eabi_attribute 21, 1
   6              		.eabi_attribute 23, 3
   7              		.eabi_attribute 24, 1
   8              		.eabi_attribute 25, 1
   9              		.eabi_attribute 26, 1
  10              		.eabi_attribute 30, 6
  11              		.eabi_attribute 34, 0
  12              		.eabi_attribute 18, 4
  13              		.thumb
  14              		.syntax unified
  15              		.file	"I2CS_EZI2C.c"
  16              		.text
  17              	.Ltext0:
  18              		.cfi_sections	.debug_frame
  19              		.comm	I2CS_curStatus,1,1
  20              		.comm	I2CS_fsmState,1,1
  21              		.comm	I2CS_dataBuffer1,4,4
  22              		.comm	I2CS_bufSizeBuf1,2,2
  23              		.comm	I2CS_protectBuf1,2,2
  24              		.comm	I2CS_offsetBuf1,1,1
  25              		.comm	I2CS_indexBuf1,2,2
  26              		.section	.text.I2CS_EzI2CInit,"ax",%progbits
  27              		.align	2
  28              		.global	I2CS_EzI2CInit
  29              		.code	16
  30              		.thumb_func
  31              		.type	I2CS_EzI2CInit, %function
  32              	I2CS_EzI2CInit:
  33              	.LFB2:
  34              		.file 1 "Generated_Source\\PSoC4\\I2CS_EZI2C.c"
   1:Generated_Source\PSoC4/I2CS_EZI2C.c **** /***************************************************************************//**
   2:Generated_Source\PSoC4/I2CS_EZI2C.c **** * \file I2CS_EZI2C.c
   3:Generated_Source\PSoC4/I2CS_EZI2C.c **** * \version 4.0
   4:Generated_Source\PSoC4/I2CS_EZI2C.c **** *
   5:Generated_Source\PSoC4/I2CS_EZI2C.c **** * \brief
   6:Generated_Source\PSoC4/I2CS_EZI2C.c **** *  This file provides the source code to the API for the SCB Component in
   7:Generated_Source\PSoC4/I2CS_EZI2C.c **** *  EZI2C mode.
   8:Generated_Source\PSoC4/I2CS_EZI2C.c **** *
   9:Generated_Source\PSoC4/I2CS_EZI2C.c **** * Note:
  10:Generated_Source\PSoC4/I2CS_EZI2C.c **** *
  11:Generated_Source\PSoC4/I2CS_EZI2C.c **** *******************************************************************************
  12:Generated_Source\PSoC4/I2CS_EZI2C.c **** * \copyright
  13:Generated_Source\PSoC4/I2CS_EZI2C.c **** * Copyright 2013-2017, Cypress Semiconductor Corporation.  All rights reserved.
  14:Generated_Source\PSoC4/I2CS_EZI2C.c **** * You may use this file only in accordance with the license, terms, conditions,
  15:Generated_Source\PSoC4/I2CS_EZI2C.c **** * disclaimers, and limitations in the end user license agreement accompanying
  16:Generated_Source\PSoC4/I2CS_EZI2C.c **** * the software package with which this file was provided.
  17:Generated_Source\PSoC4/I2CS_EZI2C.c **** *******************************************************************************/
  18:Generated_Source\PSoC4/I2CS_EZI2C.c **** 
  19:Generated_Source\PSoC4/I2CS_EZI2C.c **** #include "I2CS_PVT.h"
  20:Generated_Source\PSoC4/I2CS_EZI2C.c **** #include "I2CS_EZI2C_PVT.h"
  21:Generated_Source\PSoC4/I2CS_EZI2C.c **** 
  22:Generated_Source\PSoC4/I2CS_EZI2C.c **** 
  23:Generated_Source\PSoC4/I2CS_EZI2C.c **** /***************************************
ARM GAS  C:\Users\alexport\AppData\Local\Temp\ccYhjsve.s 			page 2


  24:Generated_Source\PSoC4/I2CS_EZI2C.c **** *      EZI2C Private Vars
  25:Generated_Source\PSoC4/I2CS_EZI2C.c **** ***************************************/
  26:Generated_Source\PSoC4/I2CS_EZI2C.c **** 
  27:Generated_Source\PSoC4/I2CS_EZI2C.c **** volatile uint8 I2CS_curStatus; /* Status byte */
  28:Generated_Source\PSoC4/I2CS_EZI2C.c **** uint8 I2CS_fsmState;           /* FSM state   */
  29:Generated_Source\PSoC4/I2CS_EZI2C.c **** 
  30:Generated_Source\PSoC4/I2CS_EZI2C.c **** /* Variables intended to be used with Buffer 1: Primary slave address */
  31:Generated_Source\PSoC4/I2CS_EZI2C.c **** volatile uint8 * I2CS_dataBuffer1; /* Pointer to data buffer 1 */
  32:Generated_Source\PSoC4/I2CS_EZI2C.c **** uint16 I2CS_bufSizeBuf1;           /* Size of buffer 1 in bytes      */
  33:Generated_Source\PSoC4/I2CS_EZI2C.c **** uint16 I2CS_protectBuf1;           /* Start index of write protected area buffer 1 */
  34:Generated_Source\PSoC4/I2CS_EZI2C.c **** uint8 I2CS_offsetBuf1; /* Current offset within buffer 1 */
  35:Generated_Source\PSoC4/I2CS_EZI2C.c **** uint16 I2CS_indexBuf1;             /* Current index within buffer 1  */
  36:Generated_Source\PSoC4/I2CS_EZI2C.c **** 
  37:Generated_Source\PSoC4/I2CS_EZI2C.c **** #if(I2CS_SECONDARY_ADDRESS_ENABLE_CONST)
  38:Generated_Source\PSoC4/I2CS_EZI2C.c ****     uint8 I2CS_addrBuf1; /* Primary slave address. Used for software comparison   */
  39:Generated_Source\PSoC4/I2CS_EZI2C.c ****     uint8 I2CS_addrBuf2; /* Secondary slave address. Used for software comparison */
  40:Generated_Source\PSoC4/I2CS_EZI2C.c **** 
  41:Generated_Source\PSoC4/I2CS_EZI2C.c ****     /* Variables intended to be used with Buffer 2: Primary slave address */
  42:Generated_Source\PSoC4/I2CS_EZI2C.c ****     volatile uint8 * I2CS_dataBuffer2; /* Pointer to data buffer 2 */
  43:Generated_Source\PSoC4/I2CS_EZI2C.c ****     uint16 I2CS_bufSizeBuf2;           /* Size of buffer 2 in bytes */
  44:Generated_Source\PSoC4/I2CS_EZI2C.c ****     uint16 I2CS_protectBuf2;           /* Start index of write protected area buffer 2 */
  45:Generated_Source\PSoC4/I2CS_EZI2C.c ****     uint8 I2CS_offsetBuf2; /* Current offset within buffer 2 */
  46:Generated_Source\PSoC4/I2CS_EZI2C.c ****     uint16 I2CS_indexBuf2;             /* Current index within buffer 2 */
  47:Generated_Source\PSoC4/I2CS_EZI2C.c **** #endif /* (I2CS_SECONDARY_ADDRESS_ENABLE_CONST) */
  48:Generated_Source\PSoC4/I2CS_EZI2C.c **** 
  49:Generated_Source\PSoC4/I2CS_EZI2C.c **** 
  50:Generated_Source\PSoC4/I2CS_EZI2C.c **** /***************************************
  51:Generated_Source\PSoC4/I2CS_EZI2C.c **** *      EZI2C Private Functions
  52:Generated_Source\PSoC4/I2CS_EZI2C.c **** ***************************************/
  53:Generated_Source\PSoC4/I2CS_EZI2C.c **** 
  54:Generated_Source\PSoC4/I2CS_EZI2C.c **** #if(I2CS_SECONDARY_ADDRESS_ENABLE_CONST)
  55:Generated_Source\PSoC4/I2CS_EZI2C.c ****     static uint32 I2CS_EzI2CUpdateRxMatchReg(uint32 addr1, uint32 addr2);
  56:Generated_Source\PSoC4/I2CS_EZI2C.c **** #endif /* (I2CS_SECONDARY_ADDRESS_ENABLE_CONST) */
  57:Generated_Source\PSoC4/I2CS_EZI2C.c **** 
  58:Generated_Source\PSoC4/I2CS_EZI2C.c **** #if(I2CS_SCB_MODE_UNCONFIG_CONST_CFG)
  59:Generated_Source\PSoC4/I2CS_EZI2C.c **** 
  60:Generated_Source\PSoC4/I2CS_EZI2C.c ****     /***************************************
  61:Generated_Source\PSoC4/I2CS_EZI2C.c ****     *  Configuration Structure Initialization
  62:Generated_Source\PSoC4/I2CS_EZI2C.c ****     ***************************************/
  63:Generated_Source\PSoC4/I2CS_EZI2C.c **** 
  64:Generated_Source\PSoC4/I2CS_EZI2C.c ****     /* Constant configuration of EZI2C */
  65:Generated_Source\PSoC4/I2CS_EZI2C.c ****     const I2CS_EZI2C_INIT_STRUCT I2CS_configEzI2C =
  66:Generated_Source\PSoC4/I2CS_EZI2C.c ****     {
  67:Generated_Source\PSoC4/I2CS_EZI2C.c ****         I2CS_EZI2C_CLOCK_STRETCHING,
  68:Generated_Source\PSoC4/I2CS_EZI2C.c ****         I2CS_EZI2C_MEDIAN_FILTER_ENABLE,
  69:Generated_Source\PSoC4/I2CS_EZI2C.c ****         I2CS_EZI2C_NUMBER_OF_ADDRESSES,
  70:Generated_Source\PSoC4/I2CS_EZI2C.c ****         I2CS_EZI2C_PRIMARY_SLAVE_ADDRESS,
  71:Generated_Source\PSoC4/I2CS_EZI2C.c ****         I2CS_EZI2C_SECONDARY_SLAVE_ADDRESS,
  72:Generated_Source\PSoC4/I2CS_EZI2C.c ****         I2CS_EZI2C_SUB_ADDRESS_SIZE,
  73:Generated_Source\PSoC4/I2CS_EZI2C.c ****         I2CS_EZI2C_WAKE_ENABLE,
  74:Generated_Source\PSoC4/I2CS_EZI2C.c ****         I2CS_EZI2C_BYTE_MODE_ENABLE
  75:Generated_Source\PSoC4/I2CS_EZI2C.c ****     };
  76:Generated_Source\PSoC4/I2CS_EZI2C.c **** 
  77:Generated_Source\PSoC4/I2CS_EZI2C.c ****     /*******************************************************************************
  78:Generated_Source\PSoC4/I2CS_EZI2C.c ****     * Function Name: I2CS_EzI2CInit
  79:Generated_Source\PSoC4/I2CS_EZI2C.c ****     ****************************************************************************//**
  80:Generated_Source\PSoC4/I2CS_EZI2C.c ****     *
ARM GAS  C:\Users\alexport\AppData\Local\Temp\ccYhjsve.s 			page 3


  81:Generated_Source\PSoC4/I2CS_EZI2C.c ****     *  Configures the I2CS for EZI2C operation.
  82:Generated_Source\PSoC4/I2CS_EZI2C.c ****     *
  83:Generated_Source\PSoC4/I2CS_EZI2C.c ****     *  This function is intended specifically to be used when the I2CS 
  84:Generated_Source\PSoC4/I2CS_EZI2C.c ****     *  configuration is set to “Unconfigured I2CS” in the customizer. 
  85:Generated_Source\PSoC4/I2CS_EZI2C.c ****     *  After initializing the I2CS in EZI2C mode using this function, 
  86:Generated_Source\PSoC4/I2CS_EZI2C.c ****     *  the component can be enabled using the I2CS_Start() or 
  87:Generated_Source\PSoC4/I2CS_EZI2C.c ****     * I2CS_Enable() function.
  88:Generated_Source\PSoC4/I2CS_EZI2C.c ****     *  This function uses a pointer to a structure that provides the configuration 
  89:Generated_Source\PSoC4/I2CS_EZI2C.c ****     *  settings. This structure contains the same information that would otherwise 
  90:Generated_Source\PSoC4/I2CS_EZI2C.c ****     *  be provided by the customizer settings.
  91:Generated_Source\PSoC4/I2CS_EZI2C.c ****     *
  92:Generated_Source\PSoC4/I2CS_EZI2C.c ****     * \param config: pointer to a structure that contains the following list of 
  93:Generated_Source\PSoC4/I2CS_EZI2C.c ****     *  fields. These fields match the selections available in the customizer. 
  94:Generated_Source\PSoC4/I2CS_EZI2C.c ****     *  Refer to the customizer for further description of the settings.
  95:Generated_Source\PSoC4/I2CS_EZI2C.c ****     *
  96:Generated_Source\PSoC4/I2CS_EZI2C.c ****     *******************************************************************************/
  97:Generated_Source\PSoC4/I2CS_EZI2C.c ****     void I2CS_EzI2CInit(const I2CS_EZI2C_INIT_STRUCT *config)
  98:Generated_Source\PSoC4/I2CS_EZI2C.c ****     {
  99:Generated_Source\PSoC4/I2CS_EZI2C.c ****         if(NULL == config)
 100:Generated_Source\PSoC4/I2CS_EZI2C.c ****         {
 101:Generated_Source\PSoC4/I2CS_EZI2C.c ****             CYASSERT(0u != 0u); /* Halt execution due to bad function parameter */
 102:Generated_Source\PSoC4/I2CS_EZI2C.c ****         }
 103:Generated_Source\PSoC4/I2CS_EZI2C.c ****         else
 104:Generated_Source\PSoC4/I2CS_EZI2C.c ****         {
 105:Generated_Source\PSoC4/I2CS_EZI2C.c ****             /* Configure pins */
 106:Generated_Source\PSoC4/I2CS_EZI2C.c ****             I2CS_SetPins(I2CS_SCB_MODE_EZI2C, I2CS_DUMMY_PARAM,
 107:Generated_Source\PSoC4/I2CS_EZI2C.c ****                                                                       I2CS_DUMMY_PARAM);
 108:Generated_Source\PSoC4/I2CS_EZI2C.c **** 
 109:Generated_Source\PSoC4/I2CS_EZI2C.c ****             /* Store internal configuration */
 110:Generated_Source\PSoC4/I2CS_EZI2C.c ****             I2CS_scbMode       = (uint8) I2CS_SCB_MODE_EZI2C;
 111:Generated_Source\PSoC4/I2CS_EZI2C.c ****             I2CS_scbEnableWake = (uint8) config->enableWake;
 112:Generated_Source\PSoC4/I2CS_EZI2C.c ****             I2CS_scbEnableIntr = (uint8) I2CS_SCB_IRQ_INTERNAL;
 113:Generated_Source\PSoC4/I2CS_EZI2C.c **** 
 114:Generated_Source\PSoC4/I2CS_EZI2C.c ****             I2CS_numberOfAddr  = (uint8) config->numberOfAddresses;
 115:Generated_Source\PSoC4/I2CS_EZI2C.c ****             I2CS_subAddrSize   = (uint8) config->subAddrSize;
 116:Generated_Source\PSoC4/I2CS_EZI2C.c **** 
 117:Generated_Source\PSoC4/I2CS_EZI2C.c ****         #if (I2CS_CY_SCBIP_V0)
 118:Generated_Source\PSoC4/I2CS_EZI2C.c ****             /* Adjust SDA filter settings. Ticket ID#150521 */
 119:Generated_Source\PSoC4/I2CS_EZI2C.c ****             I2CS_SET_I2C_CFG_SDA_FILT_TRIM(I2CS_EC_AM_I2C_CFG_SDA_FILT_TRIM);
 120:Generated_Source\PSoC4/I2CS_EZI2C.c ****         #endif /* (I2CS_CY_SCBIP_V0) */
 121:Generated_Source\PSoC4/I2CS_EZI2C.c **** 
 122:Generated_Source\PSoC4/I2CS_EZI2C.c ****             /* Adjust AF and DF filter settings, AF = 1, DF = 0. Ticket ID#176179 */
 123:Generated_Source\PSoC4/I2CS_EZI2C.c ****             I2CS_I2C_CFG_ANALOG_FITER_ENABLE;
 124:Generated_Source\PSoC4/I2CS_EZI2C.c **** 
 125:Generated_Source\PSoC4/I2CS_EZI2C.c ****             /* Configure I2C interface */
 126:Generated_Source\PSoC4/I2CS_EZI2C.c ****             I2CS_CTRL_REG     = I2CS_GET_CTRL_BYTE_MODE  (config->enableByteMode)    |
 127:Generated_Source\PSoC4/I2CS_EZI2C.c ****                                             I2CS_GET_CTRL_ADDR_ACCEPT(config->numberOfAddresses) |
 128:Generated_Source\PSoC4/I2CS_EZI2C.c ****                                             I2CS_GET_CTRL_EC_AM_MODE (config->enableWake);
 129:Generated_Source\PSoC4/I2CS_EZI2C.c **** 
 130:Generated_Source\PSoC4/I2CS_EZI2C.c ****             I2CS_I2C_CTRL_REG = I2CS_EZI2C_CTRL;
 131:Generated_Source\PSoC4/I2CS_EZI2C.c **** 
 132:Generated_Source\PSoC4/I2CS_EZI2C.c ****             /* Configure RX direction */
 133:Generated_Source\PSoC4/I2CS_EZI2C.c ****             I2CS_RX_CTRL_REG = I2CS_EZI2C_RX_CTRL |
 134:Generated_Source\PSoC4/I2CS_EZI2C.c ****                                         I2CS_GET_RX_CTRL_MEDIAN(I2CS_DIGITAL_FILTER_DISABLE);
 135:Generated_Source\PSoC4/I2CS_EZI2C.c ****                                                 ;
 136:Generated_Source\PSoC4/I2CS_EZI2C.c ****             I2CS_RX_FIFO_CTRL_REG = I2CS_CLEAR_REG;
 137:Generated_Source\PSoC4/I2CS_EZI2C.c **** 
ARM GAS  C:\Users\alexport\AppData\Local\Temp\ccYhjsve.s 			page 4


 138:Generated_Source\PSoC4/I2CS_EZI2C.c ****             /* Set default address and mask */
 139:Generated_Source\PSoC4/I2CS_EZI2C.c ****             if(I2CS_EZI2C_PRIMARY_ADDRESS == config->numberOfAddresses)
 140:Generated_Source\PSoC4/I2CS_EZI2C.c ****             {
 141:Generated_Source\PSoC4/I2CS_EZI2C.c ****                 I2CS_RX_MATCH_REG = I2CS_EzI2CUpdateRxMatchReg(config->primarySlaveAddr,
 142:Generated_Source\PSoC4/I2CS_EZI2C.c ****                                                                                        config->prim
 143:Generated_Source\PSoC4/I2CS_EZI2C.c ****             }
 144:Generated_Source\PSoC4/I2CS_EZI2C.c ****             else
 145:Generated_Source\PSoC4/I2CS_EZI2C.c ****             {
 146:Generated_Source\PSoC4/I2CS_EZI2C.c ****                 I2CS_RX_MATCH_REG = I2CS_EzI2CUpdateRxMatchReg(config->primarySlaveAddr,
 147:Generated_Source\PSoC4/I2CS_EZI2C.c ****                                                                                        config->seco
 148:Generated_Source\PSoC4/I2CS_EZI2C.c ****             }
 149:Generated_Source\PSoC4/I2CS_EZI2C.c **** 
 150:Generated_Source\PSoC4/I2CS_EZI2C.c ****             /* Configure TX direction */
 151:Generated_Source\PSoC4/I2CS_EZI2C.c ****             I2CS_TX_CTRL_REG      = I2CS_EZI2C_TX_CTRL;
 152:Generated_Source\PSoC4/I2CS_EZI2C.c ****             I2CS_TX_FIFO_CTRL_REG = ((0u != (config->enableClockStretch)) ?
 153:Generated_Source\PSoC4/I2CS_EZI2C.c ****                                                  I2CS_CLEAR_REG : I2CS_EZI2C_TX_FIFO_CTRL);
 154:Generated_Source\PSoC4/I2CS_EZI2C.c **** 
 155:Generated_Source\PSoC4/I2CS_EZI2C.c ****             /* Configure interrupt sources */
 156:Generated_Source\PSoC4/I2CS_EZI2C.c ****         #if (!I2CS_CY_SCBIP_V1)
 157:Generated_Source\PSoC4/I2CS_EZI2C.c ****            I2CS_INTR_SPI_EC_MASK_REG = I2CS_NO_INTR_SOURCES;
 158:Generated_Source\PSoC4/I2CS_EZI2C.c ****         #endif /* (!I2CS_CY_SCBIP_V1) */
 159:Generated_Source\PSoC4/I2CS_EZI2C.c **** 
 160:Generated_Source\PSoC4/I2CS_EZI2C.c ****             I2CS_INTR_I2C_EC_MASK_REG = I2CS_NO_INTR_SOURCES;
 161:Generated_Source\PSoC4/I2CS_EZI2C.c ****             I2CS_INTR_MASTER_MASK_REG = I2CS_NO_INTR_SOURCES;
 162:Generated_Source\PSoC4/I2CS_EZI2C.c ****             I2CS_INTR_SLAVE_MASK_REG  = I2CS_EZI2C_INTR_SLAVE_MASK;
 163:Generated_Source\PSoC4/I2CS_EZI2C.c ****             I2CS_INTR_TX_MASK_REG     = I2CS_NO_INTR_SOURCES;
 164:Generated_Source\PSoC4/I2CS_EZI2C.c **** 
 165:Generated_Source\PSoC4/I2CS_EZI2C.c ****             /* Configure interrupt with EZI2C handler but do not enable it */
 166:Generated_Source\PSoC4/I2CS_EZI2C.c ****             CyIntDisable    (I2CS_ISR_NUMBER);
 167:Generated_Source\PSoC4/I2CS_EZI2C.c ****             CyIntSetPriority(I2CS_ISR_NUMBER, I2CS_ISR_PRIORITY);
 168:Generated_Source\PSoC4/I2CS_EZI2C.c ****             (void) CyIntSetVector(I2CS_ISR_NUMBER, (0u != (config->enableClockStretch)) ?
 169:Generated_Source\PSoC4/I2CS_EZI2C.c ****                                                                       (&I2CS_EZI2C_STRETCH_ISR) :
 170:Generated_Source\PSoC4/I2CS_EZI2C.c ****                                                                       (&I2CS_EZI2C_NO_STRETCH_ISR))
 171:Generated_Source\PSoC4/I2CS_EZI2C.c **** 
 172:Generated_Source\PSoC4/I2CS_EZI2C.c ****             if(0u != (config->enableClockStretch))
 173:Generated_Source\PSoC4/I2CS_EZI2C.c ****             {
 174:Generated_Source\PSoC4/I2CS_EZI2C.c ****                 /* Configure interrupt sources */
 175:Generated_Source\PSoC4/I2CS_EZI2C.c ****                 I2CS_INTR_SLAVE_MASK_REG |= I2CS_INTR_SLAVE_I2C_ADDR_MATCH;
 176:Generated_Source\PSoC4/I2CS_EZI2C.c ****                 I2CS_INTR_RX_MASK_REG     = I2CS_NO_INTR_SOURCES;
 177:Generated_Source\PSoC4/I2CS_EZI2C.c ****             }
 178:Generated_Source\PSoC4/I2CS_EZI2C.c ****             else
 179:Generated_Source\PSoC4/I2CS_EZI2C.c ****             {
 180:Generated_Source\PSoC4/I2CS_EZI2C.c ****                 /* Enable Auto ACK/NACK features */
 181:Generated_Source\PSoC4/I2CS_EZI2C.c ****                 I2CS_I2C_CTRL_REG |= I2CS_EZI2C_CTRL_AUTO;
 182:Generated_Source\PSoC4/I2CS_EZI2C.c **** 
 183:Generated_Source\PSoC4/I2CS_EZI2C.c ****                 /* Configure RX interrupt source */
 184:Generated_Source\PSoC4/I2CS_EZI2C.c ****                 I2CS_INTR_SLAVE_MASK_REG |= I2CS_INTR_SLAVE_I2C_START;
 185:Generated_Source\PSoC4/I2CS_EZI2C.c ****                 I2CS_INTR_RX_MASK_REG     = I2CS_INTR_RX_NOT_EMPTY;
 186:Generated_Source\PSoC4/I2CS_EZI2C.c ****             }
 187:Generated_Source\PSoC4/I2CS_EZI2C.c **** 
 188:Generated_Source\PSoC4/I2CS_EZI2C.c ****             /* Configure global variables */
 189:Generated_Source\PSoC4/I2CS_EZI2C.c ****             I2CS_fsmState = I2CS_EZI2C_FSM_IDLE;
 190:Generated_Source\PSoC4/I2CS_EZI2C.c **** 
 191:Generated_Source\PSoC4/I2CS_EZI2C.c ****             I2CS_curStatus  = 0u;
 192:Generated_Source\PSoC4/I2CS_EZI2C.c ****             I2CS_indexBuf1  = 0u;
 193:Generated_Source\PSoC4/I2CS_EZI2C.c ****             I2CS_offsetBuf1 = 0u;
 194:Generated_Source\PSoC4/I2CS_EZI2C.c ****             I2CS_indexBuf2  = 0u;
ARM GAS  C:\Users\alexport\AppData\Local\Temp\ccYhjsve.s 			page 5


 195:Generated_Source\PSoC4/I2CS_EZI2C.c ****             I2CS_offsetBuf2 = 0u;
 196:Generated_Source\PSoC4/I2CS_EZI2C.c **** 
 197:Generated_Source\PSoC4/I2CS_EZI2C.c ****             I2CS_addrBuf1 = (uint8) config->primarySlaveAddr;
 198:Generated_Source\PSoC4/I2CS_EZI2C.c ****             I2CS_addrBuf2 = (uint8) config->secondarySlaveAddr;
 199:Generated_Source\PSoC4/I2CS_EZI2C.c ****         }
 200:Generated_Source\PSoC4/I2CS_EZI2C.c ****     }
 201:Generated_Source\PSoC4/I2CS_EZI2C.c **** 
 202:Generated_Source\PSoC4/I2CS_EZI2C.c **** #else
 203:Generated_Source\PSoC4/I2CS_EZI2C.c **** 
 204:Generated_Source\PSoC4/I2CS_EZI2C.c ****     /*******************************************************************************
 205:Generated_Source\PSoC4/I2CS_EZI2C.c ****     * Function Name: I2CS_EzI2CInit
 206:Generated_Source\PSoC4/I2CS_EZI2C.c ****     ****************************************************************************//**
 207:Generated_Source\PSoC4/I2CS_EZI2C.c ****     *
 208:Generated_Source\PSoC4/I2CS_EZI2C.c ****     *  Configures the SCB for the EZI2C operation.
 209:Generated_Source\PSoC4/I2CS_EZI2C.c ****     *
 210:Generated_Source\PSoC4/I2CS_EZI2C.c ****     *******************************************************************************/
 211:Generated_Source\PSoC4/I2CS_EZI2C.c ****     void I2CS_EzI2CInit(void)
 212:Generated_Source\PSoC4/I2CS_EZI2C.c ****     {
  35              		.loc 1 212 0
  36              		.cfi_startproc
  37              		@ args = 0, pretend = 0, frame = 0
  38              		@ frame_needed = 1, uses_anonymous_args = 0
  39 0000 80B5     		push	{r7, lr}
  40              		.cfi_def_cfa_offset 8
  41              		.cfi_offset 7, -8
  42              		.cfi_offset 14, -4
  43 0002 00AF     		add	r7, sp, #0
  44              		.cfi_def_cfa_register 7
 213:Generated_Source\PSoC4/I2CS_EZI2C.c ****         /* Configure I2C interface */
 214:Generated_Source\PSoC4/I2CS_EZI2C.c ****         I2CS_CTRL_REG     = I2CS_EZI2C_DEFAULT_CTRL;
  45              		.loc 1 214 0
  46 0004 214B     		ldr	r3, .L2
  47 0006 8022     		movs	r2, #128
  48 0008 5200     		lsls	r2, r2, #1
  49 000a 1A60     		str	r2, [r3]
 215:Generated_Source\PSoC4/I2CS_EZI2C.c ****         I2CS_I2C_CTRL_REG = I2CS_EZI2C_DEFAULT_I2C_CTRL;
  50              		.loc 1 215 0
  51 000c 204B     		ldr	r3, .L2+4
  52 000e 214A     		ldr	r2, .L2+8
  53 0010 1A60     		str	r2, [r3]
 216:Generated_Source\PSoC4/I2CS_EZI2C.c **** 
 217:Generated_Source\PSoC4/I2CS_EZI2C.c ****     #if (I2CS_CY_SCBIP_V0)
 218:Generated_Source\PSoC4/I2CS_EZI2C.c ****         /* Adjust SDA filter settings. Ticket ID#150521 */
 219:Generated_Source\PSoC4/I2CS_EZI2C.c ****         I2CS_SET_I2C_CFG_SDA_FILT_TRIM(I2CS_EC_AM_I2C_CFG_SDA_FILT_TRIM);
 220:Generated_Source\PSoC4/I2CS_EZI2C.c ****     #endif /* (I2CS_CY_SCBIP_V0) */
 221:Generated_Source\PSoC4/I2CS_EZI2C.c **** 
 222:Generated_Source\PSoC4/I2CS_EZI2C.c ****         /* Configure RX direction */
 223:Generated_Source\PSoC4/I2CS_EZI2C.c ****         I2CS_RX_CTRL_REG      = I2CS_EZI2C_DEFAULT_RX_CTRL;
  54              		.loc 1 223 0
  55 0012 214B     		ldr	r3, .L2+12
  56 0014 214A     		ldr	r2, .L2+16
  57 0016 1A60     		str	r2, [r3]
 224:Generated_Source\PSoC4/I2CS_EZI2C.c ****         I2CS_RX_FIFO_CTRL_REG = I2CS_EZI2C_DEFAULT_RX_FIFO_CTRL;
  58              		.loc 1 224 0
  59 0018 214B     		ldr	r3, .L2+20
  60 001a 0022     		movs	r2, #0
  61 001c 1A60     		str	r2, [r3]
ARM GAS  C:\Users\alexport\AppData\Local\Temp\ccYhjsve.s 			page 6


 225:Generated_Source\PSoC4/I2CS_EZI2C.c **** 
 226:Generated_Source\PSoC4/I2CS_EZI2C.c ****         /* Set default address and mask */
 227:Generated_Source\PSoC4/I2CS_EZI2C.c ****         I2CS_RX_MATCH_REG     = I2CS_EZI2C_DEFAULT_RX_MATCH;
  62              		.loc 1 227 0
  63 001e 214B     		ldr	r3, .L2+24
  64 0020 214A     		ldr	r2, .L2+28
  65 0022 1A60     		str	r2, [r3]
 228:Generated_Source\PSoC4/I2CS_EZI2C.c **** 
 229:Generated_Source\PSoC4/I2CS_EZI2C.c ****         /* Configure TX direction */
 230:Generated_Source\PSoC4/I2CS_EZI2C.c ****         I2CS_TX_CTRL_REG      = I2CS_EZI2C_DEFAULT_TX_CTRL;
  66              		.loc 1 230 0
  67 0024 214B     		ldr	r3, .L2+32
  68 0026 1D4A     		ldr	r2, .L2+16
  69 0028 1A60     		str	r2, [r3]
 231:Generated_Source\PSoC4/I2CS_EZI2C.c ****         I2CS_TX_FIFO_CTRL_REG = I2CS_EZI2C_DEFAULT_TX_FIFO_CTRL;
  70              		.loc 1 231 0
  71 002a 214B     		ldr	r3, .L2+36
  72 002c 0022     		movs	r2, #0
  73 002e 1A60     		str	r2, [r3]
 232:Generated_Source\PSoC4/I2CS_EZI2C.c **** 
 233:Generated_Source\PSoC4/I2CS_EZI2C.c ****         /* Configure interrupt with EZI2C handler but do not enable it */
 234:Generated_Source\PSoC4/I2CS_EZI2C.c ****     #if !defined (CY_EXTERNAL_INTERRUPT_CONFIG)
 235:Generated_Source\PSoC4/I2CS_EZI2C.c ****         CyIntDisable    (I2CS_ISR_NUMBER);
  74              		.loc 1 235 0
  75 0030 0A20     		movs	r0, #10
  76 0032 FFF7FEFF 		bl	CyIntDisable
 236:Generated_Source\PSoC4/I2CS_EZI2C.c ****         CyIntSetPriority(I2CS_ISR_NUMBER, I2CS_ISR_PRIORITY);
  77              		.loc 1 236 0
  78 0036 0321     		movs	r1, #3
  79 0038 0A20     		movs	r0, #10
  80 003a FFF7FEFF 		bl	CyIntSetPriority
 237:Generated_Source\PSoC4/I2CS_EZI2C.c **** 
 238:Generated_Source\PSoC4/I2CS_EZI2C.c ****     #if (I2CS_EZI2C_SCL_STRETCH_ENABLE_CONST)
 239:Generated_Source\PSoC4/I2CS_EZI2C.c ****         (void) CyIntSetVector(I2CS_ISR_NUMBER, &I2CS_EZI2C_STRETCH_ISR);
  81              		.loc 1 239 0
  82 003e 1D4B     		ldr	r3, .L2+40
  83 0040 1900     		movs	r1, r3
  84 0042 0A20     		movs	r0, #10
  85 0044 FFF7FEFF 		bl	CyIntSetVector
 240:Generated_Source\PSoC4/I2CS_EZI2C.c ****     #else
 241:Generated_Source\PSoC4/I2CS_EZI2C.c ****         (void) CyIntSetVector(I2CS_ISR_NUMBER, &I2CS_EZI2C_NO_STRETCH_ISR);
 242:Generated_Source\PSoC4/I2CS_EZI2C.c ****     #endif /* (I2CS_EZI2C_SCL_STRETCH_ENABLE_CONST) */
 243:Generated_Source\PSoC4/I2CS_EZI2C.c **** 
 244:Generated_Source\PSoC4/I2CS_EZI2C.c ****     #endif /* !defined (CY_EXTERNAL_INTERRUPT_CONFIG) */
 245:Generated_Source\PSoC4/I2CS_EZI2C.c **** 
 246:Generated_Source\PSoC4/I2CS_EZI2C.c ****         /* Configure interrupt sources */
 247:Generated_Source\PSoC4/I2CS_EZI2C.c ****     #if (!I2CS_CY_SCBIP_V1)
 248:Generated_Source\PSoC4/I2CS_EZI2C.c ****         I2CS_INTR_SPI_EC_MASK_REG = I2CS_EZI2C_DEFAULT_INTR_SPI_EC_MASK;
  86              		.loc 1 248 0
  87 0048 1B4B     		ldr	r3, .L2+44
  88 004a 0022     		movs	r2, #0
  89 004c 1A60     		str	r2, [r3]
 249:Generated_Source\PSoC4/I2CS_EZI2C.c ****     #endif /* (!I2CS_CY_SCBIP_V1) */
 250:Generated_Source\PSoC4/I2CS_EZI2C.c **** 
 251:Generated_Source\PSoC4/I2CS_EZI2C.c ****         I2CS_INTR_I2C_EC_MASK_REG = I2CS_EZI2C_DEFAULT_INTR_I2C_EC_MASK;
  90              		.loc 1 251 0
  91 004e 1B4B     		ldr	r3, .L2+48
ARM GAS  C:\Users\alexport\AppData\Local\Temp\ccYhjsve.s 			page 7


  92 0050 0022     		movs	r2, #0
  93 0052 1A60     		str	r2, [r3]
 252:Generated_Source\PSoC4/I2CS_EZI2C.c ****         I2CS_INTR_SLAVE_MASK_REG  = I2CS_EZI2C_DEFAULT_INTR_SLAVE_MASK;
  94              		.loc 1 252 0
  95 0054 1A4B     		ldr	r3, .L2+52
  96 0056 5222     		movs	r2, #82
  97 0058 FF32     		adds	r2, r2, #255
  98 005a 1A60     		str	r2, [r3]
 253:Generated_Source\PSoC4/I2CS_EZI2C.c ****         I2CS_INTR_MASTER_MASK_REG = I2CS_EZI2C_DEFAULT_INTR_MASTER_MASK;
  99              		.loc 1 253 0
 100 005c 194B     		ldr	r3, .L2+56
 101 005e 0022     		movs	r2, #0
 102 0060 1A60     		str	r2, [r3]
 254:Generated_Source\PSoC4/I2CS_EZI2C.c ****         I2CS_INTR_RX_MASK_REG     = I2CS_EZI2C_DEFAULT_INTR_RX_MASK;
 103              		.loc 1 254 0
 104 0062 194B     		ldr	r3, .L2+60
 105 0064 0022     		movs	r2, #0
 106 0066 1A60     		str	r2, [r3]
 255:Generated_Source\PSoC4/I2CS_EZI2C.c ****         I2CS_INTR_TX_MASK_REG     = I2CS_EZI2C_DEFAULT_INTR_TX_MASK;
 107              		.loc 1 255 0
 108 0068 184B     		ldr	r3, .L2+64
 109 006a 0022     		movs	r2, #0
 110 006c 1A60     		str	r2, [r3]
 256:Generated_Source\PSoC4/I2CS_EZI2C.c **** 
 257:Generated_Source\PSoC4/I2CS_EZI2C.c ****         /* Configure global variables */
 258:Generated_Source\PSoC4/I2CS_EZI2C.c ****         I2CS_fsmState = I2CS_EZI2C_FSM_IDLE;
 111              		.loc 1 258 0
 112 006e 184B     		ldr	r3, .L2+68
 113 0070 0022     		movs	r2, #0
 114 0072 1A70     		strb	r2, [r3]
 259:Generated_Source\PSoC4/I2CS_EZI2C.c **** 
 260:Generated_Source\PSoC4/I2CS_EZI2C.c ****         I2CS_curStatus  = 0u;
 115              		.loc 1 260 0
 116 0074 174B     		ldr	r3, .L2+72
 117 0076 0022     		movs	r2, #0
 118 0078 1A70     		strb	r2, [r3]
 261:Generated_Source\PSoC4/I2CS_EZI2C.c ****         I2CS_indexBuf1  = 0u;
 119              		.loc 1 261 0
 120 007a 174B     		ldr	r3, .L2+76
 121 007c 0022     		movs	r2, #0
 122 007e 1A80     		strh	r2, [r3]
 262:Generated_Source\PSoC4/I2CS_EZI2C.c ****         I2CS_offsetBuf1 = 0u;
 123              		.loc 1 262 0
 124 0080 164B     		ldr	r3, .L2+80
 125 0082 0022     		movs	r2, #0
 126 0084 1A70     		strb	r2, [r3]
 263:Generated_Source\PSoC4/I2CS_EZI2C.c **** 
 264:Generated_Source\PSoC4/I2CS_EZI2C.c ****     #if(I2CS_SECONDARY_ADDRESS_ENABLE_CONST)
 265:Generated_Source\PSoC4/I2CS_EZI2C.c ****         I2CS_indexBuf2  = 0u;
 266:Generated_Source\PSoC4/I2CS_EZI2C.c ****         I2CS_offsetBuf2 = 0u;
 267:Generated_Source\PSoC4/I2CS_EZI2C.c **** 
 268:Generated_Source\PSoC4/I2CS_EZI2C.c ****         I2CS_addrBuf1 = I2CS_EZI2C_PRIMARY_SLAVE_ADDRESS;
 269:Generated_Source\PSoC4/I2CS_EZI2C.c ****         I2CS_addrBuf2 = I2CS_EZI2C_SECONDARY_SLAVE_ADDRESS;
 270:Generated_Source\PSoC4/I2CS_EZI2C.c ****     #endif /* (I2CS_SECONDARY_ADDRESS_ENABLE_CONST) */
 271:Generated_Source\PSoC4/I2CS_EZI2C.c ****     }
 127              		.loc 1 271 0
 128 0086 C046     		nop
ARM GAS  C:\Users\alexport\AppData\Local\Temp\ccYhjsve.s 			page 8


 129 0088 BD46     		mov	sp, r7
 130              		@ sp needed
 131 008a 80BD     		pop	{r7, pc}
 132              	.L3:
 133              		.align	2
 134              	.L2:
 135 008c 00002540 		.word	1076166656
 136 0090 60002540 		.word	1076166752
 137 0094 00080040 		.word	1073743872
 138 0098 00032540 		.word	1076167424
 139 009c 07010080 		.word	-2147483385
 140 00a0 04032540 		.word	1076167428
 141 00a4 10032540 		.word	1076167440
 142 00a8 4000FE00 		.word	16646208
 143 00ac 00022540 		.word	1076167168
 144 00b0 04022540 		.word	1076167172
 145 00b4 00000000 		.word	I2CS_EZI2C_STRETCH_ISR
 146 00b8 C80E2540 		.word	1076170440
 147 00bc 880E2540 		.word	1076170376
 148 00c0 480F2540 		.word	1076170568
 149 00c4 080F2540 		.word	1076170504
 150 00c8 C80F2540 		.word	1076170696
 151 00cc 880F2540 		.word	1076170632
 152 00d0 00000000 		.word	I2CS_fsmState
 153 00d4 00000000 		.word	I2CS_curStatus
 154 00d8 00000000 		.word	I2CS_indexBuf1
 155 00dc 00000000 		.word	I2CS_offsetBuf1
 156              		.cfi_endproc
 157              	.LFE2:
 158              		.size	I2CS_EzI2CInit, .-I2CS_EzI2CInit
 159              		.section	.text.I2CS_EzI2CStop,"ax",%progbits
 160              		.align	2
 161              		.global	I2CS_EzI2CStop
 162              		.code	16
 163              		.thumb_func
 164              		.type	I2CS_EzI2CStop, %function
 165              	I2CS_EzI2CStop:
 166              	.LFB3:
 272:Generated_Source\PSoC4/I2CS_EZI2C.c **** #endif /* (I2CS_SCB_MODE_UNCONFIG_CONST_CFG) */
 273:Generated_Source\PSoC4/I2CS_EZI2C.c **** 
 274:Generated_Source\PSoC4/I2CS_EZI2C.c **** 
 275:Generated_Source\PSoC4/I2CS_EZI2C.c **** /*******************************************************************************
 276:Generated_Source\PSoC4/I2CS_EZI2C.c **** * Function Name: I2CS_EzI2CStop
 277:Generated_Source\PSoC4/I2CS_EZI2C.c **** ****************************************************************************//**
 278:Generated_Source\PSoC4/I2CS_EZI2C.c **** *
 279:Generated_Source\PSoC4/I2CS_EZI2C.c **** *  Resets the EZI2C FSM into the default state.
 280:Generated_Source\PSoC4/I2CS_EZI2C.c **** *
 281:Generated_Source\PSoC4/I2CS_EZI2C.c **** *******************************************************************************/
 282:Generated_Source\PSoC4/I2CS_EZI2C.c **** void I2CS_EzI2CStop(void)
 283:Generated_Source\PSoC4/I2CS_EZI2C.c **** {
 167              		.loc 1 283 0
 168              		.cfi_startproc
 169              		@ args = 0, pretend = 0, frame = 0
 170              		@ frame_needed = 1, uses_anonymous_args = 0
 171 0000 80B5     		push	{r7, lr}
 172              		.cfi_def_cfa_offset 8
 173              		.cfi_offset 7, -8
ARM GAS  C:\Users\alexport\AppData\Local\Temp\ccYhjsve.s 			page 9


 174              		.cfi_offset 14, -4
 175 0002 00AF     		add	r7, sp, #0
 176              		.cfi_def_cfa_register 7
 284:Generated_Source\PSoC4/I2CS_EZI2C.c ****     I2CS_fsmState = I2CS_EZI2C_FSM_IDLE;
 177              		.loc 1 284 0
 178 0004 024B     		ldr	r3, .L5
 179 0006 0022     		movs	r2, #0
 180 0008 1A70     		strb	r2, [r3]
 285:Generated_Source\PSoC4/I2CS_EZI2C.c **** }
 181              		.loc 1 285 0
 182 000a C046     		nop
 183 000c BD46     		mov	sp, r7
 184              		@ sp needed
 185 000e 80BD     		pop	{r7, pc}
 186              	.L6:
 187              		.align	2
 188              	.L5:
 189 0010 00000000 		.word	I2CS_fsmState
 190              		.cfi_endproc
 191              	.LFE3:
 192              		.size	I2CS_EzI2CStop, .-I2CS_EzI2CStop
 193              		.section	.text.I2CS_EzI2CGetActivity,"ax",%progbits
 194              		.align	2
 195              		.global	I2CS_EzI2CGetActivity
 196              		.code	16
 197              		.thumb_func
 198              		.type	I2CS_EzI2CGetActivity, %function
 199              	I2CS_EzI2CGetActivity:
 200              	.LFB4:
 286:Generated_Source\PSoC4/I2CS_EZI2C.c **** 
 287:Generated_Source\PSoC4/I2CS_EZI2C.c **** 
 288:Generated_Source\PSoC4/I2CS_EZI2C.c **** /*******************************************************************************
 289:Generated_Source\PSoC4/I2CS_EZI2C.c **** * Function Name: I2CS_EzI2CGetActivity
 290:Generated_Source\PSoC4/I2CS_EZI2C.c **** ****************************************************************************//**
 291:Generated_Source\PSoC4/I2CS_EZI2C.c **** *
 292:Generated_Source\PSoC4/I2CS_EZI2C.c **** *  Returns the EZI2C slave status.
 293:Generated_Source\PSoC4/I2CS_EZI2C.c **** *  The read, write and error status flags reset to zero after this function
 294:Generated_Source\PSoC4/I2CS_EZI2C.c **** *  call. The busy status flag is cleared when the transaction intended for
 295:Generated_Source\PSoC4/I2CS_EZI2C.c **** *  the EZI2C slave completes.
 296:Generated_Source\PSoC4/I2CS_EZI2C.c **** *
 297:Generated_Source\PSoC4/I2CS_EZI2C.c **** * \return
 298:Generated_Source\PSoC4/I2CS_EZI2C.c **** *  Returns the status of the EZI2C Slave activity.
 299:Generated_Source\PSoC4/I2CS_EZI2C.c **** *  - I2CS_EZI2C_STATUS_READ1 - Read transfer complete. The transfer 
 300:Generated_Source\PSoC4/I2CS_EZI2C.c **** *    used the primary slave address. The error condition status bit must be 
 301:Generated_Source\PSoC4/I2CS_EZI2C.c **** *    checked to ensure that read transfer was completed successfully.
 302:Generated_Source\PSoC4/I2CS_EZI2C.c **** *  - I2CS_EZI2C_STATUS_WRITE1 - Write transfer complete. The buffer 
 303:Generated_Source\PSoC4/I2CS_EZI2C.c **** *    content was modified. The transfer used the primary slave address. 
 304:Generated_Source\PSoC4/I2CS_EZI2C.c **** *    The error condition status bit must be checked to ensure that write 
 305:Generated_Source\PSoC4/I2CS_EZI2C.c **** *    transfer was completed successfully.
 306:Generated_Source\PSoC4/I2CS_EZI2C.c **** *  - I2CS_EZI2C_STATUS_READ2 - Read transfer complete. The transfer
 307:Generated_Source\PSoC4/I2CS_EZI2C.c **** *    used the secondary slave address. The error condition status bit must be 
 308:Generated_Source\PSoC4/I2CS_EZI2C.c **** *    checked to ensure that read transfer was completed successfully.
 309:Generated_Source\PSoC4/I2CS_EZI2C.c **** *  - I2CS_EZI2C_STATUS_WRITE2 - Write transfer complete. The buffer
 310:Generated_Source\PSoC4/I2CS_EZI2C.c **** *    content was modified. The transfer used the secondary slave address. 
 311:Generated_Source\PSoC4/I2CS_EZI2C.c **** *    The error condition status bit must be checked to ensure that write 
 312:Generated_Source\PSoC4/I2CS_EZI2C.c **** *    transfer was completed successfully.
 313:Generated_Source\PSoC4/I2CS_EZI2C.c **** *  - I2CS_EZI2C_STATUS_BUSY - A transfer intended for the primary 
ARM GAS  C:\Users\alexport\AppData\Local\Temp\ccYhjsve.s 			page 10


 314:Generated_Source\PSoC4/I2CS_EZI2C.c **** *    or secondary address is in progress. The status bit is set after an 
 315:Generated_Source\PSoC4/I2CS_EZI2C.c **** *    address match and cleared on a Stop or ReStart condition.
 316:Generated_Source\PSoC4/I2CS_EZI2C.c **** *  - I2CS_EZI2C_STATUS_ERR - An error occurred during a transfer 
 317:Generated_Source\PSoC4/I2CS_EZI2C.c **** *    intended for the primary or secondary slave address. The sources of error
 318:Generated_Source\PSoC4/I2CS_EZI2C.c **** *    are: misplaced Start or Stop condition or lost arbitration while slave 
 319:Generated_Source\PSoC4/I2CS_EZI2C.c **** *    drives SDA.
 320:Generated_Source\PSoC4/I2CS_EZI2C.c **** *    The write buffer may contain invalid byte or part of the transaction when 
 321:Generated_Source\PSoC4/I2CS_EZI2C.c **** *    I2CS_EZI2C_STATUS_ERR and I2CS_EZI2C_STATUS_WRITE1/2 
 322:Generated_Source\PSoC4/I2CS_EZI2C.c **** *    is set. It is recommended to discard buffer content in this case.
 323:Generated_Source\PSoC4/I2CS_EZI2C.c **** *
 324:Generated_Source\PSoC4/I2CS_EZI2C.c **** * \globalvars
 325:Generated_Source\PSoC4/I2CS_EZI2C.c **** *  I2CS_curStatus - used to store the current status of the EZI2C 
 326:Generated_Source\PSoC4/I2CS_EZI2C.c **** *  slave.
 327:Generated_Source\PSoC4/I2CS_EZI2C.c **** *
 328:Generated_Source\PSoC4/I2CS_EZI2C.c **** *******************************************************************************/
 329:Generated_Source\PSoC4/I2CS_EZI2C.c **** uint32 I2CS_EzI2CGetActivity(void)
 330:Generated_Source\PSoC4/I2CS_EZI2C.c **** {
 201              		.loc 1 330 0
 202              		.cfi_startproc
 203              		@ args = 0, pretend = 0, frame = 8
 204              		@ frame_needed = 1, uses_anonymous_args = 0
 205 0000 80B5     		push	{r7, lr}
 206              		.cfi_def_cfa_offset 8
 207              		.cfi_offset 7, -8
 208              		.cfi_offset 14, -4
 209 0002 82B0     		sub	sp, sp, #8
 210              		.cfi_def_cfa_offset 16
 211 0004 00AF     		add	r7, sp, #0
 212              		.cfi_def_cfa_register 7
 331:Generated_Source\PSoC4/I2CS_EZI2C.c ****     uint32 status;
 332:Generated_Source\PSoC4/I2CS_EZI2C.c **** 
 333:Generated_Source\PSoC4/I2CS_EZI2C.c ****     I2CS_DisableInt();  /* Lock from interruption */
 213              		.loc 1 333 0
 214 0006 0A20     		movs	r0, #10
 215 0008 FFF7FEFF 		bl	CyIntDisable
 334:Generated_Source\PSoC4/I2CS_EZI2C.c **** 
 335:Generated_Source\PSoC4/I2CS_EZI2C.c ****     status = I2CS_curStatus;
 216              		.loc 1 335 0
 217 000c 094B     		ldr	r3, .L9
 218 000e 1B78     		ldrb	r3, [r3]
 219 0010 DBB2     		uxtb	r3, r3
 220 0012 7B60     		str	r3, [r7, #4]
 336:Generated_Source\PSoC4/I2CS_EZI2C.c **** 
 337:Generated_Source\PSoC4/I2CS_EZI2C.c ****     /* Relay on address match event from HW as bus busy status */
 338:Generated_Source\PSoC4/I2CS_EZI2C.c ****     #if(I2CS_EZI2C_SCL_STRETCH_DISABLE)
 339:Generated_Source\PSoC4/I2CS_EZI2C.c ****     {
 340:Generated_Source\PSoC4/I2CS_EZI2C.c ****         /* For I2CS_CY_SCBIP_V0 the wake is prohibited by customizer */
 341:Generated_Source\PSoC4/I2CS_EZI2C.c ****         #if(I2CS_EZI2C_EC_AM_ENABLE)
 342:Generated_Source\PSoC4/I2CS_EZI2C.c ****         {
 343:Generated_Source\PSoC4/I2CS_EZI2C.c ****             status |= I2CS_CHECK_INTR_I2C_EC(I2CS_INTR_I2C_EC_WAKE_UP) ?
 344:Generated_Source\PSoC4/I2CS_EZI2C.c ****                         I2CS_EZI2C_STATUS_BUSY : 0u;
 345:Generated_Source\PSoC4/I2CS_EZI2C.c ****         }
 346:Generated_Source\PSoC4/I2CS_EZI2C.c ****         #else
 347:Generated_Source\PSoC4/I2CS_EZI2C.c ****         {
 348:Generated_Source\PSoC4/I2CS_EZI2C.c ****             status |= I2CS_CHECK_INTR_SLAVE(I2CS_INTR_SLAVE_I2C_ADDR_MATCH) ?
 349:Generated_Source\PSoC4/I2CS_EZI2C.c ****                         I2CS_EZI2C_STATUS_BUSY : 0u;
 350:Generated_Source\PSoC4/I2CS_EZI2C.c ****         }
ARM GAS  C:\Users\alexport\AppData\Local\Temp\ccYhjsve.s 			page 11


 351:Generated_Source\PSoC4/I2CS_EZI2C.c ****         #endif
 352:Generated_Source\PSoC4/I2CS_EZI2C.c ****     }
 353:Generated_Source\PSoC4/I2CS_EZI2C.c ****     #endif
 354:Generated_Source\PSoC4/I2CS_EZI2C.c **** 
 355:Generated_Source\PSoC4/I2CS_EZI2C.c ****     I2CS_curStatus &= ((uint8) ~I2CS_EZI2C_CLEAR_STATUS);
 221              		.loc 1 355 0
 222 0014 074B     		ldr	r3, .L9
 223 0016 1B78     		ldrb	r3, [r3]
 224 0018 DBB2     		uxtb	r3, r3
 225 001a 1F22     		movs	r2, #31
 226 001c 9343     		bics	r3, r2
 227 001e DAB2     		uxtb	r2, r3
 228 0020 044B     		ldr	r3, .L9
 229 0022 1A70     		strb	r2, [r3]
 356:Generated_Source\PSoC4/I2CS_EZI2C.c **** 
 357:Generated_Source\PSoC4/I2CS_EZI2C.c ****     I2CS_EnableInt();   /* Release lock */
 230              		.loc 1 357 0
 231 0024 0A20     		movs	r0, #10
 232 0026 FFF7FEFF 		bl	CyIntEnable
 358:Generated_Source\PSoC4/I2CS_EZI2C.c **** 
 359:Generated_Source\PSoC4/I2CS_EZI2C.c ****     return(status);
 233              		.loc 1 359 0
 234 002a 7B68     		ldr	r3, [r7, #4]
 360:Generated_Source\PSoC4/I2CS_EZI2C.c **** }
 235              		.loc 1 360 0
 236 002c 1800     		movs	r0, r3
 237 002e BD46     		mov	sp, r7
 238 0030 02B0     		add	sp, sp, #8
 239              		@ sp needed
 240 0032 80BD     		pop	{r7, pc}
 241              	.L10:
 242              		.align	2
 243              	.L9:
 244 0034 00000000 		.word	I2CS_curStatus
 245              		.cfi_endproc
 246              	.LFE4:
 247              		.size	I2CS_EzI2CGetActivity, .-I2CS_EzI2CGetActivity
 248              		.section	.text.I2CS_EzI2CSetAddress1,"ax",%progbits
 249              		.align	2
 250              		.global	I2CS_EzI2CSetAddress1
 251              		.code	16
 252              		.thumb_func
 253              		.type	I2CS_EzI2CSetAddress1, %function
 254              	I2CS_EzI2CSetAddress1:
 255              	.LFB5:
 361:Generated_Source\PSoC4/I2CS_EZI2C.c **** 
 362:Generated_Source\PSoC4/I2CS_EZI2C.c **** 
 363:Generated_Source\PSoC4/I2CS_EZI2C.c **** /*******************************************************************************
 364:Generated_Source\PSoC4/I2CS_EZI2C.c **** * Function Name: I2CS_EzI2CSetAddress1
 365:Generated_Source\PSoC4/I2CS_EZI2C.c **** ****************************************************************************//**
 366:Generated_Source\PSoC4/I2CS_EZI2C.c **** *
 367:Generated_Source\PSoC4/I2CS_EZI2C.c **** *  Sets the primary EZI2C slave address.
 368:Generated_Source\PSoC4/I2CS_EZI2C.c **** *
 369:Generated_Source\PSoC4/I2CS_EZI2C.c **** * \param address: I2C slave address for the secondary device.
 370:Generated_Source\PSoC4/I2CS_EZI2C.c **** *  This address is the 7-bit right-justified slave address and does not 
 371:Generated_Source\PSoC4/I2CS_EZI2C.c **** *   include the R/W bit.
 372:Generated_Source\PSoC4/I2CS_EZI2C.c **** *
ARM GAS  C:\Users\alexport\AppData\Local\Temp\ccYhjsve.s 			page 12


 373:Generated_Source\PSoC4/I2CS_EZI2C.c **** *  The address value is not checked to see if it violates the I2C spec. 
 374:Generated_Source\PSoC4/I2CS_EZI2C.c **** *  The preferred addresses are in the range between 8 and 120 (0x08 to 0x78).
 375:Generated_Source\PSoC4/I2CS_EZI2C.c **** *
 376:Generated_Source\PSoC4/I2CS_EZI2C.c **** * \globalvars
 377:Generated_Source\PSoC4/I2CS_EZI2C.c **** *  I2CS_addrBuf1 - used to store the primary 7-bit slave address 
 378:Generated_Source\PSoC4/I2CS_EZI2C.c **** *  value.
 379:Generated_Source\PSoC4/I2CS_EZI2C.c **** *
 380:Generated_Source\PSoC4/I2CS_EZI2C.c **** *******************************************************************************/
 381:Generated_Source\PSoC4/I2CS_EZI2C.c **** void I2CS_EzI2CSetAddress1(uint32 address)
 382:Generated_Source\PSoC4/I2CS_EZI2C.c **** {
 256              		.loc 1 382 0
 257              		.cfi_startproc
 258              		@ args = 0, pretend = 0, frame = 16
 259              		@ frame_needed = 1, uses_anonymous_args = 0
 260 0000 80B5     		push	{r7, lr}
 261              		.cfi_def_cfa_offset 8
 262              		.cfi_offset 7, -8
 263              		.cfi_offset 14, -4
 264 0002 84B0     		sub	sp, sp, #16
 265              		.cfi_def_cfa_offset 24
 266 0004 00AF     		add	r7, sp, #0
 267              		.cfi_def_cfa_register 7
 268 0006 7860     		str	r0, [r7, #4]
 269              	.LBB2:
 383:Generated_Source\PSoC4/I2CS_EZI2C.c ****     #if(I2CS_SECONDARY_ADDRESS_ENABLE)
 384:Generated_Source\PSoC4/I2CS_EZI2C.c ****     {
 385:Generated_Source\PSoC4/I2CS_EZI2C.c ****         I2CS_addrBuf1 = (uint8) address;
 386:Generated_Source\PSoC4/I2CS_EZI2C.c **** 
 387:Generated_Source\PSoC4/I2CS_EZI2C.c ****         I2CS_RX_MATCH_REG = 
 388:Generated_Source\PSoC4/I2CS_EZI2C.c ****                         I2CS_EzI2CUpdateRxMatchReg(address, (uint32) I2CS_addrBuf2);
 389:Generated_Source\PSoC4/I2CS_EZI2C.c ****     }
 390:Generated_Source\PSoC4/I2CS_EZI2C.c ****     #else
 391:Generated_Source\PSoC4/I2CS_EZI2C.c ****     {
 392:Generated_Source\PSoC4/I2CS_EZI2C.c ****         uint32 matchReg;
 393:Generated_Source\PSoC4/I2CS_EZI2C.c **** 
 394:Generated_Source\PSoC4/I2CS_EZI2C.c ****         matchReg = I2CS_RX_MATCH_REG;
 270              		.loc 1 394 0
 271 0008 0A4B     		ldr	r3, .L12
 272 000a 1B68     		ldr	r3, [r3]
 273 000c FB60     		str	r3, [r7, #12]
 395:Generated_Source\PSoC4/I2CS_EZI2C.c **** 
 396:Generated_Source\PSoC4/I2CS_EZI2C.c ****         /* Set address. */
 397:Generated_Source\PSoC4/I2CS_EZI2C.c ****         matchReg &= (uint32) ~I2CS_RX_MATCH_ADDR_MASK;
 274              		.loc 1 397 0
 275 000e FB68     		ldr	r3, [r7, #12]
 276 0010 FF22     		movs	r2, #255
 277 0012 9343     		bics	r3, r2
 278 0014 FB60     		str	r3, [r7, #12]
 398:Generated_Source\PSoC4/I2CS_EZI2C.c ****         matchReg |= (uint32)  I2CS_GET_I2C_8BIT_ADDRESS(address);
 279              		.loc 1 398 0
 280 0016 7B68     		ldr	r3, [r7, #4]
 281 0018 5B00     		lsls	r3, r3, #1
 282 001a FF22     		movs	r2, #255
 283 001c 1340     		ands	r3, r2
 284 001e FA68     		ldr	r2, [r7, #12]
 285 0020 1343     		orrs	r3, r2
 286 0022 FB60     		str	r3, [r7, #12]
ARM GAS  C:\Users\alexport\AppData\Local\Temp\ccYhjsve.s 			page 13


 399:Generated_Source\PSoC4/I2CS_EZI2C.c **** 
 400:Generated_Source\PSoC4/I2CS_EZI2C.c ****         I2CS_RX_MATCH_REG = matchReg;
 287              		.loc 1 400 0
 288 0024 034B     		ldr	r3, .L12
 289 0026 FA68     		ldr	r2, [r7, #12]
 290 0028 1A60     		str	r2, [r3]
 291              	.LBE2:
 401:Generated_Source\PSoC4/I2CS_EZI2C.c ****     }
 402:Generated_Source\PSoC4/I2CS_EZI2C.c ****     #endif
 403:Generated_Source\PSoC4/I2CS_EZI2C.c **** }
 292              		.loc 1 403 0
 293 002a C046     		nop
 294 002c BD46     		mov	sp, r7
 295 002e 04B0     		add	sp, sp, #16
 296              		@ sp needed
 297 0030 80BD     		pop	{r7, pc}
 298              	.L13:
 299 0032 C046     		.align	2
 300              	.L12:
 301 0034 10032540 		.word	1076167440
 302              		.cfi_endproc
 303              	.LFE5:
 304              		.size	I2CS_EzI2CSetAddress1, .-I2CS_EzI2CSetAddress1
 305              		.section	.text.I2CS_EzI2CGetAddress1,"ax",%progbits
 306              		.align	2
 307              		.global	I2CS_EzI2CGetAddress1
 308              		.code	16
 309              		.thumb_func
 310              		.type	I2CS_EzI2CGetAddress1, %function
 311              	I2CS_EzI2CGetAddress1:
 312              	.LFB6:
 404:Generated_Source\PSoC4/I2CS_EZI2C.c **** 
 405:Generated_Source\PSoC4/I2CS_EZI2C.c **** 
 406:Generated_Source\PSoC4/I2CS_EZI2C.c **** /*******************************************************************************
 407:Generated_Source\PSoC4/I2CS_EZI2C.c **** * Function Name: I2CS_EzI2CGetAddress1
 408:Generated_Source\PSoC4/I2CS_EZI2C.c **** ****************************************************************************//**
 409:Generated_Source\PSoC4/I2CS_EZI2C.c **** *
 410:Generated_Source\PSoC4/I2CS_EZI2C.c **** *  Returns primary the EZ I2C slave address.
 411:Generated_Source\PSoC4/I2CS_EZI2C.c **** *  This address is the 7-bit right-justified slave address and does not include 
 412:Generated_Source\PSoC4/I2CS_EZI2C.c **** *  the R/W bit.
 413:Generated_Source\PSoC4/I2CS_EZI2C.c **** *
 414:Generated_Source\PSoC4/I2CS_EZI2C.c **** * \return
 415:Generated_Source\PSoC4/I2CS_EZI2C.c **** *  Primary EZI2C slave address.
 416:Generated_Source\PSoC4/I2CS_EZI2C.c **** *
 417:Generated_Source\PSoC4/I2CS_EZI2C.c **** * \globalvars
 418:Generated_Source\PSoC4/I2CS_EZI2C.c **** *  I2CS_addrBuf1 - used to store the primary 7-bit slave address 
 419:Generated_Source\PSoC4/I2CS_EZI2C.c **** *  value.
 420:Generated_Source\PSoC4/I2CS_EZI2C.c **** *
 421:Generated_Source\PSoC4/I2CS_EZI2C.c **** *******************************************************************************/
 422:Generated_Source\PSoC4/I2CS_EZI2C.c **** uint32 I2CS_EzI2CGetAddress1(void)
 423:Generated_Source\PSoC4/I2CS_EZI2C.c **** {
 313              		.loc 1 423 0
 314              		.cfi_startproc
 315              		@ args = 0, pretend = 0, frame = 8
 316              		@ frame_needed = 1, uses_anonymous_args = 0
 317 0000 80B5     		push	{r7, lr}
 318              		.cfi_def_cfa_offset 8
ARM GAS  C:\Users\alexport\AppData\Local\Temp\ccYhjsve.s 			page 14


 319              		.cfi_offset 7, -8
 320              		.cfi_offset 14, -4
 321 0002 82B0     		sub	sp, sp, #8
 322              		.cfi_def_cfa_offset 16
 323 0004 00AF     		add	r7, sp, #0
 324              		.cfi_def_cfa_register 7
 424:Generated_Source\PSoC4/I2CS_EZI2C.c ****     uint32 address;
 425:Generated_Source\PSoC4/I2CS_EZI2C.c **** 
 426:Generated_Source\PSoC4/I2CS_EZI2C.c ****     #if(I2CS_SECONDARY_ADDRESS_ENABLE)
 427:Generated_Source\PSoC4/I2CS_EZI2C.c ****     {
 428:Generated_Source\PSoC4/I2CS_EZI2C.c ****         address = (uint32) I2CS_addrBuf1;
 429:Generated_Source\PSoC4/I2CS_EZI2C.c ****     }
 430:Generated_Source\PSoC4/I2CS_EZI2C.c ****     #else
 431:Generated_Source\PSoC4/I2CS_EZI2C.c ****     {
 432:Generated_Source\PSoC4/I2CS_EZI2C.c ****         address = (I2CS_GET_RX_MATCH_ADDR(I2CS_RX_MATCH_REG) >>
 325              		.loc 1 432 0
 326 0006 054B     		ldr	r3, .L16
 327 0008 1B68     		ldr	r3, [r3]
 328 000a FF22     		movs	r2, #255
 329 000c 1340     		ands	r3, r2
 330 000e 5B08     		lsrs	r3, r3, #1
 331 0010 7B60     		str	r3, [r7, #4]
 433:Generated_Source\PSoC4/I2CS_EZI2C.c ****                    I2CS_I2C_SLAVE_ADDR_POS);
 434:Generated_Source\PSoC4/I2CS_EZI2C.c ****     }
 435:Generated_Source\PSoC4/I2CS_EZI2C.c ****     #endif
 436:Generated_Source\PSoC4/I2CS_EZI2C.c **** 
 437:Generated_Source\PSoC4/I2CS_EZI2C.c ****     return(address);
 332              		.loc 1 437 0
 333 0012 7B68     		ldr	r3, [r7, #4]
 438:Generated_Source\PSoC4/I2CS_EZI2C.c **** }
 334              		.loc 1 438 0
 335 0014 1800     		movs	r0, r3
 336 0016 BD46     		mov	sp, r7
 337 0018 02B0     		add	sp, sp, #8
 338              		@ sp needed
 339 001a 80BD     		pop	{r7, pc}
 340              	.L17:
 341              		.align	2
 342              	.L16:
 343 001c 10032540 		.word	1076167440
 344              		.cfi_endproc
 345              	.LFE6:
 346              		.size	I2CS_EzI2CGetAddress1, .-I2CS_EzI2CGetAddress1
 347              		.section	.text.I2CS_EzI2CSetBuffer1,"ax",%progbits
 348              		.align	2
 349              		.global	I2CS_EzI2CSetBuffer1
 350              		.code	16
 351              		.thumb_func
 352              		.type	I2CS_EzI2CSetBuffer1, %function
 353              	I2CS_EzI2CSetBuffer1:
 354              	.LFB7:
 439:Generated_Source\PSoC4/I2CS_EZI2C.c **** 
 440:Generated_Source\PSoC4/I2CS_EZI2C.c **** 
 441:Generated_Source\PSoC4/I2CS_EZI2C.c **** /*******************************************************************************
 442:Generated_Source\PSoC4/I2CS_EZI2C.c **** * Function Name: I2CS_EzI2CSetBuffer1
 443:Generated_Source\PSoC4/I2CS_EZI2C.c **** ****************************************************************************//**
 444:Generated_Source\PSoC4/I2CS_EZI2C.c **** *
ARM GAS  C:\Users\alexport\AppData\Local\Temp\ccYhjsve.s 			page 15


 445:Generated_Source\PSoC4/I2CS_EZI2C.c **** *  Sets up the data buffer to be exposed to the I2C master on a primary slave
 446:Generated_Source\PSoC4/I2CS_EZI2C.c **** *  address request.
 447:Generated_Source\PSoC4/I2CS_EZI2C.c **** *
 448:Generated_Source\PSoC4/I2CS_EZI2C.c **** * \param bufSize: Size of the buffer in bytes.
 449:Generated_Source\PSoC4/I2CS_EZI2C.c **** * \param rwBoundary: Number of data bytes starting from the beginning of the 
 450:Generated_Source\PSoC4/I2CS_EZI2C.c **** *  buffer with read and write access. Data bytes located at offset rwBoundary 
 451:Generated_Source\PSoC4/I2CS_EZI2C.c **** *  or greater are read only.
 452:Generated_Source\PSoC4/I2CS_EZI2C.c **** *  This value must be less than or equal to the buffer size.
 453:Generated_Source\PSoC4/I2CS_EZI2C.c **** * \param buffer: Pointer to the data buffer.
 454:Generated_Source\PSoC4/I2CS_EZI2C.c **** *
 455:Generated_Source\PSoC4/I2CS_EZI2C.c **** * \sideeffect
 456:Generated_Source\PSoC4/I2CS_EZI2C.c **** *  Calling this function in the middle of a transaction intended for the 
 457:Generated_Source\PSoC4/I2CS_EZI2C.c **** *  primary slave address leads to unexpected behavior.
 458:Generated_Source\PSoC4/I2CS_EZI2C.c **** *
 459:Generated_Source\PSoC4/I2CS_EZI2C.c **** * \globalvars
 460:Generated_Source\PSoC4/I2CS_EZI2C.c **** *  I2CS_dataBuffer1 – the pointer to the buffer to be exposed to the
 461:Generated_Source\PSoC4/I2CS_EZI2C.c **** *  master on a primary address.
 462:Generated_Source\PSoC4/I2CS_EZI2C.c **** *  I2CS_bufSizeBuf1 - the size of the buffer to be exposed to the 
 463:Generated_Source\PSoC4/I2CS_EZI2C.c **** *  master on a primary address.
 464:Generated_Source\PSoC4/I2CS_EZI2C.c **** *  I2CS_protectBuf1 - the start index of the read-only region in the
 465:Generated_Source\PSoC4/I2CS_EZI2C.c **** *  buffer to be exposed to the master on a primary address. The read-only region
 466:Generated_Source\PSoC4/I2CS_EZI2C.c **** *  continues up to the end the buffer.
 467:Generated_Source\PSoC4/I2CS_EZI2C.c **** *
 468:Generated_Source\PSoC4/I2CS_EZI2C.c **** *******************************************************************************/
 469:Generated_Source\PSoC4/I2CS_EZI2C.c **** void I2CS_EzI2CSetBuffer1(uint32 bufSize, uint32 rwBoundary, volatile uint8 * buffer)
 470:Generated_Source\PSoC4/I2CS_EZI2C.c **** {
 355              		.loc 1 470 0
 356              		.cfi_startproc
 357              		@ args = 0, pretend = 0, frame = 16
 358              		@ frame_needed = 1, uses_anonymous_args = 0
 359 0000 80B5     		push	{r7, lr}
 360              		.cfi_def_cfa_offset 8
 361              		.cfi_offset 7, -8
 362              		.cfi_offset 14, -4
 363 0002 84B0     		sub	sp, sp, #16
 364              		.cfi_def_cfa_offset 24
 365 0004 00AF     		add	r7, sp, #0
 366              		.cfi_def_cfa_register 7
 367 0006 F860     		str	r0, [r7, #12]
 368 0008 B960     		str	r1, [r7, #8]
 369 000a 7A60     		str	r2, [r7, #4]
 471:Generated_Source\PSoC4/I2CS_EZI2C.c ****     if (NULL != buffer)
 370              		.loc 1 471 0
 371 000c 7B68     		ldr	r3, [r7, #4]
 372 000e 002B     		cmp	r3, #0
 373 0010 10D0     		beq	.L20
 472:Generated_Source\PSoC4/I2CS_EZI2C.c ****     {
 473:Generated_Source\PSoC4/I2CS_EZI2C.c ****         I2CS_DisableInt();  /* Lock from interruption */
 374              		.loc 1 473 0
 375 0012 0A20     		movs	r0, #10
 376 0014 FFF7FEFF 		bl	CyIntDisable
 474:Generated_Source\PSoC4/I2CS_EZI2C.c **** 
 475:Generated_Source\PSoC4/I2CS_EZI2C.c ****         I2CS_dataBuffer1 =  buffer;
 377              		.loc 1 475 0
 378 0018 084B     		ldr	r3, .L21
 379 001a 7A68     		ldr	r2, [r7, #4]
 380 001c 1A60     		str	r2, [r3]
ARM GAS  C:\Users\alexport\AppData\Local\Temp\ccYhjsve.s 			page 16


 476:Generated_Source\PSoC4/I2CS_EZI2C.c ****         I2CS_bufSizeBuf1 = (uint16) bufSize;
 381              		.loc 1 476 0
 382 001e FB68     		ldr	r3, [r7, #12]
 383 0020 9AB2     		uxth	r2, r3
 384 0022 074B     		ldr	r3, .L21+4
 385 0024 1A80     		strh	r2, [r3]
 477:Generated_Source\PSoC4/I2CS_EZI2C.c ****         I2CS_protectBuf1 = (uint16) rwBoundary;
 386              		.loc 1 477 0
 387 0026 BB68     		ldr	r3, [r7, #8]
 388 0028 9AB2     		uxth	r2, r3
 389 002a 064B     		ldr	r3, .L21+8
 390 002c 1A80     		strh	r2, [r3]
 478:Generated_Source\PSoC4/I2CS_EZI2C.c **** 
 479:Generated_Source\PSoC4/I2CS_EZI2C.c ****         I2CS_EnableInt();   /* Release lock */
 391              		.loc 1 479 0
 392 002e 0A20     		movs	r0, #10
 393 0030 FFF7FEFF 		bl	CyIntEnable
 394              	.L20:
 480:Generated_Source\PSoC4/I2CS_EZI2C.c ****     }
 481:Generated_Source\PSoC4/I2CS_EZI2C.c **** }
 395              		.loc 1 481 0
 396 0034 C046     		nop
 397 0036 BD46     		mov	sp, r7
 398 0038 04B0     		add	sp, sp, #16
 399              		@ sp needed
 400 003a 80BD     		pop	{r7, pc}
 401              	.L22:
 402              		.align	2
 403              	.L21:
 404 003c 00000000 		.word	I2CS_dataBuffer1
 405 0040 00000000 		.word	I2CS_bufSizeBuf1
 406 0044 00000000 		.word	I2CS_protectBuf1
 407              		.cfi_endproc
 408              	.LFE7:
 409              		.size	I2CS_EzI2CSetBuffer1, .-I2CS_EzI2CSetBuffer1
 410              		.section	.text.I2CS_EzI2CSetReadBoundaryBuffer1,"ax",%progbits
 411              		.align	2
 412              		.global	I2CS_EzI2CSetReadBoundaryBuffer1
 413              		.code	16
 414              		.thumb_func
 415              		.type	I2CS_EzI2CSetReadBoundaryBuffer1, %function
 416              	I2CS_EzI2CSetReadBoundaryBuffer1:
 417              	.LFB8:
 482:Generated_Source\PSoC4/I2CS_EZI2C.c **** 
 483:Generated_Source\PSoC4/I2CS_EZI2C.c **** 
 484:Generated_Source\PSoC4/I2CS_EZI2C.c **** /*******************************************************************************
 485:Generated_Source\PSoC4/I2CS_EZI2C.c **** * Function Name: I2CS_EzI2CSetReadBoundaryBuffer1
 486:Generated_Source\PSoC4/I2CS_EZI2C.c **** ****************************************************************************//**
 487:Generated_Source\PSoC4/I2CS_EZI2C.c **** *
 488:Generated_Source\PSoC4/I2CS_EZI2C.c **** *  Sets the read only boundary in the data buffer to be exposed to the I2C
 489:Generated_Source\PSoC4/I2CS_EZI2C.c **** *  master on a primary slave address request.
 490:Generated_Source\PSoC4/I2CS_EZI2C.c **** *
 491:Generated_Source\PSoC4/I2CS_EZI2C.c **** * \param rwBoundry: Number of data bytes starting from the beginning of the 
 492:Generated_Source\PSoC4/I2CS_EZI2C.c **** *  buffer with read and write access. Data bytes located at offset rwBoundary 
 493:Generated_Source\PSoC4/I2CS_EZI2C.c **** *  or greater are read only.
 494:Generated_Source\PSoC4/I2CS_EZI2C.c **** *  This value must be less than or equal to the buffer size.
 495:Generated_Source\PSoC4/I2CS_EZI2C.c **** *
ARM GAS  C:\Users\alexport\AppData\Local\Temp\ccYhjsve.s 			page 17


 496:Generated_Source\PSoC4/I2CS_EZI2C.c **** * \sideeffect
 497:Generated_Source\PSoC4/I2CS_EZI2C.c **** *  Calling this function in the middle of a transaction intended for the 
 498:Generated_Source\PSoC4/I2CS_EZI2C.c **** *  primary slave address leads to unexpected behavior.
 499:Generated_Source\PSoC4/I2CS_EZI2C.c **** *
 500:Generated_Source\PSoC4/I2CS_EZI2C.c **** * \globalvars
 501:Generated_Source\PSoC4/I2CS_EZI2C.c **** *  I2CS_protectBuf1 - the start index of the read-only region in the
 502:Generated_Source\PSoC4/I2CS_EZI2C.c **** *  buffer to be exposed to the master on a primary address. The read-only region
 503:Generated_Source\PSoC4/I2CS_EZI2C.c **** *  continues up to the end the buffer.
 504:Generated_Source\PSoC4/I2CS_EZI2C.c **** *
 505:Generated_Source\PSoC4/I2CS_EZI2C.c **** *******************************************************************************/
 506:Generated_Source\PSoC4/I2CS_EZI2C.c **** void I2CS_EzI2CSetReadBoundaryBuffer1(uint32 rwBoundary)
 507:Generated_Source\PSoC4/I2CS_EZI2C.c **** {
 418              		.loc 1 507 0
 419              		.cfi_startproc
 420              		@ args = 0, pretend = 0, frame = 8
 421              		@ frame_needed = 1, uses_anonymous_args = 0
 422 0000 80B5     		push	{r7, lr}
 423              		.cfi_def_cfa_offset 8
 424              		.cfi_offset 7, -8
 425              		.cfi_offset 14, -4
 426 0002 82B0     		sub	sp, sp, #8
 427              		.cfi_def_cfa_offset 16
 428 0004 00AF     		add	r7, sp, #0
 429              		.cfi_def_cfa_register 7
 430 0006 7860     		str	r0, [r7, #4]
 508:Generated_Source\PSoC4/I2CS_EZI2C.c ****     I2CS_protectBuf1 = (uint16) rwBoundary;
 431              		.loc 1 508 0
 432 0008 7B68     		ldr	r3, [r7, #4]
 433 000a 9AB2     		uxth	r2, r3
 434 000c 024B     		ldr	r3, .L24
 435 000e 1A80     		strh	r2, [r3]
 509:Generated_Source\PSoC4/I2CS_EZI2C.c **** }
 436              		.loc 1 509 0
 437 0010 C046     		nop
 438 0012 BD46     		mov	sp, r7
 439 0014 02B0     		add	sp, sp, #8
 440              		@ sp needed
 441 0016 80BD     		pop	{r7, pc}
 442              	.L25:
 443              		.align	2
 444              	.L24:
 445 0018 00000000 		.word	I2CS_protectBuf1
 446              		.cfi_endproc
 447              	.LFE8:
 448              		.size	I2CS_EzI2CSetReadBoundaryBuffer1, .-I2CS_EzI2CSetReadBoundaryBuffer1
 449              		.section	.text.I2CS_EzI2CSaveConfig,"ax",%progbits
 450              		.align	2
 451              		.global	I2CS_EzI2CSaveConfig
 452              		.code	16
 453              		.thumb_func
 454              		.type	I2CS_EzI2CSaveConfig, %function
 455              	I2CS_EzI2CSaveConfig:
 456              	.LFB9:
 510:Generated_Source\PSoC4/I2CS_EZI2C.c **** 
 511:Generated_Source\PSoC4/I2CS_EZI2C.c **** 
 512:Generated_Source\PSoC4/I2CS_EZI2C.c **** #if(I2CS_SECONDARY_ADDRESS_ENABLE_CONST)
 513:Generated_Source\PSoC4/I2CS_EZI2C.c ****     /*******************************************************************************
ARM GAS  C:\Users\alexport\AppData\Local\Temp\ccYhjsve.s 			page 18


 514:Generated_Source\PSoC4/I2CS_EZI2C.c ****     * Function Name: I2CS_EzI2CUpdateRxMatchReg
 515:Generated_Source\PSoC4/I2CS_EZI2C.c ****     ****************************************************************************//**
 516:Generated_Source\PSoC4/I2CS_EZI2C.c ****     *
 517:Generated_Source\PSoC4/I2CS_EZI2C.c ****     *  Returns the value of the RX MATCH register for addr1 and addr2. The addr1 is
 518:Generated_Source\PSoC4/I2CS_EZI2C.c ****     *  accepted as the primary address and it is written to RX_MATCH.ADDRESS
 519:Generated_Source\PSoC4/I2CS_EZI2C.c ****     *  (addr1 << 0x01).
 520:Generated_Source\PSoC4/I2CS_EZI2C.c ****     *  The RX_MATCH.MASK is set as follow: addr1 and addr2 equal bits set to 1
 521:Generated_Source\PSoC4/I2CS_EZI2C.c ****     *  otherwise 0.
 522:Generated_Source\PSoC4/I2CS_EZI2C.c ****     *
 523:Generated_Source\PSoC4/I2CS_EZI2C.c ****     * \param addr1: I2C slave address for the primary device.
 524:Generated_Source\PSoC4/I2CS_EZI2C.c ****     * \param addr2: I2C slave address for the secondary device.
 525:Generated_Source\PSoC4/I2CS_EZI2C.c ****     *  This address is the 7-bit right-justified slave address and does
 526:Generated_Source\PSoC4/I2CS_EZI2C.c ****     *  not include the R/W bit.
 527:Generated_Source\PSoC4/I2CS_EZI2C.c ****     *
 528:Generated_Source\PSoC4/I2CS_EZI2C.c ****     * \return
 529:Generated_Source\PSoC4/I2CS_EZI2C.c ****     *  Value of RX MATCH register.
 530:Generated_Source\PSoC4/I2CS_EZI2C.c ****     *
 531:Generated_Source\PSoC4/I2CS_EZI2C.c ****     *******************************************************************************/
 532:Generated_Source\PSoC4/I2CS_EZI2C.c ****     static uint32 I2CS_EzI2CUpdateRxMatchReg(uint32 addr1, uint32 addr2)
 533:Generated_Source\PSoC4/I2CS_EZI2C.c ****     {
 534:Generated_Source\PSoC4/I2CS_EZI2C.c ****         uint32 matchReg;
 535:Generated_Source\PSoC4/I2CS_EZI2C.c **** 
 536:Generated_Source\PSoC4/I2CS_EZI2C.c ****         matchReg  = ~(addr1 ^ addr2); /* If (addr1 and addr2) bit matches - mask bit equals 1, in o
 537:Generated_Source\PSoC4/I2CS_EZI2C.c **** 
 538:Generated_Source\PSoC4/I2CS_EZI2C.c ****         matchReg  = (uint32) (I2CS_GET_I2C_8BIT_ADDRESS(matchReg) << I2CS_RX_MATCH_MASK_POS);
 539:Generated_Source\PSoC4/I2CS_EZI2C.c ****         matchReg |= I2CS_GET_I2C_8BIT_ADDRESS(addr1);
 540:Generated_Source\PSoC4/I2CS_EZI2C.c **** 
 541:Generated_Source\PSoC4/I2CS_EZI2C.c ****         return(matchReg);
 542:Generated_Source\PSoC4/I2CS_EZI2C.c ****     }
 543:Generated_Source\PSoC4/I2CS_EZI2C.c **** 
 544:Generated_Source\PSoC4/I2CS_EZI2C.c ****     /*******************************************************************************
 545:Generated_Source\PSoC4/I2CS_EZI2C.c ****     * Function Name: I2CS_EzI2CSetAddress2
 546:Generated_Source\PSoC4/I2CS_EZI2C.c ****     ****************************************************************************//**
 547:Generated_Source\PSoC4/I2CS_EZI2C.c ****     *
 548:Generated_Source\PSoC4/I2CS_EZI2C.c ****     *  Sets the secondary EZI2C slave address.
 549:Generated_Source\PSoC4/I2CS_EZI2C.c ****     *
 550:Generated_Source\PSoC4/I2CS_EZI2C.c ****     * \param address: secondary I2C slave address.
 551:Generated_Source\PSoC4/I2CS_EZI2C.c ****     *  This address is the 7-bit right-justified slave address and does not 
 552:Generated_Source\PSoC4/I2CS_EZI2C.c ****     *  include the R/W bit.
 553:Generated_Source\PSoC4/I2CS_EZI2C.c ****     *  The address value is not checked to see if it violates the I2C spec. 
 554:Generated_Source\PSoC4/I2CS_EZI2C.c ****     *  The preferred addresses are in the range between 8 and 120 (0x08 to 0x78).
 555:Generated_Source\PSoC4/I2CS_EZI2C.c ****     *
 556:Generated_Source\PSoC4/I2CS_EZI2C.c ****     * \globalvars
 557:Generated_Source\PSoC4/I2CS_EZI2C.c ****     *  I2CS_addrBuf2 - used to store the secondary 7-bit slave address 
 558:Generated_Source\PSoC4/I2CS_EZI2C.c ****     *  value.
 559:Generated_Source\PSoC4/I2CS_EZI2C.c ****     *
 560:Generated_Source\PSoC4/I2CS_EZI2C.c ****     *******************************************************************************/
 561:Generated_Source\PSoC4/I2CS_EZI2C.c ****     void I2CS_EzI2CSetAddress2(uint32 address)
 562:Generated_Source\PSoC4/I2CS_EZI2C.c ****     {
 563:Generated_Source\PSoC4/I2CS_EZI2C.c ****         I2CS_addrBuf2 = (uint8) address;
 564:Generated_Source\PSoC4/I2CS_EZI2C.c **** 
 565:Generated_Source\PSoC4/I2CS_EZI2C.c ****         I2CS_RX_MATCH_REG = 
 566:Generated_Source\PSoC4/I2CS_EZI2C.c ****                         I2CS_EzI2CUpdateRxMatchReg((uint32) I2CS_addrBuf1, address);
 567:Generated_Source\PSoC4/I2CS_EZI2C.c ****     }
 568:Generated_Source\PSoC4/I2CS_EZI2C.c **** 
 569:Generated_Source\PSoC4/I2CS_EZI2C.c **** 
 570:Generated_Source\PSoC4/I2CS_EZI2C.c ****     /*******************************************************************************
ARM GAS  C:\Users\alexport\AppData\Local\Temp\ccYhjsve.s 			page 19


 571:Generated_Source\PSoC4/I2CS_EZI2C.c ****     * Function Name: I2CS_EzI2CGetAddress2
 572:Generated_Source\PSoC4/I2CS_EZI2C.c ****     ****************************************************************************//**
 573:Generated_Source\PSoC4/I2CS_EZI2C.c ****     *
 574:Generated_Source\PSoC4/I2CS_EZI2C.c ****     *  Returns the secondary EZ I2C slave address.
 575:Generated_Source\PSoC4/I2CS_EZI2C.c ****     *  This address is the 7-bit right-justified slave address and does not include 
 576:Generated_Source\PSoC4/I2CS_EZI2C.c ****     *  the R/W bit.
 577:Generated_Source\PSoC4/I2CS_EZI2C.c ****     *
 578:Generated_Source\PSoC4/I2CS_EZI2C.c ****     * \return
 579:Generated_Source\PSoC4/I2CS_EZI2C.c ****     *  Secondary I2C slave address.
 580:Generated_Source\PSoC4/I2CS_EZI2C.c ****     *
 581:Generated_Source\PSoC4/I2CS_EZI2C.c ****     * \globalvars
 582:Generated_Source\PSoC4/I2CS_EZI2C.c ****     *  I2CS_addrBuf2 - used to store the secondary 7-bit slave address 
 583:Generated_Source\PSoC4/I2CS_EZI2C.c ****     *  value.
 584:Generated_Source\PSoC4/I2CS_EZI2C.c ****     *
 585:Generated_Source\PSoC4/I2CS_EZI2C.c ****     *******************************************************************************/
 586:Generated_Source\PSoC4/I2CS_EZI2C.c ****     uint32 I2CS_EzI2CGetAddress2(void)
 587:Generated_Source\PSoC4/I2CS_EZI2C.c ****     {
 588:Generated_Source\PSoC4/I2CS_EZI2C.c ****         return((uint32) I2CS_addrBuf2);
 589:Generated_Source\PSoC4/I2CS_EZI2C.c ****     }
 590:Generated_Source\PSoC4/I2CS_EZI2C.c **** 
 591:Generated_Source\PSoC4/I2CS_EZI2C.c **** 
 592:Generated_Source\PSoC4/I2CS_EZI2C.c ****     /*******************************************************************************
 593:Generated_Source\PSoC4/I2CS_EZI2C.c ****     * Function Name: I2CS_EzI2CSetBuffer2
 594:Generated_Source\PSoC4/I2CS_EZI2C.c ****     ****************************************************************************//**
 595:Generated_Source\PSoC4/I2CS_EZI2C.c ****     *
 596:Generated_Source\PSoC4/I2CS_EZI2C.c ****     *  Sets up the data buffer to be exposed to the I2C master on a secondary slave
 597:Generated_Source\PSoC4/I2CS_EZI2C.c ****     *  address request.
 598:Generated_Source\PSoC4/I2CS_EZI2C.c ****     *
 599:Generated_Source\PSoC4/I2CS_EZI2C.c ****     * \param bufSize: Size of the buffer in bytes.
 600:Generated_Source\PSoC4/I2CS_EZI2C.c ****     * \param rwBoundary: Number of data bytes starting from the beginning of the 
 601:Generated_Source\PSoC4/I2CS_EZI2C.c ****     *  buffer with read and write access. Data bytes located at offset rwBoundary 
 602:Generated_Source\PSoC4/I2CS_EZI2C.c ****     *  or greater are read only.
 603:Generated_Source\PSoC4/I2CS_EZI2C.c ****     *  This value must be less than or equal to the buffer size.
 604:Generated_Source\PSoC4/I2CS_EZI2C.c ****     * \param buffer: Pointer to the data buffer.
 605:Generated_Source\PSoC4/I2CS_EZI2C.c ****     *
 606:Generated_Source\PSoC4/I2CS_EZI2C.c ****     * \sideeffects
 607:Generated_Source\PSoC4/I2CS_EZI2C.c ****     *  Calling this function in the middle of a transaction intended for the 
 608:Generated_Source\PSoC4/I2CS_EZI2C.c ****     *  secondary slave address leads to unexpected behavior.
 609:Generated_Source\PSoC4/I2CS_EZI2C.c ****     *
 610:Generated_Source\PSoC4/I2CS_EZI2C.c ****     * \globalvars
 611:Generated_Source\PSoC4/I2CS_EZI2C.c ****     *  I2CS_dataBuffer2 – the pointer to the buffer to be exposed to the
 612:Generated_Source\PSoC4/I2CS_EZI2C.c ****     *  master on a secondary address.
 613:Generated_Source\PSoC4/I2CS_EZI2C.c ****     *  I2CS_bufSizeBuf2 - the size of the buffer to be exposed to the 
 614:Generated_Source\PSoC4/I2CS_EZI2C.c ****     *  master on a secondary address.
 615:Generated_Source\PSoC4/I2CS_EZI2C.c ****     *  I2CS_protectBuf2 - the start index of the read-only region in the
 616:Generated_Source\PSoC4/I2CS_EZI2C.c ****     *  buffer to be exposed to the master on a secondary address. The read-only 
 617:Generated_Source\PSoC4/I2CS_EZI2C.c ****     *  region continues up to the end the buffer.
 618:Generated_Source\PSoC4/I2CS_EZI2C.c ****     *
 619:Generated_Source\PSoC4/I2CS_EZI2C.c ****     *******************************************************************************/
 620:Generated_Source\PSoC4/I2CS_EZI2C.c ****     void I2CS_EzI2CSetBuffer2(uint32 bufSize, uint32 rwBoundary, volatile uint8 * buffer)
 621:Generated_Source\PSoC4/I2CS_EZI2C.c ****     {
 622:Generated_Source\PSoC4/I2CS_EZI2C.c ****         if (NULL != buffer)
 623:Generated_Source\PSoC4/I2CS_EZI2C.c ****         {
 624:Generated_Source\PSoC4/I2CS_EZI2C.c ****             I2CS_DisableInt();  /* Lock from interruption */
 625:Generated_Source\PSoC4/I2CS_EZI2C.c **** 
 626:Generated_Source\PSoC4/I2CS_EZI2C.c ****             I2CS_dataBuffer2 =  buffer;
 627:Generated_Source\PSoC4/I2CS_EZI2C.c ****             I2CS_bufSizeBuf2 = (uint16) bufSize;
ARM GAS  C:\Users\alexport\AppData\Local\Temp\ccYhjsve.s 			page 20


 628:Generated_Source\PSoC4/I2CS_EZI2C.c ****             I2CS_protectBuf2 = (uint16) rwBoundary;
 629:Generated_Source\PSoC4/I2CS_EZI2C.c **** 
 630:Generated_Source\PSoC4/I2CS_EZI2C.c ****             I2CS_EnableInt();   /* Release lock */
 631:Generated_Source\PSoC4/I2CS_EZI2C.c ****         }
 632:Generated_Source\PSoC4/I2CS_EZI2C.c ****     }
 633:Generated_Source\PSoC4/I2CS_EZI2C.c **** 
 634:Generated_Source\PSoC4/I2CS_EZI2C.c **** 
 635:Generated_Source\PSoC4/I2CS_EZI2C.c ****     /*******************************************************************************
 636:Generated_Source\PSoC4/I2CS_EZI2C.c ****     * Function Name: I2CS_EzI2CSetReadBoundaryBuffer2
 637:Generated_Source\PSoC4/I2CS_EZI2C.c ****     ****************************************************************************//**
 638:Generated_Source\PSoC4/I2CS_EZI2C.c ****     *
 639:Generated_Source\PSoC4/I2CS_EZI2C.c ****     *  Sets the read only boundary in the data buffer to be exposed to the I2C
 640:Generated_Source\PSoC4/I2CS_EZI2C.c ****     *  master on a secondary address request.
 641:Generated_Source\PSoC4/I2CS_EZI2C.c ****     *
 642:Generated_Source\PSoC4/I2CS_EZI2C.c ****     *  \param rwBoundary: Number of data bytes starting from the beginning of the
 643:Generated_Source\PSoC4/I2CS_EZI2C.c ****     *   buffer with read and write access. Data bytes located at offset rwBoundary 
 644:Generated_Source\PSoC4/I2CS_EZI2C.c ****     *   or greater are read only.
 645:Generated_Source\PSoC4/I2CS_EZI2C.c ****     *   This value must be less than or equal to the buffer size.
 646:Generated_Source\PSoC4/I2CS_EZI2C.c ****     *
 647:Generated_Source\PSoC4/I2CS_EZI2C.c ****     *  \sideeffect
 648:Generated_Source\PSoC4/I2CS_EZI2C.c ****     *   Calling this function in the middle of a transaction intended for the 
 649:Generated_Source\PSoC4/I2CS_EZI2C.c ****     *   secondary slave address leads to unexpected behavior.
 650:Generated_Source\PSoC4/I2CS_EZI2C.c ****     *
 651:Generated_Source\PSoC4/I2CS_EZI2C.c ****     * \globalvars
 652:Generated_Source\PSoC4/I2CS_EZI2C.c ****     *  I2CS_protectBuf2 - the start index of the read-only region in the
 653:Generated_Source\PSoC4/I2CS_EZI2C.c ****     *  buffer to be exposed to the master on a secondary address. The read-only 
 654:Generated_Source\PSoC4/I2CS_EZI2C.c ****     *  region continues up to the end the buffe
 655:Generated_Source\PSoC4/I2CS_EZI2C.c ****     *
 656:Generated_Source\PSoC4/I2CS_EZI2C.c ****     *******************************************************************************/
 657:Generated_Source\PSoC4/I2CS_EZI2C.c ****     void I2CS_EzI2CSetReadBoundaryBuffer2(uint32 rwBoundary)
 658:Generated_Source\PSoC4/I2CS_EZI2C.c ****     {
 659:Generated_Source\PSoC4/I2CS_EZI2C.c ****         I2CS_protectBuf2 = (uint16) rwBoundary;
 660:Generated_Source\PSoC4/I2CS_EZI2C.c ****     }
 661:Generated_Source\PSoC4/I2CS_EZI2C.c **** 
 662:Generated_Source\PSoC4/I2CS_EZI2C.c **** #endif /* (I2CS_SECONDARY_ADDRESS_ENABLE_CONST) */
 663:Generated_Source\PSoC4/I2CS_EZI2C.c **** 
 664:Generated_Source\PSoC4/I2CS_EZI2C.c **** 
 665:Generated_Source\PSoC4/I2CS_EZI2C.c **** #if(I2CS_EZI2C_WAKE_ENABLE_CONST)
 666:Generated_Source\PSoC4/I2CS_EZI2C.c ****     /*******************************************************************************
 667:Generated_Source\PSoC4/I2CS_EZI2C.c ****     * Function Name: I2CS_EzI2CSaveConfig
 668:Generated_Source\PSoC4/I2CS_EZI2C.c ****     ****************************************************************************//**
 669:Generated_Source\PSoC4/I2CS_EZI2C.c ****     *
 670:Generated_Source\PSoC4/I2CS_EZI2C.c ****     *  Clock stretching is  enabled: Enables INTR_I2C_EC.WAKE_UP interrupt source.
 671:Generated_Source\PSoC4/I2CS_EZI2C.c ****     *  It triggers on the slave address match.
 672:Generated_Source\PSoC4/I2CS_EZI2C.c ****     *  Clock stretching is disabled: Waits until the I2C slave becomes free and
 673:Generated_Source\PSoC4/I2CS_EZI2C.c ****     *  disables the block to perform reconfiguration from the active mode operation
 674:Generated_Source\PSoC4/I2CS_EZI2C.c ****     *  to deep sleep with wake up on the address match: enables INTR_I2C_EC.WAKE_UP
 675:Generated_Source\PSoC4/I2CS_EZI2C.c ****     *  interrupt source and disables the INTR_S and INTR_TX interrupt sources.
 676:Generated_Source\PSoC4/I2CS_EZI2C.c ****     *  The block is disabled before reconfiguration and enabled when
 677:Generated_Source\PSoC4/I2CS_EZI2C.c ****     *  it is completed.
 678:Generated_Source\PSoC4/I2CS_EZI2C.c ****     *
 679:Generated_Source\PSoC4/I2CS_EZI2C.c ****     *******************************************************************************/
 680:Generated_Source\PSoC4/I2CS_EZI2C.c ****     void I2CS_EzI2CSaveConfig(void)
 681:Generated_Source\PSoC4/I2CS_EZI2C.c ****     {
 457              		.loc 1 681 0
 458              		.cfi_startproc
 459              		@ args = 0, pretend = 0, frame = 8
ARM GAS  C:\Users\alexport\AppData\Local\Temp\ccYhjsve.s 			page 21


 460              		@ frame_needed = 1, uses_anonymous_args = 0
 461 0000 80B5     		push	{r7, lr}
 462              		.cfi_def_cfa_offset 8
 463              		.cfi_offset 7, -8
 464              		.cfi_offset 14, -4
 465 0002 82B0     		sub	sp, sp, #8
 466              		.cfi_def_cfa_offset 16
 467 0004 00AF     		add	r7, sp, #0
 468              		.cfi_def_cfa_register 7
 682:Generated_Source\PSoC4/I2CS_EZI2C.c ****     #if(I2CS_CY_SCBIP_V0)
 683:Generated_Source\PSoC4/I2CS_EZI2C.c **** 
 684:Generated_Source\PSoC4/I2CS_EZI2C.c ****         #if(I2CS_EZI2C_SCL_STRETCH_ENABLE)
 685:Generated_Source\PSoC4/I2CS_EZI2C.c ****         {
 686:Generated_Source\PSoC4/I2CS_EZI2C.c ****             /* Enable wakeup interrupt source on address match */
 687:Generated_Source\PSoC4/I2CS_EZI2C.c ****             I2CS_SetI2CExtClkInterruptMode(I2CS_INTR_I2C_EC_WAKE_UP);
 688:Generated_Source\PSoC4/I2CS_EZI2C.c ****         }
 689:Generated_Source\PSoC4/I2CS_EZI2C.c ****         #endif
 690:Generated_Source\PSoC4/I2CS_EZI2C.c **** 
 691:Generated_Source\PSoC4/I2CS_EZI2C.c ****     #else
 692:Generated_Source\PSoC4/I2CS_EZI2C.c ****         uint8 enableInt;
 693:Generated_Source\PSoC4/I2CS_EZI2C.c **** 
 694:Generated_Source\PSoC4/I2CS_EZI2C.c ****         enableInt = (uint8) I2CS_INTR_I2C_EC_WAKE_UP;
 469              		.loc 1 694 0
 470 0006 FB1D     		adds	r3, r7, #7
 471 0008 0122     		movs	r2, #1
 472 000a 1A70     		strb	r2, [r3]
 695:Generated_Source\PSoC4/I2CS_EZI2C.c **** 
 696:Generated_Source\PSoC4/I2CS_EZI2C.c ****         #if(I2CS_EZI2C_SCL_STRETCH_ENABLE)
 697:Generated_Source\PSoC4/I2CS_EZI2C.c ****         {
 698:Generated_Source\PSoC4/I2CS_EZI2C.c ****         #if (I2CS_SCB_CLK_INTERNAL)
 699:Generated_Source\PSoC4/I2CS_EZI2C.c ****             /* Disable clock to internal address match logic. Ticket ID #187931 */
 700:Generated_Source\PSoC4/I2CS_EZI2C.c ****             I2CS_SCBCLK_Stop();
 473              		.loc 1 700 0
 474 000c FFF7FEFF 		bl	I2CS_SCBCLK_Stop
 701:Generated_Source\PSoC4/I2CS_EZI2C.c ****         #endif /* (I2CS_SCB_CLK_INTERNAL) */
 702:Generated_Source\PSoC4/I2CS_EZI2C.c **** 
 703:Generated_Source\PSoC4/I2CS_EZI2C.c ****             /* Enable interrupt source to wakeup device */
 704:Generated_Source\PSoC4/I2CS_EZI2C.c ****             I2CS_SetI2CExtClkInterruptMode(enableInt);
 475              		.loc 1 704 0
 476 0010 034B     		ldr	r3, .L27
 477 0012 FA1D     		adds	r2, r7, #7
 478 0014 1278     		ldrb	r2, [r2]
 479 0016 1A60     		str	r2, [r3]
 705:Generated_Source\PSoC4/I2CS_EZI2C.c ****         }
 706:Generated_Source\PSoC4/I2CS_EZI2C.c ****         #else
 707:Generated_Source\PSoC4/I2CS_EZI2C.c ****         {
 708:Generated_Source\PSoC4/I2CS_EZI2C.c ****             for(;;) /* Wait for end of transaction intended to slave */
 709:Generated_Source\PSoC4/I2CS_EZI2C.c ****             {
 710:Generated_Source\PSoC4/I2CS_EZI2C.c ****                 if(0u == (I2CS_GetI2CExtClkInterruptSource() & I2CS_INTR_I2C_EC_WAKE_UP))
 711:Generated_Source\PSoC4/I2CS_EZI2C.c ****                 {
 712:Generated_Source\PSoC4/I2CS_EZI2C.c ****                     enableInt = CyEnterCriticalSection();
 713:Generated_Source\PSoC4/I2CS_EZI2C.c **** 
 714:Generated_Source\PSoC4/I2CS_EZI2C.c ****                     if(0u == (I2CS_GetI2CExtClkInterruptSource() & I2CS_INTR_I2C_EC_WAKE_UP))
 715:Generated_Source\PSoC4/I2CS_EZI2C.c ****                     {
 716:Generated_Source\PSoC4/I2CS_EZI2C.c ****                         /* Attempts to set NACK command before disable block */
 717:Generated_Source\PSoC4/I2CS_EZI2C.c ****                         I2CS_I2C_SLAVE_GENERATE_NACK;
 718:Generated_Source\PSoC4/I2CS_EZI2C.c **** 
ARM GAS  C:\Users\alexport\AppData\Local\Temp\ccYhjsve.s 			page 22


 719:Generated_Source\PSoC4/I2CS_EZI2C.c ****                         if(0u == (I2CS_GetI2CExtClkInterruptSource() & I2CS_INTR_I2C_EC_WAKE_UP))
 720:Generated_Source\PSoC4/I2CS_EZI2C.c ****                         {
 721:Generated_Source\PSoC4/I2CS_EZI2C.c ****                             /* NACK command was set before. It is safe to disable block */
 722:Generated_Source\PSoC4/I2CS_EZI2C.c ****                             I2CS_CTRL_REG &= (uint32) ~I2CS_CTRL_ENABLED;
 723:Generated_Source\PSoC4/I2CS_EZI2C.c ****                             I2CS_DisableInt();
 724:Generated_Source\PSoC4/I2CS_EZI2C.c **** 
 725:Generated_Source\PSoC4/I2CS_EZI2C.c ****                             CyExitCriticalSection(enableInt);
 726:Generated_Source\PSoC4/I2CS_EZI2C.c ****                             break;
 727:Generated_Source\PSoC4/I2CS_EZI2C.c ****                         }
 728:Generated_Source\PSoC4/I2CS_EZI2C.c ****                         else
 729:Generated_Source\PSoC4/I2CS_EZI2C.c ****                         {
 730:Generated_Source\PSoC4/I2CS_EZI2C.c ****                             /* Clear NACK command to prevent data NACK */
 731:Generated_Source\PSoC4/I2CS_EZI2C.c ****                             I2CS_I2C_SLAVE_CLEAR_NACK;
 732:Generated_Source\PSoC4/I2CS_EZI2C.c ****                         }
 733:Generated_Source\PSoC4/I2CS_EZI2C.c ****                     }
 734:Generated_Source\PSoC4/I2CS_EZI2C.c **** 
 735:Generated_Source\PSoC4/I2CS_EZI2C.c ****                     CyExitCriticalSection(enableInt);
 736:Generated_Source\PSoC4/I2CS_EZI2C.c ****                 }
 737:Generated_Source\PSoC4/I2CS_EZI2C.c ****             }
 738:Generated_Source\PSoC4/I2CS_EZI2C.c **** 
 739:Generated_Source\PSoC4/I2CS_EZI2C.c ****             /* Disable all active mode interrupt sources */
 740:Generated_Source\PSoC4/I2CS_EZI2C.c ****             I2CS_SetTxInterruptMode(I2CS_NO_INTR_SOURCES);
 741:Generated_Source\PSoC4/I2CS_EZI2C.c ****             I2CS_SetSlaveInterruptMode(I2CS_NO_INTR_SOURCES);
 742:Generated_Source\PSoC4/I2CS_EZI2C.c ****             I2CS_ClearPendingInt();
 743:Generated_Source\PSoC4/I2CS_EZI2C.c ****             I2CS_EnableInt();
 744:Generated_Source\PSoC4/I2CS_EZI2C.c **** 
 745:Generated_Source\PSoC4/I2CS_EZI2C.c ****             /* Enable wakeup interrupt on address match */
 746:Generated_Source\PSoC4/I2CS_EZI2C.c ****             I2CS_SetI2CExtClkInterruptMode(I2CS_INTR_I2C_EC_WAKE_UP);
 747:Generated_Source\PSoC4/I2CS_EZI2C.c **** 
 748:Generated_Source\PSoC4/I2CS_EZI2C.c ****             enableInt = CyEnterCriticalSection();
 749:Generated_Source\PSoC4/I2CS_EZI2C.c **** 
 750:Generated_Source\PSoC4/I2CS_EZI2C.c ****             I2CS_CTRL_REG |= (uint32) I2CS_CTRL_ENABLED;
 751:Generated_Source\PSoC4/I2CS_EZI2C.c ****             I2CS_I2C_SLAVE_GENERATE_NACK;
 752:Generated_Source\PSoC4/I2CS_EZI2C.c **** 
 753:Generated_Source\PSoC4/I2CS_EZI2C.c ****             CyExitCriticalSection(enableInt);
 754:Generated_Source\PSoC4/I2CS_EZI2C.c ****         }
 755:Generated_Source\PSoC4/I2CS_EZI2C.c ****         #endif
 756:Generated_Source\PSoC4/I2CS_EZI2C.c ****     #endif /* (I2CS_CY_SCBIP_V0) */
 757:Generated_Source\PSoC4/I2CS_EZI2C.c ****     }
 480              		.loc 1 757 0
 481 0018 C046     		nop
 482 001a BD46     		mov	sp, r7
 483 001c 02B0     		add	sp, sp, #8
 484              		@ sp needed
 485 001e 80BD     		pop	{r7, pc}
 486              	.L28:
 487              		.align	2
 488              	.L27:
 489 0020 880E2540 		.word	1076170376
 490              		.cfi_endproc
 491              	.LFE9:
 492              		.size	I2CS_EzI2CSaveConfig, .-I2CS_EzI2CSaveConfig
 493              		.section	.text.I2CS_EzI2CRestoreConfig,"ax",%progbits
 494              		.align	2
 495              		.global	I2CS_EzI2CRestoreConfig
 496              		.code	16
 497              		.thumb_func
ARM GAS  C:\Users\alexport\AppData\Local\Temp\ccYhjsve.s 			page 23


 498              		.type	I2CS_EzI2CRestoreConfig, %function
 499              	I2CS_EzI2CRestoreConfig:
 500              	.LFB10:
 758:Generated_Source\PSoC4/I2CS_EZI2C.c **** 
 759:Generated_Source\PSoC4/I2CS_EZI2C.c **** 
 760:Generated_Source\PSoC4/I2CS_EZI2C.c ****     /*******************************************************************************
 761:Generated_Source\PSoC4/I2CS_EZI2C.c ****     * Function Name: I2CS_EzI2CRestoreConfig
 762:Generated_Source\PSoC4/I2CS_EZI2C.c ****     ****************************************************************************//**
 763:Generated_Source\PSoC4/I2CS_EZI2C.c ****     *
 764:Generated_Source\PSoC4/I2CS_EZI2C.c ****     *  Clock stretching is  enabled: Disables the INTR_I2C_EC.WAKE_UP interrupt
 765:Generated_Source\PSoC4/I2CS_EZI2C.c ****     *  source.
 766:Generated_Source\PSoC4/I2CS_EZI2C.c ****     *  Clock stretching is disabled: Reconfigures the EZI2C component from
 767:Generated_Source\PSoC4/I2CS_EZI2C.c ****     *  Deep Sleep (wake up on the address match) to active operation: disables
 768:Generated_Source\PSoC4/I2CS_EZI2C.c ****     *  the INTR_I2C_EC.WAKE_UP interrupt source and restores the INTR_S
 769:Generated_Source\PSoC4/I2CS_EZI2C.c ****     *  interrupt sources to operate in the active mode.
 770:Generated_Source\PSoC4/I2CS_EZI2C.c ****     *  The block is disabled before reconfiguration and enabled when
 771:Generated_Source\PSoC4/I2CS_EZI2C.c ****     *  it is completed.
 772:Generated_Source\PSoC4/I2CS_EZI2C.c ****     *
 773:Generated_Source\PSoC4/I2CS_EZI2C.c ****     *******************************************************************************/
 774:Generated_Source\PSoC4/I2CS_EZI2C.c ****     void I2CS_EzI2CRestoreConfig(void)
 775:Generated_Source\PSoC4/I2CS_EZI2C.c ****     {
 501              		.loc 1 775 0
 502              		.cfi_startproc
 503              		@ args = 0, pretend = 0, frame = 0
 504              		@ frame_needed = 1, uses_anonymous_args = 0
 505 0000 80B5     		push	{r7, lr}
 506              		.cfi_def_cfa_offset 8
 507              		.cfi_offset 7, -8
 508              		.cfi_offset 14, -4
 509 0002 00AF     		add	r7, sp, #0
 510              		.cfi_def_cfa_register 7
 776:Generated_Source\PSoC4/I2CS_EZI2C.c ****     #if(I2CS_CY_SCBIP_V0)
 777:Generated_Source\PSoC4/I2CS_EZI2C.c **** 
 778:Generated_Source\PSoC4/I2CS_EZI2C.c ****         #if(I2CS_EZI2C_SCL_STRETCH_ENABLE)
 779:Generated_Source\PSoC4/I2CS_EZI2C.c ****         {
 780:Generated_Source\PSoC4/I2CS_EZI2C.c ****             /* Disable wakeup interrupt on address match */
 781:Generated_Source\PSoC4/I2CS_EZI2C.c ****             I2CS_SetI2CExtClkInterruptMode(I2CS_NO_INTR_SOURCES);
 782:Generated_Source\PSoC4/I2CS_EZI2C.c ****         }
 783:Generated_Source\PSoC4/I2CS_EZI2C.c ****         #endif
 784:Generated_Source\PSoC4/I2CS_EZI2C.c **** 
 785:Generated_Source\PSoC4/I2CS_EZI2C.c ****     #else
 786:Generated_Source\PSoC4/I2CS_EZI2C.c **** 
 787:Generated_Source\PSoC4/I2CS_EZI2C.c ****         #if(I2CS_EZI2C_SCL_STRETCH_ENABLE)
 788:Generated_Source\PSoC4/I2CS_EZI2C.c ****         {
 789:Generated_Source\PSoC4/I2CS_EZI2C.c ****             /* Disable wakeup interrupt source on address match */
 790:Generated_Source\PSoC4/I2CS_EZI2C.c ****             I2CS_SetI2CExtClkInterruptMode(I2CS_NO_INTR_SOURCES);
 511              		.loc 1 790 0
 512 0004 044B     		ldr	r3, .L30
 513 0006 0022     		movs	r2, #0
 514 0008 1A60     		str	r2, [r3]
 791:Generated_Source\PSoC4/I2CS_EZI2C.c **** 
 792:Generated_Source\PSoC4/I2CS_EZI2C.c ****         #if (I2CS_SCB_CLK_INTERNAL)
 793:Generated_Source\PSoC4/I2CS_EZI2C.c ****             /* Enable clock to internal address match logic. Ticket ID #187931 */
 794:Generated_Source\PSoC4/I2CS_EZI2C.c ****             I2CS_SCBCLK_Start();
 515              		.loc 1 794 0
 516 000a FF20     		movs	r0, #255
 517 000c FFF7FEFF 		bl	I2CS_SCBCLK_StartEx
ARM GAS  C:\Users\alexport\AppData\Local\Temp\ccYhjsve.s 			page 24


 795:Generated_Source\PSoC4/I2CS_EZI2C.c ****         #endif /* (I2CS_SCB_CLK_INTERNAL) */
 796:Generated_Source\PSoC4/I2CS_EZI2C.c ****         }
 797:Generated_Source\PSoC4/I2CS_EZI2C.c ****         #else
 798:Generated_Source\PSoC4/I2CS_EZI2C.c ****         {
 799:Generated_Source\PSoC4/I2CS_EZI2C.c ****             /* NACK will be driven on the bus by wakeup or NACK command.
 800:Generated_Source\PSoC4/I2CS_EZI2C.c ****             * It is safe to disable block to restore active mode configuration.
 801:Generated_Source\PSoC4/I2CS_EZI2C.c ****             */
 802:Generated_Source\PSoC4/I2CS_EZI2C.c ****             I2CS_CTRL_REG &= (uint32) ~I2CS_CTRL_ENABLED;
 803:Generated_Source\PSoC4/I2CS_EZI2C.c **** 
 804:Generated_Source\PSoC4/I2CS_EZI2C.c ****             /* Restore active mode interrupt sources */
 805:Generated_Source\PSoC4/I2CS_EZI2C.c ****             I2CS_SetI2CExtClkInterruptMode(I2CS_NO_INTR_SOURCES);
 806:Generated_Source\PSoC4/I2CS_EZI2C.c ****             I2CS_SetSlaveInterruptMode(I2CS_EZI2C_INTR_SLAVE_MASK |
 807:Generated_Source\PSoC4/I2CS_EZI2C.c ****                                                    I2CS_INTR_SLAVE_I2C_START);
 808:Generated_Source\PSoC4/I2CS_EZI2C.c ****             I2CS_ClearPendingInt();
 809:Generated_Source\PSoC4/I2CS_EZI2C.c **** 
 810:Generated_Source\PSoC4/I2CS_EZI2C.c ****             I2CS_CTRL_REG |= (uint32) I2CS_CTRL_ENABLED;
 811:Generated_Source\PSoC4/I2CS_EZI2C.c ****         }
 812:Generated_Source\PSoC4/I2CS_EZI2C.c ****         #endif
 813:Generated_Source\PSoC4/I2CS_EZI2C.c **** 
 814:Generated_Source\PSoC4/I2CS_EZI2C.c ****     #endif /* (I2CS_CY_SCBIP_V0) */
 815:Generated_Source\PSoC4/I2CS_EZI2C.c ****     }
 518              		.loc 1 815 0
 519 0010 C046     		nop
 520 0012 BD46     		mov	sp, r7
 521              		@ sp needed
 522 0014 80BD     		pop	{r7, pc}
 523              	.L31:
 524 0016 C046     		.align	2
 525              	.L30:
 526 0018 880E2540 		.word	1076170376
 527              		.cfi_endproc
 528              	.LFE10:
 529              		.size	I2CS_EzI2CRestoreConfig, .-I2CS_EzI2CRestoreConfig
 530              		.text
 531              	.Letext0:
 532              		.file 2 "Generated_Source\\PSoC4/cytypes.h"