ARM GAS  C:\Users\alexport\AppData\Local\Temp\ccGT4NC2.s 			page 1


   1              		.syntax unified
   2              		.cpu cortex-m0
   3              		.fpu softvfp
   4              		.eabi_attribute 20, 1
   5              		.eabi_attribute 21, 1
   6              		.eabi_attribute 23, 3
   7              		.eabi_attribute 24, 1
   8              		.eabi_attribute 25, 1
   9              		.eabi_attribute 26, 1
  10              		.eabi_attribute 30, 6
  11              		.eabi_attribute 34, 0
  12              		.eabi_attribute 18, 4
  13              		.thumb
  14              		.syntax unified
  15              		.file	"IDAC_1.c"
  16              		.text
  17              	.Ltext0:
  18              		.cfi_sections	.debug_frame
  19              		.global	IDAC_1_initVar
  20              		.bss
  21              		.align	2
  22              		.type	IDAC_1_initVar, %object
  23              		.size	IDAC_1_initVar, 4
  24              	IDAC_1_initVar:
  25 0000 00000000 		.space	4
  26              		.section	.text.IDAC_1_Init,"ax",%progbits
  27              		.align	2
  28              		.global	IDAC_1_Init
  29              		.code	16
  30              		.thumb_func
  31              		.type	IDAC_1_Init, %function
  32              	IDAC_1_Init:
  33              	.LFB2:
  34              		.file 1 "Generated_Source\\PSoC4\\IDAC_1.c"
   1:Generated_Source\PSoC4/IDAC_1.c **** /*******************************************************************************
   2:Generated_Source\PSoC4/IDAC_1.c **** * File Name: IDAC_1.c
   3:Generated_Source\PSoC4/IDAC_1.c **** * Version 1.10
   4:Generated_Source\PSoC4/IDAC_1.c **** *
   5:Generated_Source\PSoC4/IDAC_1.c **** * Description:
   6:Generated_Source\PSoC4/IDAC_1.c **** *  This file provides the source code of APIs for the IDAC_P4 component.
   7:Generated_Source\PSoC4/IDAC_1.c **** *
   8:Generated_Source\PSoC4/IDAC_1.c **** *******************************************************************************
   9:Generated_Source\PSoC4/IDAC_1.c **** * Copyright 2013-2015, Cypress Semiconductor Corporation.  All rights reserved.
  10:Generated_Source\PSoC4/IDAC_1.c **** * You may use this file only in accordance with the license, terms, conditions,
  11:Generated_Source\PSoC4/IDAC_1.c **** * disclaimers, and limitations in the end user license agreement accompanying
  12:Generated_Source\PSoC4/IDAC_1.c **** * the software package with which this file was provided.
  13:Generated_Source\PSoC4/IDAC_1.c **** *******************************************************************************/
  14:Generated_Source\PSoC4/IDAC_1.c **** 
  15:Generated_Source\PSoC4/IDAC_1.c **** #include "IDAC_1.h"
  16:Generated_Source\PSoC4/IDAC_1.c **** 
  17:Generated_Source\PSoC4/IDAC_1.c **** uint32 IDAC_1_initVar = 0u;
  18:Generated_Source\PSoC4/IDAC_1.c **** 
  19:Generated_Source\PSoC4/IDAC_1.c **** 
  20:Generated_Source\PSoC4/IDAC_1.c **** /*******************************************************************************
  21:Generated_Source\PSoC4/IDAC_1.c **** * Function Name: IDAC_1_Init
  22:Generated_Source\PSoC4/IDAC_1.c **** ********************************************************************************
  23:Generated_Source\PSoC4/IDAC_1.c **** *
ARM GAS  C:\Users\alexport\AppData\Local\Temp\ccGT4NC2.s 			page 2


  24:Generated_Source\PSoC4/IDAC_1.c **** * Summary:
  25:Generated_Source\PSoC4/IDAC_1.c **** *  Initializes IDAC registers with initial values provided from customizer.
  26:Generated_Source\PSoC4/IDAC_1.c **** *
  27:Generated_Source\PSoC4/IDAC_1.c **** * Parameters:
  28:Generated_Source\PSoC4/IDAC_1.c **** *  None
  29:Generated_Source\PSoC4/IDAC_1.c **** *
  30:Generated_Source\PSoC4/IDAC_1.c **** * Return:
  31:Generated_Source\PSoC4/IDAC_1.c **** *  None
  32:Generated_Source\PSoC4/IDAC_1.c **** *
  33:Generated_Source\PSoC4/IDAC_1.c **** * Global variables:
  34:Generated_Source\PSoC4/IDAC_1.c **** *  None
  35:Generated_Source\PSoC4/IDAC_1.c **** *
  36:Generated_Source\PSoC4/IDAC_1.c **** *******************************************************************************/
  37:Generated_Source\PSoC4/IDAC_1.c **** void IDAC_1_Init(void)
  38:Generated_Source\PSoC4/IDAC_1.c **** {
  35              		.loc 1 38 0
  36              		.cfi_startproc
  37              		@ args = 0, pretend = 0, frame = 8
  38              		@ frame_needed = 1, uses_anonymous_args = 0
  39 0000 90B5     		push	{r4, r7, lr}
  40              		.cfi_def_cfa_offset 12
  41              		.cfi_offset 4, -12
  42              		.cfi_offset 7, -8
  43              		.cfi_offset 14, -4
  44 0002 83B0     		sub	sp, sp, #12
  45              		.cfi_def_cfa_offset 24
  46 0004 00AF     		add	r7, sp, #0
  47              		.cfi_def_cfa_register 7
  39:Generated_Source\PSoC4/IDAC_1.c ****     uint32 regVal;
  40:Generated_Source\PSoC4/IDAC_1.c ****     uint8 enableInterrupts;
  41:Generated_Source\PSoC4/IDAC_1.c **** 
  42:Generated_Source\PSoC4/IDAC_1.c ****     /* Set initial configuration */
  43:Generated_Source\PSoC4/IDAC_1.c ****     enableInterrupts = CyEnterCriticalSection();
  48              		.loc 1 43 0
  49 0006 FC1D     		adds	r4, r7, #7
  50 0008 FFF7FEFF 		bl	CyEnterCriticalSection
  51 000c 0300     		movs	r3, r0
  52 000e 2370     		strb	r3, [r4]
  44:Generated_Source\PSoC4/IDAC_1.c ****     
  45:Generated_Source\PSoC4/IDAC_1.c ****     #if(IDAC_1_MODE_SOURCE == IDAC_1_IDAC_POLARITY)
  46:Generated_Source\PSoC4/IDAC_1.c ****         regVal  = IDAC_1_CSD_TRIM1_REG & ~(IDAC_1_CSD_IDAC_TRIM1_MASK);
  47:Generated_Source\PSoC4/IDAC_1.c ****         regVal |=  (IDAC_1_SFLASH_TRIM1_REG & IDAC_1_CSD_IDAC_TRIM1_MASK);
  48:Generated_Source\PSoC4/IDAC_1.c ****         IDAC_1_CSD_TRIM1_REG = regVal;
  49:Generated_Source\PSoC4/IDAC_1.c ****     #else
  50:Generated_Source\PSoC4/IDAC_1.c ****         regVal  = IDAC_1_CSD_TRIM2_REG & ~(IDAC_1_CSD_IDAC_TRIM2_MASK);
  53              		.loc 1 50 0
  54 0010 184B     		ldr	r3, .L2
  55 0012 1B68     		ldr	r3, [r3]
  56 0014 0F22     		movs	r2, #15
  57 0016 9343     		bics	r3, r2
  58 0018 3B60     		str	r3, [r7]
  51:Generated_Source\PSoC4/IDAC_1.c ****         regVal |=  (IDAC_1_SFLASH_TRIM2_REG & IDAC_1_CSD_IDAC_TRIM2_MASK);
  59              		.loc 1 51 0
  60 001a 174B     		ldr	r3, .L2+4
  61 001c 1B78     		ldrb	r3, [r3]
  62 001e DBB2     		uxtb	r3, r3
  63 0020 1A00     		movs	r2, r3
ARM GAS  C:\Users\alexport\AppData\Local\Temp\ccGT4NC2.s 			page 3


  64 0022 0F23     		movs	r3, #15
  65 0024 1340     		ands	r3, r2
  66 0026 3A68     		ldr	r2, [r7]
  67 0028 1343     		orrs	r3, r2
  68 002a 3B60     		str	r3, [r7]
  52:Generated_Source\PSoC4/IDAC_1.c ****         IDAC_1_CSD_TRIM2_REG = regVal;
  69              		.loc 1 52 0
  70 002c 114B     		ldr	r3, .L2
  71 002e 3A68     		ldr	r2, [r7]
  72 0030 1A60     		str	r2, [r3]
  53:Generated_Source\PSoC4/IDAC_1.c ****     #endif /* (IDAC_1_MODE_SOURCE == IDAC_1_IDAC_POLARITY) */
  54:Generated_Source\PSoC4/IDAC_1.c **** 
  55:Generated_Source\PSoC4/IDAC_1.c ****     /* clear previous values */
  56:Generated_Source\PSoC4/IDAC_1.c ****     IDAC_1_IDAC_CONTROL_REG &= ((uint32)~((uint32)IDAC_1_IDAC_VALUE_MASK <<
  73              		.loc 1 56 0
  74 0032 124B     		ldr	r3, .L2+8
  75 0034 114A     		ldr	r2, .L2+8
  76 0036 1268     		ldr	r2, [r2]
  77 0038 1A60     		str	r2, [r3]
  57:Generated_Source\PSoC4/IDAC_1.c ****         IDAC_1_IDAC_VALUE_POSITION)) | ((uint32)~((uint32)IDAC_1_IDAC_MODE_MASK <<
  58:Generated_Source\PSoC4/IDAC_1.c ****         IDAC_1_IDAC_MODE_POSITION))  | ((uint32)~((uint32)IDAC_1_IDAC_RANGE_MASK  <<
  59:Generated_Source\PSoC4/IDAC_1.c ****         IDAC_1_IDAC_RANGE_POSITION));
  60:Generated_Source\PSoC4/IDAC_1.c **** 
  61:Generated_Source\PSoC4/IDAC_1.c ****     IDAC_1_IDAC_POLARITY_CONTROL_REG &= (~(uint32)((uint32)IDAC_1_IDAC_POLARITY_MASK <<
  78              		.loc 1 61 0
  79 003a 114B     		ldr	r3, .L2+12
  80 003c 104A     		ldr	r2, .L2+12
  81 003e 1268     		ldr	r2, [r2]
  82 0040 1049     		ldr	r1, .L2+16
  83 0042 0A40     		ands	r2, r1
  84 0044 1A60     		str	r2, [r3]
  62:Generated_Source\PSoC4/IDAC_1.c ****         IDAC_1_IDAC_POLARITY_POSITION));
  63:Generated_Source\PSoC4/IDAC_1.c **** 
  64:Generated_Source\PSoC4/IDAC_1.c ****     /* set new configuration */
  65:Generated_Source\PSoC4/IDAC_1.c ****     IDAC_1_IDAC_CONTROL_REG |= (((uint32)IDAC_1_IDAC_INIT_VALUE <<
  85              		.loc 1 65 0
  86 0046 0D4B     		ldr	r3, .L2+8
  87 0048 0C4A     		ldr	r2, .L2+8
  88 004a 1268     		ldr	r2, [r2]
  89 004c 7821     		movs	r1, #120
  90 004e 0A43     		orrs	r2, r1
  91 0050 1A60     		str	r2, [r3]
  66:Generated_Source\PSoC4/IDAC_1.c ****         IDAC_1_IDAC_VALUE_POSITION) | ((uint32)IDAC_1_IDAC_RANGE <<
  67:Generated_Source\PSoC4/IDAC_1.c ****         IDAC_1_IDAC_RANGE_POSITION));
  68:Generated_Source\PSoC4/IDAC_1.c **** 
  69:Generated_Source\PSoC4/IDAC_1.c ****     IDAC_1_IDAC_POLARITY_CONTROL_REG |= ((uint32)IDAC_1_IDAC_POLARITY <<
  92              		.loc 1 69 0
  93 0052 0B4B     		ldr	r3, .L2+12
  94 0054 0A4A     		ldr	r2, .L2+12
  95 0056 1268     		ldr	r2, [r2]
  96 0058 8021     		movs	r1, #128
  97 005a 4902     		lsls	r1, r1, #9
  98 005c 0A43     		orrs	r2, r1
  99 005e 1A60     		str	r2, [r3]
  70:Generated_Source\PSoC4/IDAC_1.c ****                                                            IDAC_1_IDAC_POLARITY_POSITION);
  71:Generated_Source\PSoC4/IDAC_1.c **** 
  72:Generated_Source\PSoC4/IDAC_1.c ****     CyExitCriticalSection(enableInterrupts);
ARM GAS  C:\Users\alexport\AppData\Local\Temp\ccGT4NC2.s 			page 4


 100              		.loc 1 72 0
 101 0060 FB1D     		adds	r3, r7, #7
 102 0062 1B78     		ldrb	r3, [r3]
 103 0064 1800     		movs	r0, r3
 104 0066 FFF7FEFF 		bl	CyExitCriticalSection
  73:Generated_Source\PSoC4/IDAC_1.c **** 
  74:Generated_Source\PSoC4/IDAC_1.c **** }
 105              		.loc 1 74 0
 106 006a C046     		nop
 107 006c BD46     		mov	sp, r7
 108 006e 03B0     		add	sp, sp, #12
 109              		@ sp needed
 110 0070 90BD     		pop	{r4, r7, pc}
 111              	.L3:
 112 0072 C046     		.align	2
 113              	.L2:
 114 0074 04FF2840 		.word	1076428548
 115 0078 61F2FF0F 		.word	268431969
 116 007c 08002840 		.word	1076363272
 117 0080 04002840 		.word	1076363268
 118 0084 FFFFFEFF 		.word	-65537
 119              		.cfi_endproc
 120              	.LFE2:
 121              		.size	IDAC_1_Init, .-IDAC_1_Init
 122              		.section	.text.IDAC_1_Enable,"ax",%progbits
 123              		.align	2
 124              		.global	IDAC_1_Enable
 125              		.code	16
 126              		.thumb_func
 127              		.type	IDAC_1_Enable, %function
 128              	IDAC_1_Enable:
 129              	.LFB3:
  75:Generated_Source\PSoC4/IDAC_1.c **** 
  76:Generated_Source\PSoC4/IDAC_1.c **** 
  77:Generated_Source\PSoC4/IDAC_1.c **** /*******************************************************************************
  78:Generated_Source\PSoC4/IDAC_1.c **** * Function Name: IDAC_1_Enable
  79:Generated_Source\PSoC4/IDAC_1.c **** ********************************************************************************
  80:Generated_Source\PSoC4/IDAC_1.c **** *
  81:Generated_Source\PSoC4/IDAC_1.c **** * Summary:
  82:Generated_Source\PSoC4/IDAC_1.c **** *  Enables IDAC operations.
  83:Generated_Source\PSoC4/IDAC_1.c **** *
  84:Generated_Source\PSoC4/IDAC_1.c **** * Parameters:
  85:Generated_Source\PSoC4/IDAC_1.c **** *  None
  86:Generated_Source\PSoC4/IDAC_1.c **** *
  87:Generated_Source\PSoC4/IDAC_1.c **** * Return:
  88:Generated_Source\PSoC4/IDAC_1.c **** *  None
  89:Generated_Source\PSoC4/IDAC_1.c **** *
  90:Generated_Source\PSoC4/IDAC_1.c **** * Global variables:
  91:Generated_Source\PSoC4/IDAC_1.c **** *  None
  92:Generated_Source\PSoC4/IDAC_1.c **** *
  93:Generated_Source\PSoC4/IDAC_1.c **** *******************************************************************************/
  94:Generated_Source\PSoC4/IDAC_1.c **** void IDAC_1_Enable(void)
  95:Generated_Source\PSoC4/IDAC_1.c **** {
 130              		.loc 1 95 0
 131              		.cfi_startproc
 132              		@ args = 0, pretend = 0, frame = 8
 133              		@ frame_needed = 1, uses_anonymous_args = 0
ARM GAS  C:\Users\alexport\AppData\Local\Temp\ccGT4NC2.s 			page 5


 134 0000 90B5     		push	{r4, r7, lr}
 135              		.cfi_def_cfa_offset 12
 136              		.cfi_offset 4, -12
 137              		.cfi_offset 7, -8
 138              		.cfi_offset 14, -4
 139 0002 83B0     		sub	sp, sp, #12
 140              		.cfi_def_cfa_offset 24
 141 0004 00AF     		add	r7, sp, #0
 142              		.cfi_def_cfa_register 7
  96:Generated_Source\PSoC4/IDAC_1.c ****     uint8 enableInterrupts;
  97:Generated_Source\PSoC4/IDAC_1.c **** 
  98:Generated_Source\PSoC4/IDAC_1.c ****     enableInterrupts = CyEnterCriticalSection();
 143              		.loc 1 98 0
 144 0006 FC1D     		adds	r4, r7, #7
 145 0008 FFF7FEFF 		bl	CyEnterCriticalSection
 146 000c 0300     		movs	r3, r0
 147 000e 2370     		strb	r3, [r4]
  99:Generated_Source\PSoC4/IDAC_1.c **** 
 100:Generated_Source\PSoC4/IDAC_1.c ****     /* Enable the IDAC */
 101:Generated_Source\PSoC4/IDAC_1.c ****     IDAC_1_IDAC_CONTROL_REG |= ((uint32)IDAC_1_IDAC_EN_MODE <<
 148              		.loc 1 101 0
 149 0010 0B4B     		ldr	r3, .L5
 150 0012 0B4A     		ldr	r2, .L5
 151 0014 1268     		ldr	r2, [r2]
 152 0016 C021     		movs	r1, #192
 153 0018 8900     		lsls	r1, r1, #2
 154 001a 0A43     		orrs	r2, r1
 155 001c 1A60     		str	r2, [r3]
 102:Generated_Source\PSoC4/IDAC_1.c ****                                                   IDAC_1_IDAC_MODE_POSITION);
 103:Generated_Source\PSoC4/IDAC_1.c ****     IDAC_1_IDAC_POLARITY_CONTROL_REG |= ((uint32)IDAC_1_IDAC_CSD_EN <<
 156              		.loc 1 103 0
 157 001e 094B     		ldr	r3, .L5+4
 158 0020 084A     		ldr	r2, .L5+4
 159 0022 1268     		ldr	r2, [r2]
 160 0024 8021     		movs	r1, #128
 161 0026 0906     		lsls	r1, r1, #24
 162 0028 0A43     		orrs	r2, r1
 163 002a 1A60     		str	r2, [r3]
 104:Generated_Source\PSoC4/IDAC_1.c ****                                                            IDAC_1_IDAC_CSD_EN_POSITION);
 105:Generated_Source\PSoC4/IDAC_1.c ****     CyExitCriticalSection(enableInterrupts);
 164              		.loc 1 105 0
 165 002c FB1D     		adds	r3, r7, #7
 166 002e 1B78     		ldrb	r3, [r3]
 167 0030 1800     		movs	r0, r3
 168 0032 FFF7FEFF 		bl	CyExitCriticalSection
 106:Generated_Source\PSoC4/IDAC_1.c **** 
 107:Generated_Source\PSoC4/IDAC_1.c **** }
 169              		.loc 1 107 0
 170 0036 C046     		nop
 171 0038 BD46     		mov	sp, r7
 172 003a 03B0     		add	sp, sp, #12
 173              		@ sp needed
 174 003c 90BD     		pop	{r4, r7, pc}
 175              	.L6:
 176 003e C046     		.align	2
 177              	.L5:
 178 0040 08002840 		.word	1076363272
ARM GAS  C:\Users\alexport\AppData\Local\Temp\ccGT4NC2.s 			page 6


 179 0044 04002840 		.word	1076363268
 180              		.cfi_endproc
 181              	.LFE3:
 182              		.size	IDAC_1_Enable, .-IDAC_1_Enable
 183              		.section	.text.IDAC_1_Start,"ax",%progbits
 184              		.align	2
 185              		.global	IDAC_1_Start
 186              		.code	16
 187              		.thumb_func
 188              		.type	IDAC_1_Start, %function
 189              	IDAC_1_Start:
 190              	.LFB4:
 108:Generated_Source\PSoC4/IDAC_1.c **** 
 109:Generated_Source\PSoC4/IDAC_1.c **** 
 110:Generated_Source\PSoC4/IDAC_1.c **** /*******************************************************************************
 111:Generated_Source\PSoC4/IDAC_1.c **** * Function Name: IDAC_1_Start
 112:Generated_Source\PSoC4/IDAC_1.c **** ********************************************************************************
 113:Generated_Source\PSoC4/IDAC_1.c **** *
 114:Generated_Source\PSoC4/IDAC_1.c **** * Summary:
 115:Generated_Source\PSoC4/IDAC_1.c **** *  Starts the IDAC hardware.
 116:Generated_Source\PSoC4/IDAC_1.c **** *
 117:Generated_Source\PSoC4/IDAC_1.c **** * Parameters:
 118:Generated_Source\PSoC4/IDAC_1.c **** *  None
 119:Generated_Source\PSoC4/IDAC_1.c **** *
 120:Generated_Source\PSoC4/IDAC_1.c **** * Return:
 121:Generated_Source\PSoC4/IDAC_1.c **** *  None
 122:Generated_Source\PSoC4/IDAC_1.c **** *
 123:Generated_Source\PSoC4/IDAC_1.c **** * Global variables:
 124:Generated_Source\PSoC4/IDAC_1.c **** *  IDAC_1_initVar
 125:Generated_Source\PSoC4/IDAC_1.c **** *
 126:Generated_Source\PSoC4/IDAC_1.c **** *******************************************************************************/
 127:Generated_Source\PSoC4/IDAC_1.c **** void IDAC_1_Start(void)
 128:Generated_Source\PSoC4/IDAC_1.c **** {
 191              		.loc 1 128 0
 192              		.cfi_startproc
 193              		@ args = 0, pretend = 0, frame = 0
 194              		@ frame_needed = 1, uses_anonymous_args = 0
 195 0000 80B5     		push	{r7, lr}
 196              		.cfi_def_cfa_offset 8
 197              		.cfi_offset 7, -8
 198              		.cfi_offset 14, -4
 199 0002 00AF     		add	r7, sp, #0
 200              		.cfi_def_cfa_register 7
 129:Generated_Source\PSoC4/IDAC_1.c ****     if(0u == IDAC_1_initVar)
 201              		.loc 1 129 0
 202 0004 064B     		ldr	r3, .L9
 203 0006 1B68     		ldr	r3, [r3]
 204 0008 002B     		cmp	r3, #0
 205 000a 04D1     		bne	.L8
 130:Generated_Source\PSoC4/IDAC_1.c ****     {
 131:Generated_Source\PSoC4/IDAC_1.c ****         IDAC_1_Init();
 206              		.loc 1 131 0
 207 000c FFF7FEFF 		bl	IDAC_1_Init
 132:Generated_Source\PSoC4/IDAC_1.c ****         IDAC_1_initVar = 1u;
 208              		.loc 1 132 0
 209 0010 034B     		ldr	r3, .L9
 210 0012 0122     		movs	r2, #1
ARM GAS  C:\Users\alexport\AppData\Local\Temp\ccGT4NC2.s 			page 7


 211 0014 1A60     		str	r2, [r3]
 212              	.L8:
 133:Generated_Source\PSoC4/IDAC_1.c ****     }
 134:Generated_Source\PSoC4/IDAC_1.c **** 
 135:Generated_Source\PSoC4/IDAC_1.c ****     IDAC_1_Enable();
 213              		.loc 1 135 0
 214 0016 FFF7FEFF 		bl	IDAC_1_Enable
 136:Generated_Source\PSoC4/IDAC_1.c **** 
 137:Generated_Source\PSoC4/IDAC_1.c **** }
 215              		.loc 1 137 0
 216 001a C046     		nop
 217 001c BD46     		mov	sp, r7
 218              		@ sp needed
 219 001e 80BD     		pop	{r7, pc}
 220              	.L10:
 221              		.align	2
 222              	.L9:
 223 0020 00000000 		.word	IDAC_1_initVar
 224              		.cfi_endproc
 225              	.LFE4:
 226              		.size	IDAC_1_Start, .-IDAC_1_Start
 227              		.section	.text.IDAC_1_Stop,"ax",%progbits
 228              		.align	2
 229              		.global	IDAC_1_Stop
 230              		.code	16
 231              		.thumb_func
 232              		.type	IDAC_1_Stop, %function
 233              	IDAC_1_Stop:
 234              	.LFB5:
 138:Generated_Source\PSoC4/IDAC_1.c **** 
 139:Generated_Source\PSoC4/IDAC_1.c **** 
 140:Generated_Source\PSoC4/IDAC_1.c **** /*******************************************************************************
 141:Generated_Source\PSoC4/IDAC_1.c **** * Function Name: IDAC_1_Stop
 142:Generated_Source\PSoC4/IDAC_1.c **** ********************************************************************************
 143:Generated_Source\PSoC4/IDAC_1.c **** *
 144:Generated_Source\PSoC4/IDAC_1.c **** * Summary:
 145:Generated_Source\PSoC4/IDAC_1.c **** *  Stops the IDAC hardware.
 146:Generated_Source\PSoC4/IDAC_1.c **** *
 147:Generated_Source\PSoC4/IDAC_1.c **** * Parameters:
 148:Generated_Source\PSoC4/IDAC_1.c **** *  None
 149:Generated_Source\PSoC4/IDAC_1.c **** *
 150:Generated_Source\PSoC4/IDAC_1.c **** * Return:
 151:Generated_Source\PSoC4/IDAC_1.c **** *  None
 152:Generated_Source\PSoC4/IDAC_1.c **** *
 153:Generated_Source\PSoC4/IDAC_1.c **** * Global variables:
 154:Generated_Source\PSoC4/IDAC_1.c **** *  None
 155:Generated_Source\PSoC4/IDAC_1.c **** *
 156:Generated_Source\PSoC4/IDAC_1.c **** *******************************************************************************/
 157:Generated_Source\PSoC4/IDAC_1.c **** void IDAC_1_Stop(void)
 158:Generated_Source\PSoC4/IDAC_1.c **** {
 235              		.loc 1 158 0
 236              		.cfi_startproc
 237              		@ args = 0, pretend = 0, frame = 8
 238              		@ frame_needed = 1, uses_anonymous_args = 0
 239 0000 90B5     		push	{r4, r7, lr}
 240              		.cfi_def_cfa_offset 12
 241              		.cfi_offset 4, -12
ARM GAS  C:\Users\alexport\AppData\Local\Temp\ccGT4NC2.s 			page 8


 242              		.cfi_offset 7, -8
 243              		.cfi_offset 14, -4
 244 0002 83B0     		sub	sp, sp, #12
 245              		.cfi_def_cfa_offset 24
 246 0004 00AF     		add	r7, sp, #0
 247              		.cfi_def_cfa_register 7
 159:Generated_Source\PSoC4/IDAC_1.c ****     uint8 enableInterrupts;
 160:Generated_Source\PSoC4/IDAC_1.c **** 
 161:Generated_Source\PSoC4/IDAC_1.c ****     enableInterrupts = CyEnterCriticalSection();
 248              		.loc 1 161 0
 249 0006 FC1D     		adds	r4, r7, #7
 250 0008 FFF7FEFF 		bl	CyEnterCriticalSection
 251 000c 0300     		movs	r3, r0
 252 000e 2370     		strb	r3, [r4]
 162:Generated_Source\PSoC4/IDAC_1.c **** 
 163:Generated_Source\PSoC4/IDAC_1.c ****     /* Disable the IDAC */
 164:Generated_Source\PSoC4/IDAC_1.c ****     IDAC_1_IDAC_CONTROL_REG &= ((uint32)~((uint32)IDAC_1_IDAC_MODE_MASK <<
 253              		.loc 1 164 0
 254 0010 074B     		ldr	r3, .L12
 255 0012 074A     		ldr	r2, .L12
 256 0014 1268     		ldr	r2, [r2]
 257 0016 0749     		ldr	r1, .L12+4
 258 0018 0A40     		ands	r2, r1
 259 001a 1A60     		str	r2, [r3]
 165:Generated_Source\PSoC4/IDAC_1.c ****         IDAC_1_IDAC_MODE_POSITION));
 166:Generated_Source\PSoC4/IDAC_1.c ****     CyExitCriticalSection(enableInterrupts);
 260              		.loc 1 166 0
 261 001c FB1D     		adds	r3, r7, #7
 262 001e 1B78     		ldrb	r3, [r3]
 263 0020 1800     		movs	r0, r3
 264 0022 FFF7FEFF 		bl	CyExitCriticalSection
 167:Generated_Source\PSoC4/IDAC_1.c **** }
 265              		.loc 1 167 0
 266 0026 C046     		nop
 267 0028 BD46     		mov	sp, r7
 268 002a 03B0     		add	sp, sp, #12
 269              		@ sp needed
 270 002c 90BD     		pop	{r4, r7, pc}
 271              	.L13:
 272 002e C046     		.align	2
 273              	.L12:
 274 0030 08002840 		.word	1076363272
 275 0034 FFFCFFFF 		.word	-769
 276              		.cfi_endproc
 277              	.LFE5:
 278              		.size	IDAC_1_Stop, .-IDAC_1_Stop
 279              		.section	.text.IDAC_1_SetValue,"ax",%progbits
 280              		.align	2
 281              		.global	IDAC_1_SetValue
 282              		.code	16
 283              		.thumb_func
 284              		.type	IDAC_1_SetValue, %function
 285              	IDAC_1_SetValue:
 286              	.LFB6:
 168:Generated_Source\PSoC4/IDAC_1.c **** 
 169:Generated_Source\PSoC4/IDAC_1.c **** 
 170:Generated_Source\PSoC4/IDAC_1.c **** /*******************************************************************************
ARM GAS  C:\Users\alexport\AppData\Local\Temp\ccGT4NC2.s 			page 9


 171:Generated_Source\PSoC4/IDAC_1.c **** * Function Name: IDAC_1_SetValue
 172:Generated_Source\PSoC4/IDAC_1.c **** ********************************************************************************
 173:Generated_Source\PSoC4/IDAC_1.c **** *
 174:Generated_Source\PSoC4/IDAC_1.c **** * Summary:
 175:Generated_Source\PSoC4/IDAC_1.c **** *  Sets the IDAC value.
 176:Generated_Source\PSoC4/IDAC_1.c **** *
 177:Generated_Source\PSoC4/IDAC_1.c **** * Parameters:
 178:Generated_Source\PSoC4/IDAC_1.c **** *  uint32 value
 179:Generated_Source\PSoC4/IDAC_1.c **** *
 180:Generated_Source\PSoC4/IDAC_1.c **** * Return:
 181:Generated_Source\PSoC4/IDAC_1.c **** *  None
 182:Generated_Source\PSoC4/IDAC_1.c **** *
 183:Generated_Source\PSoC4/IDAC_1.c **** * Global variables:
 184:Generated_Source\PSoC4/IDAC_1.c **** *  None
 185:Generated_Source\PSoC4/IDAC_1.c **** *
 186:Generated_Source\PSoC4/IDAC_1.c **** *******************************************************************************/
 187:Generated_Source\PSoC4/IDAC_1.c **** void IDAC_1_SetValue(uint32 value)
 188:Generated_Source\PSoC4/IDAC_1.c **** {
 287              		.loc 1 188 0
 288              		.cfi_startproc
 289              		@ args = 0, pretend = 0, frame = 16
 290              		@ frame_needed = 1, uses_anonymous_args = 0
 291 0000 90B5     		push	{r4, r7, lr}
 292              		.cfi_def_cfa_offset 12
 293              		.cfi_offset 4, -12
 294              		.cfi_offset 7, -8
 295              		.cfi_offset 14, -4
 296 0002 85B0     		sub	sp, sp, #20
 297              		.cfi_def_cfa_offset 32
 298 0004 00AF     		add	r7, sp, #0
 299              		.cfi_def_cfa_register 7
 300 0006 7860     		str	r0, [r7, #4]
 189:Generated_Source\PSoC4/IDAC_1.c ****     uint8 enableInterrupts;
 190:Generated_Source\PSoC4/IDAC_1.c ****     uint32 newRegisterValue;
 191:Generated_Source\PSoC4/IDAC_1.c **** 
 192:Generated_Source\PSoC4/IDAC_1.c ****     enableInterrupts = CyEnterCriticalSection();
 301              		.loc 1 192 0
 302 0008 0F23     		movs	r3, #15
 303 000a FC18     		adds	r4, r7, r3
 304 000c FFF7FEFF 		bl	CyEnterCriticalSection
 305 0010 0300     		movs	r3, r0
 306 0012 2370     		strb	r3, [r4]
 193:Generated_Source\PSoC4/IDAC_1.c **** 
 194:Generated_Source\PSoC4/IDAC_1.c ****     #if(IDAC_1_IDAC_VALUE_POSITION != 0u)
 195:Generated_Source\PSoC4/IDAC_1.c ****         newRegisterValue = ((IDAC_1_IDAC_CONTROL_REG & (~(uint32)((uint32)IDAC_1_IDAC_VALUE_MASK <<
 196:Generated_Source\PSoC4/IDAC_1.c ****         IDAC_1_IDAC_VALUE_POSITION))) | (value << IDAC_1_IDAC_VALUE_POSITION));
 197:Generated_Source\PSoC4/IDAC_1.c ****     #else
 198:Generated_Source\PSoC4/IDAC_1.c ****         newRegisterValue = ((IDAC_1_IDAC_CONTROL_REG & (~(uint32)IDAC_1_IDAC_VALUE_MASK)) | value);
 307              		.loc 1 198 0
 308 0014 0A4B     		ldr	r3, .L15
 309 0016 1B68     		ldr	r3, [r3]
 310 0018 FF22     		movs	r2, #255
 311 001a 9343     		bics	r3, r2
 312 001c 1A00     		movs	r2, r3
 313 001e 7B68     		ldr	r3, [r7, #4]
 314 0020 1343     		orrs	r3, r2
 315 0022 BB60     		str	r3, [r7, #8]
ARM GAS  C:\Users\alexport\AppData\Local\Temp\ccGT4NC2.s 			page 10


 199:Generated_Source\PSoC4/IDAC_1.c ****     #endif /* IDAC_1_IDAC_VALUE_POSITION != 0u */
 200:Generated_Source\PSoC4/IDAC_1.c **** 
 201:Generated_Source\PSoC4/IDAC_1.c ****     IDAC_1_IDAC_CONTROL_REG = newRegisterValue;
 316              		.loc 1 201 0
 317 0024 064B     		ldr	r3, .L15
 318 0026 BA68     		ldr	r2, [r7, #8]
 319 0028 1A60     		str	r2, [r3]
 202:Generated_Source\PSoC4/IDAC_1.c **** 
 203:Generated_Source\PSoC4/IDAC_1.c ****     CyExitCriticalSection(enableInterrupts);
 320              		.loc 1 203 0
 321 002a 0F23     		movs	r3, #15
 322 002c FB18     		adds	r3, r7, r3
 323 002e 1B78     		ldrb	r3, [r3]
 324 0030 1800     		movs	r0, r3
 325 0032 FFF7FEFF 		bl	CyExitCriticalSection
 204:Generated_Source\PSoC4/IDAC_1.c **** }
 326              		.loc 1 204 0
 327 0036 C046     		nop
 328 0038 BD46     		mov	sp, r7
 329 003a 05B0     		add	sp, sp, #20
 330              		@ sp needed
 331 003c 90BD     		pop	{r4, r7, pc}
 332              	.L16:
 333 003e C046     		.align	2
 334              	.L15:
 335 0040 08002840 		.word	1076363272
 336              		.cfi_endproc
 337              	.LFE6:
 338              		.size	IDAC_1_SetValue, .-IDAC_1_SetValue
 339              		.text
 340              	.Letext0:
 341              		.file 2 "Generated_Source\\PSoC4\\cytypes.h"