ARM GAS  C:\Users\alexport\AppData\Local\Temp\cc1wJ45U.s 			page 1


   1              		.syntax unified
   2              		.cpu cortex-m0
   3              		.fpu softvfp
   4              		.eabi_attribute 20, 1
   5              		.eabi_attribute 21, 1
   6              		.eabi_attribute 23, 3
   7              		.eabi_attribute 24, 1
   8              		.eabi_attribute 25, 1
   9              		.eabi_attribute 26, 1
  10              		.eabi_attribute 30, 6
  11              		.eabi_attribute 34, 0
  12              		.eabi_attribute 18, 4
  13              		.thumb
  14              		.syntax unified
  15              		.file	"interrupts.c"
  16              		.text
  17              	.Ltext0:
  18              		.cfi_sections	.debug_frame
  19              		.comm	startI2CRead,1,1
  20              		.global	msTick
  21              		.bss
  22              		.align	2
  23              		.type	msTick, %object
  24              		.size	msTick, 4
  25              	msTick:
  26 0000 00000000 		.space	4
  27              		.global	sTick
  28              		.align	2
  29              		.type	sTick, %object
  30              		.size	sTick, 4
  31              	sTick:
  32 0004 00000000 		.space	4
  33              		.global	blinkerTick
  34              		.align	2
  35              		.type	blinkerTick, %object
  36              		.size	blinkerTick, 4
  37              	blinkerTick:
  38 0008 00000000 		.space	4
  39              		.global	strobeTick
  40              		.align	2
  41              		.type	strobeTick, %object
  42              		.size	strobeTick, 4
  43              	strobeTick:
  44 000c 00000000 		.space	4
  45              		.comm	deepSleep,1,1
  46              		.comm	bleConnected,1,1
  47              		.section	.text.SysWdtIsrHandler,"ax",%progbits
  48              		.align	2
  49              		.global	SysWdtIsrHandler
  50              		.code	16
  51              		.thumb_func
  52              		.type	SysWdtIsrHandler, %function
  53              	SysWdtIsrHandler:
  54              	.LFB35:
  55              		.file 1 "interrupts.c"
   1:interrupts.c  ****  /* ========================================
   2:interrupts.c  ****  *
ARM GAS  C:\Users\alexport\AppData\Local\Temp\cc1wJ45U.s 			page 2


   3:interrupts.c  ****  * Copyright Sam Walsh, 2014
   4:interrupts.c  ****  * All Rights Reserved.
   5:interrupts.c  ****  *
   6:interrupts.c  ****  * Interrupts.c Contains all the interrupts, put your own in here..
   7:interrupts.c  ****  *
   8:interrupts.c  ****  * ========================================
   9:interrupts.c  **** */
  10:interrupts.c  **** #include <project.h>
  11:interrupts.c  **** #include <cydevice_trm.h>
  12:interrupts.c  **** #include <CyLib.h>
  13:interrupts.c  **** #include <interrupts.h>
  14:interrupts.c  **** #include <ModbusUART.h>
  15:interrupts.c  **** #include "modbus.h"
  16:interrupts.c  **** #include "runtime.h"
  17:interrupts.c  **** 
  18:interrupts.c  **** 
  19:interrupts.c  **** #define SW_PRESSED    0x00
  20:interrupts.c  **** #define SW_RELEASED   0x01
  21:interrupts.c  **** 
  22:interrupts.c  **** 
  23:interrupts.c  **** //#define BTN_NONE    0x03
  24:interrupts.c  **** //#define BTN_RIGHT   0x02
  25:interrupts.c  **** //#define BTN_LEFT    0x01
  26:interrupts.c  **** 
  27:interrupts.c  **** uint32_t msTick = 0;
  28:interrupts.c  **** uint32_t sTick = 0; 
  29:interrupts.c  **** 
  30:interrupts.c  **** uint32_t blinkerTick = 0;
  31:interrupts.c  **** uint32_t strobeTick = 0;
  32:interrupts.c  **** extern uint8_t blinker;
  33:interrupts.c  **** extern uint8_t strobe;
  34:interrupts.c  **** 
  35:interrupts.c  **** extern uint8_t rcvByte;
  36:interrupts.c  **** extern uint8_t bytesIn;
  37:interrupts.c  **** extern uint8_t modbusRequestReceived;
  38:interrupts.c  **** extern uint8_t modbus_rxBuffer[MODBUS_RX_BUFFER_SIZE];
  39:interrupts.c  **** 
  40:interrupts.c  **** extern uint8_t SW1_Pressed;
  41:interrupts.c  **** extern uint8_t SW2_Pressed;
  42:interrupts.c  **** extern uint8_t SW1_2_Released;
  43:interrupts.c  **** extern uint8_t SW3_Pressed;
  44:interrupts.c  **** extern uint8_t SW4_Pressed;
  45:interrupts.c  **** extern uint8_t SW3_4_Released;
  46:interrupts.c  **** 
  47:interrupts.c  **** 
  48:interrupts.c  **** 
  49:interrupts.c  **** extern uint16_t i2cPeriod;
  50:interrupts.c  **** extern uint8_t startI2CRead;
  51:interrupts.c  **** extern uint8_t startI2CWrite;
  52:interrupts.c  **** 
  53:interrupts.c  **** 
  54:interrupts.c  **** 
  55:interrupts.c  **** volatile uint8_t deepSleep;
  56:interrupts.c  **** extern uint8_t mySlaveAddr,msa;
  57:interrupts.c  **** volatile uint8_t bleConnected;
  58:interrupts.c  **** 
  59:interrupts.c  **** extern uint8_t bleTimerExpired;
ARM GAS  C:\Users\alexport\AppData\Local\Temp\cc1wJ45U.s 			page 3


  60:interrupts.c  **** 
  61:interrupts.c  **** extern uint8_t updateEn;
  62:interrupts.c  **** 
  63:interrupts.c  **** extern uint8_t rs232RxBuffer[RS232_RX_BUFFER_SIZE];
  64:interrupts.c  **** extern uint8_t rs232RequestReceived;
  65:interrupts.c  **** 
  66:interrupts.c  **** 
  67:interrupts.c  **** 
  68:interrupts.c  **** 
  69:interrupts.c  **** //CY_ISR(RS232_isr){
  70:interrupts.c  **** //    static uint8_t byteCnt; 
  71:interrupts.c  **** //    
  72:interrupts.c  **** //    isr_RS232Rx_ClearPending();
  73:interrupts.c  **** //    rs232RxBuffer[byteCnt++] = RS232UART_GetChar(); 
  74:interrupts.c  **** //    if(byteCnt >=8){
  75:interrupts.c  **** //        byteCnt=0;
  76:interrupts.c  **** //        rs232RequestReceived=1;
  77:interrupts.c  **** //    }
  78:interrupts.c  **** //} 
  79:interrupts.c  **** 
  80:interrupts.c  **** 
  81:interrupts.c  **** CY_ISR(SysWdtIsrHandler)
  82:interrupts.c  **** {
  56              		.loc 1 82 0
  57              		.cfi_startproc
  58              		@ args = 0, pretend = 0, frame = 0
  59              		@ frame_needed = 1, uses_anonymous_args = 0
  60 0000 80B5     		push	{r7, lr}
  61              		.cfi_def_cfa_offset 8
  62              		.cfi_offset 7, -8
  63              		.cfi_offset 14, -4
  64 0002 00AF     		add	r7, sp, #0
  65              		.cfi_def_cfa_register 7
  83:interrupts.c  **** 	CySysWdtClearInterrupt(CY_SYS_WDT_COUNTER0_INT);                            /* Clear the counter i
  66              		.loc 1 83 0
  67 0004 0420     		movs	r0, #4
  68 0006 FFF7FEFF 		bl	CySysWdtClearInterrupt
  84:interrupts.c  ****     CySysWdtClearInterrupt(CY_SYS_WDT_COUNTER1_INT);                            /* Clear the counte
  69              		.loc 1 84 0
  70 000a 8023     		movs	r3, #128
  71 000c DB00     		lsls	r3, r3, #3
  72 000e 1800     		movs	r0, r3
  73 0010 FFF7FEFF 		bl	CySysWdtClearInterrupt
  85:interrupts.c  ****     WdtIsr_ClearPending();                                                      /* Clear WDT interr
  74              		.loc 1 85 0
  75 0014 FFF7FEFF 		bl	WdtIsr_ClearPending
  86:interrupts.c  **** }
  76              		.loc 1 86 0
  77 0018 C046     		nop
  78 001a BD46     		mov	sp, r7
  79              		@ sp needed
  80 001c 80BD     		pop	{r7, pc}
  81              		.cfi_endproc
  82              	.LFE35:
  83              		.size	SysWdtIsrHandler, .-SysWdtIsrHandler
  84 001e C046     		.section	.text.NewMessage_isr,"ax",%progbits
  85              		.align	2
ARM GAS  C:\Users\alexport\AppData\Local\Temp\cc1wJ45U.s 			page 4


  86              		.global	NewMessage_isr
  87              		.code	16
  88              		.thumb_func
  89              		.type	NewMessage_isr, %function
  90              	NewMessage_isr:
  91              	.LFB36:
  87:interrupts.c  **** 
  88:interrupts.c  **** 
  89:interrupts.c  **** extern uint8 newM;
  90:interrupts.c  **** 
  91:interrupts.c  **** CY_ISR(NewMessage_isr){
  92              		.loc 1 91 0
  93              		.cfi_startproc
  94              		@ args = 0, pretend = 0, frame = 8
  95              		@ frame_needed = 1, uses_anonymous_args = 0
  96 0000 80B5     		push	{r7, lr}
  97              		.cfi_def_cfa_offset 8
  98              		.cfi_offset 7, -8
  99              		.cfi_offset 14, -4
 100 0002 82B0     		sub	sp, sp, #8
 101              		.cfi_def_cfa_offset 16
 102 0004 00AF     		add	r7, sp, #0
 103              		.cfi_def_cfa_register 7
  92:interrupts.c  **** 
  93:interrupts.c  ****     newM=1;
 104              		.loc 1 93 0
 105 0006 074B     		ldr	r3, .L3
 106 0008 0122     		movs	r2, #1
 107 000a 1A70     		strb	r2, [r3]
  94:interrupts.c  ****     uint32 source = MessageTimer_GetInterruptSource();
 108              		.loc 1 94 0
 109 000c FFF7FEFF 		bl	MessageTimer_GetInterruptSource
 110 0010 0300     		movs	r3, r0
 111 0012 7B60     		str	r3, [r7, #4]
  95:interrupts.c  ****     MessageTimer_ClearInterrupt(source);
 112              		.loc 1 95 0
 113 0014 7B68     		ldr	r3, [r7, #4]
 114 0016 1800     		movs	r0, r3
 115 0018 FFF7FEFF 		bl	MessageTimer_ClearInterrupt
  96:interrupts.c  ****     
  97:interrupts.c  **** }
 116              		.loc 1 97 0
 117 001c C046     		nop
 118 001e BD46     		mov	sp, r7
 119 0020 02B0     		add	sp, sp, #8
 120              		@ sp needed
 121 0022 80BD     		pop	{r7, pc}
 122              	.L4:
 123              		.align	2
 124              	.L3:
 125 0024 00000000 		.word	newM
 126              		.cfi_endproc
 127              	.LFE36:
 128              		.size	NewMessage_isr, .-NewMessage_isr
 129              		.section	.text.ModbusByteIn_isr,"ax",%progbits
 130              		.align	2
 131              		.global	ModbusByteIn_isr
ARM GAS  C:\Users\alexport\AppData\Local\Temp\cc1wJ45U.s 			page 5


 132              		.code	16
 133              		.thumb_func
 134              		.type	ModbusByteIn_isr, %function
 135              	ModbusByteIn_isr:
 136              	.LFB37:
  98:interrupts.c  **** 
  99:interrupts.c  **** 
 100:interrupts.c  **** CY_ISR(ModbusByteIn_isr) 
 101:interrupts.c  **** {  
 137              		.loc 1 101 0
 138              		.cfi_startproc
 139              		@ args = 0, pretend = 0, frame = 8
 140              		@ frame_needed = 1, uses_anonymous_args = 0
 141 0000 90B5     		push	{r4, r7, lr}
 142              		.cfi_def_cfa_offset 12
 143              		.cfi_offset 4, -12
 144              		.cfi_offset 7, -8
 145              		.cfi_offset 14, -4
 146 0002 83B0     		sub	sp, sp, #12
 147              		.cfi_def_cfa_offset 24
 148 0004 00AF     		add	r7, sp, #0
 149              		.cfi_def_cfa_register 7
 102:interrupts.c  ****     uint32 size;
 103:interrupts.c  ****     uint32 InterruptSource;
 104:interrupts.c  ****     
 105:interrupts.c  **** #ifdef DEEPSLEEP
 106:interrupts.c  ****     BLETimer_WriteCounter(0);
 150              		.loc 1 106 0
 151 0006 0020     		movs	r0, #0
 152 0008 FFF7FEFF 		bl	BLETimer_WriteCounter
 107:interrupts.c  ****     BLETimer_Start();
 153              		.loc 1 107 0
 154 000c FFF7FEFF 		bl	BLETimer_Start
 108:interrupts.c  **** #endif 
 109:interrupts.c  ****     
 110:interrupts.c  **** 
 111:interrupts.c  ****      if(newM){
 155              		.loc 1 111 0
 156 0010 304B     		ldr	r3, .L17
 157 0012 1B78     		ldrb	r3, [r3]
 158 0014 002B     		cmp	r3, #0
 159 0016 05D0     		beq	.L6
 112:interrupts.c  ****         newM=0;
 160              		.loc 1 112 0
 161 0018 2E4B     		ldr	r3, .L17
 162 001a 0022     		movs	r2, #0
 163 001c 1A70     		strb	r2, [r3]
 113:interrupts.c  ****         bytesIn =0;
 164              		.loc 1 113 0
 165 001e 2E4B     		ldr	r3, .L17+4
 166 0020 0022     		movs	r2, #0
 167 0022 1A70     		strb	r2, [r3]
 168              	.L6:
 114:interrupts.c  ****     }
 115:interrupts.c  ****     //size = ModbusUART_SpiUartGetRxBufferSize(); // this helps not to miss incoming bytes!
 116:interrupts.c  ****     //for(uint8 i = 0 ;i<size; i++){
 117:interrupts.c  ****         modbus_rxBuffer[bytesIn++] = ModbusUART_UartGetByte();
ARM GAS  C:\Users\alexport\AppData\Local\Temp\cc1wJ45U.s 			page 6


 169              		.loc 1 117 0
 170 0024 2C4B     		ldr	r3, .L17+4
 171 0026 1B78     		ldrb	r3, [r3]
 172 0028 5A1C     		adds	r2, r3, #1
 173 002a D1B2     		uxtb	r1, r2
 174 002c 2A4A     		ldr	r2, .L17+4
 175 002e 1170     		strb	r1, [r2]
 176 0030 1C00     		movs	r4, r3
 177 0032 FFF7FEFF 		bl	ModbusUART_UartGetByte
 178 0036 0300     		movs	r3, r0
 179 0038 DAB2     		uxtb	r2, r3
 180 003a 284B     		ldr	r3, .L17+8
 181 003c 1A55     		strb	r2, [r3, r4]
 118:interrupts.c  ****     //}
 119:interrupts.c  ****     
 120:interrupts.c  ****         
 121:interrupts.c  ****     //modbus_rxBuffer[bytesIn++] = ModbusUART_UartGetByte();
 122:interrupts.c  ****     MessageTimer_WriteCounter(0);
 182              		.loc 1 122 0
 183 003e 0020     		movs	r0, #0
 184 0040 FFF7FEFF 		bl	MessageTimer_WriteCounter
 123:interrupts.c  ****     MessageTimer_Start(); 
 185              		.loc 1 123 0
 186 0044 FFF7FEFF 		bl	MessageTimer_Start
 124:interrupts.c  ****         
 125:interrupts.c  ****     if(deepSleep){
 187              		.loc 1 125 0
 188 0048 254B     		ldr	r3, .L17+12
 189 004a 1B78     		ldrb	r3, [r3]
 190 004c DBB2     		uxtb	r3, r3
 191 004e 002B     		cmp	r3, #0
 192 0050 0ED0     		beq	.L7
 126:interrupts.c  ****         //SysWdtInit(); // This Init might be temporary
 127:interrupts.c  ****         deepSleep=0;
 193              		.loc 1 127 0
 194 0052 234B     		ldr	r3, .L17+12
 195 0054 0022     		movs	r2, #0
 196 0056 1A70     		strb	r2, [r3]
 128:interrupts.c  ****         bytesIn =0;
 197              		.loc 1 128 0
 198 0058 1F4B     		ldr	r3, .L17+4
 199 005a 0022     		movs	r2, #0
 200 005c 1A70     		strb	r2, [r3]
 129:interrupts.c  ****         modbusRequestReceived =1;
 201              		.loc 1 129 0
 202 005e 214B     		ldr	r3, .L17+16
 203 0060 0122     		movs	r2, #1
 204 0062 1A70     		strb	r2, [r3]
 130:interrupts.c  ****         CyDelay(500);// This delay affects on aligning recieved bytes. If to remove it , it will ne
 205              		.loc 1 130 0
 206 0064 FA23     		movs	r3, #250
 207 0066 5B00     		lsls	r3, r3, #1
 208 0068 1800     		movs	r0, r3
 209 006a FFF7FEFF 		bl	CyDelay
 210 006e 26E0     		b	.L8
 211              	.L7:
 131:interrupts.c  ****     }else{
ARM GAS  C:\Users\alexport\AppData\Local\Temp\cc1wJ45U.s 			page 7


 132:interrupts.c  ****         
 133:interrupts.c  ****         
 134:interrupts.c  ****         
 135:interrupts.c  ****         // NEW
 136:interrupts.c  ****         //if(modbus_rxBuffer[0]!=mySlaveAddr){
 137:interrupts.c  ****         //    bytesIn =0;        
 138:interrupts.c  ****         //}
 139:interrupts.c  ****         if(bytesIn>2){
 212              		.loc 1 139 0
 213 0070 194B     		ldr	r3, .L17+4
 214 0072 1B78     		ldrb	r3, [r3]
 215 0074 022B     		cmp	r3, #2
 216 0076 22D9     		bls	.L8
 140:interrupts.c  ****             switch(modbus_rxBuffer[1]){
 217              		.loc 1 140 0
 218 0078 184B     		ldr	r3, .L17+8
 219 007a 5B78     		ldrb	r3, [r3, #1]
 220 007c 062B     		cmp	r3, #6
 221 007e 03D0     		beq	.L10
 222 0080 102B     		cmp	r3, #16
 223 0082 09D0     		beq	.L11
 224 0084 032B     		cmp	r3, #3
 225 0086 13D1     		bne	.L14
 226              	.L10:
 141:interrupts.c  ****                 case 0x3:               
 142:interrupts.c  ****                 case 0x6:
 143:interrupts.c  ****                     if(bytesIn>=8)
 227              		.loc 1 143 0
 228 0088 134B     		ldr	r3, .L17+4
 229 008a 1B78     		ldrb	r3, [r3]
 230 008c 072B     		cmp	r3, #7
 231 008e 13D9     		bls	.L15
 144:interrupts.c  ****                         modbusRequestReceived =1;
 232              		.loc 1 144 0
 233 0090 144B     		ldr	r3, .L17+16
 234 0092 0122     		movs	r2, #1
 235 0094 1A70     		strb	r2, [r3]
 145:interrupts.c  ****                 break;
 236              		.loc 1 145 0
 237 0096 0FE0     		b	.L15
 238              	.L11:
 146:interrupts.c  ****                 case 0x10:
 147:interrupts.c  ****                     if(bytesIn>= modbus_rxBuffer[6]+9)
 239              		.loc 1 147 0
 240 0098 0F4B     		ldr	r3, .L17+4
 241 009a 1B78     		ldrb	r3, [r3]
 242 009c 1A00     		movs	r2, r3
 243 009e 0F4B     		ldr	r3, .L17+8
 244 00a0 9B79     		ldrb	r3, [r3, #6]
 245 00a2 0933     		adds	r3, r3, #9
 246 00a4 9A42     		cmp	r2, r3
 247 00a6 09DB     		blt	.L16
 148:interrupts.c  ****                         modbusRequestReceived =1;
 248              		.loc 1 148 0
 249 00a8 0E4B     		ldr	r3, .L17+16
 250 00aa 0122     		movs	r2, #1
 251 00ac 1A70     		strb	r2, [r3]
ARM GAS  C:\Users\alexport\AppData\Local\Temp\cc1wJ45U.s 			page 8


 149:interrupts.c  ****                 break;
 252              		.loc 1 149 0
 253 00ae 05E0     		b	.L16
 254              	.L14:
 150:interrupts.c  ****                 default:
 151:interrupts.c  ****                     bytesIn=0;
 255              		.loc 1 151 0
 256 00b0 094B     		ldr	r3, .L17+4
 257 00b2 0022     		movs	r2, #0
 258 00b4 1A70     		strb	r2, [r3]
 152:interrupts.c  ****                 break;
 259              		.loc 1 152 0
 260 00b6 02E0     		b	.L8
 261              	.L15:
 145:interrupts.c  ****                 case 0x10:
 262              		.loc 1 145 0
 263 00b8 C046     		nop
 264 00ba 00E0     		b	.L8
 265              	.L16:
 149:interrupts.c  ****                 default:
 266              		.loc 1 149 0
 267 00bc C046     		nop
 268              	.L8:
 153:interrupts.c  ****             }
 154:interrupts.c  ****         }
 155:interrupts.c  ****         
 156:interrupts.c  **** //        if(bytesIn>=MODBUS_COMMAND_SIZE){
 157:interrupts.c  **** //            //bytesIn =0;
 158:interrupts.c  **** //            modbusRequestReceived =1;
 159:interrupts.c  **** //        }
 160:interrupts.c  ****         
 161:interrupts.c  **** 
 162:interrupts.c  ****         }
 163:interrupts.c  ****     
 164:interrupts.c  ****     InterruptSource = ModbusUART_GetRxInterruptSourceMasked();    
 269              		.loc 1 164 0
 270 00be 0A4B     		ldr	r3, .L17+20
 271 00c0 1B68     		ldr	r3, [r3]
 272 00c2 7B60     		str	r3, [r7, #4]
 165:interrupts.c  ****     ModbusUART_ClearRxInterruptSource(InterruptSource);
 273              		.loc 1 165 0
 274 00c4 094B     		ldr	r3, .L17+24
 275 00c6 7A68     		ldr	r2, [r7, #4]
 276 00c8 1A60     		str	r2, [r3]
 166:interrupts.c  **** }
 277              		.loc 1 166 0
 278 00ca C046     		nop
 279 00cc BD46     		mov	sp, r7
 280 00ce 03B0     		add	sp, sp, #12
 281              		@ sp needed
 282 00d0 90BD     		pop	{r4, r7, pc}
 283              	.L18:
 284 00d2 C046     		.align	2
 285              	.L17:
 286 00d4 00000000 		.word	newM
 287 00d8 00000000 		.word	bytesIn
 288 00dc 00000000 		.word	modbus_rxBuffer
ARM GAS  C:\Users\alexport\AppData\Local\Temp\cc1wJ45U.s 			page 9


 289 00e0 00000000 		.word	deepSleep
 290 00e4 00000000 		.word	modbusRequestReceived
 291 00e8 CC0F2540 		.word	1076170700
 292 00ec C00F2540 		.word	1076170688
 293              		.cfi_endproc
 294              	.LFE37:
 295              		.size	ModbusByteIn_isr, .-ModbusByteIn_isr
 296              		.section	.text.SW_isr,"ax",%progbits
 297              		.align	2
 298              		.global	SW_isr
 299              		.code	16
 300              		.thumb_func
 301              		.type	SW_isr, %function
 302              	SW_isr:
 303              	.LFB38:
 167:interrupts.c  **** 
 168:interrupts.c  **** 
 169:interrupts.c  **** 
 170:interrupts.c  **** 
 171:interrupts.c  **** 
 172:interrupts.c  **** CY_ISR(SW_isr)
 173:interrupts.c  **** {
 304              		.loc 1 173 0
 305              		.cfi_startproc
 306              		@ args = 0, pretend = 0, frame = 8
 307              		@ frame_needed = 1, uses_anonymous_args = 0
 308 0000 90B5     		push	{r4, r7, lr}
 309              		.cfi_def_cfa_offset 12
 310              		.cfi_offset 4, -12
 311              		.cfi_offset 7, -8
 312              		.cfi_offset 14, -4
 313 0002 83B0     		sub	sp, sp, #12
 314              		.cfi_def_cfa_offset 24
 315 0004 00AF     		add	r7, sp, #0
 316              		.cfi_def_cfa_register 7
 174:interrupts.c  ****     uint8 InterruptState = SW_ClearInterrupt();	
 317              		.loc 1 174 0
 318 0006 FC1D     		adds	r4, r7, #7
 319 0008 FFF7FEFF 		bl	SW_ClearInterrupt
 320 000c 0300     		movs	r3, r0
 321 000e 2370     		strb	r3, [r4]
 175:interrupts.c  ****     uint8 value = SW_Read();
 322              		.loc 1 175 0
 323 0010 BC1D     		adds	r4, r7, #6
 324 0012 FFF7FEFF 		bl	SW_Read
 325 0016 0300     		movs	r3, r0
 326 0018 2370     		strb	r3, [r4]
 176:interrupts.c  ****     
 177:interrupts.c  ****     if(InterruptState == 0x1)
 327              		.loc 1 177 0
 328 001a FB1D     		adds	r3, r7, #7
 329 001c 1B78     		ldrb	r3, [r3]
 330 001e 012B     		cmp	r3, #1
 331 0020 07D1     		bne	.L20
 178:interrupts.c  **** 	{
 179:interrupts.c  ****        SW1_Pressed = 1;
 332              		.loc 1 179 0
ARM GAS  C:\Users\alexport\AppData\Local\Temp\cc1wJ45U.s 			page 10


 333 0022 124B     		ldr	r3, .L23
 334 0024 0122     		movs	r2, #1
 335 0026 1A70     		strb	r2, [r3]
 180:interrupts.c  ****        SW1_2_Released = 0;
 336              		.loc 1 180 0
 337 0028 114B     		ldr	r3, .L23+4
 338 002a 0022     		movs	r2, #0
 339 002c 1A70     		strb	r2, [r3]
 181:interrupts.c  ****        SWTimer_Start(); 
 340              		.loc 1 181 0
 341 002e FFF7FEFF 		bl	SWTimer_Start
 342              	.L20:
 182:interrupts.c  **** 	} 
 183:interrupts.c  ****     
 184:interrupts.c  ****     if (InterruptState == 0x2)  {
 343              		.loc 1 184 0
 344 0032 FB1D     		adds	r3, r7, #7
 345 0034 1B78     		ldrb	r3, [r3]
 346 0036 022B     		cmp	r3, #2
 347 0038 07D1     		bne	.L21
 185:interrupts.c  ****        SW2_Pressed = 1;
 348              		.loc 1 185 0
 349 003a 0E4B     		ldr	r3, .L23+8
 350 003c 0122     		movs	r2, #1
 351 003e 1A70     		strb	r2, [r3]
 186:interrupts.c  ****        SW1_2_Released = 0;
 352              		.loc 1 186 0
 353 0040 0B4B     		ldr	r3, .L23+4
 354 0042 0022     		movs	r2, #0
 355 0044 1A70     		strb	r2, [r3]
 187:interrupts.c  ****         SWTimer_Start();
 356              		.loc 1 187 0
 357 0046 FFF7FEFF 		bl	SWTimer_Start
 358              	.L21:
 188:interrupts.c  ****          
 189:interrupts.c  ****     }
 190:interrupts.c  ****         
 191:interrupts.c  ****     if (value == 0x3) {
 359              		.loc 1 191 0
 360 004a BB1D     		adds	r3, r7, #6
 361 004c 1B78     		ldrb	r3, [r3]
 362 004e 032B     		cmp	r3, #3
 363 0050 02D1     		bne	.L22
 192:interrupts.c  ****         SW1_2_Released = 1;
 364              		.loc 1 192 0
 365 0052 074B     		ldr	r3, .L23+4
 366 0054 0122     		movs	r2, #1
 367 0056 1A70     		strb	r2, [r3]
 368              	.L22:
 193:interrupts.c  ****         
 194:interrupts.c  ****     }
 195:interrupts.c  ****     
 196:interrupts.c  ****  
 197:interrupts.c  ****     deepSleep = 0;
 369              		.loc 1 197 0
 370 0058 074B     		ldr	r3, .L23+12
 371 005a 0022     		movs	r2, #0
ARM GAS  C:\Users\alexport\AppData\Local\Temp\cc1wJ45U.s 			page 11


 372 005c 1A70     		strb	r2, [r3]
 198:interrupts.c  ****     
 199:interrupts.c  **** #ifdef DEEPSLEEP    
 200:interrupts.c  ****     BLETimer_Start();
 373              		.loc 1 200 0
 374 005e FFF7FEFF 		bl	BLETimer_Start
 201:interrupts.c  **** #endif    
 202:interrupts.c  **** 
 203:interrupts.c  ****     
 204:interrupts.c  **** }   
 375              		.loc 1 204 0
 376 0062 C046     		nop
 377 0064 BD46     		mov	sp, r7
 378 0066 03B0     		add	sp, sp, #12
 379              		@ sp needed
 380 0068 90BD     		pop	{r4, r7, pc}
 381              	.L24:
 382 006a C046     		.align	2
 383              	.L23:
 384 006c 00000000 		.word	SW1_Pressed
 385 0070 00000000 		.word	SW1_2_Released
 386 0074 00000000 		.word	SW2_Pressed
 387 0078 00000000 		.word	deepSleep
 388              		.cfi_endproc
 389              	.LFE38:
 390              		.size	SW_isr, .-SW_isr
 391              		.section	.text.SW2_isr,"ax",%progbits
 392              		.align	2
 393              		.global	SW2_isr
 394              		.code	16
 395              		.thumb_func
 396              		.type	SW2_isr, %function
 397              	SW2_isr:
 398              	.LFB39:
 205:interrupts.c  **** 
 206:interrupts.c  **** 
 207:interrupts.c  **** CY_ISR(SW2_isr)
 208:interrupts.c  **** {
 399              		.loc 1 208 0
 400              		.cfi_startproc
 401              		@ args = 0, pretend = 0, frame = 8
 402              		@ frame_needed = 1, uses_anonymous_args = 0
 403 0000 90B5     		push	{r4, r7, lr}
 404              		.cfi_def_cfa_offset 12
 405              		.cfi_offset 4, -12
 406              		.cfi_offset 7, -8
 407              		.cfi_offset 14, -4
 408 0002 83B0     		sub	sp, sp, #12
 409              		.cfi_def_cfa_offset 24
 410 0004 00AF     		add	r7, sp, #0
 411              		.cfi_def_cfa_register 7
 209:interrupts.c  ****     uint8 InterruptState = SW2_ClearInterrupt();	
 412              		.loc 1 209 0
 413 0006 FC1D     		adds	r4, r7, #7
 414 0008 FFF7FEFF 		bl	SW2_ClearInterrupt
 415 000c 0300     		movs	r3, r0
 416 000e 2370     		strb	r3, [r4]
ARM GAS  C:\Users\alexport\AppData\Local\Temp\cc1wJ45U.s 			page 12


 210:interrupts.c  ****     uint8 value = SW2_Read();
 417              		.loc 1 210 0
 418 0010 BC1D     		adds	r4, r7, #6
 419 0012 FFF7FEFF 		bl	SW2_Read
 420 0016 0300     		movs	r3, r0
 421 0018 2370     		strb	r3, [r4]
 211:interrupts.c  ****     
 212:interrupts.c  ****     if(InterruptState == 0x1)
 422              		.loc 1 212 0
 423 001a FB1D     		adds	r3, r7, #7
 424 001c 1B78     		ldrb	r3, [r3]
 425 001e 012B     		cmp	r3, #1
 426 0020 07D1     		bne	.L26
 213:interrupts.c  **** 	{
 214:interrupts.c  ****        SW3_Pressed = 1;
 427              		.loc 1 214 0
 428 0022 124B     		ldr	r3, .L29
 429 0024 0122     		movs	r2, #1
 430 0026 1A70     		strb	r2, [r3]
 215:interrupts.c  ****        SW3_4_Released = 0;
 431              		.loc 1 215 0
 432 0028 114B     		ldr	r3, .L29+4
 433 002a 0022     		movs	r2, #0
 434 002c 1A70     		strb	r2, [r3]
 216:interrupts.c  ****        SWTimer_Start(); 
 435              		.loc 1 216 0
 436 002e FFF7FEFF 		bl	SWTimer_Start
 437              	.L26:
 217:interrupts.c  **** 	} 
 218:interrupts.c  ****     
 219:interrupts.c  ****     if (InterruptState == 0x2)  {
 438              		.loc 1 219 0
 439 0032 FB1D     		adds	r3, r7, #7
 440 0034 1B78     		ldrb	r3, [r3]
 441 0036 022B     		cmp	r3, #2
 442 0038 07D1     		bne	.L27
 220:interrupts.c  ****        SW4_Pressed = 1;
 443              		.loc 1 220 0
 444 003a 0E4B     		ldr	r3, .L29+8
 445 003c 0122     		movs	r2, #1
 446 003e 1A70     		strb	r2, [r3]
 221:interrupts.c  ****        SW3_4_Released = 0;
 447              		.loc 1 221 0
 448 0040 0B4B     		ldr	r3, .L29+4
 449 0042 0022     		movs	r2, #0
 450 0044 1A70     		strb	r2, [r3]
 222:interrupts.c  ****         SWTimer_Start();
 451              		.loc 1 222 0
 452 0046 FFF7FEFF 		bl	SWTimer_Start
 453              	.L27:
 223:interrupts.c  ****          
 224:interrupts.c  ****     }
 225:interrupts.c  ****         
 226:interrupts.c  ****     if (value == 0x3) {
 454              		.loc 1 226 0
 455 004a BB1D     		adds	r3, r7, #6
 456 004c 1B78     		ldrb	r3, [r3]
ARM GAS  C:\Users\alexport\AppData\Local\Temp\cc1wJ45U.s 			page 13


 457 004e 032B     		cmp	r3, #3
 458 0050 02D1     		bne	.L28
 227:interrupts.c  ****         SW3_4_Released = 1;
 459              		.loc 1 227 0
 460 0052 074B     		ldr	r3, .L29+4
 461 0054 0122     		movs	r2, #1
 462 0056 1A70     		strb	r2, [r3]
 463              	.L28:
 228:interrupts.c  ****         
 229:interrupts.c  ****     }
 230:interrupts.c  ****     
 231:interrupts.c  ****  
 232:interrupts.c  ****     deepSleep = 0;
 464              		.loc 1 232 0
 465 0058 074B     		ldr	r3, .L29+12
 466 005a 0022     		movs	r2, #0
 467 005c 1A70     		strb	r2, [r3]
 233:interrupts.c  ****     
 234:interrupts.c  **** #ifdef DEEPSLEEP    
 235:interrupts.c  ****     BLETimer_Start();
 468              		.loc 1 235 0
 469 005e FFF7FEFF 		bl	BLETimer_Start
 236:interrupts.c  **** #endif    
 237:interrupts.c  **** 
 238:interrupts.c  ****     
 239:interrupts.c  **** }   
 470              		.loc 1 239 0
 471 0062 C046     		nop
 472 0064 BD46     		mov	sp, r7
 473 0066 03B0     		add	sp, sp, #12
 474              		@ sp needed
 475 0068 90BD     		pop	{r4, r7, pc}
 476              	.L30:
 477 006a C046     		.align	2
 478              	.L29:
 479 006c 00000000 		.word	SW3_Pressed
 480 0070 00000000 		.word	SW3_4_Released
 481 0074 00000000 		.word	SW4_Pressed
 482 0078 00000000 		.word	deepSleep
 483              		.cfi_endproc
 484              	.LFE39:
 485              		.size	SW2_isr, .-SW2_isr
 486              		.section	.text.BLE_isr,"ax",%progbits
 487              		.align	2
 488              		.global	BLE_isr
 489              		.code	16
 490              		.thumb_func
 491              		.type	BLE_isr, %function
 492              	BLE_isr:
 493              	.LFB40:
 240:interrupts.c  **** 
 241:interrupts.c  **** 
 242:interrupts.c  **** CY_ISR(BLE_isr)
 243:interrupts.c  **** {
 494              		.loc 1 243 0
 495              		.cfi_startproc
 496              		@ args = 0, pretend = 0, frame = 8
ARM GAS  C:\Users\alexport\AppData\Local\Temp\cc1wJ45U.s 			page 14


 497              		@ frame_needed = 1, uses_anonymous_args = 0
 498 0000 90B5     		push	{r4, r7, lr}
 499              		.cfi_def_cfa_offset 12
 500              		.cfi_offset 4, -12
 501              		.cfi_offset 7, -8
 502              		.cfi_offset 14, -4
 503 0002 83B0     		sub	sp, sp, #12
 504              		.cfi_def_cfa_offset 24
 505 0004 00AF     		add	r7, sp, #0
 506              		.cfi_def_cfa_register 7
 244:interrupts.c  ****     uint8 InterruptState = SW_ClearInterrupt();	
 507              		.loc 1 244 0
 508 0006 FC1D     		adds	r4, r7, #7
 509 0008 FFF7FEFF 		bl	SW_ClearInterrupt
 510 000c 0300     		movs	r3, r0
 511 000e 2370     		strb	r3, [r4]
 245:interrupts.c  ****     uint8 value = SW_Read();
 512              		.loc 1 245 0
 513 0010 BC1D     		adds	r4, r7, #6
 514 0012 FFF7FEFF 		bl	SW_Read
 515 0016 0300     		movs	r3, r0
 516 0018 2370     		strb	r3, [r4]
 246:interrupts.c  ****     static uint32_t cnt;
 247:interrupts.c  ****     
 248:interrupts.c  **** #ifdef DEEPSLEEP
 249:interrupts.c  ****     ResetBLETimer();
 517              		.loc 1 249 0
 518 001a FFF7FEFF 		bl	ResetBLETimer
 250:interrupts.c  ****     
 251:interrupts.c  ****     
 252:interrupts.c  **** #endif
 253:interrupts.c  ****     
 254:interrupts.c  ****     bleTimerExpired =1;
 519              		.loc 1 254 0
 520 001e 034B     		ldr	r3, .L32
 521 0020 0122     		movs	r2, #1
 522 0022 1A70     		strb	r2, [r3]
 255:interrupts.c  ****     
 256:interrupts.c  **** 
 257:interrupts.c  ****     
 258:interrupts.c  **** }   
 523              		.loc 1 258 0
 524 0024 C046     		nop
 525 0026 BD46     		mov	sp, r7
 526 0028 03B0     		add	sp, sp, #12
 527              		@ sp needed
 528 002a 90BD     		pop	{r4, r7, pc}
 529              	.L33:
 530              		.align	2
 531              	.L32:
 532 002c 00000000 		.word	bleTimerExpired
 533              		.cfi_endproc
 534              	.LFE40:
 535              		.size	BLE_isr, .-BLE_isr
 536              		.section	.text.SysTick_isr,"ax",%progbits
 537              		.align	2
 538              		.global	SysTick_isr
ARM GAS  C:\Users\alexport\AppData\Local\Temp\cc1wJ45U.s 			page 15


 539              		.code	16
 540              		.thumb_func
 541              		.type	SysTick_isr, %function
 542              	SysTick_isr:
 543              	.LFB41:
 259:interrupts.c  **** 
 260:interrupts.c  **** 
 261:interrupts.c  **** 
 262:interrupts.c  **** 
 263:interrupts.c  **** 
 264:interrupts.c  **** CY_ISR(SysTick_isr){
 544              		.loc 1 264 0
 545              		.cfi_startproc
 546              		@ args = 0, pretend = 0, frame = 0
 547              		@ frame_needed = 1, uses_anonymous_args = 0
 548 0000 80B5     		push	{r7, lr}
 549              		.cfi_def_cfa_offset 8
 550              		.cfi_offset 7, -8
 551              		.cfi_offset 14, -4
 552 0002 00AF     		add	r7, sp, #0
 553              		.cfi_def_cfa_register 7
 265:interrupts.c  ****     static uint8_t pm;  
 266:interrupts.c  ****     
 267:interrupts.c  ****     msTick++;
 554              		.loc 1 267 0
 555 0004 184B     		ldr	r3, .L38
 556 0006 1B68     		ldr	r3, [r3]
 557 0008 5A1C     		adds	r2, r3, #1
 558 000a 174B     		ldr	r3, .L38
 559 000c 1A60     		str	r2, [r3]
 268:interrupts.c  **** //    if(++msTick >= 1000){    
 269:interrupts.c  **** //        msTick = 0;
 270:interrupts.c  **** //    }
 271:interrupts.c  ****     
 272:interrupts.c  ****     if(++blinkerTick>=500){
 560              		.loc 1 272 0
 561 000e 174B     		ldr	r3, .L38+4
 562 0010 1B68     		ldr	r3, [r3]
 563 0012 5A1C     		adds	r2, r3, #1
 564 0014 154B     		ldr	r3, .L38+4
 565 0016 1A60     		str	r2, [r3]
 566 0018 144B     		ldr	r3, .L38+4
 567 001a 1A68     		ldr	r2, [r3]
 568 001c F423     		movs	r3, #244
 569 001e FF33     		adds	r3, r3, #255
 570 0020 9A42     		cmp	r2, r3
 571 0022 09D9     		bls	.L35
 273:interrupts.c  ****         blinkerTick=0;
 572              		.loc 1 273 0
 573 0024 114B     		ldr	r3, .L38+4
 574 0026 0022     		movs	r2, #0
 575 0028 1A60     		str	r2, [r3]
 274:interrupts.c  ****         blinker ^=1;
 576              		.loc 1 274 0
 577 002a 114B     		ldr	r3, .L38+8
 578 002c 1B78     		ldrb	r3, [r3]
 579 002e 0122     		movs	r2, #1
ARM GAS  C:\Users\alexport\AppData\Local\Temp\cc1wJ45U.s 			page 16


 580 0030 5340     		eors	r3, r2
 581 0032 DAB2     		uxtb	r2, r3
 582 0034 0E4B     		ldr	r3, .L38+8
 583 0036 1A70     		strb	r2, [r3]
 584              	.L35:
 275:interrupts.c  ****     }
 276:interrupts.c  ****     
 277:interrupts.c  ****     if(++strobeTick>=500){
 585              		.loc 1 277 0
 586 0038 0E4B     		ldr	r3, .L38+12
 587 003a 1B68     		ldr	r3, [r3]
 588 003c 5A1C     		adds	r2, r3, #1
 589 003e 0D4B     		ldr	r3, .L38+12
 590 0040 1A60     		str	r2, [r3]
 591 0042 0C4B     		ldr	r3, .L38+12
 592 0044 1A68     		ldr	r2, [r3]
 593 0046 F423     		movs	r3, #244
 594 0048 FF33     		adds	r3, r3, #255
 595 004a 9A42     		cmp	r2, r3
 596 004c 09D9     		bls	.L37
 278:interrupts.c  ****         strobeTick=0;
 597              		.loc 1 278 0
 598 004e 094B     		ldr	r3, .L38+12
 599 0050 0022     		movs	r2, #0
 600 0052 1A60     		str	r2, [r3]
 279:interrupts.c  ****         strobe^=1;
 601              		.loc 1 279 0
 602 0054 084B     		ldr	r3, .L38+16
 603 0056 1B78     		ldrb	r3, [r3]
 604 0058 0122     		movs	r2, #1
 605 005a 5340     		eors	r3, r2
 606 005c DAB2     		uxtb	r2, r3
 607 005e 064B     		ldr	r3, .L38+16
 608 0060 1A70     		strb	r2, [r3]
 609              	.L37:
 280:interrupts.c  ****         
 281:interrupts.c  ****         
 282:interrupts.c  ****     }
 283:interrupts.c  ****     
 284:interrupts.c  ****     
 285:interrupts.c  **** }
 610              		.loc 1 285 0
 611 0062 C046     		nop
 612 0064 BD46     		mov	sp, r7
 613              		@ sp needed
 614 0066 80BD     		pop	{r7, pc}
 615              	.L39:
 616              		.align	2
 617              	.L38:
 618 0068 00000000 		.word	msTick
 619 006c 00000000 		.word	blinkerTick
 620 0070 00000000 		.word	blinker
 621 0074 00000000 		.word	strobeTick
 622 0078 00000000 		.word	strobe
 623              		.cfi_endproc
 624              	.LFE41:
 625              		.size	SysTick_isr, .-SysTick_isr
ARM GAS  C:\Users\alexport\AppData\Local\Temp\cc1wJ45U.s 			page 17


 626              		.bss
 627              		.align	2
 628              	cnt.8823:
 629 0010 00000000 		.space	4
 630              	pm.8827:
 631 0014 00       		.space	1
 632              		.text
 633              	.Letext0:
 634              		.file 2 "c:\\program files (x86)\\cypress\\psoc creator\\4.4\\psoc creator\\import\\gnu\\arm\\5.4.
 635              		.file 3 "c:\\program files (x86)\\cypress\\psoc creator\\4.4\\psoc creator\\import\\gnu\\arm\\5.4.
 636              		.file 4 "Generated_Source\\PSoC4/cytypes.h"
 637              		.file 5 "Generated_Source\\PSoC4/blue_Stack.h"
 638              		.file 6 "Generated_Source\\PSoC4/blue_dis.h"