ARM GAS  C:\Users\alexport\AppData\Local\Temp\cc3nX14g.s 			page 1


   1              		.syntax unified
   2              		.cpu cortex-m0
   3              		.fpu softvfp
   4              		.eabi_attribute 20, 1
   5              		.eabi_attribute 21, 1
   6              		.eabi_attribute 23, 3
   7              		.eabi_attribute 24, 1
   8              		.eabi_attribute 25, 1
   9              		.eabi_attribute 26, 1
  10              		.eabi_attribute 30, 6
  11              		.eabi_attribute 34, 0
  12              		.eabi_attribute 18, 4
  13              		.thumb
  14              		.syntax unified
  15              		.file	"led.c"
  16              		.text
  17              	.Ltext0:
  18              		.cfi_sections	.debug_frame
  19              		.global	leds
  20              		.data
  21              		.align	2
  22              		.type	leds, %object
  23              		.size	leds, 28
  24              	leds:
  25 0000 00       		.byte	0
  26 0001 FF       		.byte	-1
  27 0002 00       		.byte	0
  28 0003 FF       		.byte	-1
  29 0004 02       		.byte	2
  30 0005 00       		.byte	0
  31 0006 01       		.byte	1
  32 0007 01       		.byte	1
  33 0008 FF       		.byte	-1
  34 0009 C0       		.byte	-64
  35 000a 00       		.byte	0
  36 000b 02       		.byte	2
  37 000c 00       		.byte	0
  38 000d 01       		.byte	1
  39 000e 02       		.byte	2
  40 000f 00       		.byte	0
  41 0010 00       		.byte	0
  42 0011 FF       		.byte	-1
  43 0012 02       		.byte	2
  44 0013 00       		.byte	0
  45 0014 01       		.byte	1
  46 0015 03       		.byte	3
  47 0016 FF       		.byte	-1
  48 0017 FF       		.byte	-1
  49 0018 FF       		.byte	-1
  50 0019 02       		.byte	2
  51 001a 00       		.byte	0
  52 001b 01       		.byte	1
  53              		.global	sineTable
  54              		.align	2
  55              		.type	sineTable, %object
  56              		.size	sineTable, 20
  57              	sineTable:
ARM GAS  C:\Users\alexport\AppData\Local\Temp\cc3nX14g.s 			page 2


  58 001c 06       		.byte	6
  59 001d 0C       		.byte	12
  60 001e 19       		.byte	25
  61 001f 25       		.byte	37
  62 0020 31       		.byte	49
  63 0021 3E       		.byte	62
  64 0022 4A       		.byte	74
  65 0023 56       		.byte	86
  66 0024 61       		.byte	97
  67 0025 6C       		.byte	108
  68 0026 76       		.byte	118
  69 0027 80       		.byte	-128
  70 0028 89       		.byte	-119
  71 0029 91       		.byte	-111
  72 002a 98       		.byte	-104
  73 002b 9F       		.byte	-97
  74 002c A5       		.byte	-91
  75 002d AA       		.byte	-86
  76 002e AE       		.byte	-82
  77 002f B1       		.byte	-79
  78              		.global	strobeTable
  79              		.align	2
  80              		.type	strobeTable, %object
  81              		.size	strobeTable, 20
  82              	strobeTable:
  83 0030 98       		.byte	-104
  84 0031 98       		.byte	-104
  85 0032 0C       		.byte	12
  86 0033 0C       		.byte	12
  87 0034 98       		.byte	-104
  88 0035 98       		.byte	-104
  89 0036 0C       		.byte	12
  90 0037 0C       		.byte	12
  91 0038 98       		.byte	-104
  92 0039 98       		.byte	-104
  93 003a 0C       		.byte	12
  94 003b 0C       		.byte	12
  95 003c 98       		.byte	-104
  96 003d 98       		.byte	-104
  97 003e 0C       		.byte	12
  98 003f 0C       		.byte	12
  99 0040 98       		.byte	-104
 100 0041 98       		.byte	-104
 101 0042 0C       		.byte	12
 102 0043 0C       		.byte	12
 103              		.section	.text.TLC_ReadReg,"ax",%progbits
 104              		.align	2
 105              		.global	TLC_ReadReg
 106              		.code	16
 107              		.thumb_func
 108              		.type	TLC_ReadReg, %function
 109              	TLC_ReadReg:
 110              	.LFB35:
 111              		.file 1 "led.c"
   1:led.c         **** /* ========================================
   2:led.c         ****  *
   3:led.c         ****  * Copyright YOUR COMPANY, THE YEAR
ARM GAS  C:\Users\alexport\AppData\Local\Temp\cc3nX14g.s 			page 3


   4:led.c         ****  * All Rights Reserved
   5:led.c         ****  * UNPUBLISHED, LICENSED SOFTWARE.
   6:led.c         ****  *
   7:led.c         ****  * CONFIDENTIAL AND PROPRIETARY INFORMATION
   8:led.c         ****  * WHICH IS THE PROPERTY OF your company.
   9:led.c         ****  *
  10:led.c         ****  * ========================================
  11:led.c         **** */
  12:led.c         **** #include "led.h"
  13:led.c         **** 
  14:led.c         **** typedef enum {
  15:led.c         ****     MODE_OFF = 0,
  16:led.c         ****     MODE_STATIC,
  17:led.c         ****     MODE_BREATHING,
  18:led.c         ****     MODE_STROBE
  19:led.c         **** } LEDMode;
  20:led.c         **** 
  21:led.c         **** typedef struct {
  22:led.c         ****     uint8 led_index;
  23:led.c         ****     uint8 r_base, g_base, b_base;
  24:led.c         ****     LEDMode mode;
  25:led.c         ****     uint8 step;
  26:led.c         ****     int8 direction;
  27:led.c         **** } RGBLED;
  28:led.c         **** 
  29:led.c         **** //RGBLED leds[4];
  30:led.c         **** 
  31:led.c         **** 
  32:led.c         **** RGBLED leds[4] = {
  33:led.c         ****             {0, 255, 0, 255, MODE_BREATHING, 0, 1},
  34:led.c         ****             {1, 255, 192, 0, MODE_BREATHING, 0, 1},
  35:led.c         ****             {2, 0, 0, 255, MODE_BREATHING, 0, 1},
  36:led.c         ****             {3, 255, 255, 255, MODE_BREATHING, 0, 1}
  37:led.c         ****         };
  38:led.c         **** 
  39:led.c         **** 
  40:led.c         **** //#define SIN_CNT 64
  41:led.c         **** //uint8_t sineTable[SIN_CNT] = {
  42:led.c         **** //    0, 6, 12, 19, 25, 31, 37, 43,
  43:led.c         **** //    49, 56, 62, 68, 74, 80, 86, 91,
  44:led.c         **** //    97, 103, 108, 113, 118, 123, 128, 132,
  45:led.c         **** //    137, 141, 145, 149, 152, 156, 159, 162,
  46:led.c         **** //    165, 167, 170, 172, 174, 175, 177, 178,
  47:led.c         **** //    179, 180, 180, 180, 180, 179, 178, 177,
  48:led.c         **** //    175, 174, 172, 170, 167, 165, 162, 159,
  49:led.c         **** //    156, 152, 149, 145, 141, 137, 132, 128
  50:led.c         **** //};
  51:led.c         **** 
  52:led.c         **** 
  53:led.c         **** 
  54:led.c         **** 
  55:led.c         **** //uint8_t sineTable[SIN_CNT] = {
  56:led.c         **** //    0, 6, 12, 19, 25, 31, 37, 43,
  57:led.c         **** //    49, 56, 62, 68, 74, 80, 86, 91,
  58:led.c         **** //    97, 103, 108, 113, 118, 123, 128, 132,
  59:led.c         **** //    137, 141, 145, 149, 152, 156, 159, 162,
  60:led.c         **** //    165, 167, 170, 172, 174, 175, 177, 178,
ARM GAS  C:\Users\alexport\AppData\Local\Temp\cc3nX14g.s 			page 4


  61:led.c         **** //    179, 180, 180, 180, 180, 179, 178, 177,
  62:led.c         **** //    175, 174, 172, 170, 167, 165, 162, 159,
  63:led.c         **** //    156, 152, 149, 145, 141, 137, 132, 128
  64:led.c         **** //};
  65:led.c         **** 
  66:led.c         **** //#define SIN_CNT 23
  67:led.c         **** //uint8_t sineTable[SIN_CNT] = {
  68:led.c         **** //    0,  12,  25,  37, 
  69:led.c         **** //    49, 62,  74,  86, 
  70:led.c         **** //    97,  108,  118,  128, 
  71:led.c         **** //    137,  145,  152,  159, 
  72:led.c         **** //    165,  170,  174,  177, 
  73:led.c         **** //    179,  180,  180 
  74:led.c         **** //};
  75:led.c         **** 
  76:led.c         **** 
  77:led.c         **** #define SIN_CNT 20
  78:led.c         **** uint8_t sineTable[SIN_CNT] = {
  79:led.c         ****     6, 12,  25,  37, 
  80:led.c         ****     49, 62,  74,  86, 
  81:led.c         ****     97,  108,  118,  128, 
  82:led.c         ****     137,  145,  152,  159, 
  83:led.c         ****     165,  170,  174,  177 
  84:led.c         ****      
  85:led.c         **** };
  86:led.c         **** 
  87:led.c         **** #define STROBE_CNT 20
  88:led.c         **** uint8_t strobeTable[SIN_CNT] = {
  89:led.c         ****     152, 152,  12,  12, 
  90:led.c         ****     152, 152,  12,  12,  
  91:led.c         ****     152, 152,  12,  12, 
  92:led.c         ****     152, 152,  12,  12, 
  93:led.c         ****     152, 152,  12,  12, 
  94:led.c         ****      
  95:led.c         **** };
  96:led.c         **** 
  97:led.c         **** 
  98:led.c         **** //#define SIN_CNT 12
  99:led.c         **** //uint8_t sineTable[SIN_CNT] = {
 100:led.c         **** //    0,    25,   
 101:led.c         **** //    49,   74,   
 102:led.c         **** //    97,    118,   
 103:led.c         **** //    137,    152,   
 104:led.c         **** //    165,    174,   
 105:led.c         **** //    179,    180   
 106:led.c         **** //     
 107:led.c         **** //};
 108:led.c         **** 
 109:led.c         **** //#define SIN_CNT 28
 110:led.c         **** //uint8_t sineTable[SIN_CNT] = {
 111:led.c         **** //    0, 6, 12, 19, 25, 31, 37, 43,
 112:led.c         **** //    49, 56, 62, 68, 74, 80, 86, 91,
 113:led.c         **** //    97, 103, 108, 113, 118, 123, 128, 132,
 114:led.c         **** //    137, 141, 145, 149 
 115:led.c         **** //    
 116:led.c         **** //};
 117:led.c         **** 
ARM GAS  C:\Users\alexport\AppData\Local\Temp\cc3nX14g.s 			page 5


 118:led.c         **** 
 119:led.c         **** 
 120:led.c         **** uint8 TLC_ReadReg(uint8 reg)
 121:led.c         **** {
 112              		.loc 1 121 0
 113              		.cfi_startproc
 114              		@ args = 0, pretend = 0, frame = 16
 115              		@ frame_needed = 1, uses_anonymous_args = 0
 116 0000 80B5     		push	{r7, lr}
 117              		.cfi_def_cfa_offset 8
 118              		.cfi_offset 7, -8
 119              		.cfi_offset 14, -4
 120 0002 84B0     		sub	sp, sp, #16
 121              		.cfi_def_cfa_offset 24
 122 0004 00AF     		add	r7, sp, #0
 123              		.cfi_def_cfa_register 7
 124 0006 0200     		movs	r2, r0
 125 0008 FB1D     		adds	r3, r7, #7
 126 000a 1A70     		strb	r2, [r3]
 122:led.c         ****     uint8 value = 0;
 127              		.loc 1 122 0
 128 000c 0F23     		movs	r3, #15
 129 000e FB18     		adds	r3, r7, r3
 130 0010 0022     		movs	r2, #0
 131 0012 1A70     		strb	r2, [r3]
 123:led.c         **** 
 124:led.c         ****     // Send register address
 125:led.c         ****     I2C_I2CMasterWriteBuf(I2C_LED_SLAVE_ADDR, &reg, 1, I2C_I2C_MODE_COMPLETE_XFER);
 132              		.loc 1 125 0
 133 0014 F91D     		adds	r1, r7, #7
 134 0016 0023     		movs	r3, #0
 135 0018 0122     		movs	r2, #1
 136 001a 6020     		movs	r0, #96
 137 001c FFF7FEFF 		bl	I2C_I2CMasterWriteBuf
 126:led.c         ****     while (I2C_I2CMasterStatus() & I2C_I2C_MSTAT_XFER_INP);
 138              		.loc 1 126 0
 139 0020 C046     		nop
 140              	.L2:
 141              		.loc 1 126 0 is_stmt 0 discriminator 1
 142 0022 FFF7FEFF 		bl	I2C_I2CMasterStatus
 143 0026 0200     		movs	r2, r0
 144 0028 0423     		movs	r3, #4
 145 002a 1340     		ands	r3, r2
 146 002c F9D1     		bne	.L2
 127:led.c         **** 
 128:led.c         ****     // Read 1 byte from that register
 129:led.c         ****     I2C_I2CMasterReadBuf(I2C_LED_SLAVE_ADDR, &value, 1, I2C_I2C_MODE_COMPLETE_XFER);
 147              		.loc 1 129 0 is_stmt 1
 148 002e 0F23     		movs	r3, #15
 149 0030 F918     		adds	r1, r7, r3
 150 0032 0023     		movs	r3, #0
 151 0034 0122     		movs	r2, #1
 152 0036 6020     		movs	r0, #96
 153 0038 FFF7FEFF 		bl	I2C_I2CMasterReadBuf
 130:led.c         ****     while (I2C_I2CMasterStatus() & I2C_I2C_MSTAT_XFER_INP);
 154              		.loc 1 130 0
 155 003c C046     		nop
ARM GAS  C:\Users\alexport\AppData\Local\Temp\cc3nX14g.s 			page 6


 156              	.L3:
 157              		.loc 1 130 0 is_stmt 0 discriminator 1
 158 003e FFF7FEFF 		bl	I2C_I2CMasterStatus
 159 0042 0200     		movs	r2, r0
 160 0044 0423     		movs	r3, #4
 161 0046 1340     		ands	r3, r2
 162 0048 F9D1     		bne	.L3
 131:led.c         **** 
 132:led.c         ****     return value;
 163              		.loc 1 132 0 is_stmt 1
 164 004a 0F23     		movs	r3, #15
 165 004c FB18     		adds	r3, r7, r3
 166 004e 1B78     		ldrb	r3, [r3]
 133:led.c         **** }
 167              		.loc 1 133 0
 168 0050 1800     		movs	r0, r3
 169 0052 BD46     		mov	sp, r7
 170 0054 04B0     		add	sp, sp, #16
 171              		@ sp needed
 172 0056 80BD     		pop	{r7, pc}
 173              		.cfi_endproc
 174              	.LFE35:
 175              		.size	TLC_ReadReg, .-TLC_ReadReg
 176              		.section	.text.TLC_WriteReg,"ax",%progbits
 177              		.align	2
 178              		.global	TLC_WriteReg
 179              		.code	16
 180              		.thumb_func
 181              		.type	TLC_WriteReg, %function
 182              	TLC_WriteReg:
 183              	.LFB36:
 134:led.c         **** 
 135:led.c         **** void TLC_WriteReg(uint8 reg, uint8 value) {
 184              		.loc 1 135 0
 185              		.cfi_startproc
 186              		@ args = 0, pretend = 0, frame = 16
 187              		@ frame_needed = 1, uses_anonymous_args = 0
 188 0000 80B5     		push	{r7, lr}
 189              		.cfi_def_cfa_offset 8
 190              		.cfi_offset 7, -8
 191              		.cfi_offset 14, -4
 192 0002 84B0     		sub	sp, sp, #16
 193              		.cfi_def_cfa_offset 24
 194 0004 00AF     		add	r7, sp, #0
 195              		.cfi_def_cfa_register 7
 196 0006 0200     		movs	r2, r0
 197 0008 FB1D     		adds	r3, r7, #7
 198 000a 1A70     		strb	r2, [r3]
 199 000c BB1D     		adds	r3, r7, #6
 200 000e 0A1C     		adds	r2, r1, #0
 201 0010 1A70     		strb	r2, [r3]
 136:led.c         ****     uint8 buf[2] = {reg, value};
 202              		.loc 1 136 0
 203 0012 0C23     		movs	r3, #12
 204 0014 FB18     		adds	r3, r7, r3
 205 0016 FA1D     		adds	r2, r7, #7
 206 0018 1278     		ldrb	r2, [r2]
ARM GAS  C:\Users\alexport\AppData\Local\Temp\cc3nX14g.s 			page 7


 207 001a 1A70     		strb	r2, [r3]
 208 001c 0C23     		movs	r3, #12
 209 001e FB18     		adds	r3, r7, r3
 210 0020 BA1D     		adds	r2, r7, #6
 211 0022 1278     		ldrb	r2, [r2]
 212 0024 5A70     		strb	r2, [r3, #1]
 137:led.c         ****     I2C_I2CMasterWriteBuf(I2C_LED_SLAVE_ADDR, buf, 2, I2C_I2C_MODE_COMPLETE_XFER);
 213              		.loc 1 137 0
 214 0026 0C23     		movs	r3, #12
 215 0028 F918     		adds	r1, r7, r3
 216 002a 0023     		movs	r3, #0
 217 002c 0222     		movs	r2, #2
 218 002e 6020     		movs	r0, #96
 219 0030 FFF7FEFF 		bl	I2C_I2CMasterWriteBuf
 138:led.c         ****     while(I2C_I2CMasterStatus() & I2C_I2C_MSTAT_XFER_INP);
 220              		.loc 1 138 0
 221 0034 C046     		nop
 222              	.L6:
 223              		.loc 1 138 0 is_stmt 0 discriminator 1
 224 0036 FFF7FEFF 		bl	I2C_I2CMasterStatus
 225 003a 0200     		movs	r2, r0
 226 003c 0423     		movs	r3, #4
 227 003e 1340     		ands	r3, r2
 228 0040 F9D1     		bne	.L6
 139:led.c         **** }
 229              		.loc 1 139 0 is_stmt 1
 230 0042 C046     		nop
 231 0044 BD46     		mov	sp, r7
 232 0046 04B0     		add	sp, sp, #16
 233              		@ sp needed
 234 0048 80BD     		pop	{r7, pc}
 235              		.cfi_endproc
 236              	.LFE36:
 237              		.size	TLC_WriteReg, .-TLC_WriteReg
 238 004a C046     		.section	.text.TLC_Init,"ax",%progbits
 239              		.align	2
 240              		.global	TLC_Init
 241              		.code	16
 242              		.thumb_func
 243              		.type	TLC_Init, %function
 244              	TLC_Init:
 245              	.LFB37:
 140:led.c         **** 
 141:led.c         **** 
 142:led.c         **** void TLC_Init(void) {
 246              		.loc 1 142 0
 247              		.cfi_startproc
 248              		@ args = 0, pretend = 0, frame = 8
 249              		@ frame_needed = 1, uses_anonymous_args = 0
 250 0000 80B5     		push	{r7, lr}
 251              		.cfi_def_cfa_offset 8
 252              		.cfi_offset 7, -8
 253              		.cfi_offset 14, -4
 254 0002 82B0     		sub	sp, sp, #8
 255              		.cfi_def_cfa_offset 16
 256 0004 00AF     		add	r7, sp, #0
 257              		.cfi_def_cfa_register 7
ARM GAS  C:\Users\alexport\AppData\Local\Temp\cc3nX14g.s 			page 8


 143:led.c         ****     
 144:led.c         **** 
 145:led.c         ****     // MODE1: Normal mode (AI=1 for auto-increment)
 146:led.c         ****     TLC_WriteReg(0x00, 0x01);
 258              		.loc 1 146 0
 259 0006 0121     		movs	r1, #1
 260 0008 0020     		movs	r0, #0
 261 000a FFF7FEFF 		bl	TLC_WriteReg
 147:led.c         ****     // MODE2: Output change on STOP, totem pole structure
 148:led.c         ****     TLC_WriteReg(0x01, 0x00);
 262              		.loc 1 148 0
 263 000e 0021     		movs	r1, #0
 264 0010 0120     		movs	r0, #1
 265 0012 FFF7FEFF 		bl	TLC_WriteReg
 149:led.c         ****     
 150:led.c         ****     // LEDOUTx: Set all channels to PWM mode (0b10)
 151:led.c         ****     TLC_WriteReg(0x14, 0xAA); // OUT0-3
 266              		.loc 1 151 0
 267 0016 AA21     		movs	r1, #170
 268 0018 1420     		movs	r0, #20
 269 001a FFF7FEFF 		bl	TLC_WriteReg
 152:led.c         ****     TLC_WriteReg(0x15, 0xAA); // OUT4-7
 270              		.loc 1 152 0
 271 001e AA21     		movs	r1, #170
 272 0020 1520     		movs	r0, #21
 273 0022 FFF7FEFF 		bl	TLC_WriteReg
 153:led.c         ****     TLC_WriteReg(0x16, 0xAA); // OUT8-11
 274              		.loc 1 153 0
 275 0026 AA21     		movs	r1, #170
 276 0028 1620     		movs	r0, #22
 277 002a FFF7FEFF 		bl	TLC_WriteReg
 154:led.c         ****     TLC_WriteReg(0x17, 0xAA); // OUT12-15
 278              		.loc 1 154 0
 279 002e AA21     		movs	r1, #170
 280 0030 1720     		movs	r0, #23
 281 0032 FFF7FEFF 		bl	TLC_WriteReg
 282              	.LBB2:
 155:led.c         ****     
 156:led.c         ****     
 157:led.c         ****     for(uint8_t i=0 ;i<4; i++){
 283              		.loc 1 157 0
 284 0036 FB1D     		adds	r3, r7, #7
 285 0038 0022     		movs	r2, #0
 286 003a 1A70     		strb	r2, [r3]
 287 003c 0EE0     		b	.L8
 288              	.L9:
 158:led.c         ****         leds[i].direction=1;
 289              		.loc 1 158 0 discriminator 3
 290 003e FB1D     		adds	r3, r7, #7
 291 0040 1A78     		ldrb	r2, [r3]
 292 0042 0A49     		ldr	r1, .L10
 293 0044 1300     		movs	r3, r2
 294 0046 DB00     		lsls	r3, r3, #3
 295 0048 9B1A     		subs	r3, r3, r2
 296 004a CB18     		adds	r3, r1, r3
 297 004c 0633     		adds	r3, r3, #6
 298 004e 0122     		movs	r2, #1
ARM GAS  C:\Users\alexport\AppData\Local\Temp\cc3nX14g.s 			page 9


 299 0050 1A70     		strb	r2, [r3]
 157:led.c         ****         leds[i].direction=1;
 300              		.loc 1 157 0 discriminator 3
 301 0052 FB1D     		adds	r3, r7, #7
 302 0054 1A78     		ldrb	r2, [r3]
 303 0056 FB1D     		adds	r3, r7, #7
 304 0058 0132     		adds	r2, r2, #1
 305 005a 1A70     		strb	r2, [r3]
 306              	.L8:
 157:led.c         ****         leds[i].direction=1;
 307              		.loc 1 157 0 is_stmt 0 discriminator 1
 308 005c FB1D     		adds	r3, r7, #7
 309 005e 1B78     		ldrb	r3, [r3]
 310 0060 032B     		cmp	r3, #3
 311 0062 ECD9     		bls	.L9
 312              	.LBE2:
 159:led.c         ****     }
 160:led.c         **** }
 313              		.loc 1 160 0 is_stmt 1
 314 0064 C046     		nop
 315 0066 BD46     		mov	sp, r7
 316 0068 02B0     		add	sp, sp, #8
 317              		@ sp needed
 318 006a 80BD     		pop	{r7, pc}
 319              	.L11:
 320              		.align	2
 321              	.L10:
 322 006c 00000000 		.word	leds
 323              		.cfi_endproc
 324              	.LFE37:
 325              		.size	TLC_Init, .-TLC_Init
 326              		.section	.text.TLC_SetChannel,"ax",%progbits
 327              		.align	2
 328              		.global	TLC_SetChannel
 329              		.code	16
 330              		.thumb_func
 331              		.type	TLC_SetChannel, %function
 332              	TLC_SetChannel:
 333              	.LFB38:
 161:led.c         **** 
 162:led.c         **** 
 163:led.c         **** 
 164:led.c         **** void TLC_SetChannel(uint8 channel, uint8 brightness) {
 334              		.loc 1 164 0
 335              		.cfi_startproc
 336              		@ args = 0, pretend = 0, frame = 8
 337              		@ frame_needed = 1, uses_anonymous_args = 0
 338 0000 80B5     		push	{r7, lr}
 339              		.cfi_def_cfa_offset 8
 340              		.cfi_offset 7, -8
 341              		.cfi_offset 14, -4
 342 0002 82B0     		sub	sp, sp, #8
 343              		.cfi_def_cfa_offset 16
 344 0004 00AF     		add	r7, sp, #0
 345              		.cfi_def_cfa_register 7
 346 0006 0200     		movs	r2, r0
 347 0008 FB1D     		adds	r3, r7, #7
ARM GAS  C:\Users\alexport\AppData\Local\Temp\cc3nX14g.s 			page 10


 348 000a 1A70     		strb	r2, [r3]
 349 000c BB1D     		adds	r3, r7, #6
 350 000e 0A1C     		adds	r2, r1, #0
 351 0010 1A70     		strb	r2, [r3]
 165:led.c         ****     if (channel > 17) return;
 352              		.loc 1 165 0
 353 0012 FB1D     		adds	r3, r7, #7
 354 0014 1B78     		ldrb	r3, [r3]
 355 0016 112B     		cmp	r3, #17
 356 0018 08D8     		bhi	.L15
 166:led.c         ****     TLC_WriteReg(channel, brightness);
 357              		.loc 1 166 0
 358 001a BB1D     		adds	r3, r7, #6
 359 001c 1A78     		ldrb	r2, [r3]
 360 001e FB1D     		adds	r3, r7, #7
 361 0020 1B78     		ldrb	r3, [r3]
 362 0022 1100     		movs	r1, r2
 363 0024 1800     		movs	r0, r3
 364 0026 FFF7FEFF 		bl	TLC_WriteReg
 365 002a 00E0     		b	.L12
 366              	.L15:
 165:led.c         ****     if (channel > 17) return;
 367              		.loc 1 165 0
 368 002c C046     		nop
 369              	.L12:
 167:led.c         **** }
 370              		.loc 1 167 0
 371 002e BD46     		mov	sp, r7
 372 0030 02B0     		add	sp, sp, #8
 373              		@ sp needed
 374 0032 80BD     		pop	{r7, pc}
 375              		.cfi_endproc
 376              	.LFE38:
 377              		.size	TLC_SetChannel, .-TLC_SetChannel
 378              		.section	.text.TLC_SetRGB,"ax",%progbits
 379              		.align	2
 380              		.global	TLC_SetRGB
 381              		.code	16
 382              		.thumb_func
 383              		.type	TLC_SetRGB, %function
 384              	TLC_SetRGB:
 385              	.LFB39:
 168:led.c         **** 
 169:led.c         **** void TLC_SetRGB(uint8 led_index, uint8 r, uint8 g, uint8 b) {
 386              		.loc 1 169 0
 387              		.cfi_startproc
 388              		@ args = 0, pretend = 0, frame = 16
 389              		@ frame_needed = 1, uses_anonymous_args = 0
 390 0000 B0B5     		push	{r4, r5, r7, lr}
 391              		.cfi_def_cfa_offset 16
 392              		.cfi_offset 4, -16
 393              		.cfi_offset 5, -12
 394              		.cfi_offset 7, -8
 395              		.cfi_offset 14, -4
 396 0002 84B0     		sub	sp, sp, #16
 397              		.cfi_def_cfa_offset 32
 398 0004 00AF     		add	r7, sp, #0
ARM GAS  C:\Users\alexport\AppData\Local\Temp\cc3nX14g.s 			page 11


 399              		.cfi_def_cfa_register 7
 400 0006 0500     		movs	r5, r0
 401 0008 0C00     		movs	r4, r1
 402 000a 1000     		movs	r0, r2
 403 000c 1900     		movs	r1, r3
 404 000e FB1D     		adds	r3, r7, #7
 405 0010 2A1C     		adds	r2, r5, #0
 406 0012 1A70     		strb	r2, [r3]
 407 0014 BB1D     		adds	r3, r7, #6
 408 0016 221C     		adds	r2, r4, #0
 409 0018 1A70     		strb	r2, [r3]
 410 001a 7B1D     		adds	r3, r7, #5
 411 001c 021C     		adds	r2, r0, #0
 412 001e 1A70     		strb	r2, [r3]
 413 0020 3B1D     		adds	r3, r7, #4
 414 0022 0A1C     		adds	r2, r1, #0
 415 0024 1A70     		strb	r2, [r3]
 170:led.c         ****     uint8 base_channel = led_index * 3;
 416              		.loc 1 170 0
 417 0026 0F23     		movs	r3, #15
 418 0028 F918     		adds	r1, r7, r3
 419 002a FB1D     		adds	r3, r7, #7
 420 002c 1B78     		ldrb	r3, [r3]
 421 002e 1A1C     		adds	r2, r3, #0
 422 0030 9218     		adds	r2, r2, r2
 423 0032 D318     		adds	r3, r2, r3
 424 0034 0B70     		strb	r3, [r1]
 171:led.c         ****     
 172:led.c         ****     switch(led_index){
 425              		.loc 1 172 0
 426 0036 FB1D     		adds	r3, r7, #7
 427 0038 1B78     		ldrb	r3, [r3]
 428 003a 012B     		cmp	r3, #1
 429 003c 0DD0     		beq	.L18
 430 003e 02DC     		bgt	.L19
 431 0040 002B     		cmp	r3, #0
 432 0042 05D0     		beq	.L20
 433 0044 18E0     		b	.L17
 434              	.L19:
 435 0046 022B     		cmp	r3, #2
 436 0048 0CD0     		beq	.L21
 437 004a 032B     		cmp	r3, #3
 438 004c 0FD0     		beq	.L22
 439 004e 13E0     		b	.L17
 440              	.L20:
 173:led.c         ****         case 0: base_channel = 10;break;
 441              		.loc 1 173 0
 442 0050 0F23     		movs	r3, #15
 443 0052 FB18     		adds	r3, r7, r3
 444 0054 0A22     		movs	r2, #10
 445 0056 1A70     		strb	r2, [r3]
 446 0058 0EE0     		b	.L17
 447              	.L18:
 174:led.c         ****         case 1: base_channel = 14;break;
 448              		.loc 1 174 0
 449 005a 0F23     		movs	r3, #15
 450 005c FB18     		adds	r3, r7, r3
ARM GAS  C:\Users\alexport\AppData\Local\Temp\cc3nX14g.s 			page 12


 451 005e 0E22     		movs	r2, #14
 452 0060 1A70     		strb	r2, [r3]
 453 0062 09E0     		b	.L17
 454              	.L21:
 175:led.c         ****         case 2: base_channel = 6;break;
 455              		.loc 1 175 0
 456 0064 0F23     		movs	r3, #15
 457 0066 FB18     		adds	r3, r7, r3
 458 0068 0622     		movs	r2, #6
 459 006a 1A70     		strb	r2, [r3]
 460 006c 04E0     		b	.L17
 461              	.L22:
 176:led.c         ****         case 3: base_channel = 2; break;
 462              		.loc 1 176 0
 463 006e 0F23     		movs	r3, #15
 464 0070 FB18     		adds	r3, r7, r3
 465 0072 0222     		movs	r2, #2
 466 0074 1A70     		strb	r2, [r3]
 467 0076 C046     		nop
 468              	.L17:
 177:led.c         ****     }
 178:led.c         ****     
 179:led.c         **** //    TLC_SetChannel(base_channel, r);
 180:led.c         **** //    TLC_SetChannel(base_channel + 1, g);
 181:led.c         **** //    TLC_SetChannel(base_channel + 2, b);
 182:led.c         ****     
 183:led.c         ****     TLC_SetChannel(base_channel, b);
 469              		.loc 1 183 0
 470 0078 3B1D     		adds	r3, r7, #4
 471 007a 1A78     		ldrb	r2, [r3]
 472 007c 0F23     		movs	r3, #15
 473 007e FB18     		adds	r3, r7, r3
 474 0080 1B78     		ldrb	r3, [r3]
 475 0082 1100     		movs	r1, r2
 476 0084 1800     		movs	r0, r3
 477 0086 FFF7FEFF 		bl	TLC_SetChannel
 184:led.c         ****     TLC_SetChannel(base_channel + 1, g);
 478              		.loc 1 184 0
 479 008a 0F23     		movs	r3, #15
 480 008c FB18     		adds	r3, r7, r3
 481 008e 1B78     		ldrb	r3, [r3]
 482 0090 0133     		adds	r3, r3, #1
 483 0092 DAB2     		uxtb	r2, r3
 484 0094 7B1D     		adds	r3, r7, #5
 485 0096 1B78     		ldrb	r3, [r3]
 486 0098 1900     		movs	r1, r3
 487 009a 1000     		movs	r0, r2
 488 009c FFF7FEFF 		bl	TLC_SetChannel
 185:led.c         ****     TLC_SetChannel(base_channel + 2, r);
 489              		.loc 1 185 0
 490 00a0 0F23     		movs	r3, #15
 491 00a2 FB18     		adds	r3, r7, r3
 492 00a4 1B78     		ldrb	r3, [r3]
 493 00a6 0233     		adds	r3, r3, #2
 494 00a8 DAB2     		uxtb	r2, r3
 495 00aa BB1D     		adds	r3, r7, #6
 496 00ac 1B78     		ldrb	r3, [r3]
ARM GAS  C:\Users\alexport\AppData\Local\Temp\cc3nX14g.s 			page 13


 497 00ae 1900     		movs	r1, r3
 498 00b0 1000     		movs	r0, r2
 499 00b2 FFF7FEFF 		bl	TLC_SetChannel
 186:led.c         ****     
 187:led.c         **** }
 500              		.loc 1 187 0
 501 00b6 C046     		nop
 502 00b8 BD46     		mov	sp, r7
 503 00ba 04B0     		add	sp, sp, #16
 504              		@ sp needed
 505 00bc B0BD     		pop	{r4, r5, r7, pc}
 506              		.cfi_endproc
 507              	.LFE39:
 508              		.size	TLC_SetRGB, .-TLC_SetRGB
 509              		.global	__aeabi_idiv
 510 00be C046     		.section	.text.TLC_UpdateRGBLED,"ax",%progbits
 511              		.align	2
 512              		.global	TLC_UpdateRGBLED
 513              		.code	16
 514              		.thumb_func
 515              		.type	TLC_UpdateRGBLED, %function
 516              	TLC_UpdateRGBLED:
 517              	.LFB40:
 188:led.c         **** 
 189:led.c         **** 
 190:led.c         **** void TLC_UpdateRGBLED(RGBLED* led) {
 518              		.loc 1 190 0
 519              		.cfi_startproc
 520              		@ args = 0, pretend = 0, frame = 16
 521              		@ frame_needed = 1, uses_anonymous_args = 0
 522 0000 F0B5     		push	{r4, r5, r6, r7, lr}
 523              		.cfi_def_cfa_offset 20
 524              		.cfi_offset 4, -20
 525              		.cfi_offset 5, -16
 526              		.cfi_offset 6, -12
 527              		.cfi_offset 7, -8
 528              		.cfi_offset 14, -4
 529 0002 85B0     		sub	sp, sp, #20
 530              		.cfi_def_cfa_offset 40
 531 0004 00AF     		add	r7, sp, #0
 532              		.cfi_def_cfa_register 7
 533 0006 7860     		str	r0, [r7, #4]
 191:led.c         ****     switch (led->mode) {
 534              		.loc 1 191 0
 535 0008 7B68     		ldr	r3, [r7, #4]
 536 000a 1B79     		ldrb	r3, [r3, #4]
 537 000c 012B     		cmp	r3, #1
 538 000e 10D0     		beq	.L25
 539 0010 02DC     		bgt	.L26
 540 0012 002B     		cmp	r3, #0
 541 0014 05D0     		beq	.L27
 192:led.c         ****         case MODE_OFF:
 193:led.c         ****             TLC_SetRGB(led->led_index, 0, 0, 0);
 194:led.c         ****             break;
 195:led.c         **** 
 196:led.c         ****         case MODE_STATIC:
 197:led.c         ****             TLC_SetRGB(led->led_index, led->r_base, led->g_base, led->b_base);
ARM GAS  C:\Users\alexport\AppData\Local\Temp\cc3nX14g.s 			page 14


 198:led.c         ****             break;
 199:led.c         **** 
 200:led.c         ****         case MODE_BREATHING: {
 201:led.c         ****             uint8 scale = sineTable[led->step];
 202:led.c         ****             TLC_SetRGB(led->led_index,
 203:led.c         ****                        (led->r_base * scale) / 255,
 204:led.c         ****                        (led->g_base * scale) / 255,
 205:led.c         ****                        (led->b_base * scale) / 255);
 206:led.c         **** 
 207:led.c         ****             led->step += led->direction;
 208:led.c         ****             if ( led->step == (SIN_CNT-1) || led->step == 0) {
 209:led.c         ****                 led->direction *= -1;
 210:led.c         ****             }
 211:led.c         ****             break;
 212:led.c         ****         }
 213:led.c         ****         case MODE_STROBE:{ 
 214:led.c         ****             uint8 scale = strobeTable[led->step];
 215:led.c         ****             TLC_SetRGB(led->led_index,
 216:led.c         ****                        (led->r_base * scale) / 255,
 217:led.c         ****                        (led->g_base * scale) / 255,
 218:led.c         ****                        (led->b_base * scale) / 255);
 219:led.c         **** 
 220:led.c         ****             led->step += led->direction;
 221:led.c         ****             if ( led->step == (STROBE_CNT-1) || led->step == 0) {
 222:led.c         ****                 led->direction *= -1;
 223:led.c         ****             }
 224:led.c         ****             break;
 225:led.c         ****         }
 226:led.c         ****     }
 227:led.c         **** }
 542              		.loc 1 227 0
 543 0016 BEE0     		b	.L36
 544              	.L26:
 191:led.c         ****     switch (led->mode) {
 545              		.loc 1 191 0
 546 0018 022B     		cmp	r3, #2
 547 001a 15D0     		beq	.L28
 548 001c 032B     		cmp	r3, #3
 549 001e 65D0     		beq	.L29
 550              		.loc 1 227 0
 551 0020 B9E0     		b	.L36
 552              	.L27:
 193:led.c         ****             break;
 553              		.loc 1 193 0
 554 0022 7B68     		ldr	r3, [r7, #4]
 555 0024 1878     		ldrb	r0, [r3]
 556 0026 0023     		movs	r3, #0
 557 0028 0022     		movs	r2, #0
 558 002a 0021     		movs	r1, #0
 559 002c FFF7FEFF 		bl	TLC_SetRGB
 194:led.c         **** 
 560              		.loc 1 194 0
 561 0030 B1E0     		b	.L24
 562              	.L25:
 197:led.c         ****             break;
 563              		.loc 1 197 0
 564 0032 7B68     		ldr	r3, [r7, #4]
ARM GAS  C:\Users\alexport\AppData\Local\Temp\cc3nX14g.s 			page 15


 565 0034 1878     		ldrb	r0, [r3]
 566 0036 7B68     		ldr	r3, [r7, #4]
 567 0038 5978     		ldrb	r1, [r3, #1]
 568 003a 7B68     		ldr	r3, [r7, #4]
 569 003c 9A78     		ldrb	r2, [r3, #2]
 570 003e 7B68     		ldr	r3, [r7, #4]
 571 0040 DB78     		ldrb	r3, [r3, #3]
 572 0042 FFF7FEFF 		bl	TLC_SetRGB
 198:led.c         **** 
 573              		.loc 1 198 0
 574 0046 A6E0     		b	.L24
 575              	.L28:
 576              	.LBB3:
 201:led.c         ****             TLC_SetRGB(led->led_index,
 577              		.loc 1 201 0
 578 0048 7B68     		ldr	r3, [r7, #4]
 579 004a 5B79     		ldrb	r3, [r3, #5]
 580 004c 1900     		movs	r1, r3
 581 004e 0F23     		movs	r3, #15
 582 0050 FB18     		adds	r3, r7, r3
 583 0052 534A     		ldr	r2, .L37
 584 0054 525C     		ldrb	r2, [r2, r1]
 585 0056 1A70     		strb	r2, [r3]
 202:led.c         ****                        (led->r_base * scale) / 255,
 586              		.loc 1 202 0
 587 0058 7B68     		ldr	r3, [r7, #4]
 588 005a 1C78     		ldrb	r4, [r3]
 203:led.c         ****                        (led->g_base * scale) / 255,
 589              		.loc 1 203 0
 590 005c 7B68     		ldr	r3, [r7, #4]
 591 005e 5B78     		ldrb	r3, [r3, #1]
 592 0060 1A00     		movs	r2, r3
 593 0062 0F23     		movs	r3, #15
 594 0064 FB18     		adds	r3, r7, r3
 595 0066 1B78     		ldrb	r3, [r3]
 596 0068 5343     		muls	r3, r2
 597 006a FF21     		movs	r1, #255
 598 006c 1800     		movs	r0, r3
 599 006e FFF7FEFF 		bl	__aeabi_idiv
 600 0072 0300     		movs	r3, r0
 202:led.c         ****                        (led->r_base * scale) / 255,
 601              		.loc 1 202 0
 602 0074 DDB2     		uxtb	r5, r3
 204:led.c         ****                        (led->b_base * scale) / 255);
 603              		.loc 1 204 0
 604 0076 7B68     		ldr	r3, [r7, #4]
 605 0078 9B78     		ldrb	r3, [r3, #2]
 606 007a 1A00     		movs	r2, r3
 607 007c 0F23     		movs	r3, #15
 608 007e FB18     		adds	r3, r7, r3
 609 0080 1B78     		ldrb	r3, [r3]
 610 0082 5343     		muls	r3, r2
 611 0084 FF21     		movs	r1, #255
 612 0086 1800     		movs	r0, r3
 613 0088 FFF7FEFF 		bl	__aeabi_idiv
 614 008c 0300     		movs	r3, r0
 202:led.c         ****                        (led->r_base * scale) / 255,
ARM GAS  C:\Users\alexport\AppData\Local\Temp\cc3nX14g.s 			page 16


 615              		.loc 1 202 0
 616 008e DEB2     		uxtb	r6, r3
 205:led.c         **** 
 617              		.loc 1 205 0
 618 0090 7B68     		ldr	r3, [r7, #4]
 619 0092 DB78     		ldrb	r3, [r3, #3]
 620 0094 1A00     		movs	r2, r3
 621 0096 0F23     		movs	r3, #15
 622 0098 FB18     		adds	r3, r7, r3
 623 009a 1B78     		ldrb	r3, [r3]
 624 009c 5343     		muls	r3, r2
 625 009e FF21     		movs	r1, #255
 626 00a0 1800     		movs	r0, r3
 627 00a2 FFF7FEFF 		bl	__aeabi_idiv
 628 00a6 0300     		movs	r3, r0
 202:led.c         ****                        (led->r_base * scale) / 255,
 629              		.loc 1 202 0
 630 00a8 DBB2     		uxtb	r3, r3
 631 00aa 3200     		movs	r2, r6
 632 00ac 2900     		movs	r1, r5
 633 00ae 2000     		movs	r0, r4
 634 00b0 FFF7FEFF 		bl	TLC_SetRGB
 207:led.c         ****             if ( led->step == (SIN_CNT-1) || led->step == 0) {
 635              		.loc 1 207 0
 636 00b4 7B68     		ldr	r3, [r7, #4]
 637 00b6 5A79     		ldrb	r2, [r3, #5]
 638 00b8 7B68     		ldr	r3, [r7, #4]
 639 00ba 9B79     		ldrb	r3, [r3, #6]
 640 00bc 5BB2     		sxtb	r3, r3
 641 00be DBB2     		uxtb	r3, r3
 642 00c0 D318     		adds	r3, r2, r3
 643 00c2 DAB2     		uxtb	r2, r3
 644 00c4 7B68     		ldr	r3, [r7, #4]
 645 00c6 5A71     		strb	r2, [r3, #5]
 208:led.c         ****                 led->direction *= -1;
 646              		.loc 1 208 0
 647 00c8 7B68     		ldr	r3, [r7, #4]
 648 00ca 5B79     		ldrb	r3, [r3, #5]
 649 00cc 132B     		cmp	r3, #19
 650 00ce 03D0     		beq	.L30
 208:led.c         ****                 led->direction *= -1;
 651              		.loc 1 208 0 is_stmt 0 discriminator 1
 652 00d0 7B68     		ldr	r3, [r7, #4]
 653 00d2 5B79     		ldrb	r3, [r3, #5]
 654 00d4 002B     		cmp	r3, #0
 655 00d6 5BD1     		bne	.L34
 656              	.L30:
 209:led.c         ****             }
 657              		.loc 1 209 0 is_stmt 1
 658 00d8 7B68     		ldr	r3, [r7, #4]
 659 00da 9B79     		ldrb	r3, [r3, #6]
 660 00dc 5BB2     		sxtb	r3, r3
 661 00de DBB2     		uxtb	r3, r3
 662 00e0 5B42     		rsbs	r3, r3, #0
 663 00e2 DBB2     		uxtb	r3, r3
 664 00e4 5AB2     		sxtb	r2, r3
 665 00e6 7B68     		ldr	r3, [r7, #4]
ARM GAS  C:\Users\alexport\AppData\Local\Temp\cc3nX14g.s 			page 17


 666 00e8 9A71     		strb	r2, [r3, #6]
 211:led.c         ****         }
 667              		.loc 1 211 0
 668 00ea 51E0     		b	.L34
 669              	.L29:
 670              	.LBE3:
 671              	.LBB4:
 214:led.c         ****             TLC_SetRGB(led->led_index,
 672              		.loc 1 214 0
 673 00ec 7B68     		ldr	r3, [r7, #4]
 674 00ee 5B79     		ldrb	r3, [r3, #5]
 675 00f0 1900     		movs	r1, r3
 676 00f2 0E23     		movs	r3, #14
 677 00f4 FB18     		adds	r3, r7, r3
 678 00f6 2B4A     		ldr	r2, .L37+4
 679 00f8 525C     		ldrb	r2, [r2, r1]
 680 00fa 1A70     		strb	r2, [r3]
 215:led.c         ****                        (led->r_base * scale) / 255,
 681              		.loc 1 215 0
 682 00fc 7B68     		ldr	r3, [r7, #4]
 683 00fe 1C78     		ldrb	r4, [r3]
 216:led.c         ****                        (led->g_base * scale) / 255,
 684              		.loc 1 216 0
 685 0100 7B68     		ldr	r3, [r7, #4]
 686 0102 5B78     		ldrb	r3, [r3, #1]
 687 0104 1A00     		movs	r2, r3
 688 0106 0E23     		movs	r3, #14
 689 0108 FB18     		adds	r3, r7, r3
 690 010a 1B78     		ldrb	r3, [r3]
 691 010c 5343     		muls	r3, r2
 692 010e FF21     		movs	r1, #255
 693 0110 1800     		movs	r0, r3
 694 0112 FFF7FEFF 		bl	__aeabi_idiv
 695 0116 0300     		movs	r3, r0
 215:led.c         ****                        (led->r_base * scale) / 255,
 696              		.loc 1 215 0
 697 0118 DDB2     		uxtb	r5, r3
 217:led.c         ****                        (led->b_base * scale) / 255);
 698              		.loc 1 217 0
 699 011a 7B68     		ldr	r3, [r7, #4]
 700 011c 9B78     		ldrb	r3, [r3, #2]
 701 011e 1A00     		movs	r2, r3
 702 0120 0E23     		movs	r3, #14
 703 0122 FB18     		adds	r3, r7, r3
 704 0124 1B78     		ldrb	r3, [r3]
 705 0126 5343     		muls	r3, r2
 706 0128 FF21     		movs	r1, #255
 707 012a 1800     		movs	r0, r3
 708 012c FFF7FEFF 		bl	__aeabi_idiv
 709 0130 0300     		movs	r3, r0
 215:led.c         ****                        (led->r_base * scale) / 255,
 710              		.loc 1 215 0
 711 0132 DEB2     		uxtb	r6, r3
 218:led.c         **** 
 712              		.loc 1 218 0
 713 0134 7B68     		ldr	r3, [r7, #4]
 714 0136 DB78     		ldrb	r3, [r3, #3]
ARM GAS  C:\Users\alexport\AppData\Local\Temp\cc3nX14g.s 			page 18


 715 0138 1A00     		movs	r2, r3
 716 013a 0E23     		movs	r3, #14
 717 013c FB18     		adds	r3, r7, r3
 718 013e 1B78     		ldrb	r3, [r3]
 719 0140 5343     		muls	r3, r2
 720 0142 FF21     		movs	r1, #255
 721 0144 1800     		movs	r0, r3
 722 0146 FFF7FEFF 		bl	__aeabi_idiv
 723 014a 0300     		movs	r3, r0
 215:led.c         ****                        (led->r_base * scale) / 255,
 724              		.loc 1 215 0
 725 014c DBB2     		uxtb	r3, r3
 726 014e 3200     		movs	r2, r6
 727 0150 2900     		movs	r1, r5
 728 0152 2000     		movs	r0, r4
 729 0154 FFF7FEFF 		bl	TLC_SetRGB
 220:led.c         ****             if ( led->step == (STROBE_CNT-1) || led->step == 0) {
 730              		.loc 1 220 0
 731 0158 7B68     		ldr	r3, [r7, #4]
 732 015a 5A79     		ldrb	r2, [r3, #5]
 733 015c 7B68     		ldr	r3, [r7, #4]
 734 015e 9B79     		ldrb	r3, [r3, #6]
 735 0160 5BB2     		sxtb	r3, r3
 736 0162 DBB2     		uxtb	r3, r3
 737 0164 D318     		adds	r3, r2, r3
 738 0166 DAB2     		uxtb	r2, r3
 739 0168 7B68     		ldr	r3, [r7, #4]
 740 016a 5A71     		strb	r2, [r3, #5]
 221:led.c         ****                 led->direction *= -1;
 741              		.loc 1 221 0
 742 016c 7B68     		ldr	r3, [r7, #4]
 743 016e 5B79     		ldrb	r3, [r3, #5]
 744 0170 132B     		cmp	r3, #19
 745 0172 03D0     		beq	.L32
 221:led.c         ****                 led->direction *= -1;
 746              		.loc 1 221 0 is_stmt 0 discriminator 1
 747 0174 7B68     		ldr	r3, [r7, #4]
 748 0176 5B79     		ldrb	r3, [r3, #5]
 749 0178 002B     		cmp	r3, #0
 750 017a 0BD1     		bne	.L35
 751              	.L32:
 222:led.c         ****             }
 752              		.loc 1 222 0 is_stmt 1
 753 017c 7B68     		ldr	r3, [r7, #4]
 754 017e 9B79     		ldrb	r3, [r3, #6]
 755 0180 5BB2     		sxtb	r3, r3
 756 0182 DBB2     		uxtb	r3, r3
 757 0184 5B42     		rsbs	r3, r3, #0
 758 0186 DBB2     		uxtb	r3, r3
 759 0188 5AB2     		sxtb	r2, r3
 760 018a 7B68     		ldr	r3, [r7, #4]
 761 018c 9A71     		strb	r2, [r3, #6]
 224:led.c         ****         }
 762              		.loc 1 224 0
 763 018e 01E0     		b	.L35
 764              	.L34:
 765              	.LBE4:
ARM GAS  C:\Users\alexport\AppData\Local\Temp\cc3nX14g.s 			page 19


 766              	.LBB5:
 211:led.c         ****         }
 767              		.loc 1 211 0
 768 0190 C046     		nop
 769 0192 00E0     		b	.L36
 770              	.L35:
 771              	.LBE5:
 772              	.LBB6:
 224:led.c         ****         }
 773              		.loc 1 224 0
 774 0194 C046     		nop
 775              	.L24:
 776              	.L36:
 777              	.LBE6:
 778              		.loc 1 227 0
 779 0196 C046     		nop
 780 0198 BD46     		mov	sp, r7
 781 019a 05B0     		add	sp, sp, #20
 782              		@ sp needed
 783 019c F0BD     		pop	{r4, r5, r6, r7, pc}
 784              	.L38:
 785 019e C046     		.align	2
 786              	.L37:
 787 01a0 00000000 		.word	sineTable
 788 01a4 00000000 		.word	strobeTable
 789              		.cfi_endproc
 790              	.LFE40:
 791              		.size	TLC_UpdateRGBLED, .-TLC_UpdateRGBLED
 792              		.section	.text.LED_Update,"ax",%progbits
 793              		.align	2
 794              		.global	LED_Update
 795              		.code	16
 796              		.thumb_func
 797              		.type	LED_Update, %function
 798              	LED_Update:
 799              	.LFB41:
 228:led.c         **** 
 229:led.c         **** 
 230:led.c         **** 
 231:led.c         **** /*    Example Usage
 232:led.c         ****  
 233:led.c         **** RGBLED leds[4] = {
 234:led.c         ****     {0, 255, 0, 0, MODE_BREATHING, 0, 1},
 235:led.c         ****     {1, 0, 255, 0, MODE_STATIC, 0, 1},
 236:led.c         ****     {2, 0, 0, 255, MODE_OFF, 0, 1},
 237:led.c         ****     {3, 255, 255, 0, MODE_BREATHING, 32, -1}
 238:led.c         **** };
 239:led.c         **** 
 240:led.c         **** int main(void) {
 241:led.c         ****     CyGlobalIntEnable;
 242:led.c         ****     TLC_Init();
 243:led.c         **** 
 244:led.c         ****     for (;;) {
 245:led.c         ****         for (int i = 0; i < 4; i++) {
 246:led.c         ****             TLC_UpdateRGBLED(&leds[i]);
 247:led.c         ****         }
 248:led.c         **** 
ARM GAS  C:\Users\alexport\AppData\Local\Temp\cc3nX14g.s 			page 20


 249:led.c         ****         // Add timer-based speed control or delay if needed
 250:led.c         ****         // and continue polling sensors or updating UI here
 251:led.c         ****     }
 252:led.c         **** }
 253:led.c         **** 
 254:led.c         **** 
 255:led.c         **** 
 256:led.c         **** */
 257:led.c         **** 
 258:led.c         **** void LED_Update(){
 800              		.loc 1 258 0
 801              		.cfi_startproc
 802              		@ args = 0, pretend = 0, frame = 8
 803              		@ frame_needed = 1, uses_anonymous_args = 0
 804 0000 80B5     		push	{r7, lr}
 805              		.cfi_def_cfa_offset 8
 806              		.cfi_offset 7, -8
 807              		.cfi_offset 14, -4
 808 0002 82B0     		sub	sp, sp, #8
 809              		.cfi_def_cfa_offset 16
 810 0004 00AF     		add	r7, sp, #0
 811              		.cfi_def_cfa_register 7
 812              	.LBB7:
 259:led.c         ****     for (int i = 0; i < 4; i++) {
 813              		.loc 1 259 0
 814 0006 0023     		movs	r3, #0
 815 0008 7B60     		str	r3, [r7, #4]
 816 000a 0BE0     		b	.L40
 817              	.L41:
 260:led.c         ****         TLC_UpdateRGBLED(&leds[i]);
 818              		.loc 1 260 0 discriminator 3
 819 000c 7A68     		ldr	r2, [r7, #4]
 820 000e 1300     		movs	r3, r2
 821 0010 DB00     		lsls	r3, r3, #3
 822 0012 9B1A     		subs	r3, r3, r2
 823 0014 074A     		ldr	r2, .L42
 824 0016 9B18     		adds	r3, r3, r2
 825 0018 1800     		movs	r0, r3
 826 001a FFF7FEFF 		bl	TLC_UpdateRGBLED
 259:led.c         ****     for (int i = 0; i < 4; i++) {
 827              		.loc 1 259 0 discriminator 3
 828 001e 7B68     		ldr	r3, [r7, #4]
 829 0020 0133     		adds	r3, r3, #1
 830 0022 7B60     		str	r3, [r7, #4]
 831              	.L40:
 259:led.c         ****     for (int i = 0; i < 4; i++) {
 832              		.loc 1 259 0 is_stmt 0 discriminator 1
 833 0024 7B68     		ldr	r3, [r7, #4]
 834 0026 032B     		cmp	r3, #3
 835 0028 F0DD     		ble	.L41
 836              	.LBE7:
 261:led.c         ****         
 262:led.c         ****     }
 263:led.c         **** }
 837              		.loc 1 263 0 is_stmt 1
 838 002a C046     		nop
 839 002c BD46     		mov	sp, r7
ARM GAS  C:\Users\alexport\AppData\Local\Temp\cc3nX14g.s 			page 21


 840 002e 02B0     		add	sp, sp, #8
 841              		@ sp needed
 842 0030 80BD     		pop	{r7, pc}
 843              	.L43:
 844 0032 C046     		.align	2
 845              	.L42:
 846 0034 00000000 		.word	leds
 847              		.cfi_endproc
 848              	.LFE41:
 849              		.size	LED_Update, .-LED_Update
 850              		.section	.text.SetLEDmode,"ax",%progbits
 851              		.align	2
 852              		.global	SetLEDmode
 853              		.code	16
 854              		.thumb_func
 855              		.type	SetLEDmode, %function
 856              	SetLEDmode:
 857              	.LFB42:
 264:led.c         **** 
 265:led.c         **** 
 266:led.c         **** void SetLEDmode(uint8_t num , uint8_t mode, uint8_t ch2Active){
 858              		.loc 1 266 0
 859              		.cfi_startproc
 860              		@ args = 0, pretend = 0, frame = 8
 861              		@ frame_needed = 1, uses_anonymous_args = 0
 862 0000 90B5     		push	{r4, r7, lr}
 863              		.cfi_def_cfa_offset 12
 864              		.cfi_offset 4, -12
 865              		.cfi_offset 7, -8
 866              		.cfi_offset 14, -4
 867 0002 83B0     		sub	sp, sp, #12
 868              		.cfi_def_cfa_offset 24
 869 0004 00AF     		add	r7, sp, #0
 870              		.cfi_def_cfa_register 7
 871 0006 0400     		movs	r4, r0
 872 0008 0800     		movs	r0, r1
 873 000a 1100     		movs	r1, r2
 874 000c FB1D     		adds	r3, r7, #7
 875 000e 221C     		adds	r2, r4, #0
 876 0010 1A70     		strb	r2, [r3]
 877 0012 BB1D     		adds	r3, r7, #6
 878 0014 021C     		adds	r2, r0, #0
 879 0016 1A70     		strb	r2, [r3]
 880 0018 7B1D     		adds	r3, r7, #5
 881 001a 0A1C     		adds	r2, r1, #0
 882 001c 1A70     		strb	r2, [r3]
 267:led.c         ****     if(ch2Active){
 883              		.loc 1 267 0
 884 001e 7B1D     		adds	r3, r7, #5
 885 0020 1B78     		ldrb	r3, [r3]
 886 0022 002B     		cmp	r3, #0
 887 0024 48D0     		beq	.L45
 268:led.c         ****         if(num==0){
 888              		.loc 1 268 0
 889 0026 FB1D     		adds	r3, r7, #7
 890 0028 1B78     		ldrb	r3, [r3]
 891 002a 002B     		cmp	r3, #0
ARM GAS  C:\Users\alexport\AppData\Local\Temp\cc3nX14g.s 			page 22


 892 002c 1FD1     		bne	.L46
 269:led.c         ****             if(mode==0){
 893              		.loc 1 269 0
 894 002e BB1D     		adds	r3, r7, #6
 895 0030 1B78     		ldrb	r3, [r3]
 896 0032 002B     		cmp	r3, #0
 897 0034 06D1     		bne	.L47
 270:led.c         ****                 leds[2].mode = MODE_STATIC;
 898              		.loc 1 270 0
 899 0036 3B4B     		ldr	r3, .L56
 900 0038 0122     		movs	r2, #1
 901 003a 9A74     		strb	r2, [r3, #18]
 271:led.c         ****                 leds[3].mode = MODE_STATIC;
 902              		.loc 1 271 0
 903 003c 394B     		ldr	r3, .L56
 904 003e 0122     		movs	r2, #1
 905 0040 5A76     		strb	r2, [r3, #25]
 906 0042 14E0     		b	.L46
 907              	.L47:
 272:led.c         ****             }else if(mode==1){
 908              		.loc 1 272 0
 909 0044 BB1D     		adds	r3, r7, #6
 910 0046 1B78     		ldrb	r3, [r3]
 911 0048 012B     		cmp	r3, #1
 912 004a 06D1     		bne	.L48
 273:led.c         ****                 leds[2].mode = MODE_BREATHING;
 913              		.loc 1 273 0
 914 004c 354B     		ldr	r3, .L56
 915 004e 0222     		movs	r2, #2
 916 0050 9A74     		strb	r2, [r3, #18]
 274:led.c         ****                 leds[3].mode = MODE_BREATHING;
 917              		.loc 1 274 0
 918 0052 344B     		ldr	r3, .L56
 919 0054 0222     		movs	r2, #2
 920 0056 5A76     		strb	r2, [r3, #25]
 921 0058 09E0     		b	.L46
 922              	.L48:
 275:led.c         ****             }else if(mode ==2){
 923              		.loc 1 275 0
 924 005a BB1D     		adds	r3, r7, #6
 925 005c 1B78     		ldrb	r3, [r3]
 926 005e 022B     		cmp	r3, #2
 927 0060 05D1     		bne	.L46
 276:led.c         ****                 leds[2].mode = MODE_STROBE;
 928              		.loc 1 276 0
 929 0062 304B     		ldr	r3, .L56
 930 0064 0322     		movs	r2, #3
 931 0066 9A74     		strb	r2, [r3, #18]
 277:led.c         ****                 leds[3].mode = MODE_STROBE;
 932              		.loc 1 277 0
 933 0068 2E4B     		ldr	r3, .L56
 934 006a 0322     		movs	r2, #3
 935 006c 5A76     		strb	r2, [r3, #25]
 936              	.L46:
 278:led.c         ****             }
 279:led.c         ****         }
 280:led.c         ****         if(num==1){
ARM GAS  C:\Users\alexport\AppData\Local\Temp\cc3nX14g.s 			page 23


 937              		.loc 1 280 0
 938 006e FB1D     		adds	r3, r7, #7
 939 0070 1B78     		ldrb	r3, [r3]
 940 0072 012B     		cmp	r3, #1
 941 0074 52D1     		bne	.L55
 281:led.c         ****                 if(mode==0){
 942              		.loc 1 281 0
 943 0076 BB1D     		adds	r3, r7, #6
 944 0078 1B78     		ldrb	r3, [r3]
 945 007a 002B     		cmp	r3, #0
 946 007c 06D1     		bne	.L50
 282:led.c         ****                 leds[0].mode = MODE_STATIC;
 947              		.loc 1 282 0
 948 007e 294B     		ldr	r3, .L56
 949 0080 0122     		movs	r2, #1
 950 0082 1A71     		strb	r2, [r3, #4]
 283:led.c         ****                 leds[1].mode = MODE_STATIC;
 951              		.loc 1 283 0
 952 0084 274B     		ldr	r3, .L56
 953 0086 0122     		movs	r2, #1
 954 0088 DA72     		strb	r2, [r3, #11]
 284:led.c         ****             }else if (mode ==1){
 285:led.c         ****                 leds[0].mode = MODE_BREATHING;
 286:led.c         ****                 leds[1].mode = MODE_BREATHING;
 287:led.c         ****             }else if (mode ==2){
 288:led.c         ****                 leds[0].mode = MODE_STROBE;
 289:led.c         ****                 leds[1].mode = MODE_STROBE;
 290:led.c         ****             }
 291:led.c         ****         }
 292:led.c         ****         
 293:led.c         ****     }else{
 294:led.c         ****         if(mode==0){
 295:led.c         ****                 leds[0].mode = MODE_STATIC;
 296:led.c         ****                 leds[1].mode = MODE_STATIC;
 297:led.c         ****                 leds[2].mode = MODE_STATIC;
 298:led.c         ****                 leds[3].mode = MODE_STATIC;
 299:led.c         ****             }else if (mode ==1){
 300:led.c         ****                 leds[0].mode = MODE_BREATHING;
 301:led.c         ****                 leds[1].mode = MODE_BREATHING;
 302:led.c         ****                 leds[2].mode = MODE_BREATHING;
 303:led.c         ****                 leds[3].mode = MODE_BREATHING;
 304:led.c         ****             }else if (mode ==2){
 305:led.c         ****                 leds[0].mode = MODE_STROBE;
 306:led.c         ****                 leds[1].mode = MODE_STROBE;
 307:led.c         ****                 leds[2].mode = MODE_STROBE;
 308:led.c         ****                 leds[3].mode = MODE_STROBE;
 309:led.c         ****             }
 310:led.c         ****     }
 311:led.c         ****     
 312:led.c         **** }
 955              		.loc 1 312 0
 956 008a 47E0     		b	.L55
 957              	.L50:
 284:led.c         ****             }else if (mode ==1){
 958              		.loc 1 284 0
 959 008c BB1D     		adds	r3, r7, #6
 960 008e 1B78     		ldrb	r3, [r3]
ARM GAS  C:\Users\alexport\AppData\Local\Temp\cc3nX14g.s 			page 24


 961 0090 012B     		cmp	r3, #1
 962 0092 06D1     		bne	.L51
 285:led.c         ****                 leds[1].mode = MODE_BREATHING;
 963              		.loc 1 285 0
 964 0094 234B     		ldr	r3, .L56
 965 0096 0222     		movs	r2, #2
 966 0098 1A71     		strb	r2, [r3, #4]
 286:led.c         ****             }else if (mode ==2){
 967              		.loc 1 286 0
 968 009a 224B     		ldr	r3, .L56
 969 009c 0222     		movs	r2, #2
 970 009e DA72     		strb	r2, [r3, #11]
 971              		.loc 1 312 0
 972 00a0 3CE0     		b	.L55
 973              	.L51:
 287:led.c         ****                 leds[0].mode = MODE_STROBE;
 974              		.loc 1 287 0
 975 00a2 BB1D     		adds	r3, r7, #6
 976 00a4 1B78     		ldrb	r3, [r3]
 977 00a6 022B     		cmp	r3, #2
 978 00a8 38D1     		bne	.L55
 288:led.c         ****                 leds[1].mode = MODE_STROBE;
 979              		.loc 1 288 0
 980 00aa 1E4B     		ldr	r3, .L56
 981 00ac 0322     		movs	r2, #3
 982 00ae 1A71     		strb	r2, [r3, #4]
 289:led.c         ****             }
 983              		.loc 1 289 0
 984 00b0 1C4B     		ldr	r3, .L56
 985 00b2 0322     		movs	r2, #3
 986 00b4 DA72     		strb	r2, [r3, #11]
 987              		.loc 1 312 0
 988 00b6 31E0     		b	.L55
 989              	.L45:
 294:led.c         ****                 leds[0].mode = MODE_STATIC;
 990              		.loc 1 294 0
 991 00b8 BB1D     		adds	r3, r7, #6
 992 00ba 1B78     		ldrb	r3, [r3]
 993 00bc 002B     		cmp	r3, #0
 994 00be 0CD1     		bne	.L53
 295:led.c         ****                 leds[1].mode = MODE_STATIC;
 995              		.loc 1 295 0
 996 00c0 184B     		ldr	r3, .L56
 997 00c2 0122     		movs	r2, #1
 998 00c4 1A71     		strb	r2, [r3, #4]
 296:led.c         ****                 leds[2].mode = MODE_STATIC;
 999              		.loc 1 296 0
 1000 00c6 174B     		ldr	r3, .L56
 1001 00c8 0122     		movs	r2, #1
 1002 00ca DA72     		strb	r2, [r3, #11]
 297:led.c         ****                 leds[3].mode = MODE_STATIC;
 1003              		.loc 1 297 0
 1004 00cc 154B     		ldr	r3, .L56
 1005 00ce 0122     		movs	r2, #1
 1006 00d0 9A74     		strb	r2, [r3, #18]
 298:led.c         ****             }else if (mode ==1){
 1007              		.loc 1 298 0
ARM GAS  C:\Users\alexport\AppData\Local\Temp\cc3nX14g.s 			page 25


 1008 00d2 144B     		ldr	r3, .L56
 1009 00d4 0122     		movs	r2, #1
 1010 00d6 5A76     		strb	r2, [r3, #25]
 1011              		.loc 1 312 0
 1012 00d8 20E0     		b	.L55
 1013              	.L53:
 299:led.c         ****                 leds[0].mode = MODE_BREATHING;
 1014              		.loc 1 299 0
 1015 00da BB1D     		adds	r3, r7, #6
 1016 00dc 1B78     		ldrb	r3, [r3]
 1017 00de 012B     		cmp	r3, #1
 1018 00e0 0CD1     		bne	.L54
 300:led.c         ****                 leds[1].mode = MODE_BREATHING;
 1019              		.loc 1 300 0
 1020 00e2 104B     		ldr	r3, .L56
 1021 00e4 0222     		movs	r2, #2
 1022 00e6 1A71     		strb	r2, [r3, #4]
 301:led.c         ****                 leds[2].mode = MODE_BREATHING;
 1023              		.loc 1 301 0
 1024 00e8 0E4B     		ldr	r3, .L56
 1025 00ea 0222     		movs	r2, #2
 1026 00ec DA72     		strb	r2, [r3, #11]
 302:led.c         ****                 leds[3].mode = MODE_BREATHING;
 1027              		.loc 1 302 0
 1028 00ee 0D4B     		ldr	r3, .L56
 1029 00f0 0222     		movs	r2, #2
 1030 00f2 9A74     		strb	r2, [r3, #18]
 303:led.c         ****             }else if (mode ==2){
 1031              		.loc 1 303 0
 1032 00f4 0B4B     		ldr	r3, .L56
 1033 00f6 0222     		movs	r2, #2
 1034 00f8 5A76     		strb	r2, [r3, #25]
 1035              		.loc 1 312 0
 1036 00fa 0FE0     		b	.L55
 1037              	.L54:
 304:led.c         ****                 leds[0].mode = MODE_STROBE;
 1038              		.loc 1 304 0
 1039 00fc BB1D     		adds	r3, r7, #6
 1040 00fe 1B78     		ldrb	r3, [r3]
 1041 0100 022B     		cmp	r3, #2
 1042 0102 0BD1     		bne	.L55
 305:led.c         ****                 leds[1].mode = MODE_STROBE;
 1043              		.loc 1 305 0
 1044 0104 074B     		ldr	r3, .L56
 1045 0106 0322     		movs	r2, #3
 1046 0108 1A71     		strb	r2, [r3, #4]
 306:led.c         ****                 leds[2].mode = MODE_STROBE;
 1047              		.loc 1 306 0
 1048 010a 064B     		ldr	r3, .L56
 1049 010c 0322     		movs	r2, #3
 1050 010e DA72     		strb	r2, [r3, #11]
 307:led.c         ****                 leds[3].mode = MODE_STROBE;
 1051              		.loc 1 307 0
 1052 0110 044B     		ldr	r3, .L56
 1053 0112 0322     		movs	r2, #3
 1054 0114 9A74     		strb	r2, [r3, #18]
 308:led.c         ****             }
ARM GAS  C:\Users\alexport\AppData\Local\Temp\cc3nX14g.s 			page 26


 1055              		.loc 1 308 0
 1056 0116 034B     		ldr	r3, .L56
 1057 0118 0322     		movs	r2, #3
 1058 011a 5A76     		strb	r2, [r3, #25]
 1059              	.L55:
 1060              		.loc 1 312 0
 1061 011c C046     		nop
 1062 011e BD46     		mov	sp, r7
 1063 0120 03B0     		add	sp, sp, #12
 1064              		@ sp needed
 1065 0122 90BD     		pop	{r4, r7, pc}
 1066              	.L57:
 1067              		.align	2
 1068              	.L56:
 1069 0124 00000000 		.word	leds
 1070              		.cfi_endproc
 1071              	.LFE42:
 1072              		.size	SetLEDmode, .-SetLEDmode
 1073              		.section	.text.system_SetLed,"ax",%progbits
 1074              		.align	2
 1075              		.global	system_SetLed
 1076              		.code	16
 1077              		.thumb_func
 1078              		.type	system_SetLed, %function
 1079              	system_SetLed:
 1080              	.LFB43:
 313:led.c         **** 
 314:led.c         **** 
 315:led.c         **** 
 316:led.c         **** 
 317:led.c         **** 
 318:led.c         **** 
 319:led.c         **** void system_SetLed(uint8_t num , uint8_t color, uint8_t breath, uint8_t doubleCh)
 320:led.c         **** {   
 1081              		.loc 1 320 0
 1082              		.cfi_startproc
 1083              		@ args = 0, pretend = 0, frame = 16
 1084              		@ frame_needed = 1, uses_anonymous_args = 0
 1085 0000 B0B5     		push	{r4, r5, r7, lr}
 1086              		.cfi_def_cfa_offset 16
 1087              		.cfi_offset 4, -16
 1088              		.cfi_offset 5, -12
 1089              		.cfi_offset 7, -8
 1090              		.cfi_offset 14, -4
 1091 0002 84B0     		sub	sp, sp, #16
 1092              		.cfi_def_cfa_offset 32
 1093 0004 00AF     		add	r7, sp, #0
 1094              		.cfi_def_cfa_register 7
 1095 0006 0500     		movs	r5, r0
 1096 0008 0C00     		movs	r4, r1
 1097 000a 1000     		movs	r0, r2
 1098 000c 1900     		movs	r1, r3
 1099 000e FB1D     		adds	r3, r7, #7
 1100 0010 2A1C     		adds	r2, r5, #0
 1101 0012 1A70     		strb	r2, [r3]
 1102 0014 BB1D     		adds	r3, r7, #6
 1103 0016 221C     		adds	r2, r4, #0
ARM GAS  C:\Users\alexport\AppData\Local\Temp\cc3nX14g.s 			page 27


 1104 0018 1A70     		strb	r2, [r3]
 1105 001a 7B1D     		adds	r3, r7, #5
 1106 001c 021C     		adds	r2, r0, #0
 1107 001e 1A70     		strb	r2, [r3]
 1108 0020 3B1D     		adds	r3, r7, #4
 1109 0022 0A1C     		adds	r2, r1, #0
 1110 0024 1A70     		strb	r2, [r3]
 321:led.c         ****     if(!doubleCh){
 1111              		.loc 1 321 0
 1112 0026 3B1D     		adds	r3, r7, #4
 1113 0028 1B78     		ldrb	r3, [r3]
 1114 002a 002B     		cmp	r3, #0
 1115 002c 00D0     		beq	.LCB906
 1116 002e B3E1     		b	.L59	@long jump
 1117              	.LCB906:
 322:led.c         ****         if(breath==1){
 1118              		.loc 1 322 0
 1119 0030 7B1D     		adds	r3, r7, #5
 1120 0032 1B78     		ldrb	r3, [r3]
 1121 0034 012B     		cmp	r3, #1
 1122 0036 1CD1     		bne	.L60
 1123              	.LBB8:
 323:led.c         ****             for(uint8_t i =0 ;i<4; i++){
 1124              		.loc 1 323 0
 1125 0038 0F23     		movs	r3, #15
 1126 003a FB18     		adds	r3, r7, r3
 1127 003c 0022     		movs	r2, #0
 1128 003e 1A70     		strb	r2, [r3]
 1129 0040 11E0     		b	.L61
 1130              	.L62:
 324:led.c         ****                 leds[i].mode = MODE_BREATHING;
 1131              		.loc 1 324 0 discriminator 3
 1132 0042 0F23     		movs	r3, #15
 1133 0044 FB18     		adds	r3, r7, r3
 1134 0046 1A78     		ldrb	r2, [r3]
 1135 0048 EA49     		ldr	r1, .L116
 1136 004a 1300     		movs	r3, r2
 1137 004c DB00     		lsls	r3, r3, #3
 1138 004e 9B1A     		subs	r3, r3, r2
 1139 0050 CB18     		adds	r3, r1, r3
 1140 0052 0433     		adds	r3, r3, #4
 1141 0054 0222     		movs	r2, #2
 1142 0056 1A70     		strb	r2, [r3]
 323:led.c         ****             for(uint8_t i =0 ;i<4; i++){
 1143              		.loc 1 323 0 discriminator 3
 1144 0058 0F23     		movs	r3, #15
 1145 005a FB18     		adds	r3, r7, r3
 1146 005c 1A78     		ldrb	r2, [r3]
 1147 005e 0F23     		movs	r3, #15
 1148 0060 FB18     		adds	r3, r7, r3
 1149 0062 0132     		adds	r2, r2, #1
 1150 0064 1A70     		strb	r2, [r3]
 1151              	.L61:
 323:led.c         ****             for(uint8_t i =0 ;i<4; i++){
 1152              		.loc 1 323 0 is_stmt 0 discriminator 1
 1153 0066 0F23     		movs	r3, #15
 1154 0068 FB18     		adds	r3, r7, r3
ARM GAS  C:\Users\alexport\AppData\Local\Temp\cc3nX14g.s 			page 28


 1155 006a 1B78     		ldrb	r3, [r3]
 1156 006c 032B     		cmp	r3, #3
 1157 006e E8D9     		bls	.L62
 1158 0070 52E0     		b	.L63
 1159              	.L60:
 1160              	.LBE8:
 325:led.c         ****             }
 326:led.c         ****         }else if (breath==2){
 1161              		.loc 1 326 0 is_stmt 1
 1162 0072 7B1D     		adds	r3, r7, #5
 1163 0074 1B78     		ldrb	r3, [r3]
 1164 0076 022B     		cmp	r3, #2
 1165 0078 1CD1     		bne	.L64
 1166              	.LBB9:
 327:led.c         ****             for(uint8_t i =0 ;i<4; i++){
 1167              		.loc 1 327 0
 1168 007a 0E23     		movs	r3, #14
 1169 007c FB18     		adds	r3, r7, r3
 1170 007e 0022     		movs	r2, #0
 1171 0080 1A70     		strb	r2, [r3]
 1172 0082 11E0     		b	.L65
 1173              	.L66:
 328:led.c         ****                 leds[i].mode = MODE_STROBE;
 1174              		.loc 1 328 0 discriminator 3
 1175 0084 0E23     		movs	r3, #14
 1176 0086 FB18     		adds	r3, r7, r3
 1177 0088 1A78     		ldrb	r2, [r3]
 1178 008a DA49     		ldr	r1, .L116
 1179 008c 1300     		movs	r3, r2
 1180 008e DB00     		lsls	r3, r3, #3
 1181 0090 9B1A     		subs	r3, r3, r2
 1182 0092 CB18     		adds	r3, r1, r3
 1183 0094 0433     		adds	r3, r3, #4
 1184 0096 0322     		movs	r2, #3
 1185 0098 1A70     		strb	r2, [r3]
 327:led.c         ****             for(uint8_t i =0 ;i<4; i++){
 1186              		.loc 1 327 0 discriminator 3
 1187 009a 0E23     		movs	r3, #14
 1188 009c FB18     		adds	r3, r7, r3
 1189 009e 1A78     		ldrb	r2, [r3]
 1190 00a0 0E23     		movs	r3, #14
 1191 00a2 FB18     		adds	r3, r7, r3
 1192 00a4 0132     		adds	r2, r2, #1
 1193 00a6 1A70     		strb	r2, [r3]
 1194              	.L65:
 327:led.c         ****             for(uint8_t i =0 ;i<4; i++){
 1195              		.loc 1 327 0 is_stmt 0 discriminator 1
 1196 00a8 0E23     		movs	r3, #14
 1197 00aa FB18     		adds	r3, r7, r3
 1198 00ac 1B78     		ldrb	r3, [r3]
 1199 00ae 032B     		cmp	r3, #3
 1200 00b0 E8D9     		bls	.L66
 1201 00b2 31E0     		b	.L63
 1202              	.L64:
 1203              	.LBE9:
 1204              	.LBB10:
 329:led.c         ****             }
ARM GAS  C:\Users\alexport\AppData\Local\Temp\cc3nX14g.s 			page 29


 330:led.c         ****         }else {
 331:led.c         ****             for(uint8_t i =0 ;i<4; i++){
 1205              		.loc 1 331 0 is_stmt 1
 1206 00b4 0D23     		movs	r3, #13
 1207 00b6 FB18     		adds	r3, r7, r3
 1208 00b8 0022     		movs	r2, #0
 1209 00ba 1A70     		strb	r2, [r3]
 1210 00bc 27E0     		b	.L67
 1211              	.L68:
 332:led.c         ****                 leds[i].mode = MODE_STATIC;
 1212              		.loc 1 332 0 discriminator 3
 1213 00be 0D23     		movs	r3, #13
 1214 00c0 FB18     		adds	r3, r7, r3
 1215 00c2 1A78     		ldrb	r2, [r3]
 1216 00c4 CB49     		ldr	r1, .L116
 1217 00c6 1300     		movs	r3, r2
 1218 00c8 DB00     		lsls	r3, r3, #3
 1219 00ca 9B1A     		subs	r3, r3, r2
 1220 00cc CB18     		adds	r3, r1, r3
 1221 00ce 0433     		adds	r3, r3, #4
 1222 00d0 0122     		movs	r2, #1
 1223 00d2 1A70     		strb	r2, [r3]
 333:led.c         ****                 leds[i].step=SIN_CNT-1;
 1224              		.loc 1 333 0 discriminator 3
 1225 00d4 0D23     		movs	r3, #13
 1226 00d6 FB18     		adds	r3, r7, r3
 1227 00d8 1A78     		ldrb	r2, [r3]
 1228 00da C649     		ldr	r1, .L116
 1229 00dc 1300     		movs	r3, r2
 1230 00de DB00     		lsls	r3, r3, #3
 1231 00e0 9B1A     		subs	r3, r3, r2
 1232 00e2 CB18     		adds	r3, r1, r3
 1233 00e4 0533     		adds	r3, r3, #5
 1234 00e6 1322     		movs	r2, #19
 1235 00e8 1A70     		strb	r2, [r3]
 334:led.c         ****                 leds[i].direction=-1;
 1236              		.loc 1 334 0 discriminator 3
 1237 00ea 0D23     		movs	r3, #13
 1238 00ec FB18     		adds	r3, r7, r3
 1239 00ee 1A78     		ldrb	r2, [r3]
 1240 00f0 C049     		ldr	r1, .L116
 1241 00f2 1300     		movs	r3, r2
 1242 00f4 DB00     		lsls	r3, r3, #3
 1243 00f6 9B1A     		subs	r3, r3, r2
 1244 00f8 CB18     		adds	r3, r1, r3
 1245 00fa 0633     		adds	r3, r3, #6
 1246 00fc FF22     		movs	r2, #255
 1247 00fe 1A70     		strb	r2, [r3]
 331:led.c         ****                 leds[i].mode = MODE_STATIC;
 1248              		.loc 1 331 0 discriminator 3
 1249 0100 0D23     		movs	r3, #13
 1250 0102 FB18     		adds	r3, r7, r3
 1251 0104 1A78     		ldrb	r2, [r3]
 1252 0106 0D23     		movs	r3, #13
 1253 0108 FB18     		adds	r3, r7, r3
 1254 010a 0132     		adds	r2, r2, #1
 1255 010c 1A70     		strb	r2, [r3]
ARM GAS  C:\Users\alexport\AppData\Local\Temp\cc3nX14g.s 			page 30


 1256              	.L67:
 331:led.c         ****                 leds[i].mode = MODE_STATIC;
 1257              		.loc 1 331 0 is_stmt 0 discriminator 1
 1258 010e 0D23     		movs	r3, #13
 1259 0110 FB18     		adds	r3, r7, r3
 1260 0112 1B78     		ldrb	r3, [r3]
 1261 0114 032B     		cmp	r3, #3
 1262 0116 D2D9     		bls	.L68
 1263              	.L63:
 1264              	.LBE10:
 335:led.c         ****             }
 336:led.c         ****         }
 337:led.c         ****         switch(color){
 1265              		.loc 1 337 0 is_stmt 1
 1266 0118 BB1D     		adds	r3, r7, #6
 1267 011a 1B78     		ldrb	r3, [r3]
 1268 011c 092B     		cmp	r3, #9
 1269 011e 00D9     		bls	.LCB1054
 1270 0120 EAE2     		b	.L114	@long jump
 1271              	.LCB1054:
 1272 0122 9A00     		lsls	r2, r3, #2
 1273 0124 B44B     		ldr	r3, .L116+4
 1274 0126 D318     		adds	r3, r2, r3
 1275 0128 1B68     		ldr	r3, [r3]
 1276 012a 9F46     		mov	pc, r3
 1277              		.section	.rodata
 1278              		.align	2
 1279              	.L71:
 1280 0000 2C010000 		.word	.L70
 1281 0004 DA010000 		.word	.L72
 1282 0008 46010000 		.word	.L73
 1283 000c 90010000 		.word	.L74
 1284 0010 24020000 		.word	.L75
 1285 0014 6E020000 		.word	.L76
 1286 0018 F8060000 		.word	.L114
 1287 001c B8020000 		.word	.L77
 1288 0020 02030000 		.word	.L78
 1289 0024 4C030000 		.word	.L79
 1290              		.section	.text.system_SetLed
 1291              	.L70:
 338:led.c         ****             case  SYSTEM_LED_OFF: 
 339:led.c         ****                 leds[0].mode = MODE_OFF;
 1292              		.loc 1 339 0
 1293 012c B14B     		ldr	r3, .L116
 1294 012e 0022     		movs	r2, #0
 1295 0130 1A71     		strb	r2, [r3, #4]
 340:led.c         ****                 leds[1].mode = MODE_OFF;
 1296              		.loc 1 340 0
 1297 0132 B04B     		ldr	r3, .L116
 1298 0134 0022     		movs	r2, #0
 1299 0136 DA72     		strb	r2, [r3, #11]
 341:led.c         ****                 leds[2].mode = MODE_OFF;
 1300              		.loc 1 341 0
 1301 0138 AE4B     		ldr	r3, .L116
 1302 013a 0022     		movs	r2, #0
 1303 013c 9A74     		strb	r2, [r3, #18]
 342:led.c         ****                 leds[3].mode = MODE_OFF;
ARM GAS  C:\Users\alexport\AppData\Local\Temp\cc3nX14g.s 			page 31


 1304              		.loc 1 342 0
 1305 013e AD4B     		ldr	r3, .L116
 1306 0140 0022     		movs	r2, #0
 1307 0142 5A76     		strb	r2, [r3, #25]
 343:led.c         ****             break;
 1308              		.loc 1 343 0
 1309 0144 D8E2     		b	.L80
 1310              	.L73:
 344:led.c         ****             case  SYSTEM_LED_GREEN:
 345:led.c         ****                 leds[0].r_base =0;leds[0].g_base =225;leds[0].b_base =0;
 1311              		.loc 1 345 0
 1312 0146 AB4B     		ldr	r3, .L116
 1313 0148 0022     		movs	r2, #0
 1314 014a 5A70     		strb	r2, [r3, #1]
 1315 014c A94B     		ldr	r3, .L116
 1316 014e E122     		movs	r2, #225
 1317 0150 9A70     		strb	r2, [r3, #2]
 1318 0152 A84B     		ldr	r3, .L116
 1319 0154 0022     		movs	r2, #0
 1320 0156 DA70     		strb	r2, [r3, #3]
 346:led.c         ****                 leds[1].r_base =0;leds[1].g_base =225;leds[1].b_base =0;
 1321              		.loc 1 346 0
 1322 0158 A64B     		ldr	r3, .L116
 1323 015a 0022     		movs	r2, #0
 1324 015c 1A72     		strb	r2, [r3, #8]
 1325 015e A54B     		ldr	r3, .L116
 1326 0160 E122     		movs	r2, #225
 1327 0162 5A72     		strb	r2, [r3, #9]
 1328 0164 A34B     		ldr	r3, .L116
 1329 0166 0022     		movs	r2, #0
 1330 0168 9A72     		strb	r2, [r3, #10]
 347:led.c         ****                 leds[2].r_base =0;leds[2].g_base =225;leds[2].b_base =0;
 1331              		.loc 1 347 0
 1332 016a A24B     		ldr	r3, .L116
 1333 016c 0022     		movs	r2, #0
 1334 016e DA73     		strb	r2, [r3, #15]
 1335 0170 A04B     		ldr	r3, .L116
 1336 0172 E122     		movs	r2, #225
 1337 0174 1A74     		strb	r2, [r3, #16]
 1338 0176 9F4B     		ldr	r3, .L116
 1339 0178 0022     		movs	r2, #0
 1340 017a 5A74     		strb	r2, [r3, #17]
 348:led.c         ****                 leds[3].r_base =0;leds[3].g_base =225;leds[3].b_base =0;
 1341              		.loc 1 348 0
 1342 017c 9D4B     		ldr	r3, .L116
 1343 017e 0022     		movs	r2, #0
 1344 0180 9A75     		strb	r2, [r3, #22]
 1345 0182 9C4B     		ldr	r3, .L116
 1346 0184 E122     		movs	r2, #225
 1347 0186 DA75     		strb	r2, [r3, #23]
 1348 0188 9A4B     		ldr	r3, .L116
 1349 018a 0022     		movs	r2, #0
 1350 018c 1A76     		strb	r2, [r3, #24]
 349:led.c         ****             break;
 1351              		.loc 1 349 0
 1352 018e B3E2     		b	.L80
 1353              	.L74:
ARM GAS  C:\Users\alexport\AppData\Local\Temp\cc3nX14g.s 			page 32


 350:led.c         ****             case  SYSTEM_LED_YELLOW:
 351:led.c         ****                 leds[0].r_base =100;leds[0].g_base =200;leds[0].b_base =0;
 1354              		.loc 1 351 0
 1355 0190 984B     		ldr	r3, .L116
 1356 0192 6422     		movs	r2, #100
 1357 0194 5A70     		strb	r2, [r3, #1]
 1358 0196 974B     		ldr	r3, .L116
 1359 0198 C822     		movs	r2, #200
 1360 019a 9A70     		strb	r2, [r3, #2]
 1361 019c 954B     		ldr	r3, .L116
 1362 019e 0022     		movs	r2, #0
 1363 01a0 DA70     		strb	r2, [r3, #3]
 352:led.c         ****                 leds[1].r_base =100;leds[1].g_base =200;leds[1].b_base =0;
 1364              		.loc 1 352 0
 1365 01a2 944B     		ldr	r3, .L116
 1366 01a4 6422     		movs	r2, #100
 1367 01a6 1A72     		strb	r2, [r3, #8]
 1368 01a8 924B     		ldr	r3, .L116
 1369 01aa C822     		movs	r2, #200
 1370 01ac 5A72     		strb	r2, [r3, #9]
 1371 01ae 914B     		ldr	r3, .L116
 1372 01b0 0022     		movs	r2, #0
 1373 01b2 9A72     		strb	r2, [r3, #10]
 353:led.c         ****                 leds[2].r_base =100;leds[2].g_base =200;leds[2].b_base =0;
 1374              		.loc 1 353 0
 1375 01b4 8F4B     		ldr	r3, .L116
 1376 01b6 6422     		movs	r2, #100
 1377 01b8 DA73     		strb	r2, [r3, #15]
 1378 01ba 8E4B     		ldr	r3, .L116
 1379 01bc C822     		movs	r2, #200
 1380 01be 1A74     		strb	r2, [r3, #16]
 1381 01c0 8C4B     		ldr	r3, .L116
 1382 01c2 0022     		movs	r2, #0
 1383 01c4 5A74     		strb	r2, [r3, #17]
 354:led.c         ****                 leds[3].r_base =100;leds[3].g_base =200;leds[3].b_base =0;
 1384              		.loc 1 354 0
 1385 01c6 8B4B     		ldr	r3, .L116
 1386 01c8 6422     		movs	r2, #100
 1387 01ca 9A75     		strb	r2, [r3, #22]
 1388 01cc 894B     		ldr	r3, .L116
 1389 01ce C822     		movs	r2, #200
 1390 01d0 DA75     		strb	r2, [r3, #23]
 1391 01d2 884B     		ldr	r3, .L116
 1392 01d4 0022     		movs	r2, #0
 1393 01d6 1A76     		strb	r2, [r3, #24]
 355:led.c         ****             break; 
 1394              		.loc 1 355 0
 1395 01d8 8EE2     		b	.L80
 1396              	.L72:
 356:led.c         ****             case  SYSTEM_LED_RED:
 357:led.c         ****                 leds[0].r_base =255;leds[0].g_base =0;leds[0].b_base =0;
 1397              		.loc 1 357 0
 1398 01da 864B     		ldr	r3, .L116
 1399 01dc FF22     		movs	r2, #255
 1400 01de 5A70     		strb	r2, [r3, #1]
 1401 01e0 844B     		ldr	r3, .L116
 1402 01e2 0022     		movs	r2, #0
ARM GAS  C:\Users\alexport\AppData\Local\Temp\cc3nX14g.s 			page 33


 1403 01e4 9A70     		strb	r2, [r3, #2]
 1404 01e6 834B     		ldr	r3, .L116
 1405 01e8 0022     		movs	r2, #0
 1406 01ea DA70     		strb	r2, [r3, #3]
 358:led.c         ****                 leds[1].r_base =255;leds[1].g_base =0;leds[1].b_base =0; 
 1407              		.loc 1 358 0
 1408 01ec 814B     		ldr	r3, .L116
 1409 01ee FF22     		movs	r2, #255
 1410 01f0 1A72     		strb	r2, [r3, #8]
 1411 01f2 804B     		ldr	r3, .L116
 1412 01f4 0022     		movs	r2, #0
 1413 01f6 5A72     		strb	r2, [r3, #9]
 1414 01f8 7E4B     		ldr	r3, .L116
 1415 01fa 0022     		movs	r2, #0
 1416 01fc 9A72     		strb	r2, [r3, #10]
 359:led.c         ****                 leds[2].r_base =255;leds[2].g_base =0;leds[2].b_base =0;
 1417              		.loc 1 359 0
 1418 01fe 7D4B     		ldr	r3, .L116
 1419 0200 FF22     		movs	r2, #255
 1420 0202 DA73     		strb	r2, [r3, #15]
 1421 0204 7B4B     		ldr	r3, .L116
 1422 0206 0022     		movs	r2, #0
 1423 0208 1A74     		strb	r2, [r3, #16]
 1424 020a 7A4B     		ldr	r3, .L116
 1425 020c 0022     		movs	r2, #0
 1426 020e 5A74     		strb	r2, [r3, #17]
 360:led.c         ****                 leds[3].r_base =255;leds[3].g_base =0;leds[3].b_base =0;
 1427              		.loc 1 360 0
 1428 0210 784B     		ldr	r3, .L116
 1429 0212 FF22     		movs	r2, #255
 1430 0214 9A75     		strb	r2, [r3, #22]
 1431 0216 774B     		ldr	r3, .L116
 1432 0218 0022     		movs	r2, #0
 1433 021a DA75     		strb	r2, [r3, #23]
 1434 021c 754B     		ldr	r3, .L116
 1435 021e 0022     		movs	r2, #0
 1436 0220 1A76     		strb	r2, [r3, #24]
 361:led.c         ****             break;    
 1437              		.loc 1 361 0
 1438 0222 69E2     		b	.L80
 1439              	.L75:
 362:led.c         ****             case  SYSTEM_LED_BLUE:
 363:led.c         ****                 leds[0].r_base =0;leds[0].g_base =0;leds[0].b_base =255;
 1440              		.loc 1 363 0
 1441 0224 734B     		ldr	r3, .L116
 1442 0226 0022     		movs	r2, #0
 1443 0228 5A70     		strb	r2, [r3, #1]
 1444 022a 724B     		ldr	r3, .L116
 1445 022c 0022     		movs	r2, #0
 1446 022e 9A70     		strb	r2, [r3, #2]
 1447 0230 704B     		ldr	r3, .L116
 1448 0232 FF22     		movs	r2, #255
 1449 0234 DA70     		strb	r2, [r3, #3]
 364:led.c         ****                 leds[1].r_base =0;leds[1].g_base =0;leds[1].b_base =255;
 1450              		.loc 1 364 0
 1451 0236 6F4B     		ldr	r3, .L116
 1452 0238 0022     		movs	r2, #0
ARM GAS  C:\Users\alexport\AppData\Local\Temp\cc3nX14g.s 			page 34


 1453 023a 1A72     		strb	r2, [r3, #8]
 1454 023c 6D4B     		ldr	r3, .L116
 1455 023e 0022     		movs	r2, #0
 1456 0240 5A72     		strb	r2, [r3, #9]
 1457 0242 6C4B     		ldr	r3, .L116
 1458 0244 FF22     		movs	r2, #255
 1459 0246 9A72     		strb	r2, [r3, #10]
 365:led.c         ****                 leds[2].r_base =0;leds[2].g_base =0;leds[2].b_base =255;
 1460              		.loc 1 365 0
 1461 0248 6A4B     		ldr	r3, .L116
 1462 024a 0022     		movs	r2, #0
 1463 024c DA73     		strb	r2, [r3, #15]
 1464 024e 694B     		ldr	r3, .L116
 1465 0250 0022     		movs	r2, #0
 1466 0252 1A74     		strb	r2, [r3, #16]
 1467 0254 674B     		ldr	r3, .L116
 1468 0256 FF22     		movs	r2, #255
 1469 0258 5A74     		strb	r2, [r3, #17]
 366:led.c         ****                 leds[3].r_base =0;leds[3].g_base =0;leds[3].b_base =255;
 1470              		.loc 1 366 0
 1471 025a 664B     		ldr	r3, .L116
 1472 025c 0022     		movs	r2, #0
 1473 025e 9A75     		strb	r2, [r3, #22]
 1474 0260 644B     		ldr	r3, .L116
 1475 0262 0022     		movs	r2, #0
 1476 0264 DA75     		strb	r2, [r3, #23]
 1477 0266 634B     		ldr	r3, .L116
 1478 0268 FF22     		movs	r2, #255
 1479 026a 1A76     		strb	r2, [r3, #24]
 367:led.c         ****             break;
 1480              		.loc 1 367 0
 1481 026c 44E2     		b	.L80
 1482              	.L76:
 368:led.c         ****             case  SYSTEM_LED_MAGENTA:
 369:led.c         ****                 leds[0].r_base =255;leds[0].g_base =0;leds[0].b_base =255;
 1483              		.loc 1 369 0
 1484 026e 614B     		ldr	r3, .L116
 1485 0270 FF22     		movs	r2, #255
 1486 0272 5A70     		strb	r2, [r3, #1]
 1487 0274 5F4B     		ldr	r3, .L116
 1488 0276 0022     		movs	r2, #0
 1489 0278 9A70     		strb	r2, [r3, #2]
 1490 027a 5E4B     		ldr	r3, .L116
 1491 027c FF22     		movs	r2, #255
 1492 027e DA70     		strb	r2, [r3, #3]
 370:led.c         ****                 leds[1].r_base =255;leds[1].g_base =0;leds[1].b_base =255;
 1493              		.loc 1 370 0
 1494 0280 5C4B     		ldr	r3, .L116
 1495 0282 FF22     		movs	r2, #255
 1496 0284 1A72     		strb	r2, [r3, #8]
 1497 0286 5B4B     		ldr	r3, .L116
 1498 0288 0022     		movs	r2, #0
 1499 028a 5A72     		strb	r2, [r3, #9]
 1500 028c 594B     		ldr	r3, .L116
 1501 028e FF22     		movs	r2, #255
 1502 0290 9A72     		strb	r2, [r3, #10]
 371:led.c         ****                 leds[2].r_base =255;leds[2].g_base =0;leds[2].b_base =255;
ARM GAS  C:\Users\alexport\AppData\Local\Temp\cc3nX14g.s 			page 35


 1503              		.loc 1 371 0
 1504 0292 584B     		ldr	r3, .L116
 1505 0294 FF22     		movs	r2, #255
 1506 0296 DA73     		strb	r2, [r3, #15]
 1507 0298 564B     		ldr	r3, .L116
 1508 029a 0022     		movs	r2, #0
 1509 029c 1A74     		strb	r2, [r3, #16]
 1510 029e 554B     		ldr	r3, .L116
 1511 02a0 FF22     		movs	r2, #255
 1512 02a2 5A74     		strb	r2, [r3, #17]
 372:led.c         ****                 leds[3].r_base =255;leds[3].g_base =0;leds[3].b_base =255;
 1513              		.loc 1 372 0
 1514 02a4 534B     		ldr	r3, .L116
 1515 02a6 FF22     		movs	r2, #255
 1516 02a8 9A75     		strb	r2, [r3, #22]
 1517 02aa 524B     		ldr	r3, .L116
 1518 02ac 0022     		movs	r2, #0
 1519 02ae DA75     		strb	r2, [r3, #23]
 1520 02b0 504B     		ldr	r3, .L116
 1521 02b2 FF22     		movs	r2, #255
 1522 02b4 1A76     		strb	r2, [r3, #24]
 373:led.c         ****             break;  
 1523              		.loc 1 373 0
 1524 02b6 1FE2     		b	.L80
 1525              	.L77:
 374:led.c         ****             case  SYSTEM_LED_WHITE:
 375:led.c         ****                 leds[0].r_base =30;leds[0].g_base =128;leds[0].b_base =100;
 1526              		.loc 1 375 0
 1527 02b8 4E4B     		ldr	r3, .L116
 1528 02ba 1E22     		movs	r2, #30
 1529 02bc 5A70     		strb	r2, [r3, #1]
 1530 02be 4D4B     		ldr	r3, .L116
 1531 02c0 8022     		movs	r2, #128
 1532 02c2 9A70     		strb	r2, [r3, #2]
 1533 02c4 4B4B     		ldr	r3, .L116
 1534 02c6 6422     		movs	r2, #100
 1535 02c8 DA70     		strb	r2, [r3, #3]
 376:led.c         ****                 leds[1].r_base =30;leds[1].g_base =128;leds[1].b_base =100;
 1536              		.loc 1 376 0
 1537 02ca 4A4B     		ldr	r3, .L116
 1538 02cc 1E22     		movs	r2, #30
 1539 02ce 1A72     		strb	r2, [r3, #8]
 1540 02d0 484B     		ldr	r3, .L116
 1541 02d2 8022     		movs	r2, #128
 1542 02d4 5A72     		strb	r2, [r3, #9]
 1543 02d6 474B     		ldr	r3, .L116
 1544 02d8 6422     		movs	r2, #100
 1545 02da 9A72     		strb	r2, [r3, #10]
 377:led.c         ****                 leds[2].r_base =30;leds[2].g_base =128;leds[2].b_base =100;
 1546              		.loc 1 377 0
 1547 02dc 454B     		ldr	r3, .L116
 1548 02de 1E22     		movs	r2, #30
 1549 02e0 DA73     		strb	r2, [r3, #15]
 1550 02e2 444B     		ldr	r3, .L116
 1551 02e4 8022     		movs	r2, #128
 1552 02e6 1A74     		strb	r2, [r3, #16]
 1553 02e8 424B     		ldr	r3, .L116
ARM GAS  C:\Users\alexport\AppData\Local\Temp\cc3nX14g.s 			page 36


 1554 02ea 6422     		movs	r2, #100
 1555 02ec 5A74     		strb	r2, [r3, #17]
 378:led.c         ****                 leds[3].r_base =30;leds[3].g_base =128;leds[3].b_base =100;
 1556              		.loc 1 378 0
 1557 02ee 414B     		ldr	r3, .L116
 1558 02f0 1E22     		movs	r2, #30
 1559 02f2 9A75     		strb	r2, [r3, #22]
 1560 02f4 3F4B     		ldr	r3, .L116
 1561 02f6 8022     		movs	r2, #128
 1562 02f8 DA75     		strb	r2, [r3, #23]
 1563 02fa 3E4B     		ldr	r3, .L116
 1564 02fc 6422     		movs	r2, #100
 1565 02fe 1A76     		strb	r2, [r3, #24]
 379:led.c         ****             break;   
 1566              		.loc 1 379 0
 1567 0300 FAE1     		b	.L80
 1568              	.L78:
 380:led.c         ****                 case  SYSTEM_LED_ORANGE:
 381:led.c         ****                 leds[0].r_base =250;leds[0].g_base =100;leds[0].b_base =0;
 1569              		.loc 1 381 0
 1570 0302 3C4B     		ldr	r3, .L116
 1571 0304 FA22     		movs	r2, #250
 1572 0306 5A70     		strb	r2, [r3, #1]
 1573 0308 3A4B     		ldr	r3, .L116
 1574 030a 6422     		movs	r2, #100
 1575 030c 9A70     		strb	r2, [r3, #2]
 1576 030e 394B     		ldr	r3, .L116
 1577 0310 0022     		movs	r2, #0
 1578 0312 DA70     		strb	r2, [r3, #3]
 382:led.c         ****                 leds[1].r_base =250;leds[1].g_base =100;leds[1].b_base =0;
 1579              		.loc 1 382 0
 1580 0314 374B     		ldr	r3, .L116
 1581 0316 FA22     		movs	r2, #250
 1582 0318 1A72     		strb	r2, [r3, #8]
 1583 031a 364B     		ldr	r3, .L116
 1584 031c 6422     		movs	r2, #100
 1585 031e 5A72     		strb	r2, [r3, #9]
 1586 0320 344B     		ldr	r3, .L116
 1587 0322 0022     		movs	r2, #0
 1588 0324 9A72     		strb	r2, [r3, #10]
 383:led.c         ****                 leds[2].r_base =250;leds[2].g_base =100;leds[2].b_base =0;
 1589              		.loc 1 383 0
 1590 0326 334B     		ldr	r3, .L116
 1591 0328 FA22     		movs	r2, #250
 1592 032a DA73     		strb	r2, [r3, #15]
 1593 032c 314B     		ldr	r3, .L116
 1594 032e 6422     		movs	r2, #100
 1595 0330 1A74     		strb	r2, [r3, #16]
 1596 0332 304B     		ldr	r3, .L116
 1597 0334 0022     		movs	r2, #0
 1598 0336 5A74     		strb	r2, [r3, #17]
 384:led.c         ****                 leds[3].r_base =250;leds[3].g_base =100;leds[3].b_base =0;
 1599              		.loc 1 384 0
 1600 0338 2E4B     		ldr	r3, .L116
 1601 033a FA22     		movs	r2, #250
 1602 033c 9A75     		strb	r2, [r3, #22]
 1603 033e 2D4B     		ldr	r3, .L116
ARM GAS  C:\Users\alexport\AppData\Local\Temp\cc3nX14g.s 			page 37


 1604 0340 6422     		movs	r2, #100
 1605 0342 DA75     		strb	r2, [r3, #23]
 1606 0344 2B4B     		ldr	r3, .L116
 1607 0346 0022     		movs	r2, #0
 1608 0348 1A76     		strb	r2, [r3, #24]
 385:led.c         ****             break;  
 1609              		.loc 1 385 0
 1610 034a D5E1     		b	.L80
 1611              	.L79:
 386:led.c         ****                 case  SYSTEM_LED_CYAN:
 387:led.c         ****                 leds[0].r_base =12;leds[0].g_base =250;leds[0].b_base =245;
 1612              		.loc 1 387 0
 1613 034c 294B     		ldr	r3, .L116
 1614 034e 0C22     		movs	r2, #12
 1615 0350 5A70     		strb	r2, [r3, #1]
 1616 0352 284B     		ldr	r3, .L116
 1617 0354 FA22     		movs	r2, #250
 1618 0356 9A70     		strb	r2, [r3, #2]
 1619 0358 264B     		ldr	r3, .L116
 1620 035a F522     		movs	r2, #245
 1621 035c DA70     		strb	r2, [r3, #3]
 388:led.c         ****                 leds[1].r_base =12;leds[1].g_base =250;leds[1].b_base =245;
 1622              		.loc 1 388 0
 1623 035e 254B     		ldr	r3, .L116
 1624 0360 0C22     		movs	r2, #12
 1625 0362 1A72     		strb	r2, [r3, #8]
 1626 0364 234B     		ldr	r3, .L116
 1627 0366 FA22     		movs	r2, #250
 1628 0368 5A72     		strb	r2, [r3, #9]
 1629 036a 224B     		ldr	r3, .L116
 1630 036c F522     		movs	r2, #245
 1631 036e 9A72     		strb	r2, [r3, #10]
 389:led.c         ****                 leds[2].r_base =12;leds[2].g_base =250;leds[2].b_base =245;
 1632              		.loc 1 389 0
 1633 0370 204B     		ldr	r3, .L116
 1634 0372 0C22     		movs	r2, #12
 1635 0374 DA73     		strb	r2, [r3, #15]
 1636 0376 1F4B     		ldr	r3, .L116
 1637 0378 FA22     		movs	r2, #250
 1638 037a 1A74     		strb	r2, [r3, #16]
 1639 037c 1D4B     		ldr	r3, .L116
 1640 037e F522     		movs	r2, #245
 1641 0380 5A74     		strb	r2, [r3, #17]
 390:led.c         ****                 leds[3].r_base =12;leds[3].g_base =250;leds[3].b_base =245;
 1642              		.loc 1 390 0
 1643 0382 1C4B     		ldr	r3, .L116
 1644 0384 0C22     		movs	r2, #12
 1645 0386 9A75     		strb	r2, [r3, #22]
 1646 0388 1A4B     		ldr	r3, .L116
 1647 038a FA22     		movs	r2, #250
 1648 038c DA75     		strb	r2, [r3, #23]
 1649 038e 194B     		ldr	r3, .L116
 1650 0390 F522     		movs	r2, #245
 1651 0392 1A76     		strb	r2, [r3, #24]
 391:led.c         ****             break;  
 1652              		.loc 1 391 0
 1653 0394 C046     		nop
ARM GAS  C:\Users\alexport\AppData\Local\Temp\cc3nX14g.s 			page 38


 1654 0396 AFE1     		b	.L80
 1655              	.L59:
 392:led.c         ****         } 
 393:led.c         ****     }else{
 394:led.c         ****         if(breath){
 1656              		.loc 1 394 0
 1657 0398 7B1D     		adds	r3, r7, #5
 1658 039a 1B78     		ldrb	r3, [r3]
 1659 039c 002B     		cmp	r3, #0
 1660 039e 11D0     		beq	.L81
 395:led.c         ****             if(num==1){
 1661              		.loc 1 395 0
 1662 03a0 FB1D     		adds	r3, r7, #7
 1663 03a2 1B78     		ldrb	r3, [r3]
 1664 03a4 012B     		cmp	r3, #1
 1665 03a6 06D1     		bne	.L82
 396:led.c         ****                 leds[0].mode = MODE_BREATHING;
 1666              		.loc 1 396 0
 1667 03a8 124B     		ldr	r3, .L116
 1668 03aa 0222     		movs	r2, #2
 1669 03ac 1A71     		strb	r2, [r3, #4]
 397:led.c         ****                 leds[1].mode = MODE_BREATHING;
 1670              		.loc 1 397 0
 1671 03ae 114B     		ldr	r3, .L116
 1672 03b0 0222     		movs	r2, #2
 1673 03b2 DA72     		strb	r2, [r3, #11]
 1674 03b4 34E0     		b	.L84
 1675              	.L82:
 398:led.c         ****             }else{
 399:led.c         ****                 leds[2].mode = MODE_BREATHING;
 1676              		.loc 1 399 0
 1677 03b6 0F4B     		ldr	r3, .L116
 1678 03b8 0222     		movs	r2, #2
 1679 03ba 9A74     		strb	r2, [r3, #18]
 400:led.c         ****                 leds[3].mode = MODE_BREATHING;
 1680              		.loc 1 400 0
 1681 03bc 0D4B     		ldr	r3, .L116
 1682 03be 0222     		movs	r2, #2
 1683 03c0 5A76     		strb	r2, [r3, #25]
 1684 03c2 2DE0     		b	.L84
 1685              	.L81:
 401:led.c         ****             }
 402:led.c         ****         }else{
 403:led.c         ****             if(num==1){
 1686              		.loc 1 403 0
 1687 03c4 FB1D     		adds	r3, r7, #7
 1688 03c6 1B78     		ldrb	r3, [r3]
 1689 03c8 012B     		cmp	r3, #1
 1690 03ca 17D1     		bne	.L85
 404:led.c         ****                 leds[0].mode = MODE_STATIC;leds[0].step=SIN_CNT-1;leds[0].direction=-1;
 1691              		.loc 1 404 0
 1692 03cc 094B     		ldr	r3, .L116
 1693 03ce 0122     		movs	r2, #1
 1694 03d0 1A71     		strb	r2, [r3, #4]
 1695 03d2 084B     		ldr	r3, .L116
 1696 03d4 1322     		movs	r2, #19
 1697 03d6 5A71     		strb	r2, [r3, #5]
ARM GAS  C:\Users\alexport\AppData\Local\Temp\cc3nX14g.s 			page 39


 1698 03d8 064B     		ldr	r3, .L116
 1699 03da FF22     		movs	r2, #255
 1700 03dc 9A71     		strb	r2, [r3, #6]
 405:led.c         ****                 leds[1].mode = MODE_STATIC;leds[1].step=SIN_CNT-1;leds[1].direction=-1;
 1701              		.loc 1 405 0
 1702 03de 054B     		ldr	r3, .L116
 1703 03e0 0122     		movs	r2, #1
 1704 03e2 DA72     		strb	r2, [r3, #11]
 1705 03e4 034B     		ldr	r3, .L116
 1706 03e6 1322     		movs	r2, #19
 1707 03e8 1A73     		strb	r2, [r3, #12]
 1708 03ea 024B     		ldr	r3, .L116
 1709 03ec FF22     		movs	r2, #255
 1710 03ee 5A73     		strb	r2, [r3, #13]
 1711 03f0 16E0     		b	.L84
 1712              	.L117:
 1713 03f2 C046     		.align	2
 1714              	.L116:
 1715 03f4 00000000 		.word	leds
 1716 03f8 00000000 		.word	.L71
 1717              	.L85:
 406:led.c         ****             }else{
 407:led.c         ****                 leds[2].mode = MODE_STATIC;leds[2].step=SIN_CNT-1;leds[2].direction=-1;
 1718              		.loc 1 407 0
 1719 03fc C04B     		ldr	r3, .L118
 1720 03fe 0122     		movs	r2, #1
 1721 0400 9A74     		strb	r2, [r3, #18]
 1722 0402 BF4B     		ldr	r3, .L118
 1723 0404 1322     		movs	r2, #19
 1724 0406 DA74     		strb	r2, [r3, #19]
 1725 0408 BD4B     		ldr	r3, .L118
 1726 040a FF22     		movs	r2, #255
 1727 040c 1A75     		strb	r2, [r3, #20]
 408:led.c         ****                 leds[3].mode = MODE_STATIC;leds[3].step=SIN_CNT-1;leds[3].direction=-1;
 1728              		.loc 1 408 0
 1729 040e BC4B     		ldr	r3, .L118
 1730 0410 0122     		movs	r2, #1
 1731 0412 5A76     		strb	r2, [r3, #25]
 1732 0414 BA4B     		ldr	r3, .L118
 1733 0416 1322     		movs	r2, #19
 1734 0418 9A76     		strb	r2, [r3, #26]
 1735 041a B94B     		ldr	r3, .L118
 1736 041c FF22     		movs	r2, #255
 1737 041e DA76     		strb	r2, [r3, #27]
 1738              	.L84:
 409:led.c         ****             }
 410:led.c         ****         }
 411:led.c         ****         switch(color){
 1739              		.loc 1 411 0
 1740 0420 BB1D     		adds	r3, r7, #6
 1741 0422 1B78     		ldrb	r3, [r3]
 1742 0424 092B     		cmp	r3, #9
 1743 0426 00D9     		bls	.LCB1487
 1744 0428 66E1     		b	.L114	@long jump
 1745              	.LCB1487:
 1746 042a 9A00     		lsls	r2, r3, #2
 1747 042c B54B     		ldr	r3, .L118+4
ARM GAS  C:\Users\alexport\AppData\Local\Temp\cc3nX14g.s 			page 40


 1748 042e D318     		adds	r3, r2, r3
 1749 0430 1B68     		ldr	r3, [r3]
 1750 0432 9F46     		mov	pc, r3
 1751              		.section	.rodata
 1752              		.align	2
 1753              	.L87:
 1754 0028 34040000 		.word	.L86
 1755 002c 00050000 		.word	.L88
 1756 0030 58040000 		.word	.L89
 1757 0034 AC040000 		.word	.L90
 1758 0038 54050000 		.word	.L91
 1759 003c A8050000 		.word	.L92
 1760 0040 F8060000 		.word	.L114
 1761 0044 FC050000 		.word	.L93
 1762 0048 50060000 		.word	.L94
 1763 004c A4060000 		.word	.L95
 1764              		.section	.text.system_SetLed
 1765              	.L86:
 412:led.c         ****             case  SYSTEM_LED_OFF: 
 413:led.c         ****                 if(num==1){
 1766              		.loc 1 413 0
 1767 0434 FB1D     		adds	r3, r7, #7
 1768 0436 1B78     		ldrb	r3, [r3]
 1769 0438 012B     		cmp	r3, #1
 1770 043a 06D1     		bne	.L96
 414:led.c         ****                     leds[0].mode = MODE_OFF;
 1771              		.loc 1 414 0
 1772 043c B04B     		ldr	r3, .L118
 1773 043e 0022     		movs	r2, #0
 1774 0440 1A71     		strb	r2, [r3, #4]
 415:led.c         ****                     leds[1].mode = MODE_OFF;
 1775              		.loc 1 415 0
 1776 0442 AF4B     		ldr	r3, .L118
 1777 0444 0022     		movs	r2, #0
 1778 0446 DA72     		strb	r2, [r3, #11]
 416:led.c         ****                 }else{
 417:led.c         ****                     leds[2].mode = MODE_OFF;
 418:led.c         ****                     leds[3].mode = MODE_OFF;
 419:led.c         ****                 }
 420:led.c         ****             break;
 1779              		.loc 1 420 0
 1780 0448 56E1     		b	.L80
 1781              	.L96:
 417:led.c         ****                     leds[3].mode = MODE_OFF;
 1782              		.loc 1 417 0
 1783 044a AD4B     		ldr	r3, .L118
 1784 044c 0022     		movs	r2, #0
 1785 044e 9A74     		strb	r2, [r3, #18]
 418:led.c         ****                 }
 1786              		.loc 1 418 0
 1787 0450 AB4B     		ldr	r3, .L118
 1788 0452 0022     		movs	r2, #0
 1789 0454 5A76     		strb	r2, [r3, #25]
 1790              		.loc 1 420 0
 1791 0456 4FE1     		b	.L80
 1792              	.L89:
 421:led.c         ****             case  SYSTEM_LED_GREEN:
ARM GAS  C:\Users\alexport\AppData\Local\Temp\cc3nX14g.s 			page 41


 422:led.c         ****                 if(num==1){
 1793              		.loc 1 422 0
 1794 0458 FB1D     		adds	r3, r7, #7
 1795 045a 1B78     		ldrb	r3, [r3]
 1796 045c 012B     		cmp	r3, #1
 1797 045e 12D1     		bne	.L98
 423:led.c         ****                     leds[0].r_base =0;leds[0].g_base =225;leds[0].b_base =0;
 1798              		.loc 1 423 0
 1799 0460 A74B     		ldr	r3, .L118
 1800 0462 0022     		movs	r2, #0
 1801 0464 5A70     		strb	r2, [r3, #1]
 1802 0466 A64B     		ldr	r3, .L118
 1803 0468 E122     		movs	r2, #225
 1804 046a 9A70     		strb	r2, [r3, #2]
 1805 046c A44B     		ldr	r3, .L118
 1806 046e 0022     		movs	r2, #0
 1807 0470 DA70     		strb	r2, [r3, #3]
 424:led.c         ****                     leds[1].r_base =0;leds[1].g_base =225;leds[1].b_base =0;
 1808              		.loc 1 424 0
 1809 0472 A34B     		ldr	r3, .L118
 1810 0474 0022     		movs	r2, #0
 1811 0476 1A72     		strb	r2, [r3, #8]
 1812 0478 A14B     		ldr	r3, .L118
 1813 047a E122     		movs	r2, #225
 1814 047c 5A72     		strb	r2, [r3, #9]
 1815 047e A04B     		ldr	r3, .L118
 1816 0480 0022     		movs	r2, #0
 1817 0482 9A72     		strb	r2, [r3, #10]
 425:led.c         ****                 }else{
 426:led.c         ****                     leds[2].r_base =0;leds[2].g_base =225;leds[2].b_base =0;
 427:led.c         ****                     leds[3].r_base =0;leds[3].g_base =225;leds[3].b_base =0;
 428:led.c         ****                 }
 429:led.c         ****             break;
 1818              		.loc 1 429 0
 1819 0484 38E1     		b	.L80
 1820              	.L98:
 426:led.c         ****                     leds[3].r_base =0;leds[3].g_base =225;leds[3].b_base =0;
 1821              		.loc 1 426 0
 1822 0486 9E4B     		ldr	r3, .L118
 1823 0488 0022     		movs	r2, #0
 1824 048a DA73     		strb	r2, [r3, #15]
 1825 048c 9C4B     		ldr	r3, .L118
 1826 048e E122     		movs	r2, #225
 1827 0490 1A74     		strb	r2, [r3, #16]
 1828 0492 9B4B     		ldr	r3, .L118
 1829 0494 0022     		movs	r2, #0
 1830 0496 5A74     		strb	r2, [r3, #17]
 427:led.c         ****                 }
 1831              		.loc 1 427 0
 1832 0498 994B     		ldr	r3, .L118
 1833 049a 0022     		movs	r2, #0
 1834 049c 9A75     		strb	r2, [r3, #22]
 1835 049e 984B     		ldr	r3, .L118
 1836 04a0 E122     		movs	r2, #225
 1837 04a2 DA75     		strb	r2, [r3, #23]
 1838 04a4 964B     		ldr	r3, .L118
 1839 04a6 0022     		movs	r2, #0
ARM GAS  C:\Users\alexport\AppData\Local\Temp\cc3nX14g.s 			page 42


 1840 04a8 1A76     		strb	r2, [r3, #24]
 1841              		.loc 1 429 0
 1842 04aa 25E1     		b	.L80
 1843              	.L90:
 430:led.c         ****             case  SYSTEM_LED_YELLOW:
 431:led.c         ****                 if(num==1){
 1844              		.loc 1 431 0
 1845 04ac FB1D     		adds	r3, r7, #7
 1846 04ae 1B78     		ldrb	r3, [r3]
 1847 04b0 012B     		cmp	r3, #1
 1848 04b2 12D1     		bne	.L100
 432:led.c         ****                     leds[0].r_base =100;leds[0].g_base =200;leds[0].b_base =0;
 1849              		.loc 1 432 0
 1850 04b4 924B     		ldr	r3, .L118
 1851 04b6 6422     		movs	r2, #100
 1852 04b8 5A70     		strb	r2, [r3, #1]
 1853 04ba 914B     		ldr	r3, .L118
 1854 04bc C822     		movs	r2, #200
 1855 04be 9A70     		strb	r2, [r3, #2]
 1856 04c0 8F4B     		ldr	r3, .L118
 1857 04c2 0022     		movs	r2, #0
 1858 04c4 DA70     		strb	r2, [r3, #3]
 433:led.c         ****                     leds[1].r_base =100;leds[1].g_base =200;leds[1].b_base =0;
 1859              		.loc 1 433 0
 1860 04c6 8E4B     		ldr	r3, .L118
 1861 04c8 6422     		movs	r2, #100
 1862 04ca 1A72     		strb	r2, [r3, #8]
 1863 04cc 8C4B     		ldr	r3, .L118
 1864 04ce C822     		movs	r2, #200
 1865 04d0 5A72     		strb	r2, [r3, #9]
 1866 04d2 8B4B     		ldr	r3, .L118
 1867 04d4 0022     		movs	r2, #0
 1868 04d6 9A72     		strb	r2, [r3, #10]
 434:led.c         ****                 }else{
 435:led.c         ****                     leds[2].r_base =100;leds[2].g_base =192;leds[2].b_base =0;
 436:led.c         ****                     leds[3].r_base =100;leds[3].g_base =192;leds[3].b_base =0;
 437:led.c         ****                 }
 438:led.c         ****             break; 
 1869              		.loc 1 438 0
 1870 04d8 0EE1     		b	.L80
 1871              	.L100:
 435:led.c         ****                     leds[3].r_base =100;leds[3].g_base =192;leds[3].b_base =0;
 1872              		.loc 1 435 0
 1873 04da 894B     		ldr	r3, .L118
 1874 04dc 6422     		movs	r2, #100
 1875 04de DA73     		strb	r2, [r3, #15]
 1876 04e0 874B     		ldr	r3, .L118
 1877 04e2 C022     		movs	r2, #192
 1878 04e4 1A74     		strb	r2, [r3, #16]
 1879 04e6 864B     		ldr	r3, .L118
 1880 04e8 0022     		movs	r2, #0
 1881 04ea 5A74     		strb	r2, [r3, #17]
 436:led.c         ****                 }
 1882              		.loc 1 436 0
 1883 04ec 844B     		ldr	r3, .L118
 1884 04ee 6422     		movs	r2, #100
 1885 04f0 9A75     		strb	r2, [r3, #22]
ARM GAS  C:\Users\alexport\AppData\Local\Temp\cc3nX14g.s 			page 43


 1886 04f2 834B     		ldr	r3, .L118
 1887 04f4 C022     		movs	r2, #192
 1888 04f6 DA75     		strb	r2, [r3, #23]
 1889 04f8 814B     		ldr	r3, .L118
 1890 04fa 0022     		movs	r2, #0
 1891 04fc 1A76     		strb	r2, [r3, #24]
 1892              		.loc 1 438 0
 1893 04fe FBE0     		b	.L80
 1894              	.L88:
 439:led.c         ****             case  SYSTEM_LED_RED:
 440:led.c         ****                  if(num==1){
 1895              		.loc 1 440 0
 1896 0500 FB1D     		adds	r3, r7, #7
 1897 0502 1B78     		ldrb	r3, [r3]
 1898 0504 012B     		cmp	r3, #1
 1899 0506 12D1     		bne	.L102
 441:led.c         ****                     leds[0].r_base =255;leds[0].g_base =0;leds[0].b_base =0;
 1900              		.loc 1 441 0
 1901 0508 7D4B     		ldr	r3, .L118
 1902 050a FF22     		movs	r2, #255
 1903 050c 5A70     		strb	r2, [r3, #1]
 1904 050e 7C4B     		ldr	r3, .L118
 1905 0510 0022     		movs	r2, #0
 1906 0512 9A70     		strb	r2, [r3, #2]
 1907 0514 7A4B     		ldr	r3, .L118
 1908 0516 0022     		movs	r2, #0
 1909 0518 DA70     		strb	r2, [r3, #3]
 442:led.c         ****                     leds[1].r_base =255;leds[1].g_base =0;leds[1].b_base =0;
 1910              		.loc 1 442 0
 1911 051a 794B     		ldr	r3, .L118
 1912 051c FF22     		movs	r2, #255
 1913 051e 1A72     		strb	r2, [r3, #8]
 1914 0520 774B     		ldr	r3, .L118
 1915 0522 0022     		movs	r2, #0
 1916 0524 5A72     		strb	r2, [r3, #9]
 1917 0526 764B     		ldr	r3, .L118
 1918 0528 0022     		movs	r2, #0
 1919 052a 9A72     		strb	r2, [r3, #10]
 443:led.c         ****                 }else{
 444:led.c         ****                     leds[2].r_base =255;leds[2].g_base =0;leds[2].b_base =0;
 445:led.c         ****                     leds[3].r_base =255;leds[3].g_base =0;leds[3].b_base =0;
 446:led.c         ****                 }
 447:led.c         ****             break;     
 1920              		.loc 1 447 0
 1921 052c E4E0     		b	.L80
 1922              	.L102:
 444:led.c         ****                     leds[3].r_base =255;leds[3].g_base =0;leds[3].b_base =0;
 1923              		.loc 1 444 0
 1924 052e 744B     		ldr	r3, .L118
 1925 0530 FF22     		movs	r2, #255
 1926 0532 DA73     		strb	r2, [r3, #15]
 1927 0534 724B     		ldr	r3, .L118
 1928 0536 0022     		movs	r2, #0
 1929 0538 1A74     		strb	r2, [r3, #16]
 1930 053a 714B     		ldr	r3, .L118
 1931 053c 0022     		movs	r2, #0
 1932 053e 5A74     		strb	r2, [r3, #17]
ARM GAS  C:\Users\alexport\AppData\Local\Temp\cc3nX14g.s 			page 44


 445:led.c         ****                 }
 1933              		.loc 1 445 0
 1934 0540 6F4B     		ldr	r3, .L118
 1935 0542 FF22     		movs	r2, #255
 1936 0544 9A75     		strb	r2, [r3, #22]
 1937 0546 6E4B     		ldr	r3, .L118
 1938 0548 0022     		movs	r2, #0
 1939 054a DA75     		strb	r2, [r3, #23]
 1940 054c 6C4B     		ldr	r3, .L118
 1941 054e 0022     		movs	r2, #0
 1942 0550 1A76     		strb	r2, [r3, #24]
 1943              		.loc 1 447 0
 1944 0552 D1E0     		b	.L80
 1945              	.L91:
 448:led.c         ****             case  SYSTEM_LED_BLUE:
 449:led.c         ****                  if(num==1){
 1946              		.loc 1 449 0
 1947 0554 FB1D     		adds	r3, r7, #7
 1948 0556 1B78     		ldrb	r3, [r3]
 1949 0558 012B     		cmp	r3, #1
 1950 055a 12D1     		bne	.L104
 450:led.c         ****                     leds[0].r_base =0;leds[0].g_base =0;leds[0].b_base =255;
 1951              		.loc 1 450 0
 1952 055c 684B     		ldr	r3, .L118
 1953 055e 0022     		movs	r2, #0
 1954 0560 5A70     		strb	r2, [r3, #1]
 1955 0562 674B     		ldr	r3, .L118
 1956 0564 0022     		movs	r2, #0
 1957 0566 9A70     		strb	r2, [r3, #2]
 1958 0568 654B     		ldr	r3, .L118
 1959 056a FF22     		movs	r2, #255
 1960 056c DA70     		strb	r2, [r3, #3]
 451:led.c         ****                     leds[1].r_base =0;leds[1].g_base =0;leds[1].b_base =255;
 1961              		.loc 1 451 0
 1962 056e 644B     		ldr	r3, .L118
 1963 0570 0022     		movs	r2, #0
 1964 0572 1A72     		strb	r2, [r3, #8]
 1965 0574 624B     		ldr	r3, .L118
 1966 0576 0022     		movs	r2, #0
 1967 0578 5A72     		strb	r2, [r3, #9]
 1968 057a 614B     		ldr	r3, .L118
 1969 057c FF22     		movs	r2, #255
 1970 057e 9A72     		strb	r2, [r3, #10]
 452:led.c         ****                 }else{
 453:led.c         ****                     leds[2].r_base =0;leds[2].g_base =0;leds[2].b_base =255;
 454:led.c         ****                     leds[3].r_base =0;leds[3].g_base =0;leds[3].b_base =255;
 455:led.c         ****                 }
 456:led.c         ****             break;
 1971              		.loc 1 456 0
 1972 0580 BAE0     		b	.L80
 1973              	.L104:
 453:led.c         ****                     leds[3].r_base =0;leds[3].g_base =0;leds[3].b_base =255;
 1974              		.loc 1 453 0
 1975 0582 5F4B     		ldr	r3, .L118
 1976 0584 0022     		movs	r2, #0
 1977 0586 DA73     		strb	r2, [r3, #15]
 1978 0588 5D4B     		ldr	r3, .L118
ARM GAS  C:\Users\alexport\AppData\Local\Temp\cc3nX14g.s 			page 45


 1979 058a 0022     		movs	r2, #0
 1980 058c 1A74     		strb	r2, [r3, #16]
 1981 058e 5C4B     		ldr	r3, .L118
 1982 0590 FF22     		movs	r2, #255
 1983 0592 5A74     		strb	r2, [r3, #17]
 454:led.c         ****                 }
 1984              		.loc 1 454 0
 1985 0594 5A4B     		ldr	r3, .L118
 1986 0596 0022     		movs	r2, #0
 1987 0598 9A75     		strb	r2, [r3, #22]
 1988 059a 594B     		ldr	r3, .L118
 1989 059c 0022     		movs	r2, #0
 1990 059e DA75     		strb	r2, [r3, #23]
 1991 05a0 574B     		ldr	r3, .L118
 1992 05a2 FF22     		movs	r2, #255
 1993 05a4 1A76     		strb	r2, [r3, #24]
 1994              		.loc 1 456 0
 1995 05a6 A7E0     		b	.L80
 1996              	.L92:
 457:led.c         ****             case  SYSTEM_LED_MAGENTA:
 458:led.c         ****                 if(num==1){
 1997              		.loc 1 458 0
 1998 05a8 FB1D     		adds	r3, r7, #7
 1999 05aa 1B78     		ldrb	r3, [r3]
 2000 05ac 012B     		cmp	r3, #1
 2001 05ae 12D1     		bne	.L106
 459:led.c         ****                     leds[0].r_base =255;leds[0].g_base =0;leds[0].b_base =255;
 2002              		.loc 1 459 0
 2003 05b0 534B     		ldr	r3, .L118
 2004 05b2 FF22     		movs	r2, #255
 2005 05b4 5A70     		strb	r2, [r3, #1]
 2006 05b6 524B     		ldr	r3, .L118
 2007 05b8 0022     		movs	r2, #0
 2008 05ba 9A70     		strb	r2, [r3, #2]
 2009 05bc 504B     		ldr	r3, .L118
 2010 05be FF22     		movs	r2, #255
 2011 05c0 DA70     		strb	r2, [r3, #3]
 460:led.c         ****                     leds[1].r_base =255;leds[1].g_base =0;leds[1].b_base =255;
 2012              		.loc 1 460 0
 2013 05c2 4F4B     		ldr	r3, .L118
 2014 05c4 FF22     		movs	r2, #255
 2015 05c6 1A72     		strb	r2, [r3, #8]
 2016 05c8 4D4B     		ldr	r3, .L118
 2017 05ca 0022     		movs	r2, #0
 2018 05cc 5A72     		strb	r2, [r3, #9]
 2019 05ce 4C4B     		ldr	r3, .L118
 2020 05d0 FF22     		movs	r2, #255
 2021 05d2 9A72     		strb	r2, [r3, #10]
 461:led.c         ****                 }else{
 462:led.c         ****                     leds[2].r_base =255;leds[2].g_base =0;leds[2].b_base =255;
 463:led.c         ****                     leds[3].r_base =255;leds[3].g_base =0;leds[3].b_base =255;
 464:led.c         ****                 }
 465:led.c         ****             break;  
 2022              		.loc 1 465 0
 2023 05d4 90E0     		b	.L80
 2024              	.L106:
 462:led.c         ****                     leds[3].r_base =255;leds[3].g_base =0;leds[3].b_base =255;
ARM GAS  C:\Users\alexport\AppData\Local\Temp\cc3nX14g.s 			page 46


 2025              		.loc 1 462 0
 2026 05d6 4A4B     		ldr	r3, .L118
 2027 05d8 FF22     		movs	r2, #255
 2028 05da DA73     		strb	r2, [r3, #15]
 2029 05dc 484B     		ldr	r3, .L118
 2030 05de 0022     		movs	r2, #0
 2031 05e0 1A74     		strb	r2, [r3, #16]
 2032 05e2 474B     		ldr	r3, .L118
 2033 05e4 FF22     		movs	r2, #255
 2034 05e6 5A74     		strb	r2, [r3, #17]
 463:led.c         ****                 }
 2035              		.loc 1 463 0
 2036 05e8 454B     		ldr	r3, .L118
 2037 05ea FF22     		movs	r2, #255
 2038 05ec 9A75     		strb	r2, [r3, #22]
 2039 05ee 444B     		ldr	r3, .L118
 2040 05f0 0022     		movs	r2, #0
 2041 05f2 DA75     		strb	r2, [r3, #23]
 2042 05f4 424B     		ldr	r3, .L118
 2043 05f6 FF22     		movs	r2, #255
 2044 05f8 1A76     		strb	r2, [r3, #24]
 2045              		.loc 1 465 0
 2046 05fa 7DE0     		b	.L80
 2047              	.L93:
 466:led.c         ****             case  SYSTEM_LED_WHITE:
 467:led.c         ****                 if(num==1){
 2048              		.loc 1 467 0
 2049 05fc FB1D     		adds	r3, r7, #7
 2050 05fe 1B78     		ldrb	r3, [r3]
 2051 0600 012B     		cmp	r3, #1
 2052 0602 12D1     		bne	.L108
 468:led.c         ****                     leds[0].r_base =64;leds[0].g_base =128;leds[0].b_base =128;
 2053              		.loc 1 468 0
 2054 0604 3E4B     		ldr	r3, .L118
 2055 0606 4022     		movs	r2, #64
 2056 0608 5A70     		strb	r2, [r3, #1]
 2057 060a 3D4B     		ldr	r3, .L118
 2058 060c 8022     		movs	r2, #128
 2059 060e 9A70     		strb	r2, [r3, #2]
 2060 0610 3B4B     		ldr	r3, .L118
 2061 0612 8022     		movs	r2, #128
 2062 0614 DA70     		strb	r2, [r3, #3]
 469:led.c         ****                     leds[1].r_base =64;leds[1].g_base =128;leds[1].b_base =128;
 2063              		.loc 1 469 0
 2064 0616 3A4B     		ldr	r3, .L118
 2065 0618 4022     		movs	r2, #64
 2066 061a 1A72     		strb	r2, [r3, #8]
 2067 061c 384B     		ldr	r3, .L118
 2068 061e 8022     		movs	r2, #128
 2069 0620 5A72     		strb	r2, [r3, #9]
 2070 0622 374B     		ldr	r3, .L118
 2071 0624 8022     		movs	r2, #128
 2072 0626 9A72     		strb	r2, [r3, #10]
 470:led.c         ****                 }else{
 471:led.c         ****                     leds[2].r_base =64;leds[2].g_base =128;leds[2].b_base =128;
 472:led.c         ****                     leds[3].r_base =64;leds[3].g_base =128;leds[3].b_base =128;
 473:led.c         ****                 }
ARM GAS  C:\Users\alexport\AppData\Local\Temp\cc3nX14g.s 			page 47


 474:led.c         ****             break;
 2073              		.loc 1 474 0
 2074 0628 66E0     		b	.L80
 2075              	.L108:
 471:led.c         ****                     leds[3].r_base =64;leds[3].g_base =128;leds[3].b_base =128;
 2076              		.loc 1 471 0
 2077 062a 354B     		ldr	r3, .L118
 2078 062c 4022     		movs	r2, #64
 2079 062e DA73     		strb	r2, [r3, #15]
 2080 0630 334B     		ldr	r3, .L118
 2081 0632 8022     		movs	r2, #128
 2082 0634 1A74     		strb	r2, [r3, #16]
 2083 0636 324B     		ldr	r3, .L118
 2084 0638 8022     		movs	r2, #128
 2085 063a 5A74     		strb	r2, [r3, #17]
 472:led.c         ****                 }
 2086              		.loc 1 472 0
 2087 063c 304B     		ldr	r3, .L118
 2088 063e 4022     		movs	r2, #64
 2089 0640 9A75     		strb	r2, [r3, #22]
 2090 0642 2F4B     		ldr	r3, .L118
 2091 0644 8022     		movs	r2, #128
 2092 0646 DA75     		strb	r2, [r3, #23]
 2093 0648 2D4B     		ldr	r3, .L118
 2094 064a 8022     		movs	r2, #128
 2095 064c 1A76     		strb	r2, [r3, #24]
 2096              		.loc 1 474 0
 2097 064e 53E0     		b	.L80
 2098              	.L94:
 475:led.c         ****                 case  SYSTEM_LED_ORANGE:
 476:led.c         ****                 if(num==1){
 2099              		.loc 1 476 0
 2100 0650 FB1D     		adds	r3, r7, #7
 2101 0652 1B78     		ldrb	r3, [r3]
 2102 0654 012B     		cmp	r3, #1
 2103 0656 12D1     		bne	.L110
 477:led.c         ****                     leds[0].r_base =250;leds[0].g_base =100;leds[0].b_base =0;
 2104              		.loc 1 477 0
 2105 0658 294B     		ldr	r3, .L118
 2106 065a FA22     		movs	r2, #250
 2107 065c 5A70     		strb	r2, [r3, #1]
 2108 065e 284B     		ldr	r3, .L118
 2109 0660 6422     		movs	r2, #100
 2110 0662 9A70     		strb	r2, [r3, #2]
 2111 0664 264B     		ldr	r3, .L118
 2112 0666 0022     		movs	r2, #0
 2113 0668 DA70     		strb	r2, [r3, #3]
 478:led.c         ****                     leds[1].r_base =250;leds[1].g_base =100;leds[1].b_base =0;
 2114              		.loc 1 478 0
 2115 066a 254B     		ldr	r3, .L118
 2116 066c FA22     		movs	r2, #250
 2117 066e 1A72     		strb	r2, [r3, #8]
 2118 0670 234B     		ldr	r3, .L118
 2119 0672 6422     		movs	r2, #100
 2120 0674 5A72     		strb	r2, [r3, #9]
 2121 0676 224B     		ldr	r3, .L118
 2122 0678 0022     		movs	r2, #0
ARM GAS  C:\Users\alexport\AppData\Local\Temp\cc3nX14g.s 			page 48


 2123 067a 9A72     		strb	r2, [r3, #10]
 479:led.c         ****                 }else{
 480:led.c         ****                     leds[2].r_base =250;leds[2].g_base =100;leds[2].b_base =0;
 481:led.c         ****                     leds[3].r_base =250;leds[3].g_base =100;leds[3].b_base =0;
 482:led.c         ****                 }
 483:led.c         ****             break;  
 2124              		.loc 1 483 0
 2125 067c 3CE0     		b	.L80
 2126              	.L110:
 480:led.c         ****                     leds[3].r_base =250;leds[3].g_base =100;leds[3].b_base =0;
 2127              		.loc 1 480 0
 2128 067e 204B     		ldr	r3, .L118
 2129 0680 FA22     		movs	r2, #250
 2130 0682 DA73     		strb	r2, [r3, #15]
 2131 0684 1E4B     		ldr	r3, .L118
 2132 0686 6422     		movs	r2, #100
 2133 0688 1A74     		strb	r2, [r3, #16]
 2134 068a 1D4B     		ldr	r3, .L118
 2135 068c 0022     		movs	r2, #0
 2136 068e 5A74     		strb	r2, [r3, #17]
 481:led.c         ****                 }
 2137              		.loc 1 481 0
 2138 0690 1B4B     		ldr	r3, .L118
 2139 0692 FA22     		movs	r2, #250
 2140 0694 9A75     		strb	r2, [r3, #22]
 2141 0696 1A4B     		ldr	r3, .L118
 2142 0698 6422     		movs	r2, #100
 2143 069a DA75     		strb	r2, [r3, #23]
 2144 069c 184B     		ldr	r3, .L118
 2145 069e 0022     		movs	r2, #0
 2146 06a0 1A76     		strb	r2, [r3, #24]
 2147              		.loc 1 483 0
 2148 06a2 29E0     		b	.L80
 2149              	.L95:
 484:led.c         ****                 case  SYSTEM_LED_CYAN:
 485:led.c         ****                 if(num==1){
 2150              		.loc 1 485 0
 2151 06a4 FB1D     		adds	r3, r7, #7
 2152 06a6 1B78     		ldrb	r3, [r3]
 2153 06a8 012B     		cmp	r3, #1
 2154 06aa 12D1     		bne	.L112
 486:led.c         ****                     leds[0].r_base =12;leds[0].g_base =250;leds[0].b_base =245;
 2155              		.loc 1 486 0
 2156 06ac 144B     		ldr	r3, .L118
 2157 06ae 0C22     		movs	r2, #12
 2158 06b0 5A70     		strb	r2, [r3, #1]
 2159 06b2 134B     		ldr	r3, .L118
 2160 06b4 FA22     		movs	r2, #250
 2161 06b6 9A70     		strb	r2, [r3, #2]
 2162 06b8 114B     		ldr	r3, .L118
 2163 06ba F522     		movs	r2, #245
 2164 06bc DA70     		strb	r2, [r3, #3]
 487:led.c         ****                     leds[1].r_base =12;leds[1].g_base =250;leds[1].b_base =245;
 2165              		.loc 1 487 0
 2166 06be 104B     		ldr	r3, .L118
 2167 06c0 0C22     		movs	r2, #12
 2168 06c2 1A72     		strb	r2, [r3, #8]
ARM GAS  C:\Users\alexport\AppData\Local\Temp\cc3nX14g.s 			page 49


 2169 06c4 0E4B     		ldr	r3, .L118
 2170 06c6 FA22     		movs	r2, #250
 2171 06c8 5A72     		strb	r2, [r3, #9]
 2172 06ca 0D4B     		ldr	r3, .L118
 2173 06cc F522     		movs	r2, #245
 2174 06ce 9A72     		strb	r2, [r3, #10]
 488:led.c         ****                 }else{
 489:led.c         ****                     leds[2].r_base =12;leds[2].g_base =250;leds[2].b_base =245;
 490:led.c         ****                     leds[3].r_base =12;leds[3].g_base =250;leds[3].b_base =245;
 491:led.c         ****                 }
 492:led.c         ****             break;  
 2175              		.loc 1 492 0
 2176 06d0 11E0     		b	.L115
 2177              	.L112:
 489:led.c         ****                     leds[3].r_base =12;leds[3].g_base =250;leds[3].b_base =245;
 2178              		.loc 1 489 0
 2179 06d2 0B4B     		ldr	r3, .L118
 2180 06d4 0C22     		movs	r2, #12
 2181 06d6 DA73     		strb	r2, [r3, #15]
 2182 06d8 094B     		ldr	r3, .L118
 2183 06da FA22     		movs	r2, #250
 2184 06dc 1A74     		strb	r2, [r3, #16]
 2185 06de 084B     		ldr	r3, .L118
 2186 06e0 F522     		movs	r2, #245
 2187 06e2 5A74     		strb	r2, [r3, #17]
 490:led.c         ****                 }
 2188              		.loc 1 490 0
 2189 06e4 064B     		ldr	r3, .L118
 2190 06e6 0C22     		movs	r2, #12
 2191 06e8 9A75     		strb	r2, [r3, #22]
 2192 06ea 054B     		ldr	r3, .L118
 2193 06ec FA22     		movs	r2, #250
 2194 06ee DA75     		strb	r2, [r3, #23]
 2195 06f0 034B     		ldr	r3, .L118
 2196 06f2 F522     		movs	r2, #245
 2197 06f4 1A76     		strb	r2, [r3, #24]
 2198              	.L115:
 2199              		.loc 1 492 0
 2200 06f6 C046     		nop
 2201              	.L80:
 2202              	.L114:
 493:led.c         ****         }
 494:led.c         ****     
 495:led.c         ****     } // else
 496:led.c         ****    
 497:led.c         ****     
 498:led.c         **** }
 2203              		.loc 1 498 0
 2204 06f8 C046     		nop
 2205 06fa BD46     		mov	sp, r7
 2206 06fc 04B0     		add	sp, sp, #16
 2207              		@ sp needed
 2208 06fe B0BD     		pop	{r4, r5, r7, pc}
 2209              	.L119:
 2210              		.align	2
 2211              	.L118:
 2212 0700 00000000 		.word	leds
ARM GAS  C:\Users\alexport\AppData\Local\Temp\cc3nX14g.s 			page 50


 2213 0704 28000000 		.word	.L87
 2214              		.cfi_endproc
 2215              	.LFE43:
 2216              		.size	system_SetLed, .-system_SetLed
 2217              		.section	.text.system_IsLEDInBreathMode,"ax",%progbits
 2218              		.align	2
 2219              		.global	system_IsLEDInBreathMode
 2220              		.code	16
 2221              		.thumb_func
 2222              		.type	system_IsLEDInBreathMode, %function
 2223              	system_IsLEDInBreathMode:
 2224              	.LFB44:
 499:led.c         **** 
 500:led.c         **** 
 501:led.c         **** uint8_t system_IsLEDInBreathMode(uint8_t ch){
 2225              		.loc 1 501 0
 2226              		.cfi_startproc
 2227              		@ args = 0, pretend = 0, frame = 8
 2228              		@ frame_needed = 1, uses_anonymous_args = 0
 2229 0000 80B5     		push	{r7, lr}
 2230              		.cfi_def_cfa_offset 8
 2231              		.cfi_offset 7, -8
 2232              		.cfi_offset 14, -4
 2233 0002 82B0     		sub	sp, sp, #8
 2234              		.cfi_def_cfa_offset 16
 2235 0004 00AF     		add	r7, sp, #0
 2236              		.cfi_def_cfa_register 7
 2237 0006 0200     		movs	r2, r0
 2238 0008 FB1D     		adds	r3, r7, #7
 2239 000a 1A70     		strb	r2, [r3]
 502:led.c         ****     if(leds[ch].mode==MODE_BREATHING)
 2240              		.loc 1 502 0
 2241 000c FB1D     		adds	r3, r7, #7
 2242 000e 1A78     		ldrb	r2, [r3]
 2243 0010 0749     		ldr	r1, .L123
 2244 0012 1300     		movs	r3, r2
 2245 0014 DB00     		lsls	r3, r3, #3
 2246 0016 9B1A     		subs	r3, r3, r2
 2247 0018 CB18     		adds	r3, r1, r3
 2248 001a 0433     		adds	r3, r3, #4
 2249 001c 1B78     		ldrb	r3, [r3]
 2250 001e 022B     		cmp	r3, #2
 2251 0020 01D1     		bne	.L121
 503:led.c         ****         return 1;
 2252              		.loc 1 503 0
 2253 0022 0123     		movs	r3, #1
 2254 0024 00E0     		b	.L122
 2255              	.L121:
 504:led.c         ****     else
 505:led.c         ****         return 0;
 2256              		.loc 1 505 0
 2257 0026 0023     		movs	r3, #0
 2258              	.L122:
 506:led.c         **** 
 507:led.c         **** }
 2259              		.loc 1 507 0
 2260 0028 1800     		movs	r0, r3
ARM GAS  C:\Users\alexport\AppData\Local\Temp\cc3nX14g.s 			page 51


 2261 002a BD46     		mov	sp, r7
 2262 002c 02B0     		add	sp, sp, #8
 2263              		@ sp needed
 2264 002e 80BD     		pop	{r7, pc}
 2265              	.L124:
 2266              		.align	2
 2267              	.L123:
 2268 0030 00000000 		.word	leds
 2269              		.cfi_endproc
 2270              	.LFE44:
 2271              		.size	system_IsLEDInBreathMode, .-system_IsLEDInBreathMode
 2272              		.text
 2273              	.Letext0:
 2274              		.file 2 "c:\\program files (x86)\\cypress\\psoc creator\\4.4\\psoc creator\\import\\gnu\\arm\\5.4.
 2275              		.file 3 "c:\\program files (x86)\\cypress\\psoc creator\\4.4\\psoc creator\\import\\gnu\\arm\\5.4.
 2276              		.file 4 "Generated_Source\\PSoC4/cytypes.h"
 2277              		.file 5 "Generated_Source\\PSoC4/blue_Stack.h"
 2278              		.file 6 "Generated_Source\\PSoC4/blue_dis.h"
 2279              		.section	.debug_info,"",%progbits
 2280              	.Ldebug_info0:
 2281 0000 82060000 		.4byte	0x682
 2282 0004 0400     		.2byte	0x4
 2283 0006 00000000 		.4byte	.Ldebug_abbrev0
 2284 000a 04       		.byte	0x4
 2285 000b 01       		.uleb128 0x1
 2286 000c CB050000 		.4byte	.LASF135
 2287 0010 0C       		.byte	0xc
 2288 0011 C5040000 		.4byte	.LASF136
 2289 0015 330B0000 		.4byte	.LASF137
 2290 0019 30000000 		.4byte	.Ldebug_ranges0+0x30
 2291 001d 00000000 		.4byte	0
 2292 0021 00000000 		.4byte	.Ldebug_line0
 2293 0025 02       		.uleb128 0x2
 2294 0026 01       		.byte	0x1
 2295 0027 06       		.byte	0x6
 2296 0028 1F020000 		.4byte	.LASF0
 2297 002c 03       		.uleb128 0x3
 2298 002d FD000000 		.4byte	.LASF9
 2299 0031 02       		.byte	0x2
 2300 0032 1D       		.byte	0x1d
 2301 0033 37000000 		.4byte	0x37
 2302 0037 02       		.uleb128 0x2
 2303 0038 01       		.byte	0x1
 2304 0039 08       		.byte	0x8
 2305 003a EB080000 		.4byte	.LASF1
 2306 003e 02       		.uleb128 0x2
 2307 003f 02       		.byte	0x2
 2308 0040 05       		.byte	0x5
 2309 0041 24090000 		.4byte	.LASF2
 2310 0045 02       		.uleb128 0x2
 2311 0046 02       		.byte	0x2
 2312 0047 07       		.byte	0x7
 2313 0048 D1040000 		.4byte	.LASF3
 2314 004c 02       		.uleb128 0x2
 2315 004d 04       		.byte	0x4
 2316 004e 05       		.byte	0x5
 2317 004f 23010000 		.4byte	.LASF4
ARM GAS  C:\Users\alexport\AppData\Local\Temp\cc3nX14g.s 			page 52


 2318 0053 02       		.uleb128 0x2
 2319 0054 04       		.byte	0x4
 2320 0055 07       		.byte	0x7
 2321 0056 140A0000 		.4byte	.LASF5
 2322 005a 02       		.uleb128 0x2
 2323 005b 08       		.byte	0x8
 2324 005c 05       		.byte	0x5
 2325 005d 11020000 		.4byte	.LASF6
 2326 0061 02       		.uleb128 0x2
 2327 0062 08       		.byte	0x8
 2328 0063 07       		.byte	0x7
 2329 0064 3D010000 		.4byte	.LASF7
 2330 0068 04       		.uleb128 0x4
 2331 0069 04       		.byte	0x4
 2332 006a 05       		.byte	0x5
 2333 006b 696E7400 		.ascii	"int\000"
 2334 006f 02       		.uleb128 0x2
 2335 0070 04       		.byte	0x4
 2336 0071 07       		.byte	0x7
 2337 0072 EE030000 		.4byte	.LASF8
 2338 0076 03       		.uleb128 0x3
 2339 0077 7F0B0000 		.4byte	.LASF10
 2340 007b 03       		.byte	0x3
 2341 007c 18       		.byte	0x18
 2342 007d 2C000000 		.4byte	0x2c
 2343 0081 05       		.uleb128 0x5
 2344 0082 CB040000 		.4byte	.LASF11
 2345 0086 04       		.byte	0x4
 2346 0087 FC01     		.2byte	0x1fc
 2347 0089 37000000 		.4byte	0x37
 2348 008d 05       		.uleb128 0x5
 2349 008e F9080000 		.4byte	.LASF12
 2350 0092 04       		.byte	0x4
 2351 0093 FD01     		.2byte	0x1fd
 2352 0095 45000000 		.4byte	0x45
 2353 0099 05       		.uleb128 0x5
 2354 009a 32050000 		.4byte	.LASF13
 2355 009e 04       		.byte	0x4
 2356 009f FF01     		.2byte	0x1ff
 2357 00a1 25000000 		.4byte	0x25
 2358 00a5 02       		.uleb128 0x2
 2359 00a6 04       		.byte	0x4
 2360 00a7 04       		.byte	0x4
 2361 00a8 CD080000 		.4byte	.LASF14
 2362 00ac 02       		.uleb128 0x2
 2363 00ad 08       		.byte	0x8
 2364 00ae 04       		.byte	0x4
 2365 00af 2E030000 		.4byte	.LASF15
 2366 00b3 02       		.uleb128 0x2
 2367 00b4 01       		.byte	0x1
 2368 00b5 08       		.byte	0x8
 2369 00b6 3E0A0000 		.4byte	.LASF16
 2370 00ba 02       		.uleb128 0x2
 2371 00bb 08       		.byte	0x8
 2372 00bc 04       		.byte	0x4
 2373 00bd 7C070000 		.4byte	.LASF17
 2374 00c1 02       		.uleb128 0x2
ARM GAS  C:\Users\alexport\AppData\Local\Temp\cc3nX14g.s 			page 53


 2375 00c2 04       		.byte	0x4
 2376 00c3 07       		.byte	0x7
 2377 00c4 73070000 		.4byte	.LASF18
 2378 00c8 06       		.uleb128 0x6
 2379 00c9 01       		.byte	0x1
 2380 00ca 37000000 		.4byte	0x37
 2381 00ce 05       		.byte	0x5
 2382 00cf 3501     		.2byte	0x135
 2383 00d1 86020000 		.4byte	0x286
 2384 00d5 07       		.uleb128 0x7
 2385 00d6 E4040000 		.4byte	.LASF19
 2386 00da 00       		.byte	0
 2387 00db 07       		.uleb128 0x7
 2388 00dc 2B020000 		.4byte	.LASF20
 2389 00e0 01       		.byte	0x1
 2390 00e1 07       		.uleb128 0x7
 2391 00e2 11010000 		.4byte	.LASF21
 2392 00e6 02       		.byte	0x2
 2393 00e7 07       		.uleb128 0x7
 2394 00e8 1A0B0000 		.4byte	.LASF22
 2395 00ec 03       		.byte	0x3
 2396 00ed 07       		.uleb128 0x7
 2397 00ee 17080000 		.4byte	.LASF23
 2398 00f2 04       		.byte	0x4
 2399 00f3 07       		.uleb128 0x7
 2400 00f4 23000000 		.4byte	.LASF24
 2401 00f8 05       		.byte	0x5
 2402 00f9 07       		.uleb128 0x7
 2403 00fa 19050000 		.4byte	.LASF25
 2404 00fe 06       		.byte	0x6
 2405 00ff 07       		.uleb128 0x7
 2406 0100 96060000 		.4byte	.LASF26
 2407 0104 20       		.byte	0x20
 2408 0105 07       		.uleb128 0x7
 2409 0106 76020000 		.4byte	.LASF27
 2410 010a 21       		.byte	0x21
 2411 010b 07       		.uleb128 0x7
 2412 010c 56050000 		.4byte	.LASF28
 2413 0110 22       		.byte	0x22
 2414 0111 07       		.uleb128 0x7
 2415 0112 F40A0000 		.4byte	.LASF29
 2416 0116 23       		.byte	0x23
 2417 0117 07       		.uleb128 0x7
 2418 0118 2C080000 		.4byte	.LASF30
 2419 011c 24       		.byte	0x24
 2420 011d 07       		.uleb128 0x7
 2421 011e 95070000 		.4byte	.LASF31
 2422 0122 25       		.byte	0x25
 2423 0123 07       		.uleb128 0x7
 2424 0124 C9020000 		.4byte	.LASF32
 2425 0128 26       		.byte	0x26
 2426 0129 07       		.uleb128 0x7
 2427 012a 7A050000 		.4byte	.LASF33
 2428 012e 27       		.byte	0x27
 2429 012f 07       		.uleb128 0x7
 2430 0130 12070000 		.4byte	.LASF34
 2431 0134 28       		.byte	0x28
ARM GAS  C:\Users\alexport\AppData\Local\Temp\cc3nX14g.s 			page 54


 2432 0135 07       		.uleb128 0x7
 2433 0136 C1010000 		.4byte	.LASF35
 2434 013a 29       		.byte	0x29
 2435 013b 07       		.uleb128 0x7
 2436 013c 64000000 		.4byte	.LASF36
 2437 0140 2A       		.byte	0x2a
 2438 0141 07       		.uleb128 0x7
 2439 0142 57020000 		.4byte	.LASF37
 2440 0146 2B       		.byte	0x2b
 2441 0147 07       		.uleb128 0x7
 2442 0148 EE0B0000 		.4byte	.LASF38
 2443 014c 2C       		.byte	0x2c
 2444 014d 07       		.uleb128 0x7
 2445 014e DE010000 		.4byte	.LASF39
 2446 0152 2D       		.byte	0x2d
 2447 0153 07       		.uleb128 0x7
 2448 0154 780A0000 		.4byte	.LASF40
 2449 0158 2E       		.byte	0x2e
 2450 0159 07       		.uleb128 0x7
 2451 015a B5000000 		.4byte	.LASF41
 2452 015e 2F       		.byte	0x2f
 2453 015f 07       		.uleb128 0x7
 2454 0160 F6070000 		.4byte	.LASF42
 2455 0164 30       		.byte	0x30
 2456 0165 07       		.uleb128 0x7
 2457 0166 630C0000 		.4byte	.LASF43
 2458 016a 31       		.byte	0x31
 2459 016b 07       		.uleb128 0x7
 2460 016c D5070000 		.4byte	.LASF44
 2461 0170 32       		.byte	0x32
 2462 0171 07       		.uleb128 0x7
 2463 0172 E5090000 		.4byte	.LASF45
 2464 0176 33       		.byte	0x33
 2465 0177 07       		.uleb128 0x7
 2466 0178 23040000 		.4byte	.LASF46
 2467 017c 34       		.byte	0x34
 2468 017d 07       		.uleb128 0x7
 2469 017e A9030000 		.4byte	.LASF47
 2470 0182 35       		.byte	0x35
 2471 0183 07       		.uleb128 0x7
 2472 0184 99050000 		.4byte	.LASF48
 2473 0188 36       		.byte	0x36
 2474 0189 07       		.uleb128 0x7
 2475 018a CE060000 		.4byte	.LASF49
 2476 018e 37       		.byte	0x37
 2477 018f 07       		.uleb128 0x7
 2478 0190 CB090000 		.4byte	.LASF50
 2479 0194 40       		.byte	0x40
 2480 0195 07       		.uleb128 0x7
 2481 0196 59060000 		.4byte	.LASF51
 2482 019a 41       		.byte	0x41
 2483 019b 07       		.uleb128 0x7
 2484 019c A30C0000 		.4byte	.LASF52
 2485 01a0 42       		.byte	0x42
 2486 01a1 07       		.uleb128 0x7
 2487 01a2 F1020000 		.4byte	.LASF53
 2488 01a6 43       		.byte	0x43
ARM GAS  C:\Users\alexport\AppData\Local\Temp\cc3nX14g.s 			page 55


 2489 01a7 07       		.uleb128 0x7
 2490 01a8 60040000 		.4byte	.LASF54
 2491 01ac 44       		.byte	0x44
 2492 01ad 07       		.uleb128 0x7
 2493 01ae A6080000 		.4byte	.LASF55
 2494 01b2 45       		.byte	0x45
 2495 01b3 07       		.uleb128 0x7
 2496 01b4 52070000 		.4byte	.LASF56
 2497 01b8 46       		.byte	0x46
 2498 01b9 07       		.uleb128 0x7
 2499 01ba FB040000 		.4byte	.LASF57
 2500 01be 47       		.byte	0x47
 2501 01bf 07       		.uleb128 0x7
 2502 01c0 C70B0000 		.4byte	.LASF58
 2503 01c4 48       		.byte	0x48
 2504 01c5 07       		.uleb128 0x7
 2505 01c6 92020000 		.4byte	.LASF59
 2506 01ca 49       		.byte	0x49
 2507 01cb 07       		.uleb128 0x7
 2508 01cc D60A0000 		.4byte	.LASF60
 2509 01d0 4A       		.byte	0x4a
 2510 01d1 07       		.uleb128 0x7
 2511 01d2 DE000000 		.4byte	.LASF61
 2512 01d6 4B       		.byte	0x4b
 2513 01d7 07       		.uleb128 0x7
 2514 01d8 46040000 		.4byte	.LASF62
 2515 01dc 4C       		.byte	0x4c
 2516 01dd 07       		.uleb128 0x7
 2517 01de AF070000 		.4byte	.LASF63
 2518 01e2 4D       		.byte	0x4d
 2519 01e3 07       		.uleb128 0x7
 2520 01e4 AB020000 		.4byte	.LASF64
 2521 01e8 4E       		.byte	0x4e
 2522 01e9 07       		.uleb128 0x7
 2523 01ea 78090000 		.4byte	.LASF65
 2524 01ee 4F       		.byte	0x4f
 2525 01ef 07       		.uleb128 0x7
 2526 01f0 37050000 		.4byte	.LASF66
 2527 01f4 50       		.byte	0x50
 2528 01f5 07       		.uleb128 0x7
 2529 01f6 0F030000 		.4byte	.LASF67
 2530 01fa 51       		.byte	0x51
 2531 01fb 07       		.uleb128 0x7
 2532 01fc 48080000 		.4byte	.LASF68
 2533 0200 52       		.byte	0x52
 2534 0201 07       		.uleb128 0x7
 2535 0202 2E090000 		.4byte	.LASF69
 2536 0206 53       		.byte	0x53
 2537 0207 07       		.uleb128 0x7
 2538 0208 AA090000 		.4byte	.LASF70
 2539 020c 54       		.byte	0x54
 2540 020d 07       		.uleb128 0x7
 2541 020e 7E040000 		.4byte	.LASF71
 2542 0212 55       		.byte	0x55
 2543 0213 07       		.uleb128 0x7
 2544 0214 CC030000 		.4byte	.LASF72
 2545 0218 56       		.byte	0x56
ARM GAS  C:\Users\alexport\AppData\Local\Temp\cc3nX14g.s 			page 56


 2546 0219 07       		.uleb128 0x7
 2547 021a 4F0A0000 		.4byte	.LASF73
 2548 021e 57       		.byte	0x57
 2549 021f 07       		.uleb128 0x7
 2550 0220 A2040000 		.4byte	.LASF74
 2551 0224 58       		.byte	0x58
 2552 0225 07       		.uleb128 0x7
 2553 0226 94010000 		.4byte	.LASF75
 2554 022a 70       		.byte	0x70
 2555 022b 07       		.uleb128 0x7
 2556 022c 3D0C0000 		.4byte	.LASF76
 2557 0230 71       		.byte	0x71
 2558 0231 07       		.uleb128 0x7
 2559 0232 7A060000 		.4byte	.LASF77
 2560 0236 72       		.byte	0x72
 2561 0237 07       		.uleb128 0x7
 2562 0238 34070000 		.4byte	.LASF78
 2563 023c 73       		.byte	0x73
 2564 023d 07       		.uleb128 0x7
 2565 023e 81080000 		.4byte	.LASF79
 2566 0242 74       		.byte	0x74
 2567 0243 07       		.uleb128 0x7
 2568 0244 120C0000 		.4byte	.LASF80
 2569 0248 75       		.byte	0x75
 2570 0249 07       		.uleb128 0x7
 2571 024a 94000000 		.4byte	.LASF81
 2572 024e 76       		.byte	0x76
 2573 024f 07       		.uleb128 0x7
 2574 0250 45000000 		.4byte	.LASF82
 2575 0254 77       		.byte	0x77
 2576 0255 07       		.uleb128 0x7
 2577 0256 00000000 		.4byte	.LASF83
 2578 025a 78       		.byte	0x78
 2579 025b 07       		.uleb128 0x7
 2580 025c B30A0000 		.4byte	.LASF84
 2581 0260 79       		.byte	0x79
 2582 0261 07       		.uleb128 0x7
 2583 0262 7C030000 		.4byte	.LASF85
 2584 0266 7A       		.byte	0x7a
 2585 0267 07       		.uleb128 0x7
 2586 0268 76010000 		.4byte	.LASF86
 2587 026c FA       		.byte	0xfa
 2588 026d 07       		.uleb128 0x7
 2589 026e FB030000 		.4byte	.LASF87
 2590 0272 FB       		.byte	0xfb
 2591 0273 07       		.uleb128 0x7
 2592 0274 4F090000 		.4byte	.LASF88
 2593 0278 FC       		.byte	0xfc
 2594 0279 07       		.uleb128 0x7
 2595 027a 260A0000 		.4byte	.LASF89
 2596 027e FD       		.byte	0xfd
 2597 027f 07       		.uleb128 0x7
 2598 0280 6E030000 		.4byte	.LASF90
 2599 0284 FF       		.byte	0xff
 2600 0285 00       		.byte	0
 2601 0286 08       		.uleb128 0x8
 2602 0287 01       		.byte	0x1
ARM GAS  C:\Users\alexport\AppData\Local\Temp\cc3nX14g.s 			page 57


 2603 0288 37000000 		.4byte	0x37
 2604 028c 06       		.byte	0x6
 2605 028d 22       		.byte	0x22
 2606 028e CF020000 		.4byte	0x2cf
 2607 0292 07       		.uleb128 0x7
 2608 0293 870C0000 		.4byte	.LASF91
 2609 0297 00       		.byte	0
 2610 0298 07       		.uleb128 0x7
 2611 0299 A10B0000 		.4byte	.LASF92
 2612 029d 01       		.byte	0x1
 2613 029e 07       		.uleb128 0x7
 2614 029f D3080000 		.4byte	.LASF93
 2615 02a3 02       		.byte	0x2
 2616 02a4 07       		.uleb128 0x7
 2617 02a5 57030000 		.4byte	.LASF94
 2618 02a9 03       		.byte	0x3
 2619 02aa 07       		.uleb128 0x7
 2620 02ab 35030000 		.4byte	.LASF95
 2621 02af 04       		.byte	0x4
 2622 02b0 07       		.uleb128 0x7
 2623 02b1 61090000 		.4byte	.LASF96
 2624 02b5 05       		.byte	0x5
 2625 02b6 07       		.uleb128 0x7
 2626 02b7 BA060000 		.4byte	.LASF97
 2627 02bb 06       		.byte	0x6
 2628 02bc 07       		.uleb128 0x7
 2629 02bd 69080000 		.4byte	.LASF98
 2630 02c1 07       		.byte	0x7
 2631 02c2 07       		.uleb128 0x7
 2632 02c3 BA050000 		.4byte	.LASF99
 2633 02c7 08       		.byte	0x8
 2634 02c8 07       		.uleb128 0x7
 2635 02c9 00090000 		.4byte	.LASF100
 2636 02cd 09       		.byte	0x9
 2637 02ce 00       		.byte	0
 2638 02cf 08       		.uleb128 0x8
 2639 02d0 01       		.byte	0x1
 2640 02d1 37000000 		.4byte	0x37
 2641 02d5 01       		.byte	0x1
 2642 02d6 0E       		.byte	0xe
 2643 02d7 F4020000 		.4byte	0x2f4
 2644 02db 07       		.uleb128 0x7
 2645 02dc 54010000 		.4byte	.LASF101
 2646 02e0 00       		.byte	0
 2647 02e1 07       		.uleb128 0x7
 2648 02e2 9C0A0000 		.4byte	.LASF102
 2649 02e6 01       		.byte	0x1
 2650 02e7 07       		.uleb128 0x7
 2651 02e8 03070000 		.4byte	.LASF103
 2652 02ec 02       		.byte	0x2
 2653 02ed 07       		.uleb128 0x7
 2654 02ee 870B0000 		.4byte	.LASF104
 2655 02f2 03       		.byte	0x3
 2656 02f3 00       		.byte	0
 2657 02f4 03       		.uleb128 0x3
 2658 02f5 0C0A0000 		.4byte	.LASF105
 2659 02f9 01       		.byte	0x1
ARM GAS  C:\Users\alexport\AppData\Local\Temp\cc3nX14g.s 			page 58


 2660 02fa 13       		.byte	0x13
 2661 02fb CF020000 		.4byte	0x2cf
 2662 02ff 09       		.uleb128 0x9
 2663 0300 07       		.byte	0x7
 2664 0301 01       		.byte	0x1
 2665 0302 15       		.byte	0x15
 2666 0303 5C030000 		.4byte	0x35c
 2667 0307 0A       		.uleb128 0xa
 2668 0308 1A090000 		.4byte	.LASF106
 2669 030c 01       		.byte	0x1
 2670 030d 16       		.byte	0x16
 2671 030e 81000000 		.4byte	0x81
 2672 0312 00       		.byte	0
 2673 0313 0A       		.uleb128 0xa
 2674 0314 9F080000 		.4byte	.LASF107
 2675 0318 01       		.byte	0x1
 2676 0319 17       		.byte	0x17
 2677 031a 81000000 		.4byte	0x81
 2678 031e 01       		.byte	0x1
 2679 031f 0A       		.uleb128 0xa
 2680 0320 8D000000 		.4byte	.LASF108
 2681 0324 01       		.byte	0x1
 2682 0325 17       		.byte	0x17
 2683 0326 81000000 		.4byte	0x81
 2684 032a 02       		.byte	0x2
 2685 032b 0A       		.uleb128 0xa
 2686 032c BA010000 		.4byte	.LASF109
 2687 0330 01       		.byte	0x1
 2688 0331 17       		.byte	0x17
 2689 0332 81000000 		.4byte	0x81
 2690 0336 03       		.byte	0x3
 2691 0337 0A       		.uleb128 0xa
 2692 0338 430A0000 		.4byte	.LASF110
 2693 033c 01       		.byte	0x1
 2694 033d 18       		.byte	0x18
 2695 033e F4020000 		.4byte	0x2f4
 2696 0342 04       		.byte	0x4
 2697 0343 0A       		.uleb128 0xa
 2698 0344 15090000 		.4byte	.LASF111
 2699 0348 01       		.byte	0x1
 2700 0349 19       		.byte	0x19
 2701 034a 81000000 		.4byte	0x81
 2702 034e 05       		.byte	0x5
 2703 034f 0A       		.uleb128 0xa
 2704 0350 07010000 		.4byte	.LASF112
 2705 0354 01       		.byte	0x1
 2706 0355 1A       		.byte	0x1a
 2707 0356 99000000 		.4byte	0x99
 2708 035a 06       		.byte	0x6
 2709 035b 00       		.byte	0
 2710 035c 03       		.uleb128 0x3
 2711 035d 480A0000 		.4byte	.LASF113
 2712 0361 01       		.byte	0x1
 2713 0362 1B       		.byte	0x1b
 2714 0363 FF020000 		.4byte	0x2ff
 2715 0367 0B       		.uleb128 0xb
 2716 0368 4B020000 		.4byte	.LASF130
ARM GAS  C:\Users\alexport\AppData\Local\Temp\cc3nX14g.s 			page 59


 2717 036c 01       		.byte	0x1
 2718 036d 78       		.byte	0x78
 2719 036e 81000000 		.4byte	0x81
 2720 0372 00000000 		.4byte	.LFB35
 2721 0376 58000000 		.4byte	.LFE35-.LFB35
 2722 037a 01       		.uleb128 0x1
 2723 037b 9C       		.byte	0x9c
 2724 037c 9D030000 		.4byte	0x39d
 2725 0380 0C       		.uleb128 0xc
 2726 0381 72656700 		.ascii	"reg\000"
 2727 0385 01       		.byte	0x1
 2728 0386 78       		.byte	0x78
 2729 0387 81000000 		.4byte	0x81
 2730 038b 02       		.uleb128 0x2
 2731 038c 91       		.byte	0x91
 2732 038d 6F       		.sleb128 -17
 2733 038e 0D       		.uleb128 0xd
 2734 038f C6030000 		.4byte	.LASF114
 2735 0393 01       		.byte	0x1
 2736 0394 7A       		.byte	0x7a
 2737 0395 81000000 		.4byte	0x81
 2738 0399 02       		.uleb128 0x2
 2739 039a 91       		.byte	0x91
 2740 039b 77       		.sleb128 -9
 2741 039c 00       		.byte	0
 2742 039d 0E       		.uleb128 0xe
 2743 039e 3E020000 		.4byte	.LASF115
 2744 03a2 01       		.byte	0x1
 2745 03a3 87       		.byte	0x87
 2746 03a4 00000000 		.4byte	.LFB36
 2747 03a8 4A000000 		.4byte	.LFE36-.LFB36
 2748 03ac 01       		.uleb128 0x1
 2749 03ad 9C       		.byte	0x9c
 2750 03ae DD030000 		.4byte	0x3dd
 2751 03b2 0C       		.uleb128 0xc
 2752 03b3 72656700 		.ascii	"reg\000"
 2753 03b7 01       		.byte	0x1
 2754 03b8 87       		.byte	0x87
 2755 03b9 81000000 		.4byte	0x81
 2756 03bd 02       		.uleb128 0x2
 2757 03be 91       		.byte	0x91
 2758 03bf 6F       		.sleb128 -17
 2759 03c0 0F       		.uleb128 0xf
 2760 03c1 C6030000 		.4byte	.LASF114
 2761 03c5 01       		.byte	0x1
 2762 03c6 87       		.byte	0x87
 2763 03c7 81000000 		.4byte	0x81
 2764 03cb 02       		.uleb128 0x2
 2765 03cc 91       		.byte	0x91
 2766 03cd 6E       		.sleb128 -18
 2767 03ce 10       		.uleb128 0x10
 2768 03cf 62756600 		.ascii	"buf\000"
 2769 03d3 01       		.byte	0x1
 2770 03d4 88       		.byte	0x88
 2771 03d5 DD030000 		.4byte	0x3dd
 2772 03d9 02       		.uleb128 0x2
 2773 03da 91       		.byte	0x91
ARM GAS  C:\Users\alexport\AppData\Local\Temp\cc3nX14g.s 			page 60


 2774 03db 74       		.sleb128 -12
 2775 03dc 00       		.byte	0
 2776 03dd 11       		.uleb128 0x11
 2777 03de 81000000 		.4byte	0x81
 2778 03e2 ED030000 		.4byte	0x3ed
 2779 03e6 12       		.uleb128 0x12
 2780 03e7 C1000000 		.4byte	0xc1
 2781 03eb 01       		.byte	0x1
 2782 03ec 00       		.byte	0
 2783 03ed 0E       		.uleb128 0xe
 2784 03ee 1A040000 		.4byte	.LASF116
 2785 03f2 01       		.byte	0x1
 2786 03f3 8E       		.byte	0x8e
 2787 03f4 00000000 		.4byte	.LFB37
 2788 03f8 70000000 		.4byte	.LFE37-.LFB37
 2789 03fc 01       		.uleb128 0x1
 2790 03fd 9C       		.byte	0x9c
 2791 03fe 19040000 		.4byte	0x419
 2792 0402 13       		.uleb128 0x13
 2793 0403 36000000 		.4byte	.LBB2
 2794 0407 2E000000 		.4byte	.LBE2-.LBB2
 2795 040b 10       		.uleb128 0x10
 2796 040c 6900     		.ascii	"i\000"
 2797 040e 01       		.byte	0x1
 2798 040f 9D       		.byte	0x9d
 2799 0410 76000000 		.4byte	0x76
 2800 0414 02       		.uleb128 0x2
 2801 0415 91       		.byte	0x91
 2802 0416 77       		.sleb128 -9
 2803 0417 00       		.byte	0
 2804 0418 00       		.byte	0
 2805 0419 0E       		.uleb128 0xe
 2806 041a B80B0000 		.4byte	.LASF117
 2807 041e 01       		.byte	0x1
 2808 041f A4       		.byte	0xa4
 2809 0420 00000000 		.4byte	.LFB38
 2810 0424 34000000 		.4byte	.LFE38-.LFB38
 2811 0428 01       		.uleb128 0x1
 2812 0429 9C       		.byte	0x9c
 2813 042a 4B040000 		.4byte	0x44b
 2814 042e 0F       		.uleb128 0xf
 2815 042f A2090000 		.4byte	.LASF118
 2816 0433 01       		.byte	0x1
 2817 0434 A4       		.byte	0xa4
 2818 0435 81000000 		.4byte	0x81
 2819 0439 02       		.uleb128 0x2
 2820 043a 91       		.byte	0x91
 2821 043b 77       		.sleb128 -9
 2822 043c 0F       		.uleb128 0xf
 2823 043d 97090000 		.4byte	.LASF119
 2824 0441 01       		.byte	0x1
 2825 0442 A4       		.byte	0xa4
 2826 0443 81000000 		.4byte	0x81
 2827 0447 02       		.uleb128 0x2
 2828 0448 91       		.byte	0x91
 2829 0449 76       		.sleb128 -10
 2830 044a 00       		.byte	0
ARM GAS  C:\Users\alexport\AppData\Local\Temp\cc3nX14g.s 			page 61


 2831 044b 0E       		.uleb128 0xe
 2832 044c 4C030000 		.4byte	.LASF120
 2833 0450 01       		.byte	0x1
 2834 0451 A9       		.byte	0xa9
 2835 0452 00000000 		.4byte	.LFB39
 2836 0456 BE000000 		.4byte	.LFE39-.LFB39
 2837 045a 01       		.uleb128 0x1
 2838 045b 9C       		.byte	0x9c
 2839 045c A1040000 		.4byte	0x4a1
 2840 0460 0F       		.uleb128 0xf
 2841 0461 1A090000 		.4byte	.LASF106
 2842 0465 01       		.byte	0x1
 2843 0466 A9       		.byte	0xa9
 2844 0467 81000000 		.4byte	0x81
 2845 046b 02       		.uleb128 0x2
 2846 046c 91       		.byte	0x91
 2847 046d 67       		.sleb128 -25
 2848 046e 0C       		.uleb128 0xc
 2849 046f 7200     		.ascii	"r\000"
 2850 0471 01       		.byte	0x1
 2851 0472 A9       		.byte	0xa9
 2852 0473 81000000 		.4byte	0x81
 2853 0477 02       		.uleb128 0x2
 2854 0478 91       		.byte	0x91
 2855 0479 66       		.sleb128 -26
 2856 047a 0C       		.uleb128 0xc
 2857 047b 6700     		.ascii	"g\000"
 2858 047d 01       		.byte	0x1
 2859 047e A9       		.byte	0xa9
 2860 047f 81000000 		.4byte	0x81
 2861 0483 02       		.uleb128 0x2
 2862 0484 91       		.byte	0x91
 2863 0485 65       		.sleb128 -27
 2864 0486 0C       		.uleb128 0xc
 2865 0487 6200     		.ascii	"b\000"
 2866 0489 01       		.byte	0x1
 2867 048a A9       		.byte	0xa9
 2868 048b 81000000 		.4byte	0x81
 2869 048f 02       		.uleb128 0x2
 2870 0490 91       		.byte	0x91
 2871 0491 64       		.sleb128 -28
 2872 0492 0D       		.uleb128 0xd
 2873 0493 88070000 		.4byte	.LASF121
 2874 0497 01       		.byte	0x1
 2875 0498 AA       		.byte	0xaa
 2876 0499 81000000 		.4byte	0x81
 2877 049d 02       		.uleb128 0x2
 2878 049e 91       		.byte	0x91
 2879 049f 6F       		.sleb128 -17
 2880 04a0 00       		.byte	0
 2881 04a1 0E       		.uleb128 0xe
 2882 04a2 2C010000 		.4byte	.LASF122
 2883 04a6 01       		.byte	0x1
 2884 04a7 BE       		.byte	0xbe
 2885 04a8 00000000 		.4byte	.LFB40
 2886 04ac A8010000 		.4byte	.LFE40-.LFB40
 2887 04b0 01       		.uleb128 0x1
ARM GAS  C:\Users\alexport\AppData\Local\Temp\cc3nX14g.s 			page 62


 2888 04b1 9C       		.byte	0x9c
 2889 04b2 F1040000 		.4byte	0x4f1
 2890 04b6 0C       		.uleb128 0xc
 2891 04b7 6C656400 		.ascii	"led\000"
 2892 04bb 01       		.byte	0x1
 2893 04bc BE       		.byte	0xbe
 2894 04bd F1040000 		.4byte	0x4f1
 2895 04c1 02       		.uleb128 0x2
 2896 04c2 91       		.byte	0x91
 2897 04c3 5C       		.sleb128 -36
 2898 04c4 14       		.uleb128 0x14
 2899 04c5 00000000 		.4byte	.Ldebug_ranges0+0
 2900 04c9 DC040000 		.4byte	0x4dc
 2901 04cd 0D       		.uleb128 0xd
 2902 04ce 3F000000 		.4byte	.LASF123
 2903 04d2 01       		.byte	0x1
 2904 04d3 C9       		.byte	0xc9
 2905 04d4 81000000 		.4byte	0x81
 2906 04d8 02       		.uleb128 0x2
 2907 04d9 91       		.byte	0x91
 2908 04da 67       		.sleb128 -25
 2909 04db 00       		.byte	0
 2910 04dc 15       		.uleb128 0x15
 2911 04dd 18000000 		.4byte	.Ldebug_ranges0+0x18
 2912 04e1 0D       		.uleb128 0xd
 2913 04e2 3F000000 		.4byte	.LASF123
 2914 04e6 01       		.byte	0x1
 2915 04e7 D6       		.byte	0xd6
 2916 04e8 81000000 		.4byte	0x81
 2917 04ec 02       		.uleb128 0x2
 2918 04ed 91       		.byte	0x91
 2919 04ee 66       		.sleb128 -26
 2920 04ef 00       		.byte	0
 2921 04f0 00       		.byte	0
 2922 04f1 16       		.uleb128 0x16
 2923 04f2 04       		.byte	0x4
 2924 04f3 5C030000 		.4byte	0x35c
 2925 04f7 17       		.uleb128 0x17
 2926 04f8 3B040000 		.4byte	.LASF138
 2927 04fc 01       		.byte	0x1
 2928 04fd 0201     		.2byte	0x102
 2929 04ff 00000000 		.4byte	.LFB41
 2930 0503 38000000 		.4byte	.LFE41-.LFB41
 2931 0507 01       		.uleb128 0x1
 2932 0508 9C       		.byte	0x9c
 2933 0509 25050000 		.4byte	0x525
 2934 050d 13       		.uleb128 0x13
 2935 050e 06000000 		.4byte	.LBB7
 2936 0512 24000000 		.4byte	.LBE7-.LBB7
 2937 0516 18       		.uleb128 0x18
 2938 0517 6900     		.ascii	"i\000"
 2939 0519 01       		.byte	0x1
 2940 051a 0301     		.2byte	0x103
 2941 051c 68000000 		.4byte	0x68
 2942 0520 02       		.uleb128 0x2
 2943 0521 91       		.byte	0x91
 2944 0522 74       		.sleb128 -12
ARM GAS  C:\Users\alexport\AppData\Local\Temp\cc3nX14g.s 			page 63


 2945 0523 00       		.byte	0
 2946 0524 00       		.byte	0
 2947 0525 19       		.uleb128 0x19
 2948 0526 A80A0000 		.4byte	.LASF124
 2949 052a 01       		.byte	0x1
 2950 052b 0A01     		.2byte	0x10a
 2951 052d 00000000 		.4byte	.LFB42
 2952 0531 28010000 		.4byte	.LFE42-.LFB42
 2953 0535 01       		.uleb128 0x1
 2954 0536 9C       		.byte	0x9c
 2955 0537 69050000 		.4byte	0x569
 2956 053b 1A       		.uleb128 0x1a
 2957 053c 6E756D00 		.ascii	"num\000"
 2958 0540 01       		.byte	0x1
 2959 0541 0A01     		.2byte	0x10a
 2960 0543 76000000 		.4byte	0x76
 2961 0547 02       		.uleb128 0x2
 2962 0548 91       		.byte	0x91
 2963 0549 6F       		.sleb128 -17
 2964 054a 1B       		.uleb128 0x1b
 2965 054b 430A0000 		.4byte	.LASF110
 2966 054f 01       		.byte	0x1
 2967 0550 0A01     		.2byte	0x10a
 2968 0552 76000000 		.4byte	0x76
 2969 0556 02       		.uleb128 0x2
 2970 0557 91       		.byte	0x91
 2971 0558 6E       		.sleb128 -18
 2972 0559 1B       		.uleb128 0x1b
 2973 055a 330C0000 		.4byte	.LASF125
 2974 055e 01       		.byte	0x1
 2975 055f 0A01     		.2byte	0x10a
 2976 0561 76000000 		.4byte	0x76
 2977 0565 02       		.uleb128 0x2
 2978 0566 91       		.byte	0x91
 2979 0567 6D       		.sleb128 -19
 2980 0568 00       		.byte	0
 2981 0569 19       		.uleb128 0x19
 2982 056a 930B0000 		.4byte	.LASF126
 2983 056e 01       		.byte	0x1
 2984 056f 3F01     		.2byte	0x13f
 2985 0571 00000000 		.4byte	.LFB43
 2986 0575 08070000 		.4byte	.LFE43-.LFB43
 2987 0579 01       		.uleb128 0x1
 2988 057a 9C       		.byte	0x9c
 2989 057b 09060000 		.4byte	0x609
 2990 057f 1A       		.uleb128 0x1a
 2991 0580 6E756D00 		.ascii	"num\000"
 2992 0584 01       		.byte	0x1
 2993 0585 3F01     		.2byte	0x13f
 2994 0587 76000000 		.4byte	0x76
 2995 058b 02       		.uleb128 0x2
 2996 058c 91       		.byte	0x91
 2997 058d 67       		.sleb128 -25
 2998 058e 1B       		.uleb128 0x1b
 2999 058f 74060000 		.4byte	.LASF127
 3000 0593 01       		.byte	0x1
 3001 0594 3F01     		.2byte	0x13f
ARM GAS  C:\Users\alexport\AppData\Local\Temp\cc3nX14g.s 			page 64


 3002 0596 76000000 		.4byte	0x76
 3003 059a 02       		.uleb128 0x2
 3004 059b 91       		.byte	0x91
 3005 059c 66       		.sleb128 -26
 3006 059d 1B       		.uleb128 0x1b
 3007 059e 780B0000 		.4byte	.LASF128
 3008 05a2 01       		.byte	0x1
 3009 05a3 3F01     		.2byte	0x13f
 3010 05a5 76000000 		.4byte	0x76
 3011 05a9 02       		.uleb128 0x2
 3012 05aa 91       		.byte	0x91
 3013 05ab 65       		.sleb128 -27
 3014 05ac 1B       		.uleb128 0x1b
 3015 05ad A0030000 		.4byte	.LASF129
 3016 05b1 01       		.byte	0x1
 3017 05b2 3F01     		.2byte	0x13f
 3018 05b4 76000000 		.4byte	0x76
 3019 05b8 02       		.uleb128 0x2
 3020 05b9 91       		.byte	0x91
 3021 05ba 64       		.sleb128 -28
 3022 05bb 1C       		.uleb128 0x1c
 3023 05bc 38000000 		.4byte	.LBB8
 3024 05c0 3A000000 		.4byte	.LBE8-.LBB8
 3025 05c4 D6050000 		.4byte	0x5d6
 3026 05c8 18       		.uleb128 0x18
 3027 05c9 6900     		.ascii	"i\000"
 3028 05cb 01       		.byte	0x1
 3029 05cc 4301     		.2byte	0x143
 3030 05ce 76000000 		.4byte	0x76
 3031 05d2 02       		.uleb128 0x2
 3032 05d3 91       		.byte	0x91
 3033 05d4 6F       		.sleb128 -17
 3034 05d5 00       		.byte	0
 3035 05d6 1C       		.uleb128 0x1c
 3036 05d7 7A000000 		.4byte	.LBB9
 3037 05db 3A000000 		.4byte	.LBE9-.LBB9
 3038 05df F1050000 		.4byte	0x5f1
 3039 05e3 18       		.uleb128 0x18
 3040 05e4 6900     		.ascii	"i\000"
 3041 05e6 01       		.byte	0x1
 3042 05e7 4701     		.2byte	0x147
 3043 05e9 76000000 		.4byte	0x76
 3044 05ed 02       		.uleb128 0x2
 3045 05ee 91       		.byte	0x91
 3046 05ef 6E       		.sleb128 -18
 3047 05f0 00       		.byte	0
 3048 05f1 13       		.uleb128 0x13
 3049 05f2 B4000000 		.4byte	.LBB10
 3050 05f6 64000000 		.4byte	.LBE10-.LBB10
 3051 05fa 18       		.uleb128 0x18
 3052 05fb 6900     		.ascii	"i\000"
 3053 05fd 01       		.byte	0x1
 3054 05fe 4B01     		.2byte	0x14b
 3055 0600 76000000 		.4byte	0x76
 3056 0604 02       		.uleb128 0x2
 3057 0605 91       		.byte	0x91
 3058 0606 6D       		.sleb128 -19
ARM GAS  C:\Users\alexport\AppData\Local\Temp\cc3nX14g.s 			page 65


 3059 0607 00       		.byte	0
 3060 0608 00       		.byte	0
 3061 0609 1D       		.uleb128 0x1d
 3062 060a 5D010000 		.4byte	.LASF131
 3063 060e 01       		.byte	0x1
 3064 060f F501     		.2byte	0x1f5
 3065 0611 76000000 		.4byte	0x76
 3066 0615 00000000 		.4byte	.LFB44
 3067 0619 34000000 		.4byte	.LFE44-.LFB44
 3068 061d 01       		.uleb128 0x1
 3069 061e 9C       		.byte	0x9c
 3070 061f 32060000 		.4byte	0x632
 3071 0623 1A       		.uleb128 0x1a
 3072 0624 636800   		.ascii	"ch\000"
 3073 0627 01       		.byte	0x1
 3074 0628 F501     		.2byte	0x1f5
 3075 062a 76000000 		.4byte	0x76
 3076 062e 02       		.uleb128 0x2
 3077 062f 91       		.byte	0x91
 3078 0630 77       		.sleb128 -9
 3079 0631 00       		.byte	0
 3080 0632 11       		.uleb128 0x11
 3081 0633 5C030000 		.4byte	0x35c
 3082 0637 42060000 		.4byte	0x642
 3083 063b 12       		.uleb128 0x12
 3084 063c C1000000 		.4byte	0xc1
 3085 0640 03       		.byte	0x3
 3086 0641 00       		.byte	0
 3087 0642 1E       		.uleb128 0x1e
 3088 0643 8D020000 		.4byte	.LASF132
 3089 0647 01       		.byte	0x1
 3090 0648 20       		.byte	0x20
 3091 0649 32060000 		.4byte	0x632
 3092 064d 05       		.uleb128 0x5
 3093 064e 03       		.byte	0x3
 3094 064f 00000000 		.4byte	leds
 3095 0653 11       		.uleb128 0x11
 3096 0654 76000000 		.4byte	0x76
 3097 0658 63060000 		.4byte	0x663
 3098 065c 12       		.uleb128 0x12
 3099 065d C1000000 		.4byte	0xc1
 3100 0661 13       		.byte	0x13
 3101 0662 00       		.byte	0
 3102 0663 1E       		.uleb128 0x1e
 3103 0664 07020000 		.4byte	.LASF133
 3104 0668 01       		.byte	0x1
 3105 0669 4E       		.byte	0x4e
 3106 066a 53060000 		.4byte	0x653
 3107 066e 05       		.uleb128 0x5
 3108 066f 03       		.byte	0x3
 3109 0670 00000000 		.4byte	sineTable
 3110 0674 1E       		.uleb128 0x1e
 3111 0675 C9070000 		.4byte	.LASF134
 3112 0679 01       		.byte	0x1
 3113 067a 58       		.byte	0x58
 3114 067b 53060000 		.4byte	0x653
 3115 067f 05       		.uleb128 0x5
ARM GAS  C:\Users\alexport\AppData\Local\Temp\cc3nX14g.s 			page 66


 3116 0680 03       		.byte	0x3
 3117 0681 00000000 		.4byte	strobeTable
 3118 0685 00       		.byte	0
 3119              		.section	.debug_abbrev,"",%progbits
 3120              	.Ldebug_abbrev0:
 3121 0000 01       		.uleb128 0x1
 3122 0001 11       		.uleb128 0x11
 3123 0002 01       		.byte	0x1
 3124 0003 25       		.uleb128 0x25
 3125 0004 0E       		.uleb128 0xe
 3126 0005 13       		.uleb128 0x13
 3127 0006 0B       		.uleb128 0xb
 3128 0007 03       		.uleb128 0x3
 3129 0008 0E       		.uleb128 0xe
 3130 0009 1B       		.uleb128 0x1b
 3131 000a 0E       		.uleb128 0xe
 3132 000b 55       		.uleb128 0x55
 3133 000c 17       		.uleb128 0x17
 3134 000d 11       		.uleb128 0x11
 3135 000e 01       		.uleb128 0x1
 3136 000f 10       		.uleb128 0x10
 3137 0010 17       		.uleb128 0x17
 3138 0011 00       		.byte	0
 3139 0012 00       		.byte	0
 3140 0013 02       		.uleb128 0x2
 3141 0014 24       		.uleb128 0x24
 3142 0015 00       		.byte	0
 3143 0016 0B       		.uleb128 0xb
 3144 0017 0B       		.uleb128 0xb
 3145 0018 3E       		.uleb128 0x3e
 3146 0019 0B       		.uleb128 0xb
 3147 001a 03       		.uleb128 0x3
 3148 001b 0E       		.uleb128 0xe
 3149 001c 00       		.byte	0
 3150 001d 00       		.byte	0
 3151 001e 03       		.uleb128 0x3
 3152 001f 16       		.uleb128 0x16
 3153 0020 00       		.byte	0
 3154 0021 03       		.uleb128 0x3
 3155 0022 0E       		.uleb128 0xe
 3156 0023 3A       		.uleb128 0x3a
 3157 0024 0B       		.uleb128 0xb
 3158 0025 3B       		.uleb128 0x3b
 3159 0026 0B       		.uleb128 0xb
 3160 0027 49       		.uleb128 0x49
 3161 0028 13       		.uleb128 0x13
 3162 0029 00       		.byte	0
 3163 002a 00       		.byte	0
 3164 002b 04       		.uleb128 0x4
 3165 002c 24       		.uleb128 0x24
 3166 002d 00       		.byte	0
 3167 002e 0B       		.uleb128 0xb
 3168 002f 0B       		.uleb128 0xb
 3169 0030 3E       		.uleb128 0x3e
 3170 0031 0B       		.uleb128 0xb
 3171 0032 03       		.uleb128 0x3
 3172 0033 08       		.uleb128 0x8
ARM GAS  C:\Users\alexport\AppData\Local\Temp\cc3nX14g.s 			page 67


 3173 0034 00       		.byte	0
 3174 0035 00       		.byte	0
 3175 0036 05       		.uleb128 0x5
 3176 0037 16       		.uleb128 0x16
 3177 0038 00       		.byte	0
 3178 0039 03       		.uleb128 0x3
 3179 003a 0E       		.uleb128 0xe
 3180 003b 3A       		.uleb128 0x3a
 3181 003c 0B       		.uleb128 0xb
 3182 003d 3B       		.uleb128 0x3b
 3183 003e 05       		.uleb128 0x5
 3184 003f 49       		.uleb128 0x49
 3185 0040 13       		.uleb128 0x13
 3186 0041 00       		.byte	0
 3187 0042 00       		.byte	0
 3188 0043 06       		.uleb128 0x6
 3189 0044 04       		.uleb128 0x4
 3190 0045 01       		.byte	0x1
 3191 0046 0B       		.uleb128 0xb
 3192 0047 0B       		.uleb128 0xb
 3193 0048 49       		.uleb128 0x49
 3194 0049 13       		.uleb128 0x13
 3195 004a 3A       		.uleb128 0x3a
 3196 004b 0B       		.uleb128 0xb
 3197 004c 3B       		.uleb128 0x3b
 3198 004d 05       		.uleb128 0x5
 3199 004e 01       		.uleb128 0x1
 3200 004f 13       		.uleb128 0x13
 3201 0050 00       		.byte	0
 3202 0051 00       		.byte	0
 3203 0052 07       		.uleb128 0x7
 3204 0053 28       		.uleb128 0x28
 3205 0054 00       		.byte	0
 3206 0055 03       		.uleb128 0x3
 3207 0056 0E       		.uleb128 0xe
 3208 0057 1C       		.uleb128 0x1c
 3209 0058 0B       		.uleb128 0xb
 3210 0059 00       		.byte	0
 3211 005a 00       		.byte	0
 3212 005b 08       		.uleb128 0x8
 3213 005c 04       		.uleb128 0x4
 3214 005d 01       		.byte	0x1
 3215 005e 0B       		.uleb128 0xb
 3216 005f 0B       		.uleb128 0xb
 3217 0060 49       		.uleb128 0x49
 3218 0061 13       		.uleb128 0x13
 3219 0062 3A       		.uleb128 0x3a
 3220 0063 0B       		.uleb128 0xb
 3221 0064 3B       		.uleb128 0x3b
 3222 0065 0B       		.uleb128 0xb
 3223 0066 01       		.uleb128 0x1
 3224 0067 13       		.uleb128 0x13
 3225 0068 00       		.byte	0
 3226 0069 00       		.byte	0
 3227 006a 09       		.uleb128 0x9
 3228 006b 13       		.uleb128 0x13
 3229 006c 01       		.byte	0x1
ARM GAS  C:\Users\alexport\AppData\Local\Temp\cc3nX14g.s 			page 68


 3230 006d 0B       		.uleb128 0xb
 3231 006e 0B       		.uleb128 0xb
 3232 006f 3A       		.uleb128 0x3a
 3233 0070 0B       		.uleb128 0xb
 3234 0071 3B       		.uleb128 0x3b
 3235 0072 0B       		.uleb128 0xb
 3236 0073 01       		.uleb128 0x1
 3237 0074 13       		.uleb128 0x13
 3238 0075 00       		.byte	0
 3239 0076 00       		.byte	0
 3240 0077 0A       		.uleb128 0xa
 3241 0078 0D       		.uleb128 0xd
 3242 0079 00       		.byte	0
 3243 007a 03       		.uleb128 0x3
 3244 007b 0E       		.uleb128 0xe
 3245 007c 3A       		.uleb128 0x3a
 3246 007d 0B       		.uleb128 0xb
 3247 007e 3B       		.uleb128 0x3b
 3248 007f 0B       		.uleb128 0xb
 3249 0080 49       		.uleb128 0x49
 3250 0081 13       		.uleb128 0x13
 3251 0082 38       		.uleb128 0x38
 3252 0083 0B       		.uleb128 0xb
 3253 0084 00       		.byte	0
 3254 0085 00       		.byte	0
 3255 0086 0B       		.uleb128 0xb
 3256 0087 2E       		.uleb128 0x2e
 3257 0088 01       		.byte	0x1
 3258 0089 3F       		.uleb128 0x3f
 3259 008a 19       		.uleb128 0x19
 3260 008b 03       		.uleb128 0x3
 3261 008c 0E       		.uleb128 0xe
 3262 008d 3A       		.uleb128 0x3a
 3263 008e 0B       		.uleb128 0xb
 3264 008f 3B       		.uleb128 0x3b
 3265 0090 0B       		.uleb128 0xb
 3266 0091 27       		.uleb128 0x27
 3267 0092 19       		.uleb128 0x19
 3268 0093 49       		.uleb128 0x49
 3269 0094 13       		.uleb128 0x13
 3270 0095 11       		.uleb128 0x11
 3271 0096 01       		.uleb128 0x1
 3272 0097 12       		.uleb128 0x12
 3273 0098 06       		.uleb128 0x6
 3274 0099 40       		.uleb128 0x40
 3275 009a 18       		.uleb128 0x18
 3276 009b 9642     		.uleb128 0x2116
 3277 009d 19       		.uleb128 0x19
 3278 009e 01       		.uleb128 0x1
 3279 009f 13       		.uleb128 0x13
 3280 00a0 00       		.byte	0
 3281 00a1 00       		.byte	0
 3282 00a2 0C       		.uleb128 0xc
 3283 00a3 05       		.uleb128 0x5
 3284 00a4 00       		.byte	0
 3285 00a5 03       		.uleb128 0x3
 3286 00a6 08       		.uleb128 0x8
ARM GAS  C:\Users\alexport\AppData\Local\Temp\cc3nX14g.s 			page 69


 3287 00a7 3A       		.uleb128 0x3a
 3288 00a8 0B       		.uleb128 0xb
 3289 00a9 3B       		.uleb128 0x3b
 3290 00aa 0B       		.uleb128 0xb
 3291 00ab 49       		.uleb128 0x49
 3292 00ac 13       		.uleb128 0x13
 3293 00ad 02       		.uleb128 0x2
 3294 00ae 18       		.uleb128 0x18
 3295 00af 00       		.byte	0
 3296 00b0 00       		.byte	0
 3297 00b1 0D       		.uleb128 0xd
 3298 00b2 34       		.uleb128 0x34
 3299 00b3 00       		.byte	0
 3300 00b4 03       		.uleb128 0x3
 3301 00b5 0E       		.uleb128 0xe
 3302 00b6 3A       		.uleb128 0x3a
 3303 00b7 0B       		.uleb128 0xb
 3304 00b8 3B       		.uleb128 0x3b
 3305 00b9 0B       		.uleb128 0xb
 3306 00ba 49       		.uleb128 0x49
 3307 00bb 13       		.uleb128 0x13
 3308 00bc 02       		.uleb128 0x2
 3309 00bd 18       		.uleb128 0x18
 3310 00be 00       		.byte	0
 3311 00bf 00       		.byte	0
 3312 00c0 0E       		.uleb128 0xe
 3313 00c1 2E       		.uleb128 0x2e
 3314 00c2 01       		.byte	0x1
 3315 00c3 3F       		.uleb128 0x3f
 3316 00c4 19       		.uleb128 0x19
 3317 00c5 03       		.uleb128 0x3
 3318 00c6 0E       		.uleb128 0xe
 3319 00c7 3A       		.uleb128 0x3a
 3320 00c8 0B       		.uleb128 0xb
 3321 00c9 3B       		.uleb128 0x3b
 3322 00ca 0B       		.uleb128 0xb
 3323 00cb 27       		.uleb128 0x27
 3324 00cc 19       		.uleb128 0x19
 3325 00cd 11       		.uleb128 0x11
 3326 00ce 01       		.uleb128 0x1
 3327 00cf 12       		.uleb128 0x12
 3328 00d0 06       		.uleb128 0x6
 3329 00d1 40       		.uleb128 0x40
 3330 00d2 18       		.uleb128 0x18
 3331 00d3 9642     		.uleb128 0x2116
 3332 00d5 19       		.uleb128 0x19
 3333 00d6 01       		.uleb128 0x1
 3334 00d7 13       		.uleb128 0x13
 3335 00d8 00       		.byte	0
 3336 00d9 00       		.byte	0
 3337 00da 0F       		.uleb128 0xf
 3338 00db 05       		.uleb128 0x5
 3339 00dc 00       		.byte	0
 3340 00dd 03       		.uleb128 0x3
 3341 00de 0E       		.uleb128 0xe
 3342 00df 3A       		.uleb128 0x3a
 3343 00e0 0B       		.uleb128 0xb
ARM GAS  C:\Users\alexport\AppData\Local\Temp\cc3nX14g.s 			page 70


 3344 00e1 3B       		.uleb128 0x3b
 3345 00e2 0B       		.uleb128 0xb
 3346 00e3 49       		.uleb128 0x49
 3347 00e4 13       		.uleb128 0x13
 3348 00e5 02       		.uleb128 0x2
 3349 00e6 18       		.uleb128 0x18
 3350 00e7 00       		.byte	0
 3351 00e8 00       		.byte	0
 3352 00e9 10       		.uleb128 0x10
 3353 00ea 34       		.uleb128 0x34
 3354 00eb 00       		.byte	0
 3355 00ec 03       		.uleb128 0x3
 3356 00ed 08       		.uleb128 0x8
 3357 00ee 3A       		.uleb128 0x3a
 3358 00ef 0B       		.uleb128 0xb
 3359 00f0 3B       		.uleb128 0x3b
 3360 00f1 0B       		.uleb128 0xb
 3361 00f2 49       		.uleb128 0x49
 3362 00f3 13       		.uleb128 0x13
 3363 00f4 02       		.uleb128 0x2
 3364 00f5 18       		.uleb128 0x18
 3365 00f6 00       		.byte	0
 3366 00f7 00       		.byte	0
 3367 00f8 11       		.uleb128 0x11
 3368 00f9 01       		.uleb128 0x1
 3369 00fa 01       		.byte	0x1
 3370 00fb 49       		.uleb128 0x49
 3371 00fc 13       		.uleb128 0x13
 3372 00fd 01       		.uleb128 0x1
 3373 00fe 13       		.uleb128 0x13
 3374 00ff 00       		.byte	0
 3375 0100 00       		.byte	0
 3376 0101 12       		.uleb128 0x12
 3377 0102 21       		.uleb128 0x21
 3378 0103 00       		.byte	0
 3379 0104 49       		.uleb128 0x49
 3380 0105 13       		.uleb128 0x13
 3381 0106 2F       		.uleb128 0x2f
 3382 0107 0B       		.uleb128 0xb
 3383 0108 00       		.byte	0
 3384 0109 00       		.byte	0
 3385 010a 13       		.uleb128 0x13
 3386 010b 0B       		.uleb128 0xb
 3387 010c 01       		.byte	0x1
 3388 010d 11       		.uleb128 0x11
 3389 010e 01       		.uleb128 0x1
 3390 010f 12       		.uleb128 0x12
 3391 0110 06       		.uleb128 0x6
 3392 0111 00       		.byte	0
 3393 0112 00       		.byte	0
 3394 0113 14       		.uleb128 0x14
 3395 0114 0B       		.uleb128 0xb
 3396 0115 01       		.byte	0x1
 3397 0116 55       		.uleb128 0x55
 3398 0117 17       		.uleb128 0x17
 3399 0118 01       		.uleb128 0x1
 3400 0119 13       		.uleb128 0x13
ARM GAS  C:\Users\alexport\AppData\Local\Temp\cc3nX14g.s 			page 71


 3401 011a 00       		.byte	0
 3402 011b 00       		.byte	0
 3403 011c 15       		.uleb128 0x15
 3404 011d 0B       		.uleb128 0xb
 3405 011e 01       		.byte	0x1
 3406 011f 55       		.uleb128 0x55
 3407 0120 17       		.uleb128 0x17
 3408 0121 00       		.byte	0
 3409 0122 00       		.byte	0
 3410 0123 16       		.uleb128 0x16
 3411 0124 0F       		.uleb128 0xf
 3412 0125 00       		.byte	0
 3413 0126 0B       		.uleb128 0xb
 3414 0127 0B       		.uleb128 0xb
 3415 0128 49       		.uleb128 0x49
 3416 0129 13       		.uleb128 0x13
 3417 012a 00       		.byte	0
 3418 012b 00       		.byte	0
 3419 012c 17       		.uleb128 0x17
 3420 012d 2E       		.uleb128 0x2e
 3421 012e 01       		.byte	0x1
 3422 012f 3F       		.uleb128 0x3f
 3423 0130 19       		.uleb128 0x19
 3424 0131 03       		.uleb128 0x3
 3425 0132 0E       		.uleb128 0xe
 3426 0133 3A       		.uleb128 0x3a
 3427 0134 0B       		.uleb128 0xb
 3428 0135 3B       		.uleb128 0x3b
 3429 0136 05       		.uleb128 0x5
 3430 0137 11       		.uleb128 0x11
 3431 0138 01       		.uleb128 0x1
 3432 0139 12       		.uleb128 0x12
 3433 013a 06       		.uleb128 0x6
 3434 013b 40       		.uleb128 0x40
 3435 013c 18       		.uleb128 0x18
 3436 013d 9642     		.uleb128 0x2116
 3437 013f 19       		.uleb128 0x19
 3438 0140 01       		.uleb128 0x1
 3439 0141 13       		.uleb128 0x13
 3440 0142 00       		.byte	0
 3441 0143 00       		.byte	0
 3442 0144 18       		.uleb128 0x18
 3443 0145 34       		.uleb128 0x34
 3444 0146 00       		.byte	0
 3445 0147 03       		.uleb128 0x3
 3446 0148 08       		.uleb128 0x8
 3447 0149 3A       		.uleb128 0x3a
 3448 014a 0B       		.uleb128 0xb
 3449 014b 3B       		.uleb128 0x3b
 3450 014c 05       		.uleb128 0x5
 3451 014d 49       		.uleb128 0x49
 3452 014e 13       		.uleb128 0x13
 3453 014f 02       		.uleb128 0x2
 3454 0150 18       		.uleb128 0x18
 3455 0151 00       		.byte	0
 3456 0152 00       		.byte	0
 3457 0153 19       		.uleb128 0x19
ARM GAS  C:\Users\alexport\AppData\Local\Temp\cc3nX14g.s 			page 72


 3458 0154 2E       		.uleb128 0x2e
 3459 0155 01       		.byte	0x1
 3460 0156 3F       		.uleb128 0x3f
 3461 0157 19       		.uleb128 0x19
 3462 0158 03       		.uleb128 0x3
 3463 0159 0E       		.uleb128 0xe
 3464 015a 3A       		.uleb128 0x3a
 3465 015b 0B       		.uleb128 0xb
 3466 015c 3B       		.uleb128 0x3b
 3467 015d 05       		.uleb128 0x5
 3468 015e 27       		.uleb128 0x27
 3469 015f 19       		.uleb128 0x19
 3470 0160 11       		.uleb128 0x11
 3471 0161 01       		.uleb128 0x1
 3472 0162 12       		.uleb128 0x12
 3473 0163 06       		.uleb128 0x6
 3474 0164 40       		.uleb128 0x40
 3475 0165 18       		.uleb128 0x18
 3476 0166 9742     		.uleb128 0x2117
 3477 0168 19       		.uleb128 0x19
 3478 0169 01       		.uleb128 0x1
 3479 016a 13       		.uleb128 0x13
 3480 016b 00       		.byte	0
 3481 016c 00       		.byte	0
 3482 016d 1A       		.uleb128 0x1a
 3483 016e 05       		.uleb128 0x5
 3484 016f 00       		.byte	0
 3485 0170 03       		.uleb128 0x3
 3486 0171 08       		.uleb128 0x8
 3487 0172 3A       		.uleb128 0x3a
 3488 0173 0B       		.uleb128 0xb
 3489 0174 3B       		.uleb128 0x3b
 3490 0175 05       		.uleb128 0x5
 3491 0176 49       		.uleb128 0x49
 3492 0177 13       		.uleb128 0x13
 3493 0178 02       		.uleb128 0x2
 3494 0179 18       		.uleb128 0x18
 3495 017a 00       		.byte	0
 3496 017b 00       		.byte	0
 3497 017c 1B       		.uleb128 0x1b
 3498 017d 05       		.uleb128 0x5
 3499 017e 00       		.byte	0
 3500 017f 03       		.uleb128 0x3
 3501 0180 0E       		.uleb128 0xe
 3502 0181 3A       		.uleb128 0x3a
 3503 0182 0B       		.uleb128 0xb
 3504 0183 3B       		.uleb128 0x3b
 3505 0184 05       		.uleb128 0x5
 3506 0185 49       		.uleb128 0x49
 3507 0186 13       		.uleb128 0x13
 3508 0187 02       		.uleb128 0x2
 3509 0188 18       		.uleb128 0x18
 3510 0189 00       		.byte	0
 3511 018a 00       		.byte	0
 3512 018b 1C       		.uleb128 0x1c
 3513 018c 0B       		.uleb128 0xb
 3514 018d 01       		.byte	0x1
ARM GAS  C:\Users\alexport\AppData\Local\Temp\cc3nX14g.s 			page 73


 3515 018e 11       		.uleb128 0x11
 3516 018f 01       		.uleb128 0x1
 3517 0190 12       		.uleb128 0x12
 3518 0191 06       		.uleb128 0x6
 3519 0192 01       		.uleb128 0x1
 3520 0193 13       		.uleb128 0x13
 3521 0194 00       		.byte	0
 3522 0195 00       		.byte	0
 3523 0196 1D       		.uleb128 0x1d
 3524 0197 2E       		.uleb128 0x2e
 3525 0198 01       		.byte	0x1
 3526 0199 3F       		.uleb128 0x3f
 3527 019a 19       		.uleb128 0x19
 3528 019b 03       		.uleb128 0x3
 3529 019c 0E       		.uleb128 0xe
 3530 019d 3A       		.uleb128 0x3a
 3531 019e 0B       		.uleb128 0xb
 3532 019f 3B       		.uleb128 0x3b
 3533 01a0 05       		.uleb128 0x5
 3534 01a1 27       		.uleb128 0x27
 3535 01a2 19       		.uleb128 0x19
 3536 01a3 49       		.uleb128 0x49
 3537 01a4 13       		.uleb128 0x13
 3538 01a5 11       		.uleb128 0x11
 3539 01a6 01       		.uleb128 0x1
 3540 01a7 12       		.uleb128 0x12
 3541 01a8 06       		.uleb128 0x6
 3542 01a9 40       		.uleb128 0x40
 3543 01aa 18       		.uleb128 0x18
 3544 01ab 9742     		.uleb128 0x2117
 3545 01ad 19       		.uleb128 0x19
 3546 01ae 01       		.uleb128 0x1
 3547 01af 13       		.uleb128 0x13
 3548 01b0 00       		.byte	0
 3549 01b1 00       		.byte	0
 3550 01b2 1E       		.uleb128 0x1e
 3551 01b3 34       		.uleb128 0x34
 3552 01b4 00       		.byte	0
 3553 01b5 03       		.uleb128 0x3
 3554 01b6 0E       		.uleb128 0xe
 3555 01b7 3A       		.uleb128 0x3a
 3556 01b8 0B       		.uleb128 0xb
 3557 01b9 3B       		.uleb128 0x3b
 3558 01ba 0B       		.uleb128 0xb
 3559 01bb 49       		.uleb128 0x49
 3560 01bc 13       		.uleb128 0x13
 3561 01bd 3F       		.uleb128 0x3f
 3562 01be 19       		.uleb128 0x19
 3563 01bf 02       		.uleb128 0x2
 3564 01c0 18       		.uleb128 0x18
 3565 01c1 00       		.byte	0
 3566 01c2 00       		.byte	0
 3567 01c3 00       		.byte	0
 3568              		.section	.debug_aranges,"",%progbits
 3569 0000 64000000 		.4byte	0x64
 3570 0004 0200     		.2byte	0x2
 3571 0006 00000000 		.4byte	.Ldebug_info0
ARM GAS  C:\Users\alexport\AppData\Local\Temp\cc3nX14g.s 			page 74


 3572 000a 04       		.byte	0x4
 3573 000b 00       		.byte	0
 3574 000c 0000     		.2byte	0
 3575 000e 0000     		.2byte	0
 3576 0010 00000000 		.4byte	.LFB35
 3577 0014 58000000 		.4byte	.LFE35-.LFB35
 3578 0018 00000000 		.4byte	.LFB36
 3579 001c 4A000000 		.4byte	.LFE36-.LFB36
 3580 0020 00000000 		.4byte	.LFB37
 3581 0024 70000000 		.4byte	.LFE37-.LFB37
 3582 0028 00000000 		.4byte	.LFB38
 3583 002c 34000000 		.4byte	.LFE38-.LFB38
 3584 0030 00000000 		.4byte	.LFB39
 3585 0034 BE000000 		.4byte	.LFE39-.LFB39
 3586 0038 00000000 		.4byte	.LFB40
 3587 003c A8010000 		.4byte	.LFE40-.LFB40
 3588 0040 00000000 		.4byte	.LFB41
 3589 0044 38000000 		.4byte	.LFE41-.LFB41
 3590 0048 00000000 		.4byte	.LFB42
 3591 004c 28010000 		.4byte	.LFE42-.LFB42
 3592 0050 00000000 		.4byte	.LFB43
 3593 0054 08070000 		.4byte	.LFE43-.LFB43
 3594 0058 00000000 		.4byte	.LFB44
 3595 005c 34000000 		.4byte	.LFE44-.LFB44
 3596 0060 00000000 		.4byte	0
 3597 0064 00000000 		.4byte	0
 3598              		.section	.debug_ranges,"",%progbits
 3599              	.Ldebug_ranges0:
 3600 0000 48000000 		.4byte	.LBB3
 3601 0004 EC000000 		.4byte	.LBE3
 3602 0008 90010000 		.4byte	.LBB5
 3603 000c 94010000 		.4byte	.LBE5
 3604 0010 00000000 		.4byte	0
 3605 0014 00000000 		.4byte	0
 3606 0018 EC000000 		.4byte	.LBB4
 3607 001c 90010000 		.4byte	.LBE4
 3608 0020 94010000 		.4byte	.LBB6
 3609 0024 96010000 		.4byte	.LBE6
 3610 0028 00000000 		.4byte	0
 3611 002c 00000000 		.4byte	0
 3612 0030 00000000 		.4byte	.LFB35
 3613 0034 58000000 		.4byte	.LFE35
 3614 0038 00000000 		.4byte	.LFB36
 3615 003c 4A000000 		.4byte	.LFE36
 3616 0040 00000000 		.4byte	.LFB37
 3617 0044 70000000 		.4byte	.LFE37
 3618 0048 00000000 		.4byte	.LFB38
 3619 004c 34000000 		.4byte	.LFE38
 3620 0050 00000000 		.4byte	.LFB39
 3621 0054 BE000000 		.4byte	.LFE39
 3622 0058 00000000 		.4byte	.LFB40
 3623 005c A8010000 		.4byte	.LFE40
 3624 0060 00000000 		.4byte	.LFB41
 3625 0064 38000000 		.4byte	.LFE41
 3626 0068 00000000 		.4byte	.LFB42
 3627 006c 28010000 		.4byte	.LFE42
 3628 0070 00000000 		.4byte	.LFB43
ARM GAS  C:\Users\alexport\AppData\Local\Temp\cc3nX14g.s 			page 75


 3629 0074 08070000 		.4byte	.LFE43
 3630 0078 00000000 		.4byte	.LFB44
 3631 007c 34000000 		.4byte	.LFE44
 3632 0080 00000000 		.4byte	0
 3633 0084 00000000 		.4byte	0
 3634              		.section	.debug_line,"",%progbits
 3635              	.Ldebug_line0:
 3636 0000 99030000 		.section	.debug_str,"MS",%progbits,1
 3636      02005B01 
 3636      00000201 
 3636      FB0E0D00 
 3636      01010101 
 3637              	.LASF83:
 3638 0000 4359424C 		.ascii	"CYBLE_EVT_L2CAP_CBFC_RX_CREDIT_IND\000"
 3638      455F4556 
 3638      545F4C32 
 3638      4341505F 
 3638      43424643 
 3639              	.LASF24:
 3640 0023 4359424C 		.ascii	"CYBLE_EVT_STACK_BUSY_STATUS\000"
 3640      455F4556 
 3640      545F5354 
 3640      41434B5F 
 3640      42555359 
 3641              	.LASF123:
 3642 003f 7363616C 		.ascii	"scale\000"
 3642      6500
 3643              	.LASF82:
 3644 0045 4359424C 		.ascii	"CYBLE_EVT_L2CAP_CBFC_DATA_READ\000"
 3644      455F4556 
 3644      545F4C32 
 3644      4341505F 
 3644      43424643 
 3645              	.LASF36:
 3646 0064 4359424C 		.ascii	"CYBLE_EVT_GAP_CONNECTION_UPDATE_COMPLETE\000"
 3646      455F4556 
 3646      545F4741 
 3646      505F434F 
 3646      4E4E4543 
 3647              	.LASF108:
 3648 008d 675F6261 		.ascii	"g_base\000"
 3648      736500
 3649              	.LASF81:
 3650 0094 4359424C 		.ascii	"CYBLE_EVT_L2CAP_CBFC_DISCONN_CNF\000"
 3650      455F4556 
 3650      545F4C32 
 3650      4341505F 
 3650      43424643 
 3651              	.LASF41:
 3652 00b5 4359424C 		.ascii	"CYBLE_EVT_GAP_OOB_GENERATED_NOTIFICATION\000"
 3652      455F4556 
 3652      545F4741 
 3652      505F4F4F 
 3652      425F4745 
 3653              	.LASF61:
 3654 00de 4359424C 		.ascii	"CYBLE_EVT_GATTC_READ_MULTI_RSP\000"
 3654      455F4556 
ARM GAS  C:\Users\alexport\AppData\Local\Temp\cc3nX14g.s 			page 76


 3654      545F4741 
 3654      5454435F 
 3654      52454144 
 3655              	.LASF9:
 3656 00fd 5F5F7569 		.ascii	"__uint8_t\000"
 3656      6E74385F 
 3656      7400
 3657              	.LASF112:
 3658 0107 64697265 		.ascii	"direction\000"
 3658      6374696F 
 3658      6E00
 3659              	.LASF21:
 3660 0111 4359424C 		.ascii	"CYBLE_EVT_TIMEOUT\000"
 3660      455F4556 
 3660      545F5449 
 3660      4D454F55 
 3660      5400
 3661              	.LASF4:
 3662 0123 6C6F6E67 		.ascii	"long int\000"
 3662      20696E74 
 3662      00
 3663              	.LASF122:
 3664 012c 544C435F 		.ascii	"TLC_UpdateRGBLED\000"
 3664      55706461 
 3664      74655247 
 3664      424C4544 
 3664      00
 3665              	.LASF7:
 3666 013d 6C6F6E67 		.ascii	"long long unsigned int\000"
 3666      206C6F6E 
 3666      6720756E 
 3666      7369676E 
 3666      65642069 
 3667              	.LASF101:
 3668 0154 4D4F4445 		.ascii	"MODE_OFF\000"
 3668      5F4F4646 
 3668      00
 3669              	.LASF131:
 3670 015d 73797374 		.ascii	"system_IsLEDInBreathMode\000"
 3670      656D5F49 
 3670      734C4544 
 3670      496E4272 
 3670      65617468 
 3671              	.LASF86:
 3672 0176 4359424C 		.ascii	"CYBLE_EVT_PENDING_FLASH_WRITE\000"
 3672      455F4556 
 3672      545F5045 
 3672      4E44494E 
 3672      475F464C 
 3673              	.LASF75:
 3674 0194 4359424C 		.ascii	"CYBLE_EVT_L2CAP_CONN_PARAM_UPDATE_REQ\000"
 3674      455F4556 
 3674      545F4C32 
 3674      4341505F 
 3674      434F4E4E 
 3675              	.LASF109:
 3676 01ba 625F6261 		.ascii	"b_base\000"
ARM GAS  C:\Users\alexport\AppData\Local\Temp\cc3nX14g.s 			page 77


 3676      736500
 3677              	.LASF35:
 3678 01c1 4359424C 		.ascii	"CYBLE_EVT_GAP_ENCRYPT_CHANGE\000"
 3678      455F4556 
 3678      545F4741 
 3678      505F454E 
 3678      43525950 
 3679              	.LASF39:
 3680 01de 4359424C 		.ascii	"CYBLE_EVT_GAP_NUMERIC_COMPARISON_REQUEST\000"
 3680      455F4556 
 3680      545F4741 
 3680      505F4E55 
 3680      4D455249 
 3681              	.LASF133:
 3682 0207 73696E65 		.ascii	"sineTable\000"
 3682      5461626C 
 3682      6500
 3683              	.LASF6:
 3684 0211 6C6F6E67 		.ascii	"long long int\000"
 3684      206C6F6E 
 3684      6720696E 
 3684      7400
 3685              	.LASF0:
 3686 021f 7369676E 		.ascii	"signed char\000"
 3686      65642063 
 3686      68617200 
 3687              	.LASF20:
 3688 022b 4359424C 		.ascii	"CYBLE_EVT_STACK_ON\000"
 3688      455F4556 
 3688      545F5354 
 3688      41434B5F 
 3688      4F4E00
 3689              	.LASF115:
 3690 023e 544C435F 		.ascii	"TLC_WriteReg\000"
 3690      57726974 
 3690      65526567 
 3690      00
 3691              	.LASF130:
 3692 024b 544C435F 		.ascii	"TLC_ReadReg\000"
 3692      52656164 
 3692      52656700 
 3693              	.LASF37:
 3694 0257 4359424C 		.ascii	"CYBLE_EVT_GAPC_SCAN_START_STOP\000"
 3694      455F4556 
 3694      545F4741 
 3694      50435F53 
 3694      43414E5F 
 3695              	.LASF27:
 3696 0276 4359424C 		.ascii	"CYBLE_EVT_GAP_AUTH_REQ\000"
 3696      455F4556 
 3696      545F4741 
 3696      505F4155 
 3696      54485F52 
 3697              	.LASF132:
 3698 028d 6C656473 		.ascii	"leds\000"
 3698      00
 3699              	.LASF59:
ARM GAS  C:\Users\alexport\AppData\Local\Temp\cc3nX14g.s 			page 78


 3700 0292 4359424C 		.ascii	"CYBLE_EVT_GATTC_READ_RSP\000"
 3700      455F4556 
 3700      545F4741 
 3700      5454435F 
 3700      52454144 
 3701              	.LASF64:
 3702 02ab 4359424C 		.ascii	"CYBLE_EVT_GATTS_WRITE_CMD_REQ\000"
 3702      455F4556 
 3702      545F4741 
 3702      5454535F 
 3702      57524954 
 3703              	.LASF32:
 3704 02c9 4359424C 		.ascii	"CYBLE_EVT_GAPP_ADVERTISEMENT_START_STOP\000"
 3704      455F4556 
 3704      545F4741 
 3704      50505F41 
 3704      44564552 
 3705              	.LASF53:
 3706 02f1 4359424C 		.ascii	"CYBLE_EVT_GATTS_XCNHG_MTU_REQ\000"
 3706      455F4556 
 3706      545F4741 
 3706      5454535F 
 3706      58434E48 
 3707              	.LASF67:
 3708 030f 4359424C 		.ascii	"CYBLE_EVT_GATTC_EXEC_WRITE_RSP\000"
 3708      455F4556 
 3708      545F4741 
 3708      5454435F 
 3708      45584543 
 3709              	.LASF15:
 3710 032e 646F7562 		.ascii	"double\000"
 3710      6C6500
 3711              	.LASF95:
 3712 0335 4359424C 		.ascii	"CYBLE_DIS_FIRMWARE_REV\000"
 3712      455F4449 
 3712      535F4649 
 3712      524D5741 
 3712      52455F52 
 3713              	.LASF120:
 3714 034c 544C435F 		.ascii	"TLC_SetRGB\000"
 3714      53657452 
 3714      474200
 3715              	.LASF94:
 3716 0357 4359424C 		.ascii	"CYBLE_DIS_HARDWARE_REV\000"
 3716      455F4449 
 3716      535F4841 
 3716      52445741 
 3716      52455F52 
 3717              	.LASF90:
 3718 036e 4359424C 		.ascii	"CYBLE_EVT_MAX\000"
 3718      455F4556 
 3718      545F4D41 
 3718      5800
 3719              	.LASF85:
 3720 037c 4359424C 		.ascii	"CYBLE_EVT_L2CAP_CBFC_DATA_WRITE_IND\000"
 3720      455F4556 
 3720      545F4C32 
ARM GAS  C:\Users\alexport\AppData\Local\Temp\cc3nX14g.s 			page 79


 3720      4341505F 
 3720      43424643 
 3721              	.LASF129:
 3722 03a0 646F7562 		.ascii	"doubleCh\000"
 3722      6C654368 
 3722      00
 3723              	.LASF47:
 3724 03a9 4359424C 		.ascii	"CYBLE_EVT_GAP_SCAN_REQ_RECVD\000"
 3724      455F4556 
 3724      545F4741 
 3724      505F5343 
 3724      414E5F52 
 3725              	.LASF114:
 3726 03c6 76616C75 		.ascii	"value\000"
 3726      6500
 3727              	.LASF72:
 3728 03cc 4359424C 		.ascii	"CYBLE_EVT_GATTC_STOP_CMD_COMPLETE\000"
 3728      455F4556 
 3728      545F4741 
 3728      5454435F 
 3728      53544F50 
 3729              	.LASF8:
 3730 03ee 756E7369 		.ascii	"unsigned int\000"
 3730      676E6564 
 3730      20696E74 
 3730      00
 3731              	.LASF87:
 3732 03fb 4359424C 		.ascii	"CYBLE_EVT_LE_PING_AUTH_TIMEOUT\000"
 3732      455F4556 
 3732      545F4C45 
 3732      5F50494E 
 3732      475F4155 
 3733              	.LASF116:
 3734 041a 544C435F 		.ascii	"TLC_Init\000"
 3734      496E6974 
 3734      00
 3735              	.LASF46:
 3736 0423 4359424C 		.ascii	"CYBLE_EVT_GAP_CONN_ESTB\000"
 3736      455F4556 
 3736      545F4741 
 3736      505F434F 
 3736      4E4E5F45 
 3737              	.LASF138:
 3738 043b 4C45445F 		.ascii	"LED_Update\000"
 3738      55706461 
 3738      746500
 3739              	.LASF62:
 3740 0446 4359424C 		.ascii	"CYBLE_EVT_GATTS_WRITE_REQ\000"
 3740      455F4556 
 3740      545F4741 
 3740      5454535F 
 3740      57524954 
 3741              	.LASF54:
 3742 0460 4359424C 		.ascii	"CYBLE_EVT_GATTC_XCHNG_MTU_RSP\000"
 3742      455F4556 
 3742      545F4741 
 3742      5454435F 
ARM GAS  C:\Users\alexport\AppData\Local\Temp\cc3nX14g.s 			page 80


 3742      5843484E 
 3743              	.LASF71:
 3744 047e 4359424C 		.ascii	"CYBLE_EVT_GATTS_DATA_SIGNED_CMD_REQ\000"
 3744      455F4556 
 3744      545F4741 
 3744      5454535F 
 3744      44415441 
 3745              	.LASF74:
 3746 04a2 4359424C 		.ascii	"CYBLE_EVT_GATTC_LONG_PROCEDURE_END\000"
 3746      455F4556 
 3746      545F4741 
 3746      5454435F 
 3746      4C4F4E47 
 3747              	.LASF136:
 3748 04c5 6C65642E 		.ascii	"led.c\000"
 3748      6300
 3749              	.LASF11:
 3750 04cb 75696E74 		.ascii	"uint8\000"
 3750      3800
 3751              	.LASF3:
 3752 04d1 73686F72 		.ascii	"short unsigned int\000"
 3752      7420756E 
 3752      7369676E 
 3752      65642069 
 3752      6E7400
 3753              	.LASF19:
 3754 04e4 4359424C 		.ascii	"CYBLE_EVT_HOST_INVALID\000"
 3754      455F4556 
 3754      545F484F 
 3754      53545F49 
 3754      4E56414C 
 3755              	.LASF57:
 3756 04fb 4359424C 		.ascii	"CYBLE_EVT_GATTC_FIND_INFO_RSP\000"
 3756      455F4556 
 3756      545F4741 
 3756      5454435F 
 3756      46494E44 
 3757              	.LASF25:
 3758 0519 4359424C 		.ascii	"CYBLE_EVT_MEMORY_REQUEST\000"
 3758      455F4556 
 3758      545F4D45 
 3758      4D4F5259 
 3758      5F524551 
 3759              	.LASF13:
 3760 0532 696E7438 		.ascii	"int8\000"
 3760      00
 3761              	.LASF66:
 3762 0537 4359424C 		.ascii	"CYBLE_EVT_GATTS_EXEC_WRITE_REQ\000"
 3762      455F4556 
 3762      545F4741 
 3762      5454535F 
 3762      45584543 
 3763              	.LASF28:
 3764 0556 4359424C 		.ascii	"CYBLE_EVT_GAP_PASSKEY_ENTRY_REQUEST\000"
 3764      455F4556 
 3764      545F4741 
 3764      505F5041 
ARM GAS  C:\Users\alexport\AppData\Local\Temp\cc3nX14g.s 			page 81


 3764      53534B45 
 3765              	.LASF33:
 3766 057a 4359424C 		.ascii	"CYBLE_EVT_GAP_DEVICE_CONNECTED\000"
 3766      455F4556 
 3766      545F4741 
 3766      505F4445 
 3766      56494345 
 3767              	.LASF48:
 3768 0599 4359424C 		.ascii	"CYBLE_EVT_GAP_AUTH_REQ_REPLY_ERR\000"
 3768      455F4556 
 3768      545F4741 
 3768      505F4155 
 3768      54485F52 
 3769              	.LASF99:
 3770 05ba 4359424C 		.ascii	"CYBLE_DIS_PNP_ID\000"
 3770      455F4449 
 3770      535F504E 
 3770      505F4944 
 3770      00
 3771              	.LASF135:
 3772 05cb 474E5520 		.ascii	"GNU C11 5.4.1 20160609 (release) [ARM/embedded-5-br"
 3772      43313120 
 3772      352E342E 
 3772      31203230 
 3772      31363036 
 3773 05fe 616E6368 		.ascii	"anch revision 237715] -mcpu=cortex-m0 -mthumb -g -O"
 3773      20726576 
 3773      6973696F 
 3773      6E203233 
 3773      37373135 
 3774 0631 30202D66 		.ascii	"0 -ffunction-sections -ffat-lto-objects\000"
 3774      66756E63 
 3774      74696F6E 
 3774      2D736563 
 3774      74696F6E 
 3775              	.LASF51:
 3776 0659 4359424C 		.ascii	"CYBLE_EVT_GATT_CONNECT_IND\000"
 3776      455F4556 
 3776      545F4741 
 3776      54545F43 
 3776      4F4E4E45 
 3777              	.LASF127:
 3778 0674 636F6C6F 		.ascii	"color\000"
 3778      7200
 3779              	.LASF77:
 3780 067a 4359424C 		.ascii	"CYBLE_EVT_L2CAP_COMMAND_REJ\000"
 3780      455F4556 
 3780      545F4C32 
 3780      4341505F 
 3780      434F4D4D 
 3781              	.LASF26:
 3782 0696 4359424C 		.ascii	"CYBLE_EVT_GAPC_SCAN_PROGRESS_RESULT\000"
 3782      455F4556 
 3782      545F4741 
 3782      50435F53 
 3782      43414E5F 
 3783              	.LASF97:
ARM GAS  C:\Users\alexport\AppData\Local\Temp\cc3nX14g.s 			page 82


 3784 06ba 4359424C 		.ascii	"CYBLE_DIS_SYSTEM_ID\000"
 3784      455F4449 
 3784      535F5359 
 3784      5354454D 
 3784      5F494400 
 3785              	.LASF49:
 3786 06ce 4359424C 		.ascii	"CYBLE_EVT_GAP_SMP_LOC_P256_KEYS_GEN_AND_SET_COMPLET"
 3786      455F4556 
 3786      545F4741 
 3786      505F534D 
 3786      505F4C4F 
 3787 0701 4500     		.ascii	"E\000"
 3788              	.LASF103:
 3789 0703 4D4F4445 		.ascii	"MODE_BREATHING\000"
 3789      5F425245 
 3789      41544849 
 3789      4E4700
 3790              	.LASF34:
 3791 0712 4359424C 		.ascii	"CYBLE_EVT_GAP_DEVICE_DISCONNECTED\000"
 3791      455F4556 
 3791      545F4741 
 3791      505F4445 
 3791      56494345 
 3792              	.LASF78:
 3793 0734 4359424C 		.ascii	"CYBLE_EVT_L2CAP_CBFC_CONN_IND\000"
 3793      455F4556 
 3793      545F4C32 
 3793      4341505F 
 3793      43424643 
 3794              	.LASF56:
 3795 0752 4359424C 		.ascii	"CYBLE_EVT_GATTC_READ_BY_TYPE_RSP\000"
 3795      455F4556 
 3795      545F4741 
 3795      5454435F 
 3795      52454144 
 3796              	.LASF18:
 3797 0773 73697A65 		.ascii	"sizetype\000"
 3797      74797065 
 3797      00
 3798              	.LASF17:
 3799 077c 6C6F6E67 		.ascii	"long double\000"
 3799      20646F75 
 3799      626C6500 
 3800              	.LASF121:
 3801 0788 62617365 		.ascii	"base_channel\000"
 3801      5F636861 
 3801      6E6E656C 
 3801      00
 3802              	.LASF31:
 3803 0795 4359424C 		.ascii	"CYBLE_EVT_GAP_AUTH_FAILED\000"
 3803      455F4556 
 3803      545F4741 
 3803      505F4155 
 3803      54485F46 
 3804              	.LASF63:
 3805 07af 4359424C 		.ascii	"CYBLE_EVT_GATTC_WRITE_RSP\000"
 3805      455F4556 
ARM GAS  C:\Users\alexport\AppData\Local\Temp\cc3nX14g.s 			page 83


 3805      545F4741 
 3805      5454435F 
 3805      57524954 
 3806              	.LASF134:
 3807 07c9 7374726F 		.ascii	"strobeTable\000"
 3807      62655461 
 3807      626C6500 
 3808              	.LASF44:
 3809 07d5 4359424C 		.ascii	"CYBLE_EVT_GAPC_DIRECT_ADV_REPORT\000"
 3809      455F4556 
 3809      545F4741 
 3809      50435F44 
 3809      49524543 
 3810              	.LASF42:
 3811 07f6 4359424C 		.ascii	"CYBLE_EVT_GAP_DATA_LENGTH_CHANGE\000"
 3811      455F4556 
 3811      545F4741 
 3811      505F4441 
 3811      54415F4C 
 3812              	.LASF23:
 3813 0817 4359424C 		.ascii	"CYBLE_EVT_HCI_STATUS\000"
 3813      455F4556 
 3813      545F4843 
 3813      495F5354 
 3813      41545553 
 3814              	.LASF30:
 3815 082c 4359424C 		.ascii	"CYBLE_EVT_GAP_AUTH_COMPLETE\000"
 3815      455F4556 
 3815      545F4741 
 3815      505F4155 
 3815      54485F43 
 3816              	.LASF68:
 3817 0848 4359424C 		.ascii	"CYBLE_EVT_GATTC_HANDLE_VALUE_NTF\000"
 3817      455F4556 
 3817      545F4741 
 3817      5454435F 
 3817      48414E44 
 3818              	.LASF98:
 3819 0869 4359424C 		.ascii	"CYBLE_DIS_REG_CERT_DATA\000"
 3819      455F4449 
 3819      535F5245 
 3819      475F4345 
 3819      52545F44 
 3820              	.LASF79:
 3821 0881 4359424C 		.ascii	"CYBLE_EVT_L2CAP_CBFC_CONN_CNF\000"
 3821      455F4556 
 3821      545F4C32 
 3821      4341505F 
 3821      43424643 
 3822              	.LASF107:
 3823 089f 725F6261 		.ascii	"r_base\000"
 3823      736500
 3824              	.LASF55:
 3825 08a6 4359424C 		.ascii	"CYBLE_EVT_GATTC_READ_BY_GROUP_TYPE_RSP\000"
 3825      455F4556 
 3825      545F4741 
 3825      5454435F 
ARM GAS  C:\Users\alexport\AppData\Local\Temp\cc3nX14g.s 			page 84


 3825      52454144 
 3826              	.LASF14:
 3827 08cd 666C6F61 		.ascii	"float\000"
 3827      7400
 3828              	.LASF93:
 3829 08d3 4359424C 		.ascii	"CYBLE_DIS_SERIAL_NUMBER\000"
 3829      455F4449 
 3829      535F5345 
 3829      5249414C 
 3829      5F4E554D 
 3830              	.LASF1:
 3831 08eb 756E7369 		.ascii	"unsigned char\000"
 3831      676E6564 
 3831      20636861 
 3831      7200
 3832              	.LASF12:
 3833 08f9 75696E74 		.ascii	"uint16\000"
 3833      313600
 3834              	.LASF100:
 3835 0900 4359424C 		.ascii	"CYBLE_DIS_CHAR_COUNT\000"
 3835      455F4449 
 3835      535F4348 
 3835      41525F43 
 3835      4F554E54 
 3836              	.LASF111:
 3837 0915 73746570 		.ascii	"step\000"
 3837      00
 3838              	.LASF106:
 3839 091a 6C65645F 		.ascii	"led_index\000"
 3839      696E6465 
 3839      7800
 3840              	.LASF2:
 3841 0924 73686F72 		.ascii	"short int\000"
 3841      7420696E 
 3841      7400
 3842              	.LASF69:
 3843 092e 4359424C 		.ascii	"CYBLE_EVT_GATTC_HANDLE_VALUE_IND\000"
 3843      455F4556 
 3843      545F4741 
 3843      5454435F 
 3843      48414E44 
 3844              	.LASF88:
 3845 094f 4359424C 		.ascii	"CYBLE_EVT_HCI_PKT\000"
 3845      455F4556 
 3845      545F4843 
 3845      495F504B 
 3845      5400
 3846              	.LASF96:
 3847 0961 4359424C 		.ascii	"CYBLE_DIS_SOFTWARE_REV\000"
 3847      455F4449 
 3847      535F534F 
 3847      46545741 
 3847      52455F52 
 3848              	.LASF65:
 3849 0978 4359424C 		.ascii	"CYBLE_EVT_GATTS_PREP_WRITE_REQ\000"
 3849      455F4556 
 3849      545F4741 
ARM GAS  C:\Users\alexport\AppData\Local\Temp\cc3nX14g.s 			page 85


 3849      5454535F 
 3849      50524550 
 3850              	.LASF119:
 3851 0997 62726967 		.ascii	"brightness\000"
 3851      68746E65 
 3851      737300
 3852              	.LASF118:
 3853 09a2 6368616E 		.ascii	"channel\000"
 3853      6E656C00 
 3854              	.LASF70:
 3855 09aa 4359424C 		.ascii	"CYBLE_EVT_GATTS_HANDLE_VALUE_CNF\000"
 3855      455F4556 
 3855      545F4741 
 3855      5454535F 
 3855      48414E44 
 3856              	.LASF50:
 3857 09cb 4359424C 		.ascii	"CYBLE_EVT_GATTC_ERROR_RSP\000"
 3857      455F4556 
 3857      545F4741 
 3857      5454435F 
 3857      4552524F 
 3858              	.LASF45:
 3859 09e5 4359424C 		.ascii	"CYBLE_EVT_GAP_SMP_NEGOTIATED_AUTH_INFO\000"
 3859      455F4556 
 3859      545F4741 
 3859      505F534D 
 3859      505F4E45 
 3860              	.LASF105:
 3861 0a0c 4C45444D 		.ascii	"LEDMode\000"
 3861      6F646500 
 3862              	.LASF5:
 3863 0a14 6C6F6E67 		.ascii	"long unsigned int\000"
 3863      20756E73 
 3863      69676E65 
 3863      6420696E 
 3863      7400
 3864              	.LASF89:
 3865 0a26 4359424C 		.ascii	"CYBLE_EVT_FLASH_CORRUPT\000"
 3865      455F4556 
 3865      545F464C 
 3865      4153485F 
 3865      434F5252 
 3866              	.LASF16:
 3867 0a3e 63686172 		.ascii	"char\000"
 3867      00
 3868              	.LASF110:
 3869 0a43 6D6F6465 		.ascii	"mode\000"
 3869      00
 3870              	.LASF113:
 3871 0a48 5247424C 		.ascii	"RGBLED\000"
 3871      454400
 3872              	.LASF73:
 3873 0a4f 4359424C 		.ascii	"CYBLE_EVT_GATTS_READ_CHAR_VAL_ACCESS_REQ\000"
 3873      455F4556 
 3873      545F4741 
 3873      5454535F 
 3873      52454144 
ARM GAS  C:\Users\alexport\AppData\Local\Temp\cc3nX14g.s 			page 86


 3874              	.LASF40:
 3875 0a78 4359424C 		.ascii	"CYBLE_EVT_GAP_KEYPRESS_NOTIFICATION\000"
 3875      455F4556 
 3875      545F4741 
 3875      505F4B45 
 3875      59505245 
 3876              	.LASF102:
 3877 0a9c 4D4F4445 		.ascii	"MODE_STATIC\000"
 3877      5F535441 
 3877      54494300 
 3878              	.LASF124:
 3879 0aa8 5365744C 		.ascii	"SetLEDmode\000"
 3879      45446D6F 
 3879      646500
 3880              	.LASF84:
 3881 0ab3 4359424C 		.ascii	"CYBLE_EVT_L2CAP_CBFC_TX_CREDIT_IND\000"
 3881      455F4556 
 3881      545F4C32 
 3881      4341505F 
 3881      43424643 
 3882              	.LASF60:
 3883 0ad6 4359424C 		.ascii	"CYBLE_EVT_GATTC_READ_BLOB_RSP\000"
 3883      455F4556 
 3883      545F4741 
 3883      5454435F 
 3883      52454144 
 3884              	.LASF29:
 3885 0af4 4359424C 		.ascii	"CYBLE_EVT_GAP_PASSKEY_DISPLAY_REQUEST\000"
 3885      455F4556 
 3885      545F4741 
 3885      505F5041 
 3885      53534B45 
 3886              	.LASF22:
 3887 0b1a 4359424C 		.ascii	"CYBLE_EVT_HARDWARE_ERROR\000"
 3887      455F4556 
 3887      545F4841 
 3887      52445741 
 3887      52455F45 
 3888              	.LASF137:
 3889 0b33 433A5C55 		.ascii	"C:\\Users\\alexport\\OneDrive - Safeguard Analytics"
 3889      73657273 
 3889      5C616C65 
 3889      78706F72 
 3889      745C4F6E 
 3890 0b63 5C53412D 		.ascii	"\\SA-220\\SA-220.cydsn\000"
 3890      3232305C 
 3890      53412D32 
 3890      32302E63 
 3890      7964736E 
 3891              	.LASF128:
 3892 0b78 62726561 		.ascii	"breath\000"
 3892      746800
 3893              	.LASF10:
 3894 0b7f 75696E74 		.ascii	"uint8_t\000"
 3894      385F7400 
 3895              	.LASF104:
 3896 0b87 4D4F4445 		.ascii	"MODE_STROBE\000"
ARM GAS  C:\Users\alexport\AppData\Local\Temp\cc3nX14g.s 			page 87


 3896      5F535452 
 3896      4F424500 
 3897              	.LASF126:
 3898 0b93 73797374 		.ascii	"system_SetLed\000"
 3898      656D5F53 
 3898      65744C65 
 3898      6400
 3899              	.LASF92:
 3900 0ba1 4359424C 		.ascii	"CYBLE_DIS_MODEL_NUMBER\000"
 3900      455F4449 
 3900      535F4D4F 
 3900      44454C5F 
 3900      4E554D42 
 3901              	.LASF117:
 3902 0bb8 544C435F 		.ascii	"TLC_SetChannel\000"
 3902      53657443 
 3902      68616E6E 
 3902      656C00
 3903              	.LASF58:
 3904 0bc7 4359424C 		.ascii	"CYBLE_EVT_GATTC_FIND_BY_TYPE_VALUE_RSP\000"
 3904      455F4556 
 3904      545F4741 
 3904      5454435F 
 3904      46494E44 
 3905              	.LASF38:
 3906 0bee 4359424C 		.ascii	"CYBLE_EVT_GAP_KEYINFO_EXCHNGE_CMPLT\000"
 3906      455F4556 
 3906      545F4741 
 3906      505F4B45 
 3906      59494E46 
 3907              	.LASF80:
 3908 0c12 4359424C 		.ascii	"CYBLE_EVT_L2CAP_CBFC_DISCONN_IND\000"
 3908      455F4556 
 3908      545F4C32 
 3908      4341505F 
 3908      43424643 
 3909              	.LASF125:
 3910 0c33 63683241 		.ascii	"ch2Active\000"
 3910      63746976 
 3910      6500
 3911              	.LASF76:
 3912 0c3d 4359424C 		.ascii	"CYBLE_EVT_L2CAP_CONN_PARAM_UPDATE_RSP\000"
 3912      455F4556 
 3912      545F4C32 
 3912      4341505F 
 3912      434F4E4E 
 3913              	.LASF43:
 3914 0c63 4359424C 		.ascii	"CYBLE_EVT_GAP_ENHANCE_CONN_COMPLETE\000"
 3914      455F4556 
 3914      545F4741 
 3914      505F454E 
 3914      48414E43 
 3915              	.LASF91:
 3916 0c87 4359424C 		.ascii	"CYBLE_DIS_MANUFACTURER_NAME\000"
 3916      455F4449 
 3916      535F4D41 
 3916      4E554641 
ARM GAS  C:\Users\alexport\AppData\Local\Temp\cc3nX14g.s 			page 88


 3916      43545552 
 3917              	.LASF52:
 3918 0ca3 4359424C 		.ascii	"CYBLE_EVT_GATT_DISCONNECT_IND\000"
 3918      455F4556 
 3918      545F4741 
 3918      54545F44 
 3918      4953434F 
 3919              		.ident	"GCC: (GNU Tools for ARM Embedded Processors) 5.4.1 20160609 (release) [ARM/embedded-5-bran
