ARM GAS  C:\Users\alexport\AppData\Local\Temp\cc3nX14g.s 			page 1


   1              		.syntax unified
   2              		.cpu cortex-m0
   3              		.fpu softvfp
   4              		.eabi_attribute 20, 1
   5              		.eabi_attribute 21, 1
   6              		.eabi_attribute 23, 3
   7              		.eabi_attribute 24, 1
   8              		.eabi_attribute 25, 1
   9              		.eabi_attribute 26, 1
  10              		.eabi_attribute 30, 6
  11              		.eabi_attribute 34, 0
  12              		.eabi_attribute 18, 4
  13              		.thumb
  14              		.syntax unified
  15              		.file	"led.c"
  16              		.text
  17              	.Ltext0:
  18              		.cfi_sections	.debug_frame
  19              		.global	leds
  20              		.data
  21              		.align	2
  22              		.type	leds, %object
  23              		.size	leds, 28
  24              	leds:
  25 0000 00       		.byte	0
  26 0001 FF       		.byte	-1
  27 0002 00       		.byte	0
  28 0003 FF       		.byte	-1
  29 0004 02       		.byte	2
  30 0005 00       		.byte	0
  31 0006 01       		.byte	1
  32 0007 01       		.byte	1
  33 0008 FF       		.byte	-1
  34 0009 C0       		.byte	-64
  35 000a 00       		.byte	0
  36 000b 02       		.byte	2
  37 000c 00       		.byte	0
  38 000d 01       		.byte	1
  39 000e 02       		.byte	2
  40 000f 00       		.byte	0
  41 0010 00       		.byte	0
  42 0011 FF       		.byte	-1
  43 0012 02       		.byte	2
  44 0013 00       		.byte	0
  45 0014 01       		.byte	1
  46 0015 03       		.byte	3
  47 0016 FF       		.byte	-1
  48 0017 FF       		.byte	-1
  49 0018 FF       		.byte	-1
  50 0019 02       		.byte	2
  51 001a 00       		.byte	0
  52 001b 01       		.byte	1
  53              		.global	sineTable
  54              		.align	2
  55              		.type	sineTable, %object
  56              		.size	sineTable, 20
  57              	sineTable:
ARM GAS  C:\Users\alexport\AppData\Local\Temp\cc3nX14g.s 			page 2


  58 001c 06       		.byte	6
  59 001d 0C       		.byte	12
  60 001e 19       		.byte	25
  61 001f 25       		.byte	37
  62 0020 31       		.byte	49
  63 0021 3E       		.byte	62
  64 0022 4A       		.byte	74
  65 0023 56       		.byte	86
  66 0024 61       		.byte	97
  67 0025 6C       		.byte	108
  68 0026 76       		.byte	118
  69 0027 80       		.byte	-128
  70 0028 89       		.byte	-119
  71 0029 91       		.byte	-111
  72 002a 98       		.byte	-104
  73 002b 9F       		.byte	-97
  74 002c A5       		.byte	-91
  75 002d AA       		.byte	-86
  76 002e AE       		.byte	-82
  77 002f B1       		.byte	-79
  78              		.global	strobeTable
  79              		.align	2
  80              		.type	strobeTable, %object
  81              		.size	strobeTable, 20
  82              	strobeTable:
  83 0030 98       		.byte	-104
  84 0031 98       		.byte	-104
  85 0032 0C       		.byte	12
  86 0033 0C       		.byte	12
  87 0034 98       		.byte	-104
  88 0035 98       		.byte	-104
  89 0036 0C       		.byte	12
  90 0037 0C       		.byte	12
  91 0038 98       		.byte	-104
  92 0039 98       		.byte	-104
  93 003a 0C       		.byte	12
  94 003b 0C       		.byte	12
  95 003c 98       		.byte	-104
  96 003d 98       		.byte	-104
  97 003e 0C       		.byte	12
  98 003f 0C       		.byte	12
  99 0040 98       		.byte	-104
 100 0041 98       		.byte	-104
 101 0042 0C       		.byte	12
 102 0043 0C       		.byte	12
 103              		.section	.text.TLC_ReadReg,"ax",%progbits
 104              		.align	2
 105              		.global	TLC_ReadReg
 106              		.code	16
 107              		.thumb_func
 108              		.type	TLC_ReadReg, %function
 109              	TLC_ReadReg:
 110              	.LFB35:
 111              		.file 1 "led.c"
   1:led.c         **** /* ========================================
   2:led.c         ****  *
   3:led.c         ****  * Copyright YOUR COMPANY, THE YEAR
ARM GAS  C:\Users\alexport\AppData\Local\Temp\cc3nX14g.s 			page 3


   4:led.c         ****  * All Rights Reserved
   5:led.c         ****  * UNPUBLISHED, LICENSED SOFTWARE.
   6:led.c         ****  *
   7:led.c         ****  * CONFIDENTIAL AND PROPRIETARY INFORMATION
   8:led.c         ****  * WHICH IS THE PROPERTY OF your company.
   9:led.c         ****  *
  10:led.c         ****  * ========================================
  11:led.c         **** */
  12:led.c         **** #include "led.h"
  13:led.c         **** 
  14:led.c         **** typedef enum {
  15:led.c         ****     MODE_OFF = 0,
  16:led.c         ****     MODE_STATIC,
  17:led.c         ****     MODE_BREATHING,
  18:led.c         ****     MODE_STROBE
  19:led.c         **** } LEDMode;
  20:led.c         **** 
  21:led.c         **** typedef struct {
  22:led.c         ****     uint8 led_index;
  23:led.c         ****     uint8 r_base, g_base, b_base;
  24:led.c         ****     LEDMode mode;
  25:led.c         ****     uint8 step;
  26:led.c         ****     int8 direction;
  27:led.c         **** } RGBLED;
  28:led.c         **** 
  29:led.c         **** //RGBLED leds[4];
  30:led.c         **** 
  31:led.c         **** 
  32:led.c         **** RGBLED leds[4] = {
  33:led.c         ****             {0, 255, 0, 255, MODE_BREATHING, 0, 1},
  34:led.c         ****             {1, 255, 192, 0, MODE_BREATHING, 0, 1},
  35:led.c         ****             {2, 0, 0, 255, MODE_BREATHING, 0, 1},
  36:led.c         ****             {3, 255, 255, 255, MODE_BREATHING, 0, 1}
  37:led.c         ****         };
  38:led.c         **** 
  39:led.c         **** 
  40:led.c         **** //#define SIN_CNT 64
  41:led.c         **** //uint8_t sineTable[SIN_CNT] = {
  42:led.c         **** //    0, 6, 12, 19, 25, 31, 37, 43,
  43:led.c         **** //    49, 56, 62, 68, 74, 80, 86, 91,
  44:led.c         **** //    97, 103, 108, 113, 118, 123, 128, 132,
  45:led.c         **** //    137, 141, 145, 149, 152, 156, 159, 162,
  46:led.c         **** //    165, 167, 170, 172, 174, 175, 177, 178,
  47:led.c         **** //    179, 180, 180, 180, 180, 179, 178, 177,
  48:led.c         **** //    175, 174, 172, 170, 167, 165, 162, 159,
  49:led.c         **** //    156, 152, 149, 145, 141, 137, 132, 128
  50:led.c         **** //};
  51:led.c         **** 
  52:led.c         **** 
  53:led.c         **** 
  54:led.c         **** 
  55:led.c         **** //uint8_t sineTable[SIN_CNT] = {
  56:led.c         **** //    0, 6, 12, 19, 25, 31, 37, 43,
  57:led.c         **** //    49, 56, 62, 68, 74, 80, 86, 91,
  58:led.c         **** //    97, 103, 108, 113, 118, 123, 128, 132,
  59:led.c         **** //    137, 141, 145, 149, 152, 156, 159, 162,
  60:led.c         **** //    165, 167, 170, 172, 174, 175, 177, 178,
ARM GAS  C:\Users\alexport\AppData\Local\Temp\cc3nX14g.s 			page 4


  61:led.c         **** //    179, 180, 180, 180, 180, 179, 178, 177,
  62:led.c         **** //    175, 174, 172, 170, 167, 165, 162, 159,
  63:led.c         **** //    156, 152, 149, 145, 141, 137, 132, 128
  64:led.c         **** //};
  65:led.c         **** 
  66:led.c         **** //#define SIN_CNT 23
  67:led.c         **** //uint8_t sineTable[SIN_CNT] = {
  68:led.c         **** //    0,  12,  25,  37, 
  69:led.c         **** //    49, 62,  74,  86, 
  70:led.c         **** //    97,  108,  118,  128, 
  71:led.c         **** //    137,  145,  152,  159, 
  72:led.c         **** //    165,  170,  174,  177, 
  73:led.c         **** //    179,  180,  180 
  74:led.c         **** //};
  75:led.c         **** 
  76:led.c         **** 
  77:led.c         **** #define SIN_CNT 20
  78:led.c         **** uint8_t sineTable[SIN_CNT] = {
  79:led.c         ****     6, 12,  25,  37, 
  80:led.c         ****     49, 62,  74,  86, 
  81:led.c         ****     97,  108,  118,  128, 
  82:led.c         ****     137,  145,  152,  159, 
  83:led.c         ****     165,  170,  174,  177 
  84:led.c         ****      
  85:led.c         **** };
  86:led.c         **** 
  87:led.c         **** #define STROBE_CNT 20
  88:led.c         **** uint8_t strobeTable[SIN_CNT] = {
  89:led.c         ****     152, 152,  12,  12, 
  90:led.c         ****     152, 152,  12,  12,  
  91:led.c         ****     152, 152,  12,  12, 
  92:led.c         ****     152, 152,  12,  12, 
  93:led.c         ****     152, 152,  12,  12, 
  94:led.c         ****      
  95:led.c         **** };
  96:led.c         **** 
  97:led.c         **** 
  98:led.c         **** //#define SIN_CNT 12
  99:led.c         **** //uint8_t sineTable[SIN_CNT] = {
 100:led.c         **** //    0,    25,   
 101:led.c         **** //    49,   74,   
 102:led.c         **** //    97,    118,   
 103:led.c         **** //    137,    152,   
 104:led.c         **** //    165,    174,   
 105:led.c         **** //    179,    180   
 106:led.c         **** //     
 107:led.c         **** //};
 108:led.c         **** 
 109:led.c         **** //#define SIN_CNT 28
 110:led.c         **** //uint8_t sineTable[SIN_CNT] = {
 111:led.c         **** //    0, 6, 12, 19, 25, 31, 37, 43,
 112:led.c         **** //    49, 56, 62, 68, 74, 80, 86, 91,
 113:led.c         **** //    97, 103, 108, 113, 118, 123, 128, 132,
 114:led.c         **** //    137, 141, 145, 149 
 115:led.c         **** //    
 116:led.c         **** //};
 117:led.c         **** 
ARM GAS  C:\Users\alexport\AppData\Local\Temp\cc3nX14g.s 			page 5


 118:led.c         **** 
 119:led.c         **** 
 120:led.c         **** uint8 TLC_ReadReg(uint8 reg)
 121:led.c         **** {
 112              		.loc 1 121 0
 113              		.cfi_startproc
 114              		@ args = 0, pretend = 0, frame = 16
 115              		@ frame_needed = 1, uses_anonymous_args = 0
 116 0000 80B5     		push	{r7, lr}
 117              		.cfi_def_cfa_offset 8
 118              		.cfi_offset 7, -8
 119              		.cfi_offset 14, -4
 120 0002 84B0     		sub	sp, sp, #16
 121              		.cfi_def_cfa_offset 24
 122 0004 00AF     		add	r7, sp, #0
 123              		.cfi_def_cfa_register 7
 124 0006 0200     		movs	r2, r0
 125 0008 FB1D     		adds	r3, r7, #7
 126 000a 1A70     		strb	r2, [r3]
 122:led.c         ****     uint8 value = 0;
 127              		.loc 1 122 0
 128 000c 0F23     		movs	r3, #15
 129 000e FB18     		adds	r3, r7, r3
 130 0010 0022     		movs	r2, #0
 131 0012 1A70     		strb	r2, [r3]
 123:led.c         **** 
 124:led.c         ****     // Send register address
 125:led.c         ****     I2C_I2CMasterWriteBuf(I2C_LED_SLAVE_ADDR, &reg, 1, I2C_I2C_MODE_COMPLETE_XFER);
 132              		.loc 1 125 0
 133 0014 F91D     		adds	r1, r7, #7
 134 0016 0023     		movs	r3, #0
 135 0018 0122     		movs	r2, #1
 136 001a 6020     		movs	r0, #96
 137 001c FFF7FEFF 		bl	I2C_I2CMasterWriteBuf
 126:led.c         ****     while (I2C_I2CMasterStatus() & I2C_I2C_MSTAT_XFER_INP);
 138              		.loc 1 126 0
 139 0020 C046     		nop
 140              	.L2:
 141              		.loc 1 126 0 is_stmt 0 discriminator 1
 142 0022 FFF7FEFF 		bl	I2C_I2CMasterStatus
 143 0026 0200     		movs	r2, r0
 144 0028 0423     		movs	r3, #4
 145 002a 1340     		ands	r3, r2
 146 002c F9D1     		bne	.L2
 127:led.c         **** 
 128:led.c         ****     // Read 1 byte from that register
 129:led.c         ****     I2C_I2CMasterReadBuf(I2C_LED_SLAVE_ADDR, &value, 1, I2C_I2C_MODE_COMPLETE_XFER);
 147              		.loc 1 129 0 is_stmt 1
 148 002e 0F23     		movs	r3, #15
 149 0030 F918     		adds	r1, r7, r3
 150 0032 0023     		movs	r3, #0
 151 0034 0122     		movs	r2, #1
 152 0036 6020     		movs	r0, #96
 153 0038 FFF7FEFF 		bl	I2C_I2CMasterReadBuf
 130:led.c         ****     while (I2C_I2CMasterStatus() & I2C_I2C_MSTAT_XFER_INP);
 154              		.loc 1 130 0
 155 003c C046     		nop
ARM GAS  C:\Users\alexport\AppData\Local\Temp\cc3nX14g.s 			page 6


 156              	.L3:
 157              		.loc 1 130 0 is_stmt 0 discriminator 1
 158 003e FFF7FEFF 		bl	I2C_I2CMasterStatus
 159 0042 0200     		movs	r2, r0
 160 0044 0423     		movs	r3, #4
 161 0046 1340     		ands	r3, r2
 162 0048 F9D1     		bne	.L3
 131:led.c         **** 
 132:led.c         ****     return value;
 163              		.loc 1 132 0 is_stmt 1
 164 004a 0F23     		movs	r3, #15
 165 004c FB18     		adds	r3, r7, r3
 166 004e 1B78     		ldrb	r3, [r3]
 133:led.c         **** }
 167              		.loc 1 133 0
 168 0050 1800     		movs	r0, r3
 169 0052 BD46     		mov	sp, r7
 170 0054 04B0     		add	sp, sp, #16
 171              		@ sp needed
 172 0056 80BD     		pop	{r7, pc}
 173              		.cfi_endproc
 174              	.LFE35:
 175              		.size	TLC_ReadReg, .-TLC_ReadReg
 176              		.section	.text.TLC_WriteReg,"ax",%progbits
 177              		.align	2
 178              		.global	TLC_WriteReg
 179              		.code	16
 180              		.thumb_func
 181              		.type	TLC_WriteReg, %function
 182              	TLC_WriteReg:
 183              	.LFB36:
 134:led.c         **** 
 135:led.c         **** void TLC_WriteReg(uint8 reg, uint8 value) {
 184              		.loc 1 135 0
 185              		.cfi_startproc
 186              		@ args = 0, pretend = 0, frame = 16
 187              		@ frame_needed = 1, uses_anonymous_args = 0
 188 0000 80B5     		push	{r7, lr}
 189              		.cfi_def_cfa_offset 8
 190              		.cfi_offset 7, -8
 191              		.cfi_offset 14, -4
 192 0002 84B0     		sub	sp, sp, #16
 193              		.cfi_def_cfa_offset 24
 194 0004 00AF     		add	r7, sp, #0
 195              		.cfi_def_cfa_register 7
 196 0006 0200     		movs	r2, r0
 197 0008 FB1D     		adds	r3, r7, #7
 198 000a 1A70     		strb	r2, [r3]
 199 000c BB1D     		adds	r3, r7, #6
 200 000e 0A1C     		adds	r2, r1, #0
 201 0010 1A70     		strb	r2, [r3]
 136:led.c         ****     uint8 buf[2] = {reg, value};
 202              		.loc 1 136 0
 203 0012 0C23     		movs	r3, #12
 204 0014 FB18     		adds	r3, r7, r3
 205 0016 FA1D     		adds	r2, r7, #7
 206 0018 1278     		ldrb	r2, [r2]
ARM GAS  C:\Users\alexport\AppData\Local\Temp\cc3nX14g.s 			page 7


 207 001a 1A70     		strb	r2, [r3]
 208 001c 0C23     		movs	r3, #12
 209 001e FB18     		adds	r3, r7, r3
 210 0020 BA1D     		adds	r2, r7, #6
 211 0022 1278     		ldrb	r2, [r2]
 212 0024 5A70     		strb	r2, [r3, #1]
 137:led.c         ****     I2C_I2CMasterWriteBuf(I2C_LED_SLAVE_ADDR, buf, 2, I2C_I2C_MODE_COMPLETE_XFER);
 213              		.loc 1 137 0
 214 0026 0C23     		movs	r3, #12
 215 0028 F918     		adds	r1, r7, r3
 216 002a 0023     		movs	r3, #0
 217 002c 0222     		movs	r2, #2
 218 002e 6020     		movs	r0, #96
 219 0030 FFF7FEFF 		bl	I2C_I2CMasterWriteBuf
 138:led.c         ****     while(I2C_I2CMasterStatus() & I2C_I2C_MSTAT_XFER_INP);
 220              		.loc 1 138 0
 221 0034 C046     		nop
 222              	.L6:
 223              		.loc 1 138 0 is_stmt 0 discriminator 1
 224 0036 FFF7FEFF 		bl	I2C_I2CMasterStatus
 225 003a 0200     		movs	r2, r0
 226 003c 0423     		movs	r3, #4
 227 003e 1340     		ands	r3, r2
 228 0040 F9D1     		bne	.L6
 139:led.c         **** }
 229              		.loc 1 139 0 is_stmt 1
 230 0042 C046     		nop
 231 0044 BD46     		mov	sp, r7
 232 0046 04B0     		add	sp, sp, #16
 233              		@ sp needed
 234 0048 80BD     		pop	{r7, pc}
 235              		.cfi_endproc
 236              	.LFE36:
 237              		.size	TLC_WriteReg, .-TLC_WriteReg
 238 004a C046     		.section	.text.TLC_Init,"ax",%progbits
 239              		.align	2
 240              		.global	TLC_Init
 241              		.code	16
 242              		.thumb_func
 243              		.type	TLC_Init, %function
 244              	TLC_Init:
 245              	.LFB37:
 140:led.c         **** 
 141:led.c         **** 
 142:led.c         **** void TLC_Init(void) {
 246              		.loc 1 142 0
 247              		.cfi_startproc
 248              		@ args = 0, pretend = 0, frame = 8
 249              		@ frame_needed = 1, uses_anonymous_args = 0
 250 0000 80B5     		push	{r7, lr}
 251              		.cfi_def_cfa_offset 8
 252              		.cfi_offset 7, -8
 253              		.cfi_offset 14, -4
 254 0002 82B0     		sub	sp, sp, #8
 255              		.cfi_def_cfa_offset 16
 256 0004 00AF     		add	r7, sp, #0
 257              		.cfi_def_cfa_register 7
ARM GAS  C:\Users\alexport\AppData\Local\Temp\cc3nX14g.s 			page 8


 143:led.c         ****     
 144:led.c         **** 
 145:led.c         ****     // MODE1: Normal mode (AI=1 for auto-increment)
 146:led.c         ****     TLC_WriteReg(0x00, 0x01);
 258              		.loc 1 146 0
 259 0006 0121     		movs	r1, #1
 260 0008 0020     		movs	r0, #0
 261 000a FFF7FEFF 		bl	TLC_WriteReg
 147:led.c         ****     // MODE2: Output change on STOP, totem pole structure
 148:led.c         ****     TLC_WriteReg(0x01, 0x00);
 262              		.loc 1 148 0
 263 000e 0021     		movs	r1, #0
 264 0010 0120     		movs	r0, #1
 265 0012 FFF7FEFF 		bl	TLC_WriteReg
 149:led.c         ****     
 150:led.c         ****     // LEDOUTx: Set all channels to PWM mode (0b10)
 151:led.c         ****     TLC_WriteReg(0x14, 0xAA); // OUT0-3
 266              		.loc 1 151 0
 267 0016 AA21     		movs	r1, #170
 268 0018 1420     		movs	r0, #20
 269 001a FFF7FEFF 		bl	TLC_WriteReg
 152:led.c         ****     TLC_WriteReg(0x15, 0xAA); // OUT4-7
 270              		.loc 1 152 0
 271 001e AA21     		movs	r1, #170
 272 0020 1520     		movs	r0, #21
 273 0022 FFF7FEFF 		bl	TLC_WriteReg
 153:led.c         ****     TLC_WriteReg(0x16, 0xAA); // OUT8-11
 274              		.loc 1 153 0
 275 0026 AA21     		movs	r1, #170
 276 0028 1620     		movs	r0, #22
 277 002a FFF7FEFF 		bl	TLC_WriteReg
 154:led.c         ****     TLC_WriteReg(0x17, 0xAA); // OUT12-15
 278              		.loc 1 154 0
 279 002e AA21     		movs	r1, #170
 280 0030 1720     		movs	r0, #23
 281 0032 FFF7FEFF 		bl	TLC_WriteReg
 282              	.LBB2:
 155:led.c         ****     
 156:led.c         ****     
 157:led.c         ****     for(uint8_t i=0 ;i<4; i++){
 283              		.loc 1 157 0
 284 0036 FB1D     		adds	r3, r7, #7
 285 0038 0022     		movs	r2, #0
 286 003a 1A70     		strb	r2, [r3]
 287 003c 0EE0     		b	.L8
 288              	.L9:
 158:led.c         ****         leds[i].direction=1;
 289              		.loc 1 158 0 discriminator 3
 290 003e FB1D     		adds	r3, r7, #7
 291 0040 1A78     		ldrb	r2, [r3]
 292 0042 0A49     		ldr	r1, .L10
 293 0044 1300     		movs	r3, r2
 294 0046 DB00     		lsls	r3, r3, #3
 295 0048 9B1A     		subs	r3, r3, r2
 296 004a CB18     		adds	r3, r1, r3
 297 004c 0633     		adds	r3, r3, #6
 298 004e 0122     		movs	r2, #1
ARM GAS  C:\Users\alexport\AppData\Local\Temp\cc3nX14g.s 			page 9


 299 0050 1A70     		strb	r2, [r3]
 157:led.c         ****         leds[i].direction=1;
 300              		.loc 1 157 0 discriminator 3
 301 0052 FB1D     		adds	r3, r7, #7
 302 0054 1A78     		ldrb	r2, [r3]
 303 0056 FB1D     		adds	r3, r7, #7
 304 0058 0132     		adds	r2, r2, #1
 305 005a 1A70     		strb	r2, [r3]
 306              	.L8:
 157:led.c         ****         leds[i].direction=1;
 307              		.loc 1 157 0 is_stmt 0 discriminator 1
 308 005c FB1D     		adds	r3, r7, #7
 309 005e 1B78     		ldrb	r3, [r3]
 310 0060 032B     		cmp	r3, #3
 311 0062 ECD9     		bls	.L9
 312              	.LBE2:
 159:led.c         ****     }
 160:led.c         **** }
 313              		.loc 1 160 0 is_stmt 1
 314 0064 C046     		nop
 315 0066 BD46     		mov	sp, r7
 316 0068 02B0     		add	sp, sp, #8
 317              		@ sp needed
 318 006a 80BD     		pop	{r7, pc}
 319              	.L11:
 320              		.align	2
 321              	.L10:
 322 006c 00000000 		.word	leds
 323              		.cfi_endproc
 324              	.LFE37:
 325              		.size	TLC_Init, .-TLC_Init
 326              		.section	.text.TLC_SetChannel,"ax",%progbits
 327              		.align	2
 328              		.global	TLC_SetChannel
 329              		.code	16
 330              		.thumb_func
 331              		.type	TLC_SetChannel, %function
 332              	TLC_SetChannel:
 333              	.LFB38:
 161:led.c         **** 
 162:led.c         **** 
 163:led.c         **** 
 164:led.c         **** void TLC_SetChannel(uint8 channel, uint8 brightness) {
 334              		.loc 1 164 0
 335              		.cfi_startproc
 336              		@ args = 0, pretend = 0, frame = 8
 337              		@ frame_needed = 1, uses_anonymous_args = 0
 338 0000 80B5     		push	{r7, lr}
 339              		.cfi_def_cfa_offset 8
 340              		.cfi_offset 7, -8
 341              		.cfi_offset 14, -4
 342 0002 82B0     		sub	sp, sp, #8
 343              		.cfi_def_cfa_offset 16
 344 0004 00AF     		add	r7, sp, #0
 345              		.cfi_def_cfa_register 7
 346 0006 0200     		movs	r2, r0
 347 0008 FB1D     		adds	r3, r7, #7
ARM GAS  C:\Users\alexport\AppData\Local\Temp\cc3nX14g.s 			page 10


 348 000a 1A70     		strb	r2, [r3]
 349 000c BB1D     		adds	r3, r7, #6
 350 000e 0A1C     		adds	r2, r1, #0
 351 0010 1A70     		strb	r2, [r3]
 165:led.c         ****     if (channel > 17) return;
 352              		.loc 1 165 0
 353 0012 FB1D     		adds	r3, r7, #7
 354 0014 1B78     		ldrb	r3, [r3]
 355 0016 112B     		cmp	r3, #17
 356 0018 08D8     		bhi	.L15
 166:led.c         ****     TLC_WriteReg(channel, brightness);
 357              		.loc 1 166 0
 358 001a BB1D     		adds	r3, r7, #6
 359 001c 1A78     		ldrb	r2, [r3]
 360 001e FB1D     		adds	r3, r7, #7
 361 0020 1B78     		ldrb	r3, [r3]
 362 0022 1100     		movs	r1, r2
 363 0024 1800     		movs	r0, r3
 364 0026 FFF7FEFF 		bl	TLC_WriteReg
 365 002a 00E0     		b	.L12
 366              	.L15:
 165:led.c         ****     if (channel > 17) return;
 367              		.loc 1 165 0
 368 002c C046     		nop
 369              	.L12:
 167:led.c         **** }
 370              		.loc 1 167 0
 371 002e BD46     		mov	sp, r7
 372 0030 02B0     		add	sp, sp, #8
 373              		@ sp needed
 374 0032 80BD     		pop	{r7, pc}
 375              		.cfi_endproc
 376              	.LFE38:
 377              		.size	TLC_SetChannel, .-TLC_SetChannel
 378              		.section	.text.TLC_SetRGB,"ax",%progbits
 379              		.align	2
 380              		.global	TLC_SetRGB
 381              		.code	16
 382              		.thumb_func
 383              		.type	TLC_SetRGB, %function
 384              	TLC_SetRGB:
 385              	.LFB39:
 168:led.c         **** 
 169:led.c         **** void TLC_SetRGB(uint8 led_index, uint8 r, uint8 g, uint8 b) {
 386              		.loc 1 169 0
 387              		.cfi_startproc
 388              		@ args = 0, pretend = 0, frame = 16
 389              		@ frame_needed = 1, uses_anonymous_args = 0
 390 0000 B0B5     		push	{r4, r5, r7, lr}
 391              		.cfi_def_cfa_offset 16
 392              		.cfi_offset 4, -16
 393              		.cfi_offset 5, -12
 394              		.cfi_offset 7, -8
 395              		.cfi_offset 14, -4
 396 0002 84B0     		sub	sp, sp, #16
 397              		.cfi_def_cfa_offset 32
 398 0004 00AF     		add	r7, sp, #0
ARM GAS  C:\Users\alexport\AppData\Local\Temp\cc3nX14g.s 			page 11


 399              		.cfi_def_cfa_register 7
 400 0006 0500     		movs	r5, r0
 401 0008 0C00     		movs	r4, r1
 402 000a 1000     		movs	r0, r2
 403 000c 1900     		movs	r1, r3
 404 000e FB1D     		adds	r3, r7, #7
 405 0010 2A1C     		adds	r2, r5, #0
 406 0012 1A70     		strb	r2, [r3]
 407 0014 BB1D     		adds	r3, r7, #6
 408 0016 221C     		adds	r2, r4, #0
 409 0018 1A70     		strb	r2, [r3]
 410 001a 7B1D     		adds	r3, r7, #5
 411 001c 021C     		adds	r2, r0, #0
 412 001e 1A70     		strb	r2, [r3]
 413 0020 3B1D     		adds	r3, r7, #4
 414 0022 0A1C     		adds	r2, r1, #0
 415 0024 1A70     		strb	r2, [r3]
 170:led.c         ****     uint8 base_channel = led_index * 3;
 416              		.loc 1 170 0
 417 0026 0F23     		movs	r3, #15
 418 0028 F918     		adds	r1, r7, r3
 419 002a FB1D     		adds	r3, r7, #7
 420 002c 1B78     		ldrb	r3, [r3]
 421 002e 1A1C     		adds	r2, r3, #0
 422 0030 9218     		adds	r2, r2, r2
 423 0032 D318     		adds	r3, r2, r3
 424 0034 0B70     		strb	r3, [r1]
 171:led.c         ****     
 172:led.c         ****     switch(led_index){
 425              		.loc 1 172 0
 426 0036 FB1D     		adds	r3, r7, #7
 427 0038 1B78     		ldrb	r3, [r3]
 428 003a 012B     		cmp	r3, #1
 429 003c 0DD0     		beq	.L18
 430 003e 02DC     		bgt	.L19
 431 0040 002B     		cmp	r3, #0
 432 0042 05D0     		beq	.L20
 433 0044 18E0     		b	.L17
 434              	.L19:
 435 0046 022B     		cmp	r3, #2
 436 0048 0CD0     		beq	.L21
 437 004a 032B     		cmp	r3, #3
 438 004c 0FD0     		beq	.L22
 439 004e 13E0     		b	.L17
 440              	.L20:
 173:led.c         ****         case 0: base_channel = 10;break;
 441              		.loc 1 173 0
 442 0050 0F23     		movs	r3, #15
 443 0052 FB18     		adds	r3, r7, r3
 444 0054 0A22     		movs	r2, #10
 445 0056 1A70     		strb	r2, [r3]
 446 0058 0EE0     		b	.L17
 447              	.L18:
 174:led.c         ****         case 1: base_channel = 14;break;
 448              		.loc 1 174 0
 449 005a 0F23     		movs	r3, #15
 450 005c FB18     		adds	r3, r7, r3
ARM GAS  C:\Users\alexport\AppData\Local\Temp\cc3nX14g.s 			page 12


 451 005e 0E22     		movs	r2, #14
 452 0060 1A70     		strb	r2, [r3]
 453 0062 09E0     		b	.L17
 454              	.L21:
 175:led.c         ****         case 2: base_channel = 6;break;
 455              		.loc 1 175 0
 456 0064 0F23     		movs	r3, #15
 457 0066 FB18     		adds	r3, r7, r3
 458 0068 0622     		movs	r2, #6
 459 006a 1A70     		strb	r2, [r3]
 460 006c 04E0     		b	.L17
 461              	.L22:
 176:led.c         ****         case 3: base_channel = 2; break;
 462              		.loc 1 176 0
 463 006e 0F23     		movs	r3, #15
 464 0070 FB18     		adds	r3, r7, r3
 465 0072 0222     		movs	r2, #2
 466 0074 1A70     		strb	r2, [r3]
 467 0076 C046     		nop
 468              	.L17:
 177:led.c         ****     }
 178:led.c         ****     
 179:led.c         **** //    TLC_SetChannel(base_channel, r);
 180:led.c         **** //    TLC_SetChannel(base_channel + 1, g);
 181:led.c         **** //    TLC_SetChannel(base_channel + 2, b);
 182:led.c         ****     
 183:led.c         ****     TLC_SetChannel(base_channel, b);
 469              		.loc 1 183 0
 470 0078 3B1D     		adds	r3, r7, #4
 471 007a 1A78     		ldrb	r2, [r3]
 472 007c 0F23     		movs	r3, #15
 473 007e FB18     		adds	r3, r7, r3
 474 0080 1B78     		ldrb	r3, [r3]
 475 0082 1100     		movs	r1, r2
 476 0084 1800     		movs	r0, r3
 477 0086 FFF7FEFF 		bl	TLC_SetChannel
 184:led.c         ****     TLC_SetChannel(base_channel + 1, g);
 478              		.loc 1 184 0
 479 008a 0F23     		movs	r3, #15
 480 008c FB18     		adds	r3, r7, r3
 481 008e 1B78     		ldrb	r3, [r3]
 482 0090 0133     		adds	r3, r3, #1
 483 0092 DAB2     		uxtb	r2, r3
 484 0094 7B1D     		adds	r3, r7, #5
 485 0096 1B78     		ldrb	r3, [r3]
 486 0098 1900     		movs	r1, r3
 487 009a 1000     		movs	r0, r2
 488 009c FFF7FEFF 		bl	TLC_SetChannel
 185:led.c         ****     TLC_SetChannel(base_channel + 2, r);
 489              		.loc 1 185 0
 490 00a0 0F23     		movs	r3, #15
 491 00a2 FB18     		adds	r3, r7, r3
 492 00a4 1B78     		ldrb	r3, [r3]
 493 00a6 0233     		adds	r3, r3, #2
 494 00a8 DAB2     		uxtb	r2, r3
 495 00aa BB1D     		adds	r3, r7, #6
 496 00ac 1B78     		ldrb	r3, [r3]
ARM GAS  C:\Users\alexport\AppData\Local\Temp\cc3nX14g.s 			page 13


 497 00ae 1900     		movs	r1, r3
 498 00b0 1000     		movs	r0, r2
 499 00b2 FFF7FEFF 		bl	TLC_SetChannel
 186:led.c         ****     
 187:led.c         **** }
 500              		.loc 1 187 0
 501 00b6 C046     		nop
 502 00b8 BD46     		mov	sp, r7
 503 00ba 04B0     		add	sp, sp, #16
 504              		@ sp needed
 505 00bc B0BD     		pop	{r4, r5, r7, pc}
 506              		.cfi_endproc
 507              	.LFE39:
 508              		.size	TLC_SetRGB, .-TLC_SetRGB
 509              		.global	__aeabi_idiv
 510 00be C046     		.section	.text.TLC_UpdateRGBLED,"ax",%progbits
 511              		.align	2
 512              		.global	TLC_UpdateRGBLED
 513              		.code	16
 514              		.thumb_func
 515              		.type	TLC_UpdateRGBLED, %function
 516              	TLC_UpdateRGBLED:
 517              	.LFB40:
 188:led.c         **** 
 189:led.c         **** 
 190:led.c         **** void TLC_UpdateRGBLED(RGBLED* led) {
 518              		.loc 1 190 0
 519              		.cfi_startproc
 520              		@ args = 0, pretend = 0, frame = 16
 521              		@ frame_needed = 1, uses_anonymous_args = 0
 522 0000 F0B5     		push	{r4, r5, r6, r7, lr}
 523              		.cfi_def_cfa_offset 20
 524              		.cfi_offset 4, -20
 525              		.cfi_offset 5, -16
 526              		.cfi_offset 6, -12
 527              		.cfi_offset 7, -8
 528              		.cfi_offset 14, -4
 529 0002 85B0     		sub	sp, sp, #20
 530              		.cfi_def_cfa_offset 40
 531 0004 00AF     		add	r7, sp, #0
 532              		.cfi_def_cfa_register 7
 533 0006 7860     		str	r0, [r7, #4]
 191:led.c         ****     switch (led->mode) {
 534              		.loc 1 191 0
 535 0008 7B68     		ldr	r3, [r7, #4]
 536 000a 1B79     		ldrb	r3, [r3, #4]
 537 000c 012B     		cmp	r3, #1
 538 000e 10D0     		beq	.L25
 539 0010 02DC     		bgt	.L26
 540 0012 002B     		cmp	r3, #0
 541 0014 05D0     		beq	.L27
 192:led.c         ****         case MODE_OFF:
 193:led.c         ****             TLC_SetRGB(led->led_index, 0, 0, 0);
 194:led.c         ****             break;
 195:led.c         **** 
 196:led.c         ****         case MODE_STATIC:
 197:led.c         ****             TLC_SetRGB(led->led_index, led->r_base, led->g_base, led->b_base);
ARM GAS  C:\Users\alexport\AppData\Local\Temp\cc3nX14g.s 			page 14


 198:led.c         ****             break;
 199:led.c         **** 
 200:led.c         ****         case MODE_BREATHING: {
 201:led.c         ****             uint8 scale = sineTable[led->step];
 202:led.c         ****             TLC_SetRGB(led->led_index,
 203:led.c         ****                        (led->r_base * scale) / 255,
 204:led.c         ****                        (led->g_base * scale) / 255,
 205:led.c         ****                        (led->b_base * scale) / 255);
 206:led.c         **** 
 207:led.c         ****             led->step += led->direction;
 208:led.c         ****             if ( led->step == (SIN_CNT-1) || led->step == 0) {
 209:led.c         ****                 led->direction *= -1;
 210:led.c         ****             }
 211:led.c         ****             break;
 212:led.c         ****         }
 213:led.c         ****         case MODE_STROBE:{ 
 214:led.c         ****             uint8 scale = strobeTable[led->step];
 215:led.c         ****             TLC_SetRGB(led->led_index,
 216:led.c         ****                        (led->r_base * scale) / 255,
 217:led.c         ****                        (led->g_base * scale) / 255,
 218:led.c         ****                        (led->b_base * scale) / 255);
 219:led.c         **** 
 220:led.c         ****             led->step += led->direction;
 221:led.c         ****             if ( led->step == (STROBE_CNT-1) || led->step == 0) {
 222:led.c         ****                 led->direction *= -1;
 223:led.c         ****             }
 224:led.c         ****             break;
 225:led.c         ****         }
 226:led.c         ****     }
 227:led.c         **** }
 542              		.loc 1 227 0
 543 0016 BEE0     		b	.L36
 544              	.L26:
 191:led.c         ****     switch (led->mode) {
 545              		.loc 1 191 0
 546 0018 022B     		cmp	r3, #2
 547 001a 15D0     		beq	.L28
 548 001c 032B     		cmp	r3, #3
 549 001e 65D0     		beq	.L29
 550              		.loc 1 227 0
 551 0020 B9E0     		b	.L36
 552              	.L27:
 193:led.c         ****             break;
 553              		.loc 1 193 0
 554 0022 7B68     		ldr	r3, [r7, #4]
 555 0024 1878     		ldrb	r0, [r3]
 556 0026 0023     		movs	r3, #0
 557 0028 0022     		movs	r2, #0
 558 002a 0021     		movs	r1, #0
 559 002c FFF7FEFF 		bl	TLC_SetRGB
 194:led.c         **** 
 560              		.loc 1 194 0
 561 0030 B1E0     		b	.L24
 562              	.L25:
 197:led.c         ****             break;
 563              		.loc 1 197 0
 564 0032 7B68     		ldr	r3, [r7, #4]
ARM GAS  C:\Users\alexport\AppData\Local\Temp\cc3nX14g.s 			page 15


 565 0034 1878     		ldrb	r0, [r3]
 566 0036 7B68     		ldr	r3, [r7, #4]
 567 0038 5978     		ldrb	r1, [r3, #1]
 568 003a 7B68     		ldr	r3, [r7, #4]
 569 003c 9A78     		ldrb	r2, [r3, #2]
 570 003e 7B68     		ldr	r3, [r7, #4]
 571 0040 DB78     		ldrb	r3, [r3, #3]
 572 0042 FFF7FEFF 		bl	TLC_SetRGB
 198:led.c         **** 
 573              		.loc 1 198 0
 574 0046 A6E0     		b	.L24
 575              	.L28:
 576              	.LBB3:
 201:led.c         ****             TLC_SetRGB(led->led_index,
 577              		.loc 1 201 0
 578 0048 7B68     		ldr	r3, [r7, #4]
 579 004a 5B79     		ldrb	r3, [r3, #5]
 580 004c 1900     		movs	r1, r3
 581 004e 0F23     		movs	r3, #15
 582 0050 FB18     		adds	r3, r7, r3
 583 0052 534A     		ldr	r2, .L37
 584 0054 525C     		ldrb	r2, [r2, r1]
 585 0056 1A70     		strb	r2, [r3]
 202:led.c         ****                        (led->r_base * scale) / 255,
 586              		.loc 1 202 0
 587 0058 7B68     		ldr	r3, [r7, #4]
 588 005a 1C78     		ldrb	r4, [r3]
 203:led.c         ****                        (led->g_base * scale) / 255,
 589              		.loc 1 203 0
 590 005c 7B68     		ldr	r3, [r7, #4]
 591 005e 5B78     		ldrb	r3, [r3, #1]
 592 0060 1A00     		movs	r2, r3
 593 0062 0F23     		movs	r3, #15
 594 0064 FB18     		adds	r3, r7, r3
 595 0066 1B78     		ldrb	r3, [r3]
 596 0068 5343     		muls	r3, r2
 597 006a FF21     		movs	r1, #255
 598 006c 1800     		movs	r0, r3
 599 006e FFF7FEFF 		bl	__aeabi_idiv
 600 0072 0300     		movs	r3, r0
 202:led.c         ****                        (led->r_base * scale) / 255,
 601              		.loc 1 202 0
 602 0074 DDB2     		uxtb	r5, r3
 204:led.c         ****                        (led->b_base * scale) / 255);
 603              		.loc 1 204 0
 604 0076 7B68     		ldr	r3, [r7, #4]
 605 0078 9B78     		ldrb	r3, [r3, #2]
 606 007a 1A00     		movs	r2, r3
 607 007c 0F23     		movs	r3, #15
 608 007e FB18     		adds	r3, r7, r3
 609 0080 1B78     		ldrb	r3, [r3]
 610 0082 5343     		muls	r3, r2
 611 0084 FF21     		movs	r1, #255
 612 0086 1800     		movs	r0, r3
 613 0088 FFF7FEFF 		bl	__aeabi_idiv
 614 008c 0300     		movs	r3, r0
 202:led.c         ****                        (led->r_base * scale) / 255,
ARM GAS  C:\Users\alexport\AppData\Local\Temp\cc3nX14g.s 			page 16


 615              		.loc 1 202 0
 616 008e DEB2     		uxtb	r6, r3
 205:led.c         **** 
 617              		.loc 1 205 0
 618 0090 7B68     		ldr	r3, [r7, #4]
 619 0092 DB78     		ldrb	r3, [r3, #3]
 620 0094 1A00     		movs	r2, r3
 621 0096 0F23     		movs	r3, #15
 622 0098 FB18     		adds	r3, r7, r3
 623 009a 1B78     		ldrb	r3, [r3]
 624 009c 5343     		muls	r3, r2
 625 009e FF21     		movs	r1, #255
 626 00a0 1800     		movs	r0, r3
 627 00a2 FFF7FEFF 		bl	__aeabi_idiv
 628 00a6 0300     		movs	r3, r0
 202:led.c         ****                        (led->r_base * scale) / 255,
 629              		.loc 1 202 0
 630 00a8 DBB2     		uxtb	r3, r3
 631 00aa 3200     		movs	r2, r6
 632 00ac 2900     		movs	r1, r5
 633 00ae 2000     		movs	r0, r4
 634 00b0 FFF7FEFF 		bl	TLC_SetRGB
 207:led.c         ****             if ( led->step == (SIN_CNT-1) || led->step == 0) {
 635              		.loc 1 207 0
 636 00b4 7B68     		ldr	r3, [r7, #4]
 637 00b6 5A79     		ldrb	r2, [r3, #5]
 638 00b8 7B68     		ldr	r3, [r7, #4]
 639 00ba 9B79     		ldrb	r3, [r3, #6]
 640 00bc 5BB2     		sxtb	r3, r3
 641 00be DBB2     		uxtb	r3, r3
 642 00c0 D318     		adds	r3, r2, r3
 643 00c2 DAB2     		uxtb	r2, r3
 644 00c4 7B68     		ldr	r3, [r7, #4]
 645 00c6 5A71     		strb	r2, [r3, #5]
 208:led.c         ****                 led->direction *= -1;
 646              		.loc 1 208 0
 647 00c8 7B68     		ldr	r3, [r7, #4]
 648 00ca 5B79     		ldrb	r3, [r3, #5]
 649 00cc 132B     		cmp	r3, #19
 650 00ce 03D0     		beq	.L30
 208:led.c         ****                 led->direction *= -1;
 651              		.loc 1 208 0 is_stmt 0 discriminator 1
 652 00d0 7B68     		ldr	r3, [r7, #4]
 653 00d2 5B79     		ldrb	r3, [r3, #5]
 654 00d4 002B     		cmp	r3, #0
 655 00d6 5BD1     		bne	.L34
 656              	.L30:
 209:led.c         ****             }
 657              		.loc 1 209 0 is_stmt 1
 658 00d8 7B68     		ldr	r3, [r7, #4]
 659 00da 9B79     		ldrb	r3, [r3, #6]
 660 00dc 5BB2     		sxtb	r3, r3
 661 00de DBB2     		uxtb	r3, r3
 662 00e0 5B42     		rsbs	r3, r3, #0
 663 00e2 DBB2     		uxtb	r3, r3
 664 00e4 5AB2     		sxtb	r2, r3
 665 00e6 7B68     		ldr	r3, [r7, #4]
ARM GAS  C:\Users\alexport\AppData\Local\Temp\cc3nX14g.s 			page 17


 666 00e8 9A71     		strb	r2, [r3, #6]
 211:led.c         ****         }
 667              		.loc 1 211 0
 668 00ea 51E0     		b	.L34
 669              	.L29:
 670              	.LBE3:
 671              	.LBB4:
 214:led.c         ****             TLC_SetRGB(led->led_index,
 672              		.loc 1 214 0
 673 00ec 7B68     		ldr	r3, [r7, #4]
 674 00ee 5B79     		ldrb	r3, [r3, #5]
 675 00f0 1900     		movs	r1, r3
 676 00f2 0E23     		movs	r3, #14
 677 00f4 FB18     		adds	r3, r7, r3
 678 00f6 2B4A     		ldr	r2, .L37+4
 679 00f8 525C     		ldrb	r2, [r2, r1]
 680 00fa 1A70     		strb	r2, [r3]
 215:led.c         ****                        (led->r_base * scale) / 255,
 681              		.loc 1 215 0
 682 00fc 7B68     		ldr	r3, [r7, #4]
 683 00fe 1C78     		ldrb	r4, [r3]
 216:led.c         ****                        (led->g_base * scale) / 255,
 684              		.loc 1 216 0
 685 0100 7B68     		ldr	r3, [r7, #4]
 686 0102 5B78     		ldrb	r3, [r3, #1]
 687 0104 1A00     		movs	r2, r3
 688 0106 0E23     		movs	r3, #14
 689 0108 FB18     		adds	r3, r7, r3
 690 010a 1B78     		ldrb	r3, [r3]
 691 010c 5343     		muls	r3, r2
 692 010e FF21     		movs	r1, #255
 693 0110 1800     		movs	r0, r3
 694 0112 FFF7FEFF 		bl	__aeabi_idiv
 695 0116 0300     		movs	r3, r0
 215:led.c         ****                        (led->r_base * scale) / 255,
 696              		.loc 1 215 0
 697 0118 DDB2     		uxtb	r5, r3
 217:led.c         ****                        (led->b_base * scale) / 255);
 698              		.loc 1 217 0
 699 011a 7B68     		ldr	r3, [r7, #4]
 700 011c 9B78     		ldrb	r3, [r3, #2]
 701 011e 1A00     		movs	r2, r3
 702 0120 0E23     		movs	r3, #14
 703 0122 FB18     		adds	r3, r7, r3
 704 0124 1B78     		ldrb	r3, [r3]
 705 0126 5343     		muls	r3, r2
 706 0128 FF21     		movs	r1, #255
 707 012a 1800     		movs	r0, r3
 708 012c FFF7FEFF 		bl	__aeabi_idiv
 709 0130 0300     		movs	r3, r0
 215:led.c         ****                        (led->r_base * scale) / 255,
 710              		.loc 1 215 0
 711 0132 DEB2     		uxtb	r6, r3
 218:led.c         **** 
 712              		.loc 1 218 0
 713 0134 7B68     		ldr	r3, [r7, #4]
 714 0136 DB78     		ldrb	r3, [r3, #3]
ARM GAS  C:\Users\alexport\AppData\Local\Temp\cc3nX14g.s 			page 18


 715 0138 1A00     		movs	r2, r3
 716 013a 0E23     		movs	r3, #14
 717 013c FB18     		adds	r3, r7, r3
 718 013e 1B78     		ldrb	r3, [r3]
 719 0140 5343     		muls	r3, r2
 720 0142 FF21     		movs	r1, #255
 721 0144 1800     		movs	r0, r3
 722 0146 FFF7FEFF 		bl	__aeabi_idiv
 723 014a 0300     		movs	r3, r0
 215:led.c         ****                        (led->r_base * scale) / 255,
 724              		.loc 1 215 0
 725 014c DBB2     		uxtb	r3, r3
 726 014e 3200     		movs	r2, r6
 727 0150 2900     		movs	r1, r5
 728 0152 2000     		movs	r0, r4
 729 0154 FFF7FEFF 		bl	TLC_SetRGB
 220:led.c         ****             if ( led->step == (STROBE_CNT-1) || led->step == 0) {
 730              		.loc 1 220 0
 731 0158 7B68     		ldr	r3, [r7, #4]
 732 015a 5A79     		ldrb	r2, [r3, #5]
 733 015c 7B68     		ldr	r3, [r7, #4]
 734 015e 9B79     		ldrb	r3, [r3, #6]
 735 0160 5BB2     		sxtb	r3, r3
 736 0162 DBB2     		uxtb	r3, r3
 737 0164 D318     		adds	r3, r2, r3
 738 0166 DAB2     		uxtb	r2, r3
 739 0168 7B68     		ldr	r3, [r7, #4]
 740 016a 5A71     		strb	r2, [r3, #5]
 221:led.c         ****                 led->direction *= -1;
 741              		.loc 1 221 0
 742 016c 7B68     		ldr	r3, [r7, #4]
 743 016e 5B79     		ldrb	r3, [r3, #5]
 744 0170 132B     		cmp	r3, #19
 745 0172 03D0     		beq	.L32
 221:led.c         ****                 led->direction *= -1;
 746              		.loc 1 221 0 is_stmt 0 discriminator 1
 747 0174 7B68     		ldr	r3, [r7, #4]
 748 0176 5B79     		ldrb	r3, [r3, #5]
 749 0178 002B     		cmp	r3, #0
 750 017a 0BD1     		bne	.L35
 751              	.L32:
 222:led.c         ****             }
 752              		.loc 1 222 0 is_stmt 1
 753 017c 7B68     		ldr	r3, [r7, #4]
 754 017e 9B79     		ldrb	r3, [r3, #6]
 755 0180 5BB2     		sxtb	r3, r3
 756 0182 DBB2     		uxtb	r3, r3
 757 0184 5B42     		rsbs	r3, r3, #0
 758 0186 DBB2     		uxtb	r3, r3
 759 0188 5AB2     		sxtb	r2, r3
 760 018a 7B68     		ldr	r3, [r7, #4]
 761 018c 9A71     		strb	r2, [r3, #6]
 224:led.c         ****         }
 762              		.loc 1 224 0
 763 018e 01E0     		b	.L35
 764              	.L34:
 765              	.LBE4:
ARM GAS  C:\Users\alexport\AppData\Local\Temp\cc3nX14g.s 			page 19


 766              	.LBB5:
 211:led.c         ****         }
 767              		.loc 1 211 0
 768 0190 C046     		nop
 769 0192 00E0     		b	.L36
 770              	.L35:
 771              	.LBE5:
 772              	.LBB6:
 224:led.c         ****         }
 773              		.loc 1 224 0
 774 0194 C046     		nop
 775              	.L24:
 776              	.L36:
 777              	.LBE6:
 778              		.loc 1 227 0
 779 0196 C046     		nop
 780 0198 BD46     		mov	sp, r7
 781 019a 05B0     		add	sp, sp, #20
 782              		@ sp needed
 783 019c F0BD     		pop	{r4, r5, r6, r7, pc}
 784              	.L38:
 785 019e C046     		.align	2
 786              	.L37:
 787 01a0 00000000 		.word	sineTable
 788 01a4 00000000 		.word	strobeTable
 789              		.cfi_endproc
 790              	.LFE40:
 791              		.size	TLC_UpdateRGBLED, .-TLC_UpdateRGBLED
 792              		.section	.text.LED_Update,"ax",%progbits
 793              		.align	2
 794              		.global	LED_Update
 795              		.code	16
 796              		.thumb_func
 797              		.type	LED_Update, %function
 798              	LED_Update:
 799              	.LFB41:
 228:led.c         **** 
 229:led.c         **** 
 230:led.c         **** 
 231:led.c         **** /*    Example Usage
 232:led.c         ****  
 233:led.c         **** RGBLED leds[4] = {
 234:led.c         ****     {0, 255, 0, 0, MODE_BREATHING, 0, 1},
 235:led.c         ****     {1, 0, 255, 0, MODE_STATIC, 0, 1},
 236:led.c         ****     {2, 0, 0, 255, MODE_OFF, 0, 1},
 237:led.c         ****     {3, 255, 255, 0, MODE_BREATHING, 32, -1}
 238:led.c         **** };
 239:led.c         **** 
 240:led.c         **** int main(void) {
 241:led.c         ****     CyGlobalIntEnable;
 242:led.c         ****     TLC_Init();
 243:led.c         **** 
 244:led.c         ****     for (;;) {
 245:led.c         ****         for (int i = 0; i < 4; i++) {
 246:led.c         ****             TLC_UpdateRGBLED(&leds[i]);
 247:led.c         ****         }
 248:led.c         **** 
ARM GAS  C:\Users\alexport\AppData\Local\Temp\cc3nX14g.s 			page 20


 249:led.c         ****         // Add timer-based speed control or delay if needed
 250:led.c         ****         // and continue polling sensors or updating UI here
 251:led.c         ****     }
 252:led.c         **** }
 253:led.c         **** 
 254:led.c         **** 
 255:led.c         **** 
 256:led.c         **** */
 257:led.c         **** 
 258:led.c         **** void LED_Update(){
 800              		.loc 1 258 0
 801              		.cfi_startproc
 802              		@ args = 0, pretend = 0, frame = 8
 803              		@ frame_needed = 1, uses_anonymous_args = 0
 804 0000 80B5     		push	{r7, lr}
 805              		.cfi_def_cfa_offset 8
 806              		.cfi_offset 7, -8
 807              		.cfi_offset 14, -4
 808 0002 82B0     		sub	sp, sp, #8
 809              		.cfi_def_cfa_offset 16
 810 0004 00AF     		add	r7, sp, #0
 811              		.cfi_def_cfa_register 7
 812              	.LBB7:
 259:led.c         ****     for (int i = 0; i < 4; i++) {
 813              		.loc 1 259 0
 814 0006 0023     		movs	r3, #0
 815 0008 7B60     		str	r3, [r7, #4]
 816 000a 0BE0     		b	.L40
 817              	.L41:
 260:led.c         ****         TLC_UpdateRGBLED(&leds[i]);
 818              		.loc 1 260 0 discriminator 3
 819 000c 7A68     		ldr	r2, [r7, #4]
 820 000e 1300     		movs	r3, r2
 821 0010 DB00     		lsls	r3, r3, #3
 822 0012 9B1A     		subs	r3, r3, r2
 823 0014 074A     		ldr	r2, .L42
 824 0016 9B18     		adds	r3, r3, r2
 825 0018 1800     		movs	r0, r3
 826 001a FFF7FEFF 		bl	TLC_UpdateRGBLED
 259:led.c         ****     for (int i = 0; i < 4; i++) {
 827              		.loc 1 259 0 discriminator 3
 828 001e 7B68     		ldr	r3, [r7, #4]
 829 0020 0133     		adds	r3, r3, #1
 830 0022 7B60     		str	r3, [r7, #4]
 831              	.L40:
 259:led.c         ****     for (int i = 0; i < 4; i++) {
 832              		.loc 1 259 0 is_stmt 0 discriminator 1
 833 0024 7B68     		ldr	r3, [r7, #4]
 834 0026 032B     		cmp	r3, #3
 835 0028 F0DD     		ble	.L41
 836              	.LBE7:
 261:led.c         ****         
 262:led.c         ****     }
 263:led.c         **** }
 837              		.loc 1 263 0 is_stmt 1
 838 002a C046     		nop
 839 002c BD46     		mov	sp, r7
ARM GAS  C:\Users\alexport\AppData\Local\Temp\cc3nX14g.s 			page 21


 840 002e 02B0     		add	sp, sp, #8
 841              		@ sp needed
 842 0030 80BD     		pop	{r7, pc}
 843              	.L43:
 844 0032 C046     		.align	2
 845              	.L42:
 846 0034 00000000 		.word	leds
 847              		.cfi_endproc
 848              	.LFE41:
 849              		.size	LED_Update, .-LED_Update
 850              		.section	.text.SetLEDmode,"ax",%progbits
 851              		.align	2
 852              		.global	SetLEDmode
 853              		.code	16
 854              		.thumb_func
 855              		.type	SetLEDmode, %function
 856              	SetLEDmode:
 857              	.LFB42:
 264:led.c         **** 
 265:led.c         **** 
 266:led.c         **** void SetLEDmode(uint8_t num , uint8_t mode, uint8_t ch2Active){
 858              		.loc 1 266 0
 859              		.cfi_startproc
 860              		@ args = 0, pretend = 0, frame = 8
 861              		@ frame_needed = 1, uses_anonymous_args = 0
 862 0000 90B5     		push	{r4, r7, lr}
 863              		.cfi_def_cfa_offset 12
 864              		.cfi_offset 4, -12
 865              		.cfi_offset 7, -8
 866              		.cfi_offset 14, -4
 867 0002 83B0     		sub	sp, sp, #12
 868              		.cfi_def_cfa_offset 24
 869 0004 00AF     		add	r7, sp, #0
 870              		.cfi_def_cfa_register 7
 871 0006 0400     		movs	r4, r0
 872 0008 0800     		movs	r0, r1
 873 000a 1100     		movs	r1, r2
 874 000c FB1D     		adds	r3, r7, #7
 875 000e 221C     		adds	r2, r4, #0
 876 0010 1A70     		strb	r2, [r3]
 877 0012 BB1D     		adds	r3, r7, #6
 878 0014 021C     		adds	r2, r0, #0
 879 0016 1A70     		strb	r2, [r3]
 880 0018 7B1D     		adds	r3, r7, #5
 881 001a 0A1C     		adds	r2, r1, #0
 882 001c 1A70     		strb	r2, [r3]
 267:led.c         ****     if(ch2Active){
 883              		.loc 1 267 0
 884 001e 7B1D     		adds	r3, r7, #5
 885 0020 1B78     		ldrb	r3, [r3]
 886 0022 002B     		cmp	r3, #0
 887 0024 48D0     		beq	.L45
 268:led.c         ****         if(num==0){
 888              		.loc 1 268 0
 889 0026 FB1D     		adds	r3, r7, #7
 890 0028 1B78     		ldrb	r3, [r3]
 891 002a 002B     		cmp	r3, #0
ARM GAS  C:\Users\alexport\AppData\Local\Temp\cc3nX14g.s 			page 22


 892 002c 1FD1     		bne	.L46
 269:led.c         ****             if(mode==0){
 893              		.loc 1 269 0
 894 002e BB1D     		adds	r3, r7, #6
 895 0030 1B78     		ldrb	r3, [r3]
 896 0032 002B     		cmp	r3, #0
 897 0034 06D1     		bne	.L47
 270:led.c         ****                 leds[2].mode = MODE_STATIC;
 898              		.loc 1 270 0
 899 0036 3B4B     		ldr	r3, .L56
 900 0038 0122     		movs	r2, #1
 901 003a 9A74     		strb	r2, [r3, #18]
 271:led.c         ****                 leds[3].mode = MODE_STATIC;
 902              		.loc 1 271 0
 903 003c 394B     		ldr	r3, .L56
 904 003e 0122     		movs	r2, #1
 905 0040 5A76     		strb	r2, [r3, #25]
 906 0042 14E0     		b	.L46
 907              	.L47:
 272:led.c         ****             }else if(mode==1){
 908              		.loc 1 272 0
 909 0044 BB1D     		adds	r3, r7, #6
 910 0046 1B78     		ldrb	r3, [r3]
 911 0048 012B     		cmp	r3, #1
 912 004a 06D1     		bne	.L48
 273:led.c         ****                 leds[2].mode = MODE_BREATHING;
 913              		.loc 1 273 0
 914 004c 354B     		ldr	r3, .L56
 915 004e 0222     		movs	r2, #2
 916 0050 9A74     		strb	r2, [r3, #18]
 274:led.c         ****                 leds[3].mode = MODE_BREATHING;
 917              		.loc 1 274 0
 918 0052 344B     		ldr	r3, .L56
 919 0054 0222     		movs	r2, #2
 920 0056 5A76     		strb	r2, [r3, #25]
 921 0058 09E0     		b	.L46
 922              	.L48:
 275:led.c         ****             }else if(mode ==2){
 923              		.loc 1 275 0
 924 005a BB1D     		adds	r3, r7, #6
 925 005c 1B78     		ldrb	r3, [r3]
 926 005e 022B     		cmp	r3, #2
 927 0060 05D1     		bne	.L46
 276:led.c         ****                 leds[2].mode = MODE_STROBE;
 928              		.loc 1 276 0
 929 0062 304B     		ldr	r3, .L56
 930 0064 0322     		movs	r2, #3
 931 0066 9A74     		strb	r2, [r3, #18]
 277:led.c         ****                 leds[3].mode = MODE_STROBE;
 932              		.loc 1 277 0
 933 0068 2E4B     		ldr	r3, .L56
 934 006a 0322     		movs	r2, #3
 935 006c 5A76     		strb	r2, [r3, #25]
 936              	.L46:
 278:led.c         ****             }
 279:led.c         ****         }
 280:led.c         ****         if(num==1){
ARM GAS  C:\Users\alexport\AppData\Local\Temp\cc3nX14g.s 			page 23


 937              		.loc 1 280 0
 938 006e FB1D     		adds	r3, r7, #7
 939 0070 1B78     		ldrb	r3, [r3]
 940 0072 012B     		cmp	r3, #1
 941 0074 52D1     		bne	.L55
 281:led.c         ****                 if(mode==0){
 942              		.loc 1 281 0
 943 0076 BB1D     		adds	r3, r7, #6
 944 0078 1B78     		ldrb	r3, [r3]
 945 007a 002B     		cmp	r3, #0
 946 007c 06D1     		bne	.L50
 282:led.c         ****                 leds[0].mode = MODE_STATIC;
 947              		.loc 1 282 0
 948 007e 294B     		ldr	r3, .L56
 949 0080 0122     		movs	r2, #1
 950 0082 1A71     		strb	r2, [r3, #4]
 283:led.c         ****                 leds[1].mode = MODE_STATIC;
 951              		.loc 1 283 0
 952 0084 274B     		ldr	r3, .L56
 953 0086 0122     		movs	r2, #1
 954 0088 DA72     		strb	r2, [r3, #11]
 284:led.c         ****             }else if (mode ==1){
 285:led.c         ****                 leds[0].mode = MODE_BREATHING;
 286:led.c         ****                 leds[1].mode = MODE_BREATHING;
 287:led.c         ****             }else if (mode ==2){
 288:led.c         ****                 leds[0].mode = MODE_STROBE;
 289:led.c         ****                 leds[1].mode = MODE_STROBE;
 290:led.c         ****             }
 291:led.c         ****         }
 292:led.c         ****         
 293:led.c         ****     }else{
 294:led.c         ****         if(mode==0){
 295:led.c         ****                 leds[0].mode = MODE_STATIC;
 296:led.c         ****                 leds[1].mode = MODE_STATIC;
 297:led.c         ****                 leds[2].mode = MODE_STATIC;
 298:led.c         ****                 leds[3].mode = MODE_STATIC;
 299:led.c         ****             }else if (mode ==1){
 300:led.c         ****                 leds[0].mode = MODE_BREATHING;
 301:led.c         ****                 leds[1].mode = MODE_BREATHING;
 302:led.c         ****                 leds[2].mode = MODE_BREATHING;
 303:led.c         ****                 leds[3].mode = MODE_BREATHING;
 304:led.c         ****             }else if (mode ==2){
 305:led.c         ****                 leds[0].mode = MODE_STROBE;
 306:led.c         ****                 leds[1].mode = MODE_STROBE;
 307:led.c         ****                 leds[2].mode = MODE_STROBE;
 308:led.c         ****                 leds[3].mode = MODE_STROBE;
 309:led.c         ****             }
 310:led.c         ****     }
 311:led.c         ****     
 312:led.c         **** }
 955              		.loc 1 312 0
 956 008a 47E0     		b	.L55
 957              	.L50:
 284:led.c         ****             }else if (mode ==1){
 958              		.loc 1 284 0
 959 008c BB1D     		adds	r3, r7, #6
 960 008e 1B78     		ldrb	r3, [r3]
ARM GAS  C:\Users\alexport\AppData\Local\Temp\cc3nX14g.s 			page 24


 961 0090 012B     		cmp	r3, #1
 962 0092 06D1     		bne	.L51
 285:led.c         ****                 leds[1].mode = MODE_BREATHING;
 963              		.loc 1 285 0
 964 0094 234B     		ldr	r3, .L56
 965 0096 0222     		movs	r2, #2
 966 0098 1A71     		strb	r2, [r3, #4]
 286:led.c         ****             }else if (mode ==2){
 967              		.loc 1 286 0
 968 009a 224B     		ldr	r3, .L56
 969 009c 0222     		movs	r2, #2
 970 009e DA72     		strb	r2, [r3, #11]
 971              		.loc 1 312 0
 972 00a0 3CE0     		b	.L55
 973              	.L51:
 287:led.c         ****                 leds[0].mode = MODE_STROBE;
 974              		.loc 1 287 0
 975 00a2 BB1D     		adds	r3, r7, #6
 976 00a4 1B78     		ldrb	r3, [r3]
 977 00a6 022B     		cmp	r3, #2
 978 00a8 38D1     		bne	.L55
 288:led.c         ****                 leds[1].mode = MODE_STROBE;
 979              		.loc 1 288 0
 980 00aa 1E4B     		ldr	r3, .L56
 981 00ac 0322     		movs	r2, #3
 982 00ae 1A71     		strb	r2, [r3, #4]
 289:led.c         ****             }
 983              		.loc 1 289 0
 984 00b0 1C4B     		ldr	r3, .L56
 985 00b2 0322     		movs	r2, #3
 986 00b4 DA72     		strb	r2, [r3, #11]
 987              		.loc 1 312 0
 988 00b6 31E0     		b	.L55
 989              	.L45:
 294:led.c         ****                 leds[0].mode = MODE_STATIC;
 990              		.loc 1 294 0
 991 00b8 BB1D     		adds	r3, r7, #6
 992 00ba 1B78     		ldrb	r3, [r3]
 993 00bc 002B     		cmp	r3, #0
 994 00be 0CD1     		bne	.L53
 295:led.c         ****                 leds[1].mode = MODE_STATIC;
 995              		.loc 1 295 0
 996 00c0 184B     		ldr	r3, .L56
 997 00c2 0122     		movs	r2, #1
 998 00c4 1A71     		strb	r2, [r3, #4]
 296:led.c         ****                 leds[2].mode = MODE_STATIC;
 999              		.loc 1 296 0
 1000 00c6 174B     		ldr	r3, .L56
 1001 00c8 0122     		movs	r2, #1
 1002 00ca DA72     		strb	r2, [r3, #11]
 297:led.c         ****                 leds[3].mode = MODE_STATIC;
 1003              		.loc 1 297 0
 1004 00cc 154B     		ldr	r3, .L56
 1005 00ce 0122     		movs	r2, #1
 1006 00d0 9A74     		strb	r2, [r3, #18]
 298:led.c         ****             }else if (mode ==1){
 1007              		.loc 1 298 0
ARM GAS  C:\Users\alexport\AppData\Local\Temp\cc3nX14g.s 			page 25


 1008 00d2 144B     		ldr	r3, .L56
 1009 00d4 0122     		movs	r2, #1
 1010 00d6 5A76     		strb	r2, [r3, #25]
 1011              		.loc 1 312 0
 1012 00d8 20E0     		b	.L55
 1013              	.L53:
 299:led.c         ****                 leds[0].mode = MODE_BREATHING;
 1014              		.loc 1 299 0
 1015 00da BB1D     		adds	r3, r7, #6
 1016 00dc 1B78     		ldrb	r3, [r3]
 1017 00de 012B     		cmp	r3, #1
 1018 00e0 0CD1     		bne	.L54
 300:led.c         ****                 leds[1].mode = MODE_BREATHING;
 1019              		.loc 1 300 0
 1020 00e2 104B     		ldr	r3, .L56
 1021 00e4 0222     		movs	r2, #2
 1022 00e6 1A71     		strb	r2, [r3, #4]
 301:led.c         ****                 leds[2].mode = MODE_BREATHING;
 1023              		.loc 1 301 0
 1024 00e8 0E4B     		ldr	r3, .L56
 1025 00ea 0222     		movs	r2, #2
 1026 00ec DA72     		strb	r2, [r3, #11]
 302:led.c         ****                 leds[3].mode = MODE_BREATHING;
 1027              		.loc 1 302 0
 1028 00ee 0D4B     		ldr	r3, .L56
 1029 00f0 0222     		movs	r2, #2
 1030 00f2 9A74     		strb	r2, [r3, #18]
 303:led.c         ****             }else if (mode ==2){
 1031              		.loc 1 303 0
 1032 00f4 0B4B     		ldr	r3, .L56
 1033 00f6 0222     		movs	r2, #2
 1034 00f8 5A76     		strb	r2, [r3, #25]
 1035              		.loc 1 312 0
 1036 00fa 0FE0     		b	.L55
 1037              	.L54:
 304:led.c         ****                 leds[0].mode = MODE_STROBE;
 1038              		.loc 1 304 0
 1039 00fc BB1D     		adds	r3, r7, #6
 1040 00fe 1B78     		ldrb	r3, [r3]
 1041 0100 022B     		cmp	r3, #2
 1042 0102 0BD1     		bne	.L55
 305:led.c         ****                 leds[1].mode = MODE_STROBE;
 1043              		.loc 1 305 0
 1044 0104 074B     		ldr	r3, .L56
 1045 0106 0322     		movs	r2, #3
 1046 0108 1A71     		strb	r2, [r3, #4]
 306:led.c         ****                 leds[2].mode = MODE_STROBE;
 1047              		.loc 1 306 0
 1048 010a 064B     		ldr	r3, .L56
 1049 010c 0322     		movs	r2, #3
 1050 010e DA72     		strb	r2, [r3, #11]
 307:led.c         ****                 leds[3].mode = MODE_STROBE;
 1051              		.loc 1 307 0
 1052 0110 044B     		ldr	r3, .L56
 1053 0112 0322     		movs	r2, #3
 1054 0114 9A74     		strb	r2, [r3, #18]
 308:led.c         ****             }
ARM GAS  C:\Users\alexport\AppData\Local\Temp\cc3nX14g.s 			page 26


 1055              		.loc 1 308 0
 1056 0116 034B     		ldr	r3, .L56
 1057 0118 0322     		movs	r2, #3
 1058 011a 5A76     		strb	r2, [r3, #25]
 1059              	.L55:
 1060              		.loc 1 312 0
 1061 011c C046     		nop
 1062 011e BD46     		mov	sp, r7
 1063 0120 03B0     		add	sp, sp, #12
 1064              		@ sp needed
 1065 0122 90BD     		pop	{r4, r7, pc}
 1066              	.L57:
 1067              		.align	2
 1068              	.L56:
 1069 0124 00000000 		.word	leds
 1070              		.cfi_endproc
 1071              	.LFE42:
 1072              		.size	SetLEDmode, .-SetLEDmode
 1073              		.section	.text.system_SetLed,"ax",%progbits
 1074              		.align	2
 1075              		.global	system_SetLed
 1076              		.code	16
 1077              		.thumb_func
 1078              		.type	system_SetLed, %function
 1079              	system_SetLed:
 1080              	.LFB43:
 313:led.c         **** 
 314:led.c         **** 
 315:led.c         **** 
 316:led.c         **** 
 317:led.c         **** 
 318:led.c         **** 
 319:led.c         **** void system_SetLed(uint8_t num , uint8_t color, uint8_t breath, uint8_t doubleCh)
 320:led.c         **** {   
 1081              		.loc 1 320 0
 1082              		.cfi_startproc
 1083              		@ args = 0, pretend = 0, frame = 16
 1084              		@ frame_needed = 1, uses_anonymous_args = 0
 1085 0000 B0B5     		push	{r4, r5, r7, lr}
 1086              		.cfi_def_cfa_offset 16
 1087              		.cfi_offset 4, -16
 1088              		.cfi_offset 5, -12
 1089              		.cfi_offset 7, -8
 1090              		.cfi_offset 14, -4
 1091 0002 84B0     		sub	sp, sp, #16
 1092              		.cfi_def_cfa_offset 32
 1093 0004 00AF     		add	r7, sp, #0
 1094              		.cfi_def_cfa_register 7
 1095 0006 0500     		movs	r5, r0
 1096 0008 0C00     		movs	r4, r1
 1097 000a 1000     		movs	r0, r2
 1098 000c 1900     		movs	r1, r3
 1099 000e FB1D     		adds	r3, r7, #7
 1100 0010 2A1C     		adds	r2, r5, #0
 1101 0012 1A70     		strb	r2, [r3]
 1102 0014 BB1D     		adds	r3, r7, #6
 1103 0016 221C     		adds	r2, r4, #0
ARM GAS  C:\Users\alexport\AppData\Local\Temp\cc3nX14g.s 			page 27


 1104 0018 1A70     		strb	r2, [r3]
 1105 001a 7B1D     		adds	r3, r7, #5
 1106 001c 021C     		adds	r2, r0, #0
 1107 001e 1A70     		strb	r2, [r3]
 1108 0020 3B1D     		adds	r3, r7, #4
 1109 0022 0A1C     		adds	r2, r1, #0
 1110 0024 1A70     		strb	r2, [r3]
 321:led.c         ****     if(!doubleCh){
 1111              		.loc 1 321 0
 1112 0026 3B1D     		adds	r3, r7, #4
 1113 0028 1B78     		ldrb	r3, [r3]
 1114 002a 002B     		cmp	r3, #0
 1115 002c 00D0     		beq	.LCB906
 1116 002e B3E1     		b	.L59	@long jump
 1117              	.LCB906:
 322:led.c         ****         if(breath==1){
 1118              		.loc 1 322 0
 1119 0030 7B1D     		adds	r3, r7, #5
 1120 0032 1B78     		ldrb	r3, [r3]
 1121 0034 012B     		cmp	r3, #1
 1122 0036 1CD1     		bne	.L60
 1123              	.LBB8:
 323:led.c         ****             for(uint8_t i =0 ;i<4; i++){
 1124              		.loc 1 323 0
 1125 0038 0F23     		movs	r3, #15
 1126 003a FB18     		adds	r3, r7, r3
 1127 003c 0022     		movs	r2, #0
 1128 003e 1A70     		strb	r2, [r3]
 1129 0040 11E0     		b	.L61
 1130              	.L62:
 324:led.c         ****                 leds[i].mode = MODE_BREATHING;
 1131              		.loc 1 324 0 discriminator 3
 1132 0042 0F23     		movs	r3, #15
 1133 0044 FB18     		adds	r3, r7, r3
 1134 0046 1A78     		ldrb	r2, [r3]
 1135 0048 EA49     		ldr	r1, .L116
 1136 004a 1300     		movs	r3, r2
 1137 004c DB00     		lsls	r3, r3, #3
 1138 004e 9B1A     		subs	r3, r3, r2
 1139 0050 CB18     		adds	r3, r1, r3
 1140 0052 0433     		adds	r3, r3, #4
 1141 0054 0222     		movs	r2, #2
 1142 0056 1A70     		strb	r2, [r3]
 323:led.c         ****             for(uint8_t i =0 ;i<4; i++){
 1143              		.loc 1 323 0 discriminator 3
 1144 0058 0F23     		movs	r3, #15
 1145 005a FB18     		adds	r3, r7, r3
 1146 005c 1A78     		ldrb	r2, [r3]
 1147 005e 0F23     		movs	r3, #15
 1148 0060 FB18     		adds	r3, r7, r3
 1149 0062 0132     		adds	r2, r2, #1
 1150 0064 1A70     		strb	r2, [r3]
 1151              	.L61:
 323:led.c         ****             for(uint8_t i =0 ;i<4; i++){
 1152              		.loc 1 323 0 is_stmt 0 discriminator 1
 1153 0066 0F23     		movs	r3, #15
 1154 0068 FB18     		adds	r3, r7, r3
ARM GAS  C:\Users\alexport\AppData\Local\Temp\cc3nX14g.s 			page 28


 1155 006a 1B78     		ldrb	r3, [r3]
 1156 006c 032B     		cmp	r3, #3
 1157 006e E8D9     		bls	.L62
 1158 0070 52E0     		b	.L63
 1159              	.L60:
 1160              	.LBE8:
 325:led.c         ****             }
 326:led.c         ****         }else if (breath==2){
 1161              		.loc 1 326 0 is_stmt 1
 1162 0072 7B1D     		adds	r3, r7, #5
 1163 0074 1B78     		ldrb	r3, [r3]
 1164 0076 022B     		cmp	r3, #2
 1165 0078 1CD1     		bne	.L64
 1166              	.LBB9:
 327:led.c         ****             for(uint8_t i =0 ;i<4; i++){
 1167              		.loc 1 327 0
 1168 007a 0E23     		movs	r3, #14
 1169 007c FB18     		adds	r3, r7, r3
 1170 007e 0022     		movs	r2, #0
 1171 0080 1A70     		strb	r2, [r3]
 1172 0082 11E0     		b	.L65
 1173              	.L66:
 328:led.c         ****                 leds[i].mode = MODE_STROBE;
 1174              		.loc 1 328 0 discriminator 3
 1175 0084 0E23     		movs	r3, #14
 1176 0086 FB18     		adds	r3, r7, r3
 1177 0088 1A78     		ldrb	r2, [r3]
 1178 008a DA49     		ldr	r1, .L116
 1179 008c 1300     		movs	r3, r2
 1180 008e DB00     		lsls	r3, r3, #3
 1181 0090 9B1A     		subs	r3, r3, r2
 1182 0092 CB18     		adds	r3, r1, r3
 1183 0094 0433     		adds	r3, r3, #4
 1184 0096 0322     		movs	r2, #3
 1185 0098 1A70     		strb	r2, [r3]
 327:led.c         ****             for(uint8_t i =0 ;i<4; i++){
 1186              		.loc 1 327 0 discriminator 3
 1187 009a 0E23     		movs	r3, #14
 1188 009c FB18     		adds	r3, r7, r3
 1189 009e 1A78     		ldrb	r2, [r3]
 1190 00a0 0E23     		movs	r3, #14
 1191 00a2 FB18     		adds	r3, r7, r3
 1192 00a4 0132     		adds	r2, r2, #1
 1193 00a6 1A70     		strb	r2, [r3]
 1194              	.L65:
 327:led.c         ****             for(uint8_t i =0 ;i<4; i++){
 1195              		.loc 1 327 0 is_stmt 0 discriminator 1
 1196 00a8 0E23     		movs	r3, #14
 1197 00aa FB18     		adds	r3, r7, r3
 1198 00ac 1B78     		ldrb	r3, [r3]
 1199 00ae 032B     		cmp	r3, #3
 1200 00b0 E8D9     		bls	.L66
 1201 00b2 31E0     		b	.L63
 1202              	.L64:
 1203              	.LBE9:
 1204              	.LBB10:
 329:led.c         ****             }
ARM GAS  C:\Users\alexport\AppData\Local\Temp\cc3nX14g.s 			page 29


 330:led.c         ****         }else {
 331:led.c         ****             for(uint8_t i =0 ;i<4; i++){
 1205              		.loc 1 331 0 is_stmt 1
 1206 00b4 0D23     		movs	r3, #13
 1207 00b6 FB18     		adds	r3, r7, r3
 1208 00b8 0022     		movs	r2, #0
 1209 00ba 1A70     		strb	r2, [r3]
 1210 00bc 27E0     		b	.L67
 1211              	.L68:
 332:led.c         ****                 leds[i].mode = MODE_STATIC;
 1212              		.loc 1 332 0 discriminator 3
 1213 00be 0D23     		movs	r3, #13
 1214 00c0 FB18     		adds	r3, r7, r3
 1215 00c2 1A78     		ldrb	r2, [r3]
 1216 00c4 CB49     		ldr	r1, .L116
 1217 00c6 1300     		movs	r3, r2
 1218 00c8 DB00     		lsls	r3, r3, #3
 1219 00ca 9B1A     		subs	r3, r3, r2
 1220 00cc CB18     		adds	r3, r1, r3
 1221 00ce 0433     		adds	r3, r3, #4
 1222 00d0 0122     		movs	r2, #1
 1223 00d2 1A70     		strb	r2, [r3]
 333:led.c         ****                 leds[i].step=SIN_CNT-1;
 1224              		.loc 1 333 0 discriminator 3
 1225 00d4 0D23     		movs	r3, #13
 1226 00d6 FB18     		adds	r3, r7, r3
 1227 00d8 1A78     		ldrb	r2, [r3]
 1228 00da C649     		ldr	r1, .L116
 1229 00dc 1300     		movs	r3, r2
 1230 00de DB00     		lsls	r3, r3, #3
 1231 00e0 9B1A     		subs	r3, r3, r2
 1232 00e2 CB18     		adds	r3, r1, r3
 1233 00e4 0533     		adds	r3, r3, #5
 1234 00e6 1322     		movs	r2, #19
 1235 00e8 1A70     		strb	r2, [r3]
 334:led.c         ****                 leds[i].direction=-1;
 1236              		.loc 1 334 0 discriminator 3
 1237 00ea 0D23     		movs	r3, #13
 1238 00ec FB18     		adds	r3, r7, r3
 1239 00ee 1A78     		ldrb	r2, [r3]
 1240 00f0 C049     		ldr	r1, .L116
 1241 00f2 1300     		movs	r3, r2
 1242 00f4 DB00     		lsls	r3, r3, #3
 1243 00f6 9B1A     		subs	r3, r3, r2
 1244 00f8 CB18     		adds	r3, r1, r3
 1245 00fa 0633     		adds	r3, r3, #6
 1246 00fc FF22     		movs	r2, #255
 1247 00fe 1A70     		strb	r2, [r3]
 331:led.c         ****                 leds[i].mode = MODE_STATIC;
 1248              		.loc 1 331 0 discriminator 3
 1249 0100 0D23     		movs	r3, #13
 1250 0102 FB18     		adds	r3, r7, r3
 1251 0104 1A78     		ldrb	r2, [r3]
 1252 0106 0D23     		movs	r3, #13
 1253 0108 FB18     		adds	r3, r7, r3
 1254 010a 0132     		adds	r2, r2, #1
 1255 010c 1A70     		strb	r2, [r3]
ARM GAS  C:\Users\alexport\AppData\Local\Temp\cc3nX14g.s 			page 30


 1256              	.L67:
 331:led.c         ****                 leds[i].mode = MODE_STATIC;
 1257              		.loc 1 331 0 is_stmt 0 discriminator 1
 1258 010e 0D23     		movs	r3, #13
 1259 0110 FB18     		adds	r3, r7, r3
 1260 0112 1B78     		ldrb	r3, [r3]
 1261 0114 032B     		cmp	r3, #3
 1262 0116 D2D9     		bls	.L68
 1263              	.L63:
 1264              	.LBE10:
 335:led.c         ****             }
 336:led.c         ****         }
 337:led.c         ****         switch(color){
 1265              		.loc 1 337 0 is_stmt 1
 1266 0118 BB1D     		adds	r3, r7, #6
 1267 011a 1B78     		ldrb	r3, [r3]
 1268 011c 092B     		cmp	r3, #9
 1269 011e 00D9     		bls	.LCB1054
 1270 0120 EAE2     		b	.L114	@long jump
 1271              	.LCB1054:
 1272 0122 9A00     		lsls	r2, r3, #2
 1273 0124 B44B     		ldr	r3, .L116+4
 1274 0126 D318     		adds	r3, r2, r3
 1275 0128 1B68     		ldr	r3, [r3]
 1276 012a 9F46     		mov	pc, r3
 1277              		.section	.rodata
 1278              		.align	2
 1279              	.L71:
 1280 0000 2C010000 		.word	.L70
 1281 0004 DA010000 		.word	.L72
 1282 0008 46010000 		.word	.L73
 1283 000c 90010000 		.word	.L74
 1284 0010 24020000 		.word	.L75
 1285 0014 6E020000 		.word	.L76
 1286 0018 F8060000 		.word	.L114
 1287 001c B8020000 		.word	.L77
 1288 0020 02030000 		.word	.L78
 1289 0024 4C030000 		.word	.L79
 1290              		.section	.text.system_SetLed
 1291              	.L70:
 338:led.c         ****             case  SYSTEM_LED_OFF: 
 339:led.c         ****                 leds[0].mode = MODE_OFF;
 1292              		.loc 1 339 0
 1293 012c B14B     		ldr	r3, .L116
 1294 012e 0022     		movs	r2, #0
 1295 0130 1A71     		strb	r2, [r3, #4]
 340:led.c         ****                 leds[1].mode = MODE_OFF;
 1296              		.loc 1 340 0
 1297 0132 B04B     		ldr	r3, .L116
 1298 0134 0022     		movs	r2, #0
 1299 0136 DA72     		strb	r2, [r3, #11]
 341:led.c         ****                 leds[2].mode = MODE_OFF;
 1300              		.loc 1 341 0
 1301 0138 AE4B     		ldr	r3, .L116
 1302 013a 0022     		movs	r2, #0
 1303 013c 9A74     		strb	r2, [r3, #18]
 342:led.c         ****                 leds[3].mode = MODE_OFF;
ARM GAS  C:\Users\alexport\AppData\Local\Temp\cc3nX14g.s 			page 31


 1304              		.loc 1 342 0
 1305 013e AD4B     		ldr	r3, .L116
 1306 0140 0022     		movs	r2, #0
 1307 0142 5A76     		strb	r2, [r3, #25]
 343:led.c         ****             break;
 1308              		.loc 1 343 0
 1309 0144 D8E2     		b	.L80
 1310              	.L73:
 344:led.c         ****             case  SYSTEM_LED_GREEN:
 345:led.c         ****                 leds[0].r_base =0;leds[0].g_base =225;leds[0].b_base =0;
 1311              		.loc 1 345 0
 1312 0146 AB4B     		ldr	r3, .L116
 1313 0148 0022     		movs	r2, #0
 1314 014a 5A70     		strb	r2, [r3, #1]
 1315 014c A94B     		ldr	r3, .L116
 1316 014e E122     		movs	r2, #225
 1317 0150 9A70     		strb	r2, [r3, #2]
 1318 0152 A84B     		ldr	r3, .L116
 1319 0154 0022     		movs	r2, #0
 1320 0156 DA70     		strb	r2, [r3, #3]
 346:led.c         ****                 leds[1].r_base =0;leds[1].g_base =225;leds[1].b_base =0;
 1321              		.loc 1 346 0
 1322 0158 A64B     		ldr	r3, .L116
 1323 015a 0022     		movs	r2, #0
 1324 015c 1A72     		strb	r2, [r3, #8]
 1325 015e A54B     		ldr	r3, .L116
 1326 0160 E122     		movs	r2, #225
 1327 0162 5A72     		strb	r2, [r3, #9]
 1328 0164 A34B     		ldr	r3, .L116
 1329 0166 0022     		movs	r2, #0
 1330 0168 9A72     		strb	r2, [r3, #10]
 347:led.c         ****                 leds[2].r_base =0;leds[2].g_base =225;leds[2].b_base =0;
 1331              		.loc 1 347 0
 1332 016a A24B     		ldr	r3, .L116
 1333 016c 0022     		movs	r2, #0
 1334 016e DA73     		strb	r2, [r3, #15]
 1335 0170 A04B     		ldr	r3, .L116
 1336 0172 E122     		movs	r2, #225
 1337 0174 1A74     		strb	r2, [r3, #16]
 1338 0176 9F4B     		ldr	r3, .L116
 1339 0178 0022     		movs	r2, #0
 1340 017a 5A74     		strb	r2, [r3, #17]
 348:led.c         ****                 leds[3].r_base =0;leds[3].g_base =225;leds[3].b_base =0;
 1341              		.loc 1 348 0
 1342 017c 9D4B     		ldr	r3, .L116
 1343 017e 0022     		movs	r2, #0
 1344 0180 9A75     		strb	r2, [r3, #22]
 1345 0182 9C4B     		ldr	r3, .L116
 1346 0184 E122     		movs	r2, #225
 1347 0186 DA75     		strb	r2, [r3, #23]
 1348 0188 9A4B     		ldr	r3, .L116
 1349 018a 0022     		movs	r2, #0
 1350 018c 1A76     		strb	r2, [r3, #24]
 349:led.c         ****             break;
 1351              		.loc 1 349 0
 1352 018e B3E2     		b	.L80
 1353              	.L74:
ARM GAS  C:\Users\alexport\AppData\Local\Temp\cc3nX14g.s 			page 32


 350:led.c         ****             case  SYSTEM_LED_YELLOW:
 351:led.c         ****                 leds[0].r_base =100;leds[0].g_base =200;leds[0].b_base =0;
 1354              		.loc 1 351 0
 1355 0190 984B     		ldr	r3, .L116
 1356 0192 6422     		movs	r2, #100
 1357 0194 5A70     		strb	r2, [r3, #1]
 1358 0196 974B     		ldr	r3, .L116
 1359 0198 C822     		movs	r2, #200
 1360 019a 9A70     		strb	r2, [r3, #2]
 1361 019c 954B     		ldr	r3, .L116
 1362 019e 0022     		movs	r2, #0
 1363 01a0 DA70     		strb	r2, [r3, #3]
 352:led.c         ****                 leds[1].r_base =100;leds[1].g_base =200;leds[1].b_base =0;
 1364              		.loc 1 352 0
 1365 01a2 944B     		ldr	r3, .L116
 1366 01a4 6422     		movs	r2, #100
 1367 01a6 1A72     		strb	r2, [r3, #8]
 1368 01a8 924B     		ldr	r3, .L116
 1369 01aa C822     		movs	r2, #200
 1370 01ac 5A72     		strb	r2, [r3, #9]
 1371 01ae 914B     		ldr	r3, .L116
 1372 01b0 0022     		movs	r2, #0
 1373 01b2 9A72     		strb	r2, [r3, #10]
 353:led.c         ****                 leds[2].r_base =100;leds[2].g_base =200;leds[2].b_base =0;
 1374              		.loc 1 353 0
 1375 01b4 8F4B     		ldr	r3, .L116
 1376 01b6 6422     		movs	r2, #100
 1377 01b8 DA73     		strb	r2, [r3, #15]
 1378 01ba 8E4B     		ldr	r3, .L116
 1379 01bc C822     		movs	r2, #200
 1380 01be 1A74     		strb	r2, [r3, #16]
 1381 01c0 8C4B     		ldr	r3, .L116
 1382 01c2 0022     		movs	r2, #0
 1383 01c4 5A74     		strb	r2, [r3, #17]
 354:led.c         ****                 leds[3].r_base =100;leds[3].g_base =200;leds[3].b_base =0;
 1384              		.loc 1 354 0
 1385 01c6 8B4B     		ldr	r3, .L116
 1386 01c8 6422     		movs	r2, #100
 1387 01ca 9A75     		strb	r2, [r3, #22]
 1388 01cc 894B     		ldr	r3, .L116
 1389 01ce C822     		movs	r2, #200
 1390 01d0 DA75     		strb	r2, [r3, #23]
 1391 01d2 884B     		ldr	r3, .L116
 1392 01d4 0022     		movs	r2, #0
 1393 01d6 1A76     		strb	r2, [r3, #24]
 355:led.c         ****             break; 
 1394              		.loc 1 355 0
 1395 01d8 8EE2     		b	.L80
 1396              	.L72:
 356:led.c         ****             case  SYSTEM_LED_RED:
 357:led.c         ****                 leds[0].r_base =255;leds[0].g_base =0;leds[0].b_base =0;
 1397              		.loc 1 357 0
 1398 01da 864B     		ldr	r3, .L116
 1399 01dc FF22     		movs	r2, #255
 1400 01de 5A70     		strb	r2, [r3, #1]
 1401 01e0 844B     		ldr	r3, .L116
 1402 01e2 0022     		movs	r2, #0
ARM GAS  C:\Users\alexport\AppData\Local\Temp\cc3nX14g.s 			page 33


 1403 01e4 9A70     		strb	r2, [r3, #2]
 1404 01e6 834B     		ldr	r3, .L116
 1405 01e8 0022     		movs	r2, #0
 1406 01ea DA70     		strb	r2, [r3, #3]
 358:led.c         ****                 leds[1].r_base =255;leds[1].g_base =0;leds[1].b_base =0; 
 1407              		.loc 1 358 0
 1408 01ec 814B     		ldr	r3, .L116
 1409 01ee FF22     		movs	r2, #255
 1410 01f0 1A72     		strb	r2, [r3, #8]
 1411 01f2 804B     		ldr	r3, .L116
 1412 01f4 0022     		movs	r2, #0
 1413 01f6 5A72     		strb	r2, [r3, #9]
 1414 01f8 7E4B     		ldr	r3, .L116
 1415 01fa 0022     		movs	r2, #0
 1416 01fc 9A72     		strb	r2, [r3, #10]
 359:led.c         ****                 leds[2].r_base =255;leds[2].g_base =0;leds[2].b_base =0;
 1417              		.loc 1 359 0
 1418 01fe 7D4B     		ldr	r3, .L116
 1419 0200 FF22     		movs	r2, #255
 1420 0202 DA73     		strb	r2, [r3, #15]
 1421 0204 7B4B     		ldr	r3, .L116
 1422 0206 0022     		movs	r2, #0
 1423 0208 1A74     		strb	r2, [r3, #16]
 1424 020a 7A4B     		ldr	r3, .L116
 1425 020c 0022     		movs	r2, #0
 1426 020e 5A74     		strb	r2, [r3, #17]
 360:led.c         ****                 leds[3].r_base =255;leds[3].g_base =0;leds[3].b_base =0;
 1427              		.loc 1 360 0
 1428 0210 784B     		ldr	r3, .L116
 1429 0212 FF22     		movs	r2, #255
 1430 0214 9A75     		strb	r2, [r3, #22]
 1431 0216 774B     		ldr	r3, .L116
 1432 0218 0022     		movs	r2, #0
 1433 021a DA75     		strb	r2, [r3, #23]
 1434 021c 754B     		ldr	r3, .L116
 1435 021e 0022     		movs	r2, #0
 1436 0220 1A76     		strb	r2, [r3, #24]
 361:led.c         ****             break;    
 1437              		.loc 1 361 0
 1438 0222 69E2     		b	.L80
 1439              	.L75:
 362:led.c         ****             case  SYSTEM_LED_BLUE:
 363:led.c         ****                 leds[0].r_base =0;leds[0].g_base =0;leds[0].b_base =255;
 1440              		.loc 1 363 0
 1441 0224 734B     		ldr	r3, .L116
 1442 0226 0022     		movs	r2, #0
 1443 0228 5A70     		strb	r2, [r3, #1]
 1444 022a 724B     		ldr	r3, .L116
 1445 022c 0022     		movs	r2, #0
 1446 022e 9A70     		strb	r2, [r3, #2]
 1447 0230 704B     		ldr	r3, .L116
 1448 0232 FF22     		movs	r2, #255
 1449 0234 DA70     		strb	r2, [r3, #3]
 364:led.c         ****                 leds[1].r_base =0;leds[1].g_base =0;leds[1].b_base =255;
 1450              		.loc 1 364 0
 1451 0236 6F4B     		ldr	r3, .L116
 1452 0238 0022     		movs	r2, #0
ARM GAS  C:\Users\alexport\AppData\Local\Temp\cc3nX14g.s 			page 34


 1453 023a 1A72     		strb	r2, [r3, #8]
 1454 023c 6D4B     		ldr	r3, .L116
 1455 023e 0022     		movs	r2, #0
 1456 0240 5A72     		strb	r2, [r3, #9]
 1457 0242 6C4B     		ldr	r3, .L116
 1458 0244 FF22     		movs	r2, #255
 1459 0246 9A72     		strb	r2, [r3, #10]
 365:led.c         ****                 leds[2].r_base =0;leds[2].g_base =0;leds[2].b_base =255;
 1460              		.loc 1 365 0
 1461 0248 6A4B     		ldr	r3, .L116
 1462 024a 0022     		movs	r2, #0
 1463 024c DA73     		strb	r2, [r3, #15]
 1464 024e 694B     		ldr	r3, .L116
 1465 0250 0022     		movs	r2, #0
 1466 0252 1A74     		strb	r2, [r3, #16]
 1467 0254 674B     		ldr	r3, .L116
 1468 0256 FF22     		movs	r2, #255
 1469 0258 5A74     		strb	r2, [r3, #17]
 366:led.c         ****                 leds[3].r_base =0;leds[3].g_base =0;leds[3].b_base =255;
 1470              		.loc 1 366 0
 1471 025a 664B     		ldr	r3, .L116
 1472 025c 0022     		movs	r2, #0
 1473 025e 9A75     		strb	r2, [r3, #22]
 1474 0260 644B     		ldr	r3, .L116
 1475 0262 0022     		movs	r2, #0
 1476 0264 DA75     		strb	r2, [r3, #23]
 1477 0266 634B     		ldr	r3, .L116
 1478 0268 FF22     		movs	r2, #255
 1479 026a 1A76     		strb	r2, [r3, #24]
 367:led.c         ****             break;
 1480              		.loc 1 367 0
 1481 026c 44E2     		b	.L80
 1482              	.L76:
 368:led.c         ****             case  SYSTEM_LED_MAGENTA:
 369:led.c         ****                 leds[0].r_base =255;leds[0].g_base =0;leds[0].b_base =255;
 1483              		.loc 1 369 0
 1484 026e 614B     		ldr	r3, .L116
 1485 0270 FF22     		movs	r2, #255
 1486 0272 5A70     		strb	r2, [r3, #1]
 1487 0274 5F4B     		ldr	r3, .L116
 1488 0276 0022     		movs	r2, #0
 1489 0278 9A70     		strb	r2, [r3, #2]
 1490 027a 5E4B     		ldr	r3, .L116
 1491 027c FF22     		movs	r2, #255
 1492 027e DA70     		strb	r2, [r3, #3]
 370:led.c         ****                 leds[1].r_base =255;leds[1].g_base =0;leds[1].b_base =255;
 1493              		.loc 1 370 0
 1494 0280 5C4B     		ldr	r3, .L116
 1495 0282 FF22     		movs	r2, #255
 1496 0284 1A72     		strb	r2, [r3, #8]
 1497 0286 5B4B     		ldr	r3, .L116
 1498 0288 0022     		movs	r2, #0
 1499 028a 5A72     		strb	r2, [r3, #9]
 1500 028c 594B     		ldr	r3, .L116
 1501 028e FF22     		movs	r2, #255
 1502 0290 9A72     		strb	r2, [r3, #10]
 371:led.c         ****                 leds[2].r_base =255;leds[2].g_base =0;leds[2].b_base =255;
ARM GAS  C:\Users\alexport\AppData\Local\Temp\cc3nX14g.s 			page 35


 1503              		.loc 1 371 0
 1504 0292 584B     		ldr	r3, .L116
 1505 0294 FF22     		movs	r2, #255
 1506 0296 DA73     		strb	r2, [r3, #15]
 1507 0298 564B     		ldr	r3, .L116
 1508 029a 0022     		movs	r2, #0
 1509 029c 1A74     		strb	r2, [r3, #16]
 1510 029e 554B     		ldr	r3, .L116
 1511 02a0 FF22     		movs	r2, #255
 1512 02a2 5A74     		strb	r2, [r3, #17]
 372:led.c         ****                 leds[3].r_base =255;leds[3].g_base =0;leds[3].b_base =255;
 1513              		.loc 1 372 0
 1514 02a4 534B     		ldr	r3, .L116
 1515 02a6 FF22     		movs	r2, #255
 1516 02a8 9A75     		strb	r2, [r3, #22]
 1517 02aa 524B     		ldr	r3, .L116
 1518 02ac 0022     		movs	r2, #0
 1519 02ae DA75     		strb	r2, [r3, #23]
 1520 02b0 504B     		ldr	r3, .L116
 1521 02b2 FF22     		movs	r2, #255
 1522 02b4 1A76     		strb	r2, [r3, #24]
 373:led.c         ****             break;  
 1523              		.loc 1 373 0
 1524 02b6 1FE2     		b	.L80
 1525              	.L77:
 374:led.c         ****             case  SYSTEM_LED_WHITE:
 375:led.c         ****                 leds[0].r_base =30;leds[0].g_base =128;leds[0].b_base =100;
 1526              		.loc 1 375 0
 1527 02b8 4E4B     		ldr	r3, .L116
 1528 02ba 1E22     		movs	r2, #30
 1529 02bc 5A70     		strb	r2, [r3, #1]
 1530 02be 4D4B     		ldr	r3, .L116
 1531 02c0 8022     		movs	r2, #128
 1532 02c2 9A70     		strb	r2, [r3, #2]
 1533 02c4 4B4B     		ldr	r3, .L116
 1534 02c6 6422     		movs	r2, #100
 1535 02c8 DA70     		strb	r2, [r3, #3]
 376:led.c         ****                 leds[1].r_base =30;leds[1].g_base =128;leds[1].b_base =100;
 1536              		.loc 1 376 0
 1537 02ca 4A4B     		ldr	r3, .L116
 1538 02cc 1E22     		movs	r2, #30
 1539 02ce 1A72     		strb	r2, [r3, #8]
 1540 02d0 484B     		ldr	r3, .L116
 1541 02d2 8022     		movs	r2, #128
 1542 02d4 5A72     		strb	r2, [r3, #9]
 1543 02d6 474B     		ldr	r3, .L116
 1544 02d8 6422     		movs	r2, #100
 1545 02da 9A72     		strb	r2, [r3, #10]
 377:led.c         ****                 leds[2].r_base =30;leds[2].g_base =128;leds[2].b_base =100;
 1546              		.loc 1 377 0
 1547 02dc 454B     		ldr	r3, .L116
 1548 02de 1E22     		movs	r2, #30
 1549 02e0 DA73     		strb	r2, [r3, #15]
 1550 02e2 444B     		ldr	r3, .L116
 1551 02e4 8022     		movs	r2, #128
 1552 02e6 1A74     		strb	r2, [r3, #16]
 1553 02e8 424B     		ldr	r3, .L116
ARM GAS  C:\Users\alexport\AppData\Local\Temp\cc3nX14g.s 			page 36


 1554 02ea 6422     		movs	r2, #100
 1555 02ec 5A74     		strb	r2, [r3, #17]
 378:led.c         ****                 leds[3].r_base =30;leds[3].g_base =128;leds[3].b_base =100;
 1556              		.loc 1 378 0
 1557 02ee 414B     		ldr	r3, .L116
 1558 02f0 1E22     		movs	r2, #30
 1559 02f2 9A75     		strb	r2, [r3, #22]
 1560 02f4 3F4B     		ldr	r3, .L116
 1561 02f6 8022     		movs	r2, #128
 1562 02f8 DA75     		strb	r2, [r3, #23]
 1563 02fa 3E4B     		ldr	r3, .L116
 1564 02fc 6422     		movs	r2, #100
 1565 02fe 1A76     		strb	r2, [r3, #24]
 379:led.c         ****             break;   
 1566              		.loc 1 379 0
 1567 0300 FAE1     		b	.L80
 1568              	.L78:
 380:led.c         ****                 case  SYSTEM_LED_ORANGE:
 381:led.c         ****                 leds[0].r_base =250;leds[0].g_base =100;leds[0].b_base =0;
 1569              		.loc 1 381 0
 1570 0302 3C4B     		ldr	r3, .L116
 1571 0304 FA22     		movs	r2, #250
 1572 0306 5A70     		strb	r2, [r3, #1]
 1573 0308 3A4B     		ldr	r3, .L116
 1574 030a 6422     		movs	r2, #100
 1575 030c 9A70     		strb	r2, [r3, #2]
 1576 030e 394B     		ldr	r3, .L116
 1577 0310 0022     		movs	r2, #0
 1578 0312 DA70     		strb	r2, [r3, #3]
 382:led.c         ****                 leds[1].r_base =250;leds[1].g_base =100;leds[1].b_base =0;
 1579              		.loc 1 382 0
 1580 0314 374B     		ldr	r3, .L116
 1581 0316 FA22     		movs	r2, #250
 1582 0318 1A72     		strb	r2, [r3, #8]
 1583 031a 364B     		ldr	r3, .L116
 1584 031c 6422     		movs	r2, #100
 1585 031e 5A72     		strb	r2, [r3, #9]
 1586 0320 344B     		ldr	r3, .L116
 1587 0322 0022     		movs	r2, #0
 1588 0324 9A72     		strb	r2, [r3, #10]
 383:led.c         ****                 leds[2].r_base =250;leds[2].g_base =100;leds[2].b_base =0;
 1589              		.loc 1 383 0
 1590 0326 334B     		ldr	r3, .L116
 1591 0328 FA22     		movs	r2, #250
 1592 032a DA73     		strb	r2, [r3, #15]
 1593 032c 314B     		ldr	r3, .L116
 1594 032e 6422     		movs	r2, #100
 1595 0330 1A74     		strb	r2, [r3, #16]
 1596 0332 304B     		ldr	r3, .L116
 1597 0334 0022     		movs	r2, #0
 1598 0336 5A74     		strb	r2, [r3, #17]
 384:led.c         ****                 leds[3].r_base =250;leds[3].g_base =100;leds[3].b_base =0;
 1599              		.loc 1 384 0
 1600 0338 2E4B     		ldr	r3, .L116
 1601 033a FA22     		movs	r2, #250
 1602 033c 9A75     		strb	r2, [r3, #22]
 1603 033e 2D4B     		ldr	r3, .L116
ARM GAS  C:\Users\alexport\AppData\Local\Temp\cc3nX14g.s 			page 37


 1604 0340 6422     		movs	r2, #100
 1605 0342 DA75     		strb	r2, [r3, #23]
 1606 0344 2B4B     		ldr	r3, .L116
 1607 0346 0022     		movs	r2, #0
 1608 0348 1A76     		strb	r2, [r3, #24]
 385:led.c         ****             break;  
 1609              		.loc 1 385 0
 1610 034a D5E1     		b	.L80
 1611              	.L79:
 386:led.c         ****                 case  SYSTEM_LED_CYAN:
 387:led.c         ****                 leds[0].r_base =12;leds[0].g_base =250;leds[0].b_base =245;
 1612              		.loc 1 387 0
 1613 034c 294B     		ldr	r3, .L116
 1614 034e 0C22     		movs	r2, #12
 1615 0350 5A70     		strb	r2, [r3, #1]
 1616 0352 284B     		ldr	r3, .L116
 1617 0354 FA22     		movs	r2, #250
 1618 0356 9A70     		strb	r2, [r3, #2]
 1619 0358 264B     		ldr	r3, .L116
 1620 035a F522     		movs	r2, #245
 1621 035c DA70     		strb	r2, [r3, #3]
 388:led.c         ****                 leds[1].r_base =12;leds[1].g_base =250;leds[1].b_base =245;
 1622              		.loc 1 388 0
 1623 035e 254B     		ldr	r3, .L116
 1624 0360 0C22     		movs	r2, #12
 1625 0362 1A72     		strb	r2, [r3, #8]
 1626 0364 234B     		ldr	r3, .L116
 1627 0366 FA22     		movs	r2, #250
 1628 0368 5A72     		strb	r2, [r3, #9]
 1629 036a 224B     		ldr	r3, .L116
 1630 036c F522     		movs	r2, #245
 1631 036e 9A72     		strb	r2, [r3, #10]
 389:led.c         ****                 leds[2].r_base =12;leds[2].g_base =250;leds[2].b_base =245;
 1632              		.loc 1 389 0
 1633 0370 204B     		ldr	r3, .L116
 1634 0372 0C22     		movs	r2, #12
 1635 0374 DA73     		strb	r2, [r3, #15]
 1636 0376 1F4B     		ldr	r3, .L116
 1637 0378 FA22     		movs	r2, #250
 1638 037a 1A74     		strb	r2, [r3, #16]
 1639 037c 1D4B     		ldr	r3, .L116
 1640 037e F522     		movs	r2, #245
 1641 0380 5A74     		strb	r2, [r3, #17]
 390:led.c         ****                 leds[3].r_base =12;leds[3].g_base =250;leds[3].b_base =245;
 1642              		.loc 1 390 0
 1643 0382 1C4B     		ldr	r3, .L116
 1644 0384 0C22     		movs	r2, #12
 1645 0386 9A75     		strb	r2, [r3, #22]
 1646 0388 1A4B     		ldr	r3, .L116
 1647 038a FA22     		movs	r2, #250
 1648 038c DA75     		strb	r2, [r3, #23]
 1649 038e 194B     		ldr	r3, .L116
 1650 0390 F522     		movs	r2, #245
 1651 0392 1A76     		strb	r2, [r3, #24]
 391:led.c         ****             break;  
 1652              		.loc 1 391 0
 1653 0394 C046     		nop
ARM GAS  C:\Users\alexport\AppData\Local\Temp\cc3nX14g.s 			page 38


 1654 0396 AFE1     		b	.L80
 1655              	.L59:
 392:led.c         ****         } 
 393:led.c         ****     }else{
 394:led.c         ****         if(breath){
 1656              		.loc 1 394 0
 1657 0398 7B1D     		adds	r3, r7, #5
 1658 039a 1B78     		ldrb	r3, [r3]
 1659 039c 002B     		cmp	r3, #0
 1660 039e 11D0     		beq	.L81
 395:led.c         ****             if(num==1){
 1661              		.loc 1 395 0
 1662 03a0 FB1D     		adds	r3, r7, #7
 1663 03a2 1B78     		ldrb	r3, [r3]
 1664 03a4 012B     		cmp	r3, #1
 1665 03a6 06D1     		bne	.L82
 396:led.c         ****                 leds[0].mode = MODE_BREATHING;
 1666              		.loc 1 396 0
 1667 03a8 124B     		ldr	r3, .L116
 1668 03aa 0222     		movs	r2, #2
 1669 03ac 1A71     		strb	r2, [r3, #4]
 397:led.c         ****                 leds[1].mode = MODE_BREATHING;
 1670              		.loc 1 397 0
 1671 03ae 114B     		ldr	r3, .L116
 1672 03b0 0222     		movs	r2, #2
 1673 03b2 DA72     		strb	r2, [r3, #11]
 1674 03b4 34E0     		b	.L84
 1675              	.L82:
 398:led.c         ****             }else{
 399:led.c         ****                 leds[2].mode = MODE_BREATHING;
 1676              		.loc 1 399 0
 1677 03b6 0F4B     		ldr	r3, .L116
 1678 03b8 0222     		movs	r2, #2
 1679 03ba 9A74     		strb	r2, [r3, #18]
 400:led.c         ****                 leds[3].mode = MODE_BREATHING;
 1680              		.loc 1 400 0
 1681 03bc 0D4B     		ldr	r3, .L116
 1682 03be 0222     		movs	r2, #2
 1683 03c0 5A76     		strb	r2, [r3, #25]
 1684 03c2 2DE0     		b	.L84
 1685              	.L81:
 401:led.c         ****             }
 402:led.c         ****         }else{
 403:led.c         ****             if(num==1){
 1686              		.loc 1 403 0
 1687 03c4 FB1D     		adds	r3, r7, #7
 1688 03c6 1B78     		ldrb	r3, [r3]
 1689 03c8 012B     		cmp	r3, #1
 1690 03ca 17D1     		bne	.L85
 404:led.c         ****                 leds[0].mode = MODE_STATIC;leds[0].step=SIN_CNT-1;leds[0].direction=-1;
 1691              		.loc 1 404 0
 1692 03cc 094B     		ldr	r3, .L116
 1693 03ce 0122     		movs	r2, #1
 1694 03d0 1A71     		strb	r2, [r3, #4]
 1695 03d2 084B     		ldr	r3, .L116
 1696 03d4 1322     		movs	r2, #19
 1697 03d6 5A71     		strb	r2, [r3, #5]
ARM GAS  C:\Users\alexport\AppData\Local\Temp\cc3nX14g.s 			page 39


 1698 03d8 064B     		ldr	r3, .L116
 1699 03da FF22     		movs	r2, #255
 1700 03dc 9A71     		strb	r2, [r3, #6]
 405:led.c         ****                 leds[1].mode = MODE_STATIC;leds[1].step=SIN_CNT-1;leds[1].direction=-1;
 1701              		.loc 1 405 0
 1702 03de 054B     		ldr	r3, .L116
 1703 03e0 0122     		movs	r2, #1
 1704 03e2 DA72     		strb	r2, [r3, #11]
 1705 03e4 034B     		ldr	r3, .L116
 1706 03e6 1322     		movs	r2, #19
 1707 03e8 1A73     		strb	r2, [r3, #12]
 1708 03ea 024B     		ldr	r3, .L116
 1709 03ec FF22     		movs	r2, #255
 1710 03ee 5A73     		strb	r2, [r3, #13]
 1711 03f0 16E0     		b	.L84
 1712              	.L117:
 1713 03f2 C046     		.align	2
 1714              	.L116:
 1715 03f4 00000000 		.word	leds
 1716 03f8 00000000 		.word	.L71
 1717              	.L85:
 406:led.c         ****             }else{
 407:led.c         ****                 leds[2].mode = MODE_STATIC;leds[2].step=SIN_CNT-1;leds[2].direction=-1;
 1718              		.loc 1 407 0
 1719 03fc C04B     		ldr	r3, .L118
 1720 03fe 0122     		movs	r2, #1
 1721 0400 9A74     		strb	r2, [r3, #18]
 1722 0402 BF4B     		ldr	r3, .L118
 1723 0404 1322     		movs	r2, #19
 1724 0406 DA74     		strb	r2, [r3, #19]
 1725 0408 BD4B     		ldr	r3, .L118
 1726 040a FF22     		movs	r2, #255
 1727 040c 1A75     		strb	r2, [r3, #20]
 408:led.c         ****                 leds[3].mode = MODE_STATIC;leds[3].step=SIN_CNT-1;leds[3].direction=-1;
 1728              		.loc 1 408 0
 1729 040e BC4B     		ldr	r3, .L118
 1730 0410 0122     		movs	r2, #1
 1731 0412 5A76     		strb	r2, [r3, #25]
 1732 0414 BA4B     		ldr	r3, .L118
 1733 0416 1322     		movs	r2, #19
 1734 0418 9A76     		strb	r2, [r3, #26]
 1735 041a B94B     		ldr	r3, .L118
 1736 041c FF22     		movs	r2, #255
 1737 041e DA76     		strb	r2, [r3, #27]
 1738              	.L84:
 409:led.c         ****             }
 410:led.c         ****         }
 411:led.c         ****         switch(color){
 1739              		.loc 1 411 0
 1740 0420 BB1D     		adds	r3, r7, #6
 1741 0422 1B78     		ldrb	r3, [r3]
 1742 0424 092B     		cmp	r3, #9
 1743 0426 00D9     		bls	.LCB1487
 1744 0428 66E1     		b	.L114	@long jump
 1745              	.LCB1487:
 1746 042a 9A00     		lsls	r2, r3, #2
 1747 042c B54B     		ldr	r3, .L118+4
ARM GAS  C:\Users\alexport\AppData\Local\Temp\cc3nX14g.s 			page 40


 1748 042e D318     		adds	r3, r2, r3
 1749 0430 1B68     		ldr	r3, [r3]
 1750 0432 9F46     		mov	pc, r3
 1751              		.section	.rodata
 1752              		.align	2
 1753              	.L87:
 1754 0028 34040000 		.word	.L86
 1755 002c 00050000 		.word	.L88
 1756 0030 58040000 		.word	.L89
 1757 0034 AC040000 		.word	.L90
 1758 0038 54050000 		.word	.L91
 1759 003c A8050000 		.word	.L92
 1760 0040 F8060000 		.word	.L114
 1761 0044 FC050000 		.word	.L93
 1762 0048 50060000 		.word	.L94
 1763 004c A4060000 		.word	.L95
 1764              		.section	.text.system_SetLed
 1765              	.L86:
 412:led.c         ****             case  SYSTEM_LED_OFF: 
 413:led.c         ****                 if(num==1){
 1766              		.loc 1 413 0
 1767 0434 FB1D     		adds	r3, r7, #7
 1768 0436 1B78     		ldrb	r3, [r3]
 1769 0438 012B     		cmp	r3, #1
 1770 043a 06D1     		bne	.L96
 414:led.c         ****                     leds[0].mode = MODE_OFF;
 1771              		.loc 1 414 0
 1772 043c B04B     		ldr	r3, .L118
 1773 043e 0022     		movs	r2, #0
 1774 0440 1A71     		strb	r2, [r3, #4]
 415:led.c         ****                     leds[1].mode = MODE_OFF;
 1775              		.loc 1 415 0
 1776 0442 AF4B     		ldr	r3, .L118
 1777 0444 0022     		movs	r2, #0
 1778 0446 DA72     		strb	r2, [r3, #11]
 416:led.c         ****                 }else{
 417:led.c         ****                     leds[2].mode = MODE_OFF;
 418:led.c         ****                     leds[3].mode = MODE_OFF;
 419:led.c         ****                 }
 420:led.c         ****             break;
 1779              		.loc 1 420 0
 1780 0448 56E1     		b	.L80
 1781              	.L96:
 417:led.c         ****                     leds[3].mode = MODE_OFF;
 1782              		.loc 1 417 0
 1783 044a AD4B     		ldr	r3, .L118
 1784 044c 0022     		movs	r2, #0
 1785 044e 9A74     		strb	r2, [r3, #18]
 418:led.c         ****                 }
 1786              		.loc 1 418 0
 1787 0450 AB4B     		ldr	r3, .L118
 1788 0452 0022     		movs	r2, #0
 1789 0454 5A76     		strb	r2, [r3, #25]
 1790              		.loc 1 420 0
 1791 0456 4FE1     		b	.L80
 1792              	.L89:
 421:led.c         ****             case  SYSTEM_LED_GREEN:
ARM GAS  C:\Users\alexport\AppData\Local\Temp\cc3nX14g.s 			page 41


 422:led.c         ****                 if(num==1){
 1793              		.loc 1 422 0
 1794 0458 FB1D     		adds	r3, r7, #7
 1795 045a 1B78     		ldrb	r3, [r3]
 1796 045c 012B     		cmp	r3, #1
 1797 045e 12D1     		bne	.L98
 423:led.c         ****                     leds[0].r_base =0;leds[0].g_base =225;leds[0].b_base =0;
 1798              		.loc 1 423 0
 1799 0460 A74B     		ldr	r3, .L118
 1800 0462 0022     		movs	r2, #0
 1801 0464 5A70     		strb	r2, [r3, #1]
 1802 0466 A64B     		ldr	r3, .L118
 1803 0468 E122     		movs	r2, #225
 1804 046a 9A70     		strb	r2, [r3, #2]
 1805 046c A44B     		ldr	r3, .L118
 1806 046e 0022     		movs	r2, #0
 1807 0470 DA70     		strb	r2, [r3, #3]
 424:led.c         ****                     leds[1].r_base =0;leds[1].g_base =225;leds[1].b_base =0;
 1808              		.loc 1 424 0
 1809 0472 A34B     		ldr	r3, .L118
 1810 0474 0022     		movs	r2, #0
 1811 0476 1A72     		strb	r2, [r3, #8]
 1812 0478 A14B     		ldr	r3, .L118
 1813 047a E122     		movs	r2, #225
 1814 047c 5A72     		strb	r2, [r3, #9]
 1815 047e A04B     		ldr	r3, .L118
 1816 0480 0022     		movs	r2, #0
 1817 0482 9A72     		strb	r2, [r3, #10]
 425:led.c         ****                 }else{
 426:led.c         ****                     leds[2].r_base =0;leds[2].g_base =225;leds[2].b_base =0;
 427:led.c         ****                     leds[3].r_base =0;leds[3].g_base =225;leds[3].b_base =0;
 428:led.c         ****                 }
 429:led.c         ****             break;
 1818              		.loc 1 429 0
 1819 0484 38E1     		b	.L80
 1820              	.L98:
 426:led.c         ****                     leds[3].r_base =0;leds[3].g_base =225;leds[3].b_base =0;
 1821              		.loc 1 426 0
 1822 0486 9E4B     		ldr	r3, .L118
 1823 0488 0022     		movs	r2, #0
 1824 048a DA73     		strb	r2, [r3, #15]
 1825 048c 9C4B     		ldr	r3, .L118
 1826 048e E122     		movs	r2, #225
 1827 0490 1A74     		strb	r2, [r3, #16]
 1828 0492 9B4B     		ldr	r3, .L118
 1829 0494 0022     		movs	r2, #0
 1830 0496 5A74     		strb	r2, [r3, #17]
 427:led.c         ****                 }
 1831              		.loc 1 427 0
 1832 0498 994B     		ldr	r3, .L118
 1833 049a 0022     		movs	r2, #0
 1834 049c 9A75     		strb	r2, [r3, #22]
 1835 049e 984B     		ldr	r3, .L118
 1836 04a0 E122     		movs	r2, #225
 1837 04a2 DA75     		strb	r2, [r3, #23]
 1838 04a4 964B     		ldr	r3, .L118
 1839 04a6 0022     		movs	r2, #0
ARM GAS  C:\Users\alexport\AppData\Local\Temp\cc3nX14g.s 			page 42


 1840 04a8 1A76     		strb	r2, [r3, #24]
 1841              		.loc 1 429 0
 1842 04aa 25E1     		b	.L80
 1843              	.L90:
 430:led.c         ****             case  SYSTEM_LED_YELLOW:
 431:led.c         ****                 if(num==1){
 1844              		.loc 1 431 0
 1845 04ac FB1D     		adds	r3, r7, #7
 1846 04ae 1B78     		ldrb	r3, [r3]
 1847 04b0 012B     		cmp	r3, #1
 1848 04b2 12D1     		bne	.L100
 432:led.c         ****                     leds[0].r_base =100;leds[0].g_base =200;leds[0].b_base =0;
 1849              		.loc 1 432 0
 1850 04b4 924B     		ldr	r3, .L118
 1851 04b6 6422     		movs	r2, #100
 1852 04b8 5A70     		strb	r2, [r3, #1]
 1853 04ba 914B     		ldr	r3, .L118
 1854 04bc C822     		movs	r2, #200
 1855 04be 9A70     		strb	r2, [r3, #2]
 1856 04c0 8F4B     		ldr	r3, .L118
 1857 04c2 0022     		movs	r2, #0
 1858 04c4 DA70     		strb	r2, [r3, #3]
 433:led.c         ****                     leds[1].r_base =100;leds[1].g_base =200;leds[1].b_base =0;
 1859              		.loc 1 433 0
 1860 04c6 8E4B     		ldr	r3, .L118
 1861 04c8 6422     		movs	r2, #100
 1862 04ca 1A72     		strb	r2, [r3, #8]
 1863 04cc 8C4B     		ldr	r3, .L118
 1864 04ce C822     		movs	r2, #200
 1865 04d0 5A72     		strb	r2, [r3, #9]
 1866 04d2 8B4B     		ldr	r3, .L118
 1867 04d4 0022     		movs	r2, #0
 1868 04d6 9A72     		strb	r2, [r3, #10]
 434:led.c         ****                 }else{
 435:led.c         ****                     leds[2].r_base =100;leds[2].g_base =192;leds[2].b_base =0;
 436:led.c         ****                     leds[3].r_base =100;leds[3].g_base =192;leds[3].b_base =0;
 437:led.c         ****                 }
 438:led.c         ****             break; 
 1869              		.loc 1 438 0
 1870 04d8 0EE1     		b	.L80
 1871              	.L100:
 435:led.c         ****                     leds[3].r_base =100;leds[3].g_base =192;leds[3].b_base =0;
 1872              		.loc 1 435 0
 1873 04da 894B     		ldr	r3, .L118
 1874 04dc 6422     		movs	r2, #100
 1875 04de DA73     		strb	r2, [r3, #15]
 1876 04e0 874B     		ldr	r3, .L118
 1877 04e2 C022     		movs	r2, #192
 1878 04e4 1A74     		strb	r2, [r3, #16]
 1879 04e6 864B     		ldr	r3, .L118
 1880 04e8 0022     		movs	r2, #0
 1881 04ea 5A74     		strb	r2, [r3, #17]
 436:led.c         ****                 }
 1882              		.loc 1 436 0
 1883 04ec 844B     		ldr	r3, .L118
 1884 04ee 6422     		movs	r2, #100
 1885 04f0 9A75     		strb	r2, [r3, #22]
ARM GAS  C:\Users\alexport\AppData\Local\Temp\cc3nX14g.s 			page 43


 1886 04f2 834B     		ldr	r3, .L118
 1887 04f4 C022     		movs	r2, #192
 1888 04f6 DA75     		strb	r2, [r3, #23]
 1889 04f8 814B     		ldr	r3, .L118
 1890 04fa 0022     		movs	r2, #0
 1891 04fc 1A76     		strb	r2, [r3, #24]
 1892              		.loc 1 438 0
 1893 04fe FBE0     		b	.L80
 1894              	.L88:
 439:led.c         ****             case  SYSTEM_LED_RED:
 440:led.c         ****                  if(num==1){
 1895              		.loc 1 440 0
 1896 0500 FB1D     		adds	r3, r7, #7
 1897 0502 1B78     		ldrb	r3, [r3]
 1898 0504 012B     		cmp	r3, #1
 1899 0506 12D1     		bne	.L102
 441:led.c         ****                     leds[0].r_base =255;leds[0].g_base =0;leds[0].b_base =0;
 1900              		.loc 1 441 0
 1901 0508 7D4B     		ldr	r3, .L118
 1902 050a FF22     		movs	r2, #255
 1903 050c 5A70     		strb	r2, [r3, #1]
 1904 050e 7C4B     		ldr	r3, .L118
 1905 0510 0022     		movs	r2, #0
 1906 0512 9A70     		strb	r2, [r3, #2]
 1907 0514 7A4B     		ldr	r3, .L118
 1908 0516 0022     		movs	r2, #0
 1909 0518 DA70     		strb	r2, [r3, #3]
 442:led.c         ****                     leds[1].r_base =255;leds[1].g_base =0;leds[1].b_base =0;
 1910              		.loc 1 442 0
 1911 051a 794B     		ldr	r3, .L118
 1912 051c FF22     		movs	r2, #255
 1913 051e 1A72     		strb	r2, [r3, #8]
 1914 0520 774B     		ldr	r3, .L118
 1915 0522 0022     		movs	r2, #0
 1916 0524 5A72     		strb	r2, [r3, #9]
 1917 0526 764B     		ldr	r3, .L118
 1918 0528 0022     		movs	r2, #0
 1919 052a 9A72     		strb	r2, [r3, #10]
 443:led.c         ****                 }else{
 444:led.c         ****                     leds[2].r_base =255;leds[2].g_base =0;leds[2].b_base =0;
 445:led.c         ****                     leds[3].r_base =255;leds[3].g_base =0;leds[3].b_base =0;
 446:led.c         ****                 }
 447:led.c         ****             break;     
 1920              		.loc 1 447 0
 1921 052c E4E0     		b	.L80
 1922              	.L102:
 444:led.c         ****                     leds[3].r_base =255;leds[3].g_base =0;leds[3].b_base =0;
 1923              		.loc 1 444 0
 1924 052e 744B     		ldr	r3, .L118
 1925 0530 FF22     		movs	r2, #255
 1926 0532 DA73     		strb	r2, [r3, #15]
 1927 0534 724B     		ldr	r3, .L118
 1928 0536 0022     		movs	r2, #0
 1929 0538 1A74     		strb	r2, [r3, #16]
 1930 053a 714B     		ldr	r3, .L118
 1931 053c 0022     		movs	r2, #0
 1932 053e 5A74     		strb	r2, [r3, #17]
ARM GAS  C:\Users\alexport\AppData\Local\Temp\cc3nX14g.s 			page 44


 445:led.c         ****                 }
 1933              		.loc 1 445 0
 1934 0540 6F4B     		ldr	r3, .L118
 1935 0542 FF22     		movs	r2, #255
 1936 0544 9A75     		strb	r2, [r3, #22]
 1937 0546 6E4B     		ldr	r3, .L118
 1938 0548 0022     		movs	r2, #0
 1939 054a DA75     		strb	r2, [r3, #23]
 1940 054c 6C4B     		ldr	r3, .L118
 1941 054e 0022     		movs	r2, #0
 1942 0550 1A76     		strb	r2, [r3, #24]
 1943              		.loc 1 447 0
 1944 0552 D1E0     		b	.L80
 1945              	.L91:
 448:led.c         ****             case  SYSTEM_LED_BLUE:
 449:led.c         ****                  if(num==1){
 1946              		.loc 1 449 0
 1947 0554 FB1D     		adds	r3, r7, #7
 1948 0556 1B78     		ldrb	r3, [r3]
 1949 0558 012B     		cmp	r3, #1
 1950 055a 12D1     		bne	.L104
 450:led.c         ****                     leds[0].r_base =0;leds[0].g_base =0;leds[0].b_base =255;
 1951              		.loc 1 450 0
 1952 055c 684B     		ldr	r3, .L118
 1953 055e 0022     		movs	r2, #0
 1954 0560 5A70     		strb	r2, [r3, #1]
 1955 0562 674B     		ldr	r3, .L118
 1956 0564 0022     		movs	r2, #0
 1957 0566 9A70     		strb	r2, [r3, #2]
 1958 0568 654B     		ldr	r3, .L118
 1959 056a FF22     		movs	r2, #255
 1960 056c DA70     		strb	r2, [r3, #3]
 451:led.c         ****                     leds[1].r_base =0;leds[1].g_base =0;leds[1].b_base =255;
 1961              		.loc 1 451 0
 1962 056e 644B     		ldr	r3, .L118
 1963 0570 0022     		movs	r2, #0
 1964 0572 1A72     		strb	r2, [r3, #8]
 1965 0574 624B     		ldr	r3, .L118
 1966 0576 0022     		movs	r2, #0
 1967 0578 5A72     		strb	r2, [r3, #9]
 1968 057a 614B     		ldr	r3, .L118
 1969 057c FF22     		movs	r2, #255
 1970 057e 9A72     		strb	r2, [r3, #10]
 452:led.c         ****                 }else{
 453:led.c         ****                     leds[2].r_base =0;leds[2].g_base =0;leds[2].b_base =255;
 454:led.c         ****                     leds[3].r_base =0;leds[3].g_base =0;leds[3].b_base =255;
 455:led.c         ****                 }
 456:led.c         ****             break;
 1971              		.loc 1 456 0
 1972 0580 BAE0     		b	.L80
 1973              	.L104:
 453:led.c         ****                     leds[3].r_base =0;leds[3].g_base =0;leds[3].b_base =255;
 1974              		.loc 1 453 0
 1975 0582 5F4B     		ldr	r3, .L118
 1976 0584 0022     		movs	r2, #0
 1977 0586 DA73     		strb	r2, [r3, #15]
 1978 0588 5D4B     		ldr	r3, .L118
ARM GAS  C:\Users\alexport\AppData\Local\Temp\cc3nX14g.s 			page 45


 1979 058a 0022     		movs	r2, #0
 1980 058c 1A74     		strb	r2, [r3, #16]
 1981 058e 5C4B     		ldr	r3, .L118
 1982 0590 FF22     		movs	r2, #255
 1983 0592 5A74     		strb	r2, [r3, #17]
 454:led.c         ****                 }
 1984              		.loc 1 454 0
 1985 0594 5A4B     		ldr	r3, .L118
 1986 0596 0022     		movs	r2, #0
 1987 0598 9A75     		strb	r2, [r3, #22]
 1988 059a 594B     		ldr	r3, .L118
 1989 059c 0022     		movs	r2, #0
 1990 059e DA75     		strb	r2, [r3, #23]
 1991 05a0 574B     		ldr	r3, .L118
 1992 05a2 FF22     		movs	r2, #255
 1993 05a4 1A76     		strb	r2, [r3, #24]
 1994              		.loc 1 456 0
 1995 05a6 A7E0     		b	.L80
 1996              	.L92:
 457:led.c         ****             case  SYSTEM_LED_MAGENTA:
 458:led.c         ****                 if(num==1){
 1997              		.loc 1 458 0
 1998 05a8 FB1D     		adds	r3, r7, #7
 1999 05aa 1B78     		ldrb	r3, [r3]
 2000 05ac 012B     		cmp	r3, #1
 2001 05ae 12D1     		bne	.L106
 459:led.c         ****                     leds[0].r_base =255;leds[0].g_base =0;leds[0].b_base =255;
 2002              		.loc 1 459 0
 2003 05b0 534B     		ldr	r3, .L118
 2004 05b2 FF22     		movs	r2, #255
 2005 05b4 5A70     		strb	r2, [r3, #1]
 2006 05b6 524B     		ldr	r3, .L118
 2007 05b8 0022     		movs	r2, #0
 2008 05ba 9A70     		strb	r2, [r3, #2]
 2009 05bc 504B     		ldr	r3, .L118
 2010 05be FF22     		movs	r2, #255
 2011 05c0 DA70     		strb	r2, [r3, #3]
 460:led.c         ****                     leds[1].r_base =255;leds[1].g_base =0;leds[1].b_base =255;
 2012              		.loc 1 460 0
 2013 05c2 4F4B     		ldr	r3, .L118
 2014 05c4 FF22     		movs	r2, #255
 2015 05c6 1A72     		strb	r2, [r3, #8]
 2016 05c8 4D4B     		ldr	r3, .L118
 2017 05ca 0022     		movs	r2, #0
 2018 05cc 5A72     		strb	r2, [r3, #9]
 2019 05ce 4C4B     		ldr	r3, .L118
 2020 05d0 FF22     		movs	r2, #255
 2021 05d2 9A72     		strb	r2, [r3, #10]
 461:led.c         ****                 }else{
 462:led.c         ****                     leds[2].r_base =255;leds[2].g_base =0;leds[2].b_base =255;
 463:led.c         ****                     leds[3].r_base =255;leds[3].g_base =0;leds[3].b_base =255;
 464:led.c         ****                 }
 465:led.c         ****             break;  
 2022              		.loc 1 465 0
 2023 05d4 90E0     		b	.L80
 2024              	.L106:
 462:led.c         ****                     leds[3].r_base =255;leds[3].g_base =0;leds[3].b_base =255;
ARM GAS  C:\Users\alexport\AppData\Local\Temp\cc3nX14g.s 			page 46


 2025              		.loc 1 462 0
 2026 05d6 4A4B     		ldr	r3, .L118
 2027 05d8 FF22     		movs	r2, #255
 2028 05da DA73     		strb	r2, [r3, #15]
 2029 05dc 484B     		ldr	r3, .L118
 2030 05de 0022     		movs	r2, #0
 2031 05e0 1A74     		strb	r2, [r3, #16]
 2032 05e2 474B     		ldr	r3, .L118
 2033 05e4 FF22     		movs	r2, #255
 2034 05e6 5A74     		strb	r2, [r3, #17]
 463:led.c         ****                 }
 2035              		.loc 1 463 0
 2036 05e8 454B     		ldr	r3, .L118
 2037 05ea FF22     		movs	r2, #255
 2038 05ec 9A75     		strb	r2, [r3, #22]
 2039 05ee 444B     		ldr	r3, .L118
 2040 05f0 0022     		movs	r2, #0
 2041 05f2 DA75     		strb	r2, [r3, #23]
 2042 05f4 424B     		ldr	r3, .L118
 2043 05f6 FF22     		movs	r2, #255
 2044 05f8 1A76     		strb	r2, [r3, #24]
 2045              		.loc 1 465 0
 2046 05fa 7DE0     		b	.L80
 2047              	.L93:
 466:led.c         ****             case  SYSTEM_LED_WHITE:
 467:led.c         ****                 if(num==1){
 2048              		.loc 1 467 0
 2049 05fc FB1D     		adds	r3, r7, #7
 2050 05fe 1B78     		ldrb	r3, [r3]
 2051 0600 012B     		cmp	r3, #1
 2052 0602 12D1     		bne	.L108
 468:led.c         ****                     leds[0].r_base =64;leds[0].g_base =128;leds[0].b_base =128;
 2053              		.loc 1 468 0
 2054 0604 3E4B     		ldr	r3, .L118
 2055 0606 4022     		movs	r2, #64
 2056 0608 5A70     		strb	r2, [r3, #1]
 2057 060a 3D4B     		ldr	r3, .L118
 2058 060c 8022     		movs	r2, #128
 2059 060e 9A70     		strb	r2, [r3, #2]
 2060 0610 3B4B     		ldr	r3, .L118
 2061 0612 8022     		movs	r2, #128
 2062 0614 DA70     		strb	r2, [r3, #3]
 469:led.c         ****                     leds[1].r_base =64;leds[1].g_base =128;leds[1].b_base =128;
 2063              		.loc 1 469 0
 2064 0616 3A4B     		ldr	r3, .L118
 2065 0618 4022     		movs	r2, #64
 2066 061a 1A72     		strb	r2, [r3, #8]
 2067 061c 384B     		ldr	r3, .L118
 2068 061e 8022     		movs	r2, #128
 2069 0620 5A72     		strb	r2, [r3, #9]
 2070 0622 374B     		ldr	r3, .L118
 2071 0624 8022     		movs	r2, #128
 2072 0626 9A72     		strb	r2, [r3, #10]
 470:led.c         ****                 }else{
 471:led.c         ****                     leds[2].r_base =64;leds[2].g_base =128;leds[2].b_base =128;
 472:led.c         ****                     leds[3].r_base =64;leds[3].g_base =128;leds[3].b_base =128;
 473:led.c         ****                 }
ARM GAS  C:\Users\alexport\AppData\Local\Temp\cc3nX14g.s 			page 47


 474:led.c         ****             break;
 2073              		.loc 1 474 0
 2074 0628 66E0     		b	.L80
 2075              	.L108:
 471:led.c         ****                     leds[3].r_base =64;leds[3].g_base =128;leds[3].b_base =128;
 2076              		.loc 1 471 0
 2077 062a 354B     		ldr	r3, .L118
 2078 062c 4022     		movs	r2, #64
 2079 062e DA73     		strb	r2, [r3, #15]
 2080 0630 334B     		ldr	r3, .L118
 2081 0632 8022     		movs	r2, #128
 2082 0634 1A74     		strb	r2, [r3, #16]
 2083 0636 324B     		ldr	r3, .L118
 2084 0638 8022     		movs	r2, #128
 2085 063a 5A74     		strb	r2, [r3, #17]
 472:led.c         ****                 }
 2086              		.loc 1 472 0
 2087 063c 304B     		ldr	r3, .L118
 2088 063e 4022     		movs	r2, #64
 2089 0640 9A75     		strb	r2, [r3, #22]
 2090 0642 2F4B     		ldr	r3, .L118
 2091 0644 8022     		movs	r2, #128
 2092 0646 DA75     		strb	r2, [r3, #23]
 2093 0648 2D4B     		ldr	r3, .L118
 2094 064a 8022     		movs	r2, #128
 2095 064c 1A76     		strb	r2, [r3, #24]
 2096              		.loc 1 474 0
 2097 064e 53E0     		b	.L80
 2098              	.L94:
 475:led.c         ****                 case  SYSTEM_LED_ORANGE:
 476:led.c         ****                 if(num==1){
 2099              		.loc 1 476 0
 2100 0650 FB1D     		adds	r3, r7, #7
 2101 0652 1B78     		ldrb	r3, [r3]
 2102 0654 012B     		cmp	r3, #1
 2103 0656 12D1     		bne	.L110
 477:led.c         ****                     leds[0].r_base =250;leds[0].g_base =100;leds[0].b_base =0;
 2104              		.loc 1 477 0
 2105 0658 294B     		ldr	r3, .L118
 2106 065a FA22     		movs	r2, #250
 2107 065c 5A70     		strb	r2, [r3, #1]
 2108 065e 284B     		ldr	r3, .L118
 2109 0660 6422     		movs	r2, #100
 2110 0662 9A70     		strb	r2, [r3, #2]
 2111 0664 264B     		ldr	r3, .L118
 2112 0666 0022     		movs	r2, #0
 2113 0668 DA70     		strb	r2, [r3, #3]
 478:led.c         ****                     leds[1].r_base =250;leds[1].g_base =100;leds[1].b_base =0;
 2114              		.loc 1 478 0
 2115 066a 254B     		ldr	r3, .L118
 2116 066c FA22     		movs	r2, #250
 2117 066e 1A72     		strb	r2, [r3, #8]
 2118 0670 234B     		ldr	r3, .L118
 2119 0672 6422     		movs	r2, #100
 2120 0674 5A72     		strb	r2, [r3, #9]
 2121 0676 224B     		ldr	r3, .L118
 2122 0678 0022     		movs	r2, #0
ARM GAS  C:\Users\alexport\AppData\Local\Temp\cc3nX14g.s 			page 48


 2123 067a 9A72     		strb	r2, [r3, #10]
 479:led.c         ****                 }else{
 480:led.c         ****                     leds[2].r_base =250;leds[2].g_base =100;leds[2].b_base =0;
 481:led.c         ****                     leds[3].r_base =250;leds[3].g_base =100;leds[3].b_base =0;
 482:led.c         ****                 }
 483:led.c         ****             break;  
 2124              		.loc 1 483 0
 2125 067c 3CE0     		b	.L80
 2126              	.L110:
 480:led.c         ****                     leds[3].r_base =250;leds[3].g_base =100;leds[3].b_base =0;
 2127              		.loc 1 480 0
 2128 067e 204B     		ldr	r3, .L118
 2129 0680 FA22     		movs	r2, #250
 2130 0682 DA73     		strb	r2, [r3, #15]
 2131 0684 1E4B     		ldr	r3, .L118
 2132 0686 6422     		movs	r2, #100
 2133 0688 1A74     		strb	r2, [r3, #16]
 2134 068a 1D4B     		ldr	r3, .L118
 2135 068c 0022     		movs	r2, #0
 2136 068e 5A74     		strb	r2, [r3, #17]
 481:led.c         ****                 }
 2137              		.loc 1 481 0
 2138 0690 1B4B     		ldr	r3, .L118
 2139 0692 FA22     		movs	r2, #250
 2140 0694 9A75     		strb	r2, [r3, #22]
 2141 0696 1A4B     		ldr	r3, .L118
 2142 0698 6422     		movs	r2, #100
 2143 069a DA75     		strb	r2, [r3, #23]
 2144 069c 184B     		ldr	r3, .L118
 2145 069e 0022     		movs	r2, #0
 2146 06a0 1A76     		strb	r2, [r3, #24]
 2147              		.loc 1 483 0
 2148 06a2 29E0     		b	.L80
 2149              	.L95:
 484:led.c         ****                 case  SYSTEM_LED_CYAN:
 485:led.c         ****                 if(num==1){
 2150              		.loc 1 485 0
 2151 06a4 FB1D     		adds	r3, r7, #7
 2152 06a6 1B78     		ldrb	r3, [r3]
 2153 06a8 012B     		cmp	r3, #1
 2154 06aa 12D1     		bne	.L112
 486:led.c         ****                     leds[0].r_base =12;leds[0].g_base =250;leds[0].b_base =245;
 2155              		.loc 1 486 0
 2156 06ac 144B     		ldr	r3, .L118
 2157 06ae 0C22     		movs	r2, #12
 2158 06b0 5A70     		strb	r2, [r3, #1]
 2159 06b2 134B     		ldr	r3, .L118
 2160 06b4 FA22     		movs	r2, #250
 2161 06b6 9A70     		strb	r2, [r3, #2]
 2162 06b8 114B     		ldr	r3, .L118
 2163 06ba F522     		movs	r2, #245
 2164 06bc DA70     		strb	r2, [r3, #3]
 487:led.c         ****                     leds[1].r_base =12;leds[1].g_base =250;leds[1].b_base =245;
 2165              		.loc 1 487 0
 2166 06be 104B     		ldr	r3, .L118
 2167 06c0 0C22     		movs	r2, #12
 2168 06c2 1A72     		strb	r2, [r3, #8]
ARM GAS  C:\Users\alexport\AppData\Local\Temp\cc3nX14g.s 			page 49


 2169 06c4 0E4B     		ldr	r3, .L118
 2170 06c6 FA22     		movs	r2, #250
 2171 06c8 5A72     		strb	r2, [r3, #9]
 2172 06ca 0D4B     		ldr	r3, .L118
 2173 06cc F522     		movs	r2, #245
 2174 06ce 9A72     		strb	r2, [r3, #10]
 488:led.c         ****                 }else{
 489:led.c         ****                     leds[2].r_base =12;leds[2].g_base =250;leds[2].b_base =245;
 490:led.c         ****                     leds[3].r_base =12;leds[3].g_base =250;leds[3].b_base =245;
 491:led.c         ****                 }
 492:led.c         ****             break;  
 2175              		.loc 1 492 0
 2176 06d0 11E0     		b	.L115
 2177              	.L112:
 489:led.c         ****                     leds[3].r_base =12;leds[3].g_base =250;leds[3].b_base =245;
 2178              		.loc 1 489 0
 2179 06d2 0B4B     		ldr	r3, .L118
 2180 06d4 0C22     		movs	r2, #12
 2181 06d6 DA73     		strb	r2, [r3, #15]
 2182 06d8 094B     		ldr	r3, .L118
 2183 06da FA22     		movs	r2, #250
 2184 06dc 1A74     		strb	r2, [r3, #16]
 2185 06de 084B     		ldr	r3, .L118
 2186 06e0 F522     		movs	r2, #245
 2187 06e2 5A74     		strb	r2, [r3, #17]
 490:led.c         ****                 }
 2188              		.loc 1 490 0
 2189 06e4 064B     		ldr	r3, .L118
 2190 06e6 0C22     		movs	r2, #12
 2191 06e8 9A75     		strb	r2, [r3, #22]
 2192 06ea 054B     		ldr	r3, .L118
 2193 06ec FA22     		movs	r2, #250
 2194 06ee DA75     		strb	r2, [r3, #23]
 2195 06f0 034B     		ldr	r3, .L118
 2196 06f2 F522     		movs	r2, #245
 2197 06f4 1A76     		strb	r2, [r3, #24]
 2198              	.L115:
 2199              		.loc 1 492 0
 2200 06f6 C046     		nop
 2201              	.L80:
 2202              	.L114:
 493:led.c         ****         }
 494:led.c         ****     
 495:led.c         ****     } // else
 496:led.c         ****    
 497:led.c         ****     
 498:led.c         **** }
 2203              		.loc 1 498 0
 2204 06f8 C046     		nop
 2205 06fa BD46     		mov	sp, r7
 2206 06fc 04B0     		add	sp, sp, #16
 2207              		@ sp needed
 2208 06fe B0BD     		pop	{r4, r5, r7, pc}
 2209              	.L119:
 2210              		.align	2
 2211              	.L118:
 2212 0700 00000000 		.word	leds
ARM GAS  C:\Users\alexport\AppData\Local\Temp\cc3nX14g.s 			page 50


 2213 0704 28000000 		.word	.L87
 2214              		.cfi_endproc
 2215              	.LFE43:
 2216              		.size	system_SetLed, .-system_SetLed
 2217              		.section	.text.system_IsLEDInBreathMode,"ax",%progbits
 2218              		.align	2
 2219              		.global	system_IsLEDInBreathMode
 2220              		.code	16
 2221              		.thumb_func
 2222              		.type	system_IsLEDInBreathMode, %function
 2223              	system_IsLEDInBreathMode:
 2224              	.LFB44:
 499:led.c         **** 
 500:led.c         **** 
 501:led.c         **** uint8_t system_IsLEDInBreathMode(uint8_t ch){
 2225              		.loc 1 501 0
 2226              		.cfi_startproc
 2227              		@ args = 0, pretend = 0, frame = 8
 2228              		@ frame_needed = 1, uses_anonymous_args = 0
 2229 0000 80B5     		push	{r7, lr}
 2230              		.cfi_def_cfa_offset 8
 2231              		.cfi_offset 7, -8
 2232              		.cfi_offset 14, -4
 2233 0002 82B0     		sub	sp, sp, #8
 2234              		.cfi_def_cfa_offset 16
 2235 0004 00AF     		add	r7, sp, #0
 2236              		.cfi_def_cfa_register 7
 2237 0006 0200     		movs	r2, r0
 2238 0008 FB1D     		adds	r3, r7, #7
 2239 000a 1A70     		strb	r2, [r3]
 502:led.c         ****     if(leds[ch].mode==MODE_BREATHING)
 2240              		.loc 1 502 0
 2241 000c FB1D     		adds	r3, r7, #7
 2242 000e 1A78     		ldrb	r2, [r3]
 2243 0010 0749     		ldr	r1, .L123
 2244 0012 1300     		movs	r3, r2
 2245 0014 DB00     		lsls	r3, r3, #3
 2246 0016 9B1A     		subs	r3, r3, r2
 2247 0018 CB18     		adds	r3, r1, r3
 2248 001a 0433     		adds	r3, r3, #4
 2249 001c 1B78     		ldrb	r3, [r3]
 2250 001e 022B     		cmp	r3, #2
 2251 0020 01D1     		bne	.L121
 503:led.c         ****         return 1;
 2252              		.loc 1 503 0
 2253 0022 0123     		movs	r3, #1
 2254 0024 00E0     		b	.L122
 2255              	.L121:
 504:led.c         ****     else
 505:led.c         ****         return 0;
 2256              		.loc 1 505 0
 2257 0026 0023     		movs	r3, #0
 2258              	.L122:
 506:led.c         **** 
 507:led.c         **** }
 2259              		.loc 1 507 0
 2260 0028 1800     		movs	r0, r3
ARM GAS  C:\Users\alexport\AppData\Local\Temp\cc3nX14g.s 			page 51


 2261 002a BD46     		mov	sp, r7
 2262 002c 02B0     		add	sp, sp, #8
 2263              		@ sp needed
 2264 002e 80BD     		pop	{r7, pc}
 2265              	.L124:
 2266              		.align	2
 2267              	.L123:
 2268 0030 00000000 		.word	leds
 2269              		.cfi_endproc
 2270              	.LFE44:
 2271              		.size	system_IsLEDInBreathMode, .-system_IsLEDInBreathMode
 2272              		.text
 2273              	.Letext0:
 2274              		.file 2 "c:\\program files (x86)\\cypress\\psoc creator\\4.4\\psoc creator\\import\\gnu\\arm\\5.4.
 2275              		.file 3 "c:\\program files (x86)\\cypress\\psoc creator\\4.4\\psoc creator\\import\\gnu\\arm\\5.4.
 2276              		.file 4 "Generated_Source\\PSoC4/cytypes.h"
 2277              		.file 5 "Generated_Source\\PSoC4/blue_Stack.h"
 2278              		.file 6 "Generated_Source\\PSoC4/blue_dis.h"