ARM GAS  C:\Users\alexport\AppData\Local\Temp\cc07ffbP.s 			page 1


   1              		.syntax unified
   2              		.cpu cortex-m0
   3              		.fpu softvfp
   4              		.eabi_attribute 20, 1
   5              		.eabi_attribute 21, 1
   6              		.eabi_attribute 23, 3
   7              		.eabi_attribute 24, 1
   8              		.eabi_attribute 25, 1
   9              		.eabi_attribute 26, 1
  10              		.eabi_attribute 30, 6
  11              		.eabi_attribute 34, 0
  12              		.eabi_attribute 18, 4
  13              		.thumb
  14              		.syntax unified
  15              		.file	"main.c"
  16              		.text
  17              	.Ltext0:
  18              		.cfi_sections	.debug_frame
  19              		.comm	startI2CRead,1,1
  20              		.comm	Sensor,264,8
  21              		.comm	System,216,8
  22              		.comm	runtimeMode,1,1
  23              		.comm	swPressed,1,1
  24              		.comm	swReleased,1,1
  25              		.global	swLED
  26              		.bss
  27              		.type	swLED, %object
  28              		.size	swLED, 1
  29              	swLED:
  30 0000 00       		.space	1
  31              		.comm	rcvByte,1,1
  32              		.comm	newM,1,1
  33              		.section	.rodata
  34              		.align	2
  35              	.LC0:
  36 0000 25733D25 		.ascii	"%s=%d\015\012\000"
  36      640D0A00 
  37              		.section	.text.SendLog,"ax",%progbits
  38              		.align	2
  39              		.global	SendLog
  40              		.code	16
  41              		.thumb_func
  42              		.type	SendLog, %function
  43              	SendLog:
  44              	.LFB36:
  45              		.file 1 "main.c"
   1:main.c        **** /* ========================================
   2:main.c        ****  *
   3:main.c        ****  * Copyright YOUR COMPANY, THE YEAR
   4:main.c        ****  * All Rights Reserved
   5:main.c        ****  * UNPUBLISHED, LICENSED SOFTWARE.
   6:main.c        ****  *
   7:main.c        ****  * CONFIDENTIAL AND PROPRIETARY INFORMATION
   8:main.c        ****  * WHICH IS THE PROPERTY OF your company.
   9:main.c        ****  *
  10:main.c        ****  * ========================================
  11:main.c        **** */
ARM GAS  C:\Users\alexport\AppData\Local\Temp\cc07ffbP.s 			page 2


  12:main.c        **** #include <project.h>
  13:main.c        **** #include <interrupts.h>
  14:main.c        **** #include <stdio.h>
  15:main.c        **** #include "modbus.h"
  16:main.c        **** #include "runtime.h"
  17:main.c        **** #include "sensor.h"
  18:main.c        **** #include "display.h"
  19:main.c        **** #include "relay.h"
  20:main.c        **** 
  21:main.c        **** #include "led.h"
  22:main.c        **** #include "eeprom.h"
  23:main.c        **** #include "rtc.h"
  24:main.c        **** #include "i2c_master.h"
  25:main.c        **** #include "dac.h"
  26:main.c        **** 
  27:main.c        **** volatile uint8_t runtimeMode;
  28:main.c        **** 
  29:main.c        **** extern uint8_t mySlaveAddr;
  30:main.c        **** extern uint8_t deepSleep;
  31:main.c        **** extern uint8_t bleConnected;
  32:main.c        **** extern uint8_t bleTimerExpired;
  33:main.c        **** 
  34:main.c        **** uint8_t swPressed;
  35:main.c        **** uint8_t swReleased;
  36:main.c        **** 
  37:main.c        **** extern uint32_t sTick;
  38:main.c        **** extern uint8_t sendCommand;
  39:main.c        **** extern uint8_t bytesIn;
  40:main.c        **** 
  41:main.c        **** uint8_t swLED =0;
  42:main.c        **** 
  43:main.c        **** 
  44:main.c        **** extern uint8_t slaveBuf[I2CS_BUFF_SIZE];
  45:main.c        **** extern uint8_t modbus_rxBuffer[MODBUS_RX_BUFFER_SIZE];
  46:main.c        **** 
  47:main.c        **** 
  48:main.c        **** uint8_t rcvByte;
  49:main.c        **** 
  50:main.c        **** extern uint16 sleepPeriod;
  51:main.c        **** extern uint8_t sleepEnable;
  52:main.c        **** 
  53:main.c        **** extern uint8_t blinker;
  54:main.c        **** 
  55:main.c        **** 
  56:main.c        **** uint8 newM;
  57:main.c        **** 
  58:main.c        **** extern S_DateTime date_time;
  59:main.c        **** 
  60:main.c        **** 
  61:main.c        **** 
  62:main.c        **** 
  63:main.c        **** void SendLog(char* str, uint32_t val){
  46              		.loc 1 63 0
  47              		.cfi_startproc
  48              		@ args = 0, pretend = 0, frame = 64
  49              		@ frame_needed = 1, uses_anonymous_args = 0
  50 0000 80B5     		push	{r7, lr}
ARM GAS  C:\Users\alexport\AppData\Local\Temp\cc07ffbP.s 			page 3


  51              		.cfi_def_cfa_offset 8
  52              		.cfi_offset 7, -8
  53              		.cfi_offset 14, -4
  54 0002 90B0     		sub	sp, sp, #64
  55              		.cfi_def_cfa_offset 72
  56 0004 00AF     		add	r7, sp, #0
  57              		.cfi_def_cfa_register 7
  58 0006 7860     		str	r0, [r7, #4]
  59 0008 3960     		str	r1, [r7]
  64:main.c        ****     char buf[50];
  65:main.c        ****     memset(buf, 0 , sizeof(buf));
  60              		.loc 1 65 0
  61 000a 0C23     		movs	r3, #12
  62 000c FB18     		adds	r3, r7, r3
  63 000e 3222     		movs	r2, #50
  64 0010 0021     		movs	r1, #0
  65 0012 1800     		movs	r0, r3
  66 0014 FFF7FEFF 		bl	memset
  66:main.c        ****     sprintf(buf, "%s=%d\r\n",str, val) ;
  67              		.loc 1 66 0
  68 0018 3B68     		ldr	r3, [r7]
  69 001a 7A68     		ldr	r2, [r7, #4]
  70 001c 0649     		ldr	r1, .L2
  71 001e 0C20     		movs	r0, #12
  72 0020 3818     		adds	r0, r7, r0
  73 0022 FFF7FEFF 		bl	sprintf
  67:main.c        ****     UART2_PutString(buf);
  74              		.loc 1 67 0
  75 0026 0C23     		movs	r3, #12
  76 0028 FB18     		adds	r3, r7, r3
  77 002a 1800     		movs	r0, r3
  78 002c FFF7FEFF 		bl	UART2_PutString
  68:main.c        **** }
  79              		.loc 1 68 0
  80 0030 C046     		nop
  81 0032 BD46     		mov	sp, r7
  82 0034 10B0     		add	sp, sp, #64
  83              		@ sp needed
  84 0036 80BD     		pop	{r7, pc}
  85              	.L3:
  86              		.align	2
  87              	.L2:
  88 0038 00000000 		.word	.LC0
  89              		.cfi_endproc
  90              	.LFE36:
  91              		.size	SendLog, .-SendLog
  92              		.section	.text.main,"ax",%progbits
  93              		.align	2
  94              		.global	main
  95              		.code	16
  96              		.thumb_func
  97              		.type	main, %function
  98              	main:
  99              	.LFB37:
  69:main.c        **** 
  70:main.c        **** int main(void)
  71:main.c        **** {   
ARM GAS  C:\Users\alexport\AppData\Local\Temp\cc07ffbP.s 			page 4


 100              		.loc 1 71 0
 101              		.cfi_startproc
 102              		@ args = 0, pretend = 0, frame = 8
 103              		@ frame_needed = 1, uses_anonymous_args = 0
 104 0000 90B5     		push	{r4, r7, lr}
 105              		.cfi_def_cfa_offset 12
 106              		.cfi_offset 4, -12
 107              		.cfi_offset 7, -8
 108              		.cfi_offset 14, -4
 109 0002 83B0     		sub	sp, sp, #12
 110              		.cfi_def_cfa_offset 24
 111 0004 00AF     		add	r7, sp, #0
 112              		.cfi_def_cfa_register 7
  72:main.c        ****     
  73:main.c        ****     /* Start system timer */
  74:main.c        ****     CySysTickSetClockSource(CY_SYS_SYST_CSR_CLK_SRC_LFCLK);
 113              		.loc 1 74 0
 114 0006 0020     		movs	r0, #0
 115 0008 FFF7FEFF 		bl	CySysTickSetClockSource
  75:main.c        ****     
  76:main.c        ****     //new
  77:main.c        ****     CySysTickSetReload(32768 - 1);  // 32768 ticks = 1 second
 116              		.loc 1 77 0
 117 000c 584B     		ldr	r3, .L29
 118 000e 1800     		movs	r0, r3
 119 0010 FFF7FEFF 		bl	CySysTickSetReload
  78:main.c        ****     
  79:main.c        ****     CySysTickStart();
 120              		.loc 1 79 0
 121 0014 FFF7FEFF 		bl	CySysTickStart
  80:main.c        ****     CySysTickSetCallback(0,SysTick_isr );
 122              		.loc 1 80 0
 123 0018 564B     		ldr	r3, .L29+4
 124 001a 1900     		movs	r1, r3
 125 001c 0020     		movs	r0, #0
 126 001e FFF7FEFF 		bl	CySysTickSetCallback
  81:main.c        ****     
  82:main.c        ****     /* Start SW interrupt handler*/
  83:main.c        ****     isr_SW_Start();
 127              		.loc 1 83 0
 128 0022 FFF7FEFF 		bl	isr_SW_Start
  84:main.c        ****     isr_SW_StartEx(SW_isr);
 129              		.loc 1 84 0
 130 0026 544B     		ldr	r3, .L29+8
 131 0028 1800     		movs	r0, r3
 132 002a FFF7FEFF 		bl	isr_SW_StartEx
  85:main.c        ****     isr_SW2_Start();
 133              		.loc 1 85 0
 134 002e FFF7FEFF 		bl	isr_SW2_Start
  86:main.c        ****     isr_SW2_StartEx(SW2_isr);
 135              		.loc 1 86 0
 136 0032 524B     		ldr	r3, .L29+12
 137 0034 1800     		movs	r0, r3
 138 0036 FFF7FEFF 		bl	isr_SW2_StartEx
  87:main.c        ****     
  88:main.c        ****     
  89:main.c        ****     /* Start I2C */
ARM GAS  C:\Users\alexport\AppData\Local\Temp\cc07ffbP.s 			page 5


  90:main.c        ****     I2C_Start();
 139              		.loc 1 90 0
 140 003a FFF7FEFF 		bl	I2C_Start
  91:main.c        ****     
  92:main.c        ****     
  93:main.c        ****     UART2_Start();
 141              		.loc 1 93 0
 142 003e FFF7FEFF 		bl	UART2_Start
  94:main.c        ****     MessageTimer_Start();
 143              		.loc 1 94 0
 144 0042 FFF7FEFF 		bl	MessageTimer_Start
  95:main.c        ****     isr_NewMessage_StartEx(NewMessage_isr);
 145              		.loc 1 95 0
 146 0046 4E4B     		ldr	r3, .L29+16
 147 0048 1800     		movs	r0, r3
 148 004a FFF7FEFF 		bl	isr_NewMessage_StartEx
  96:main.c        ****     CyGlobalIntEnable; /* Enable global interrupts. */
 149              		.loc 1 96 0
 150              		.syntax divided
 151              	@ 96 "main.c" 1
 152 004e 62B6     		CPSIE   i
 153              	@ 0 "" 2
  97:main.c        ****     
  98:main.c        ****     uint8_t ctrlreg = read_RTCReg(0x0E);
 154              		.loc 1 98 0
 155              		.thumb
 156              		.syntax unified
 157 0050 BC1D     		adds	r4, r7, #6
 158 0052 0E20     		movs	r0, #14
 159 0054 FFF7FEFF 		bl	read_RTCReg
 160 0058 0300     		movs	r3, r0
 161 005a 2370     		strb	r3, [r4]
  99:main.c        ****     uint8_t agingreg = read_RTCReg(0x10);
 162              		.loc 1 99 0
 163 005c 7C1D     		adds	r4, r7, #5
 164 005e 1020     		movs	r0, #16
 165 0060 FFF7FEFF 		bl	read_RTCReg
 166 0064 0300     		movs	r3, r0
 167 0066 2370     		strb	r3, [r4]
 100:main.c        ****     
 101:main.c        ****     // BLE
 102:main.c        ****     BLE_Start();
 168              		.loc 1 102 0
 169 0068 FFF7FEFF 		bl	BLE_Start
 103:main.c        ****     TXEN_Write(0);
 170              		.loc 1 103 0
 171 006c 0020     		movs	r0, #0
 172 006e FFF7FEFF 		bl	TXEN_Write
 104:main.c        **** 
 105:main.c        ****     
 106:main.c        ****     isr_BLE_Start();
 173              		.loc 1 106 0
 174 0072 FFF7FEFF 		bl	isr_BLE_Start
 107:main.c        ****     isr_BLE_StartEx(BLE_isr);
 175              		.loc 1 107 0
 176 0076 434B     		ldr	r3, .L29+20
 177 0078 1800     		movs	r0, r3
ARM GAS  C:\Users\alexport\AppData\Local\Temp\cc07ffbP.s 			page 6


 178 007a FFF7FEFF 		bl	isr_BLE_StartEx
 108:main.c        ****     
 109:main.c        ****     TLC_Init();
 179              		.loc 1 109 0
 180 007e FFF7FEFF 		bl	TLC_Init
 110:main.c        ****     AD5627_InitDAC();
 181              		.loc 1 110 0
 182 0082 FFF7FEFF 		bl	AD5627_InitDAC
 111:main.c        ****     DS3231_EnableDateTime();
 183              		.loc 1 111 0
 184 0086 FFF7FEFF 		bl	DS3231_EnableDateTime
 112:main.c        ****     
 113:main.c        ****     
 114:main.c        ****     Nextion_WakeUp();
 185              		.loc 1 114 0
 186 008a FFF7FEFF 		bl	Nextion_WakeUp
 187              	.LBB2:
 115:main.c        ****     for(uint8_t i=0;i<100 ;i++){
 188              		.loc 1 115 0
 189 008e FB1D     		adds	r3, r7, #7
 190 0090 0022     		movs	r2, #0
 191 0092 1A70     		strb	r2, [r3]
 192 0094 1AE0     		b	.L5
 193              	.L8:
 116:main.c        ****         
 117:main.c        ****         if(!blinker)
 194              		.loc 1 117 0
 195 0096 3C4B     		ldr	r3, .L29+24
 196 0098 1B78     		ldrb	r3, [r3]
 197 009a 002B     		cmp	r3, #0
 198 009c 06D1     		bne	.L6
 118:main.c        ****             system_SetLed(0, SYSTEM_LED_GREEN, 0, 0);
 199              		.loc 1 118 0
 200 009e 0023     		movs	r3, #0
 201 00a0 0022     		movs	r2, #0
 202 00a2 0221     		movs	r1, #2
 203 00a4 0020     		movs	r0, #0
 204 00a6 FFF7FEFF 		bl	system_SetLed
 205 00aa 05E0     		b	.L7
 206              	.L6:
 119:main.c        ****         else
 120:main.c        ****             system_SetLed(0, SYSTEM_LED_OFF, 0, 0); 
 207              		.loc 1 120 0
 208 00ac 0023     		movs	r3, #0
 209 00ae 0022     		movs	r2, #0
 210 00b0 0021     		movs	r1, #0
 211 00b2 0020     		movs	r0, #0
 212 00b4 FFF7FEFF 		bl	system_SetLed
 213              	.L7:
 121:main.c        ****         LED_Update();
 214              		.loc 1 121 0 discriminator 2
 215 00b8 FFF7FEFF 		bl	LED_Update
 122:main.c        ****         CyDelay(50);
 216              		.loc 1 122 0 discriminator 2
 217 00bc 3220     		movs	r0, #50
 218 00be FFF7FEFF 		bl	CyDelay
 115:main.c        ****         
ARM GAS  C:\Users\alexport\AppData\Local\Temp\cc07ffbP.s 			page 7


 219              		.loc 1 115 0 discriminator 2
 220 00c2 FB1D     		adds	r3, r7, #7
 221 00c4 1A78     		ldrb	r2, [r3]
 222 00c6 FB1D     		adds	r3, r7, #7
 223 00c8 0132     		adds	r2, r2, #1
 224 00ca 1A70     		strb	r2, [r3]
 225              	.L5:
 115:main.c        ****         
 226              		.loc 1 115 0 is_stmt 0 discriminator 1
 227 00cc FB1D     		adds	r3, r7, #7
 228 00ce 1B78     		ldrb	r3, [r3]
 229 00d0 632B     		cmp	r3, #99
 230 00d2 E0D9     		bls	.L8
 231              	.LBE2:
 123:main.c        ****     }
 124:main.c        ****     InitSystem();
 232              		.loc 1 124 0 is_stmt 1
 233 00d4 FFF7FEFF 		bl	InitSystem
 125:main.c        ****     
 126:main.c        ****     /* Start UART */
 127:main.c        ****     ModbusUART_Start();
 234              		.loc 1 127 0
 235 00d8 FFF7FEFF 		bl	ModbusUART_Start
 128:main.c        ****     isr_ModbusByteIn_StartEx(ModbusByteIn_isr);
 236              		.loc 1 128 0
 237 00dc 2B4B     		ldr	r3, .L29+28
 238 00de 1800     		movs	r0, r3
 239 00e0 FFF7FEFF 		bl	isr_ModbusByteIn_StartEx
 129:main.c        ****     
 130:main.c        ****     
 131:main.c        ****     
 132:main.c        ****       
 133:main.c        ****     
 134:main.c        ****         // TEST  AREA===========================
 135:main.c        ****     extern uint8_t newMode;
 136:main.c        ****     
 137:main.c        ****     // TEST  AREA===========================
 138:main.c        **** //    newMode=1;
 139:main.c        **** //    LoadSensorInfo(0);
 140:main.c        **** //    LoadSensorInfo(1);
 141:main.c        **** 
 142:main.c        **** //    UpdateCurrentLoopOutput(0, -2, 0, 10);
 143:main.c        **** //    for(;;){  
 144:main.c        **** //        system_SetLed(1 , SYSTEM_LED_MAGENTA, 2, 0);
 145:main.c        **** //        LED_Update();
 146:main.c        **** //        runtimeAlarmConfig();
 147:main.c        **** //        CyDelay(50);
 148:main.c        **** //    }
 149:main.c        ****    
 150:main.c        ****     // END TEST AREA========================
 151:main.c        **** 
 152:main.c        ****     
 153:main.c        ****     
 154:main.c        ****     //SysWdtInit();
 155:main.c        ****     
 156:main.c        ****     setMode(RUNTIME_POWERUP_MODE);
 240              		.loc 1 156 0
ARM GAS  C:\Users\alexport\AppData\Local\Temp\cc07ffbP.s 			page 8


 241 00e4 0020     		movs	r0, #0
 242 00e6 FFF7FEFF 		bl	setMode
 243              	.L28:
 157:main.c        ****     
 158:main.c        ****     
 159:main.c        ****     for(;;)
 160:main.c        ****     {   
 161:main.c        ****         switch(runtimeMode){
 244              		.loc 1 161 0
 245 00ea 294B     		ldr	r3, .L29+32
 246 00ec 1B78     		ldrb	r3, [r3]
 247 00ee DBB2     		uxtb	r3, r3
 248 00f0 102B     		cmp	r3, #16
 249 00f2 FAD8     		bhi	.L28
 250 00f4 9A00     		lsls	r2, r3, #2
 251 00f6 274B     		ldr	r3, .L29+36
 252 00f8 D318     		adds	r3, r2, r3
 253 00fa 1B68     		ldr	r3, [r3]
 254 00fc 9F46     		mov	pc, r3
 255              		.section	.rodata
 256              		.align	2
 257              	.L11:
 258 0008 FE000000 		.word	.L10
 259 000c 04010000 		.word	.L12
 260 0010 0A010000 		.word	.L13
 261 0014 10010000 		.word	.L14
 262 0018 20010000 		.word	.L15
 263 001c 36010000 		.word	.L16
 264 0020 3C010000 		.word	.L17
 265 0024 42010000 		.word	.L18
 266 0028 48010000 		.word	.L19
 267 002c 4E010000 		.word	.L20
 268 0030 18010000 		.word	.L21
 269 0034 28010000 		.word	.L22
 270 0038 30010000 		.word	.L23
 271 003c 54010000 		.word	.L24
 272 0040 5A010000 		.word	.L25
 273 0044 60010000 		.word	.L26
 274 0048 66010000 		.word	.L27
 275              		.section	.text.main
 276              	.L10:
 162:main.c        ****             case RUNTIME_POWERUP_MODE:
 163:main.c        ****                 runtimePowerUp();
 277              		.loc 1 163 0
 278 00fe FFF7FEFF 		bl	runtimePowerUp
 164:main.c        ****             break;
 279              		.loc 1 164 0
 280 0102 33E0     		b	.L9
 281              	.L12:
 165:main.c        ****             case RUNTIME_REALTIME_MODE1:
 166:main.c        ****                 runtimeRealTime();
 282              		.loc 1 166 0
 283 0104 FFF7FEFF 		bl	runtimeRealTime
 167:main.c        ****             break;
 284              		.loc 1 167 0
 285 0108 30E0     		b	.L9
 286              	.L13:
ARM GAS  C:\Users\alexport\AppData\Local\Temp\cc07ffbP.s 			page 9


 168:main.c        ****             case RUNTIME_REALTIME_MODE2:
 169:main.c        ****                 runtimeRealTime();
 287              		.loc 1 169 0
 288 010a FFF7FEFF 		bl	runtimeRealTime
 170:main.c        ****             break;
 289              		.loc 1 170 0
 290 010e 2DE0     		b	.L9
 291              	.L14:
 171:main.c        ****                 
 172:main.c        ****             case RUNTIME_ZEROCAL_MODE1:
 173:main.c        ****                 runtimeZeroCal(0);
 292              		.loc 1 173 0
 293 0110 0020     		movs	r0, #0
 294 0112 FFF7FEFF 		bl	runtimeZeroCal
 174:main.c        ****             break;    
 295              		.loc 1 174 0
 296 0116 29E0     		b	.L9
 297              	.L21:
 175:main.c        ****             case RUNTIME_ZEROCAL_MODE2:
 176:main.c        ****                 runtimeZeroCal(1);
 298              		.loc 1 176 0
 299 0118 0120     		movs	r0, #1
 300 011a FFF7FEFF 		bl	runtimeZeroCal
 177:main.c        ****             break;
 301              		.loc 1 177 0
 302 011e 25E0     		b	.L9
 303              	.L15:
 178:main.c        ****             case RUNTIME_SPANCAL_MODE1:
 179:main.c        ****                 runtimeSpanCal(0);
 304              		.loc 1 179 0
 305 0120 0020     		movs	r0, #0
 306 0122 FFF7FEFF 		bl	runtimeSpanCal
 180:main.c        ****             break;    
 307              		.loc 1 180 0
 308 0126 21E0     		b	.L9
 309              	.L22:
 181:main.c        ****             case RUNTIME_SPANCAL_MODE2:
 182:main.c        ****                 runtimeSpanCal(1);
 310              		.loc 1 182 0
 311 0128 0120     		movs	r0, #1
 312 012a FFF7FEFF 		bl	runtimeSpanCal
 183:main.c        ****             break; 
 313              		.loc 1 183 0
 314 012e 1DE0     		b	.L9
 315              	.L23:
 184:main.c        ****             case RUNTIME_SETTINGS_MODE:
 185:main.c        ****                 runtimeSesttings();
 316              		.loc 1 185 0
 317 0130 FFF7FEFF 		bl	runtimeSesttings
 186:main.c        ****             break;
 318              		.loc 1 186 0
 319 0134 1AE0     		b	.L9
 320              	.L16:
 187:main.c        ****             case RUNTIME_RELAYCONF_MODE:
 188:main.c        ****                 runtimeRelayConfig();
 321              		.loc 1 188 0
 322 0136 FFF7FEFF 		bl	runtimeRelayConfig
ARM GAS  C:\Users\alexport\AppData\Local\Temp\cc07ffbP.s 			page 10


 189:main.c        ****             break; 
 323              		.loc 1 189 0
 324 013a 17E0     		b	.L9
 325              	.L17:
 190:main.c        ****             case RUNTIME_ALARMCONF_MODE:
 191:main.c        ****                 runtimeAlarmConfig();
 326              		.loc 1 191 0
 327 013c FFF7FEFF 		bl	runtimeAlarmConfig
 192:main.c        ****             break; 
 328              		.loc 1 192 0
 329 0140 14E0     		b	.L9
 330              	.L18:
 193:main.c        ****             case RUNTIME_DATETIME_MODE:
 194:main.c        ****                 runtimeDateTime();
 331              		.loc 1 194 0
 332 0142 FFF7FEFF 		bl	runtimeDateTime
 195:main.c        ****             break;    
 333              		.loc 1 195 0
 334 0146 11E0     		b	.L9
 335              	.L19:
 196:main.c        ****             case RUNTIME_POLLRATE_MODE:
 197:main.c        ****                 runtimePollRate();
 336              		.loc 1 197 0
 337 0148 FFF7FEFF 		bl	runtimePollRate
 198:main.c        ****             break;
 338              		.loc 1 198 0
 339 014c 0EE0     		b	.L9
 340              	.L20:
 199:main.c        ****             case RUNTIME_SLEEPCONF_MODE:
 200:main.c        ****                 runtimeSleepTime();
 341              		.loc 1 200 0
 342 014e FFF7FEFF 		bl	runtimeSleepTime
 201:main.c        ****             break;    
 343              		.loc 1 201 0
 344 0152 0BE0     		b	.L9
 345              	.L24:
 202:main.c        ****             case RUNTIME_MODBUS_MODE:
 203:main.c        ****                 runtimeModbusAddress();
 346              		.loc 1 203 0
 347 0154 FFF7FEFF 		bl	runtimeModbusAddress
 204:main.c        ****             break;
 348              		.loc 1 204 0
 349 0158 08E0     		b	.L9
 350              	.L25:
 205:main.c        ****             case RUNTIME_GPS_MODE:
 206:main.c        ****                 runtimeGps();
 351              		.loc 1 206 0
 352 015a FFF7FEFF 		bl	runtimeGps
 207:main.c        ****             break;    
 353              		.loc 1 207 0
 354 015e 05E0     		b	.L9
 355              	.L26:
 208:main.c        ****             case RUNTIME_LOG_MODE:
 209:main.c        ****                 runtimeLog();
 356              		.loc 1 209 0
 357 0160 FFF7FEFF 		bl	runtimeLog
 210:main.c        ****             break;
ARM GAS  C:\Users\alexport\AppData\Local\Temp\cc07ffbP.s 			page 11


 358              		.loc 1 210 0
 359 0164 02E0     		b	.L9
 360              	.L27:
 211:main.c        ****             case RUNTIME_INFO_MODE:
 212:main.c        ****                 runtimeInfo();
 361              		.loc 1 212 0
 362 0166 FFF7FEFF 		bl	runtimeInfo
 213:main.c        ****             break;
 363              		.loc 1 213 0
 364 016a C046     		nop
 365              	.L9:
 214:main.c        ****                 
 215:main.c        ****               
 216:main.c        ****         }
 217:main.c        ****     }// for
 366              		.loc 1 217 0
 367 016c BDE7     		b	.L28
 368              	.L30:
 369 016e C046     		.align	2
 370              	.L29:
 371 0170 FF7F0000 		.word	32767
 372 0174 00000000 		.word	SysTick_isr
 373 0178 00000000 		.word	SW_isr
 374 017c 00000000 		.word	SW2_isr
 375 0180 00000000 		.word	NewMessage_isr
 376 0184 00000000 		.word	BLE_isr
 377 0188 00000000 		.word	blinker
 378 018c 00000000 		.word	ModbusByteIn_isr
 379 0190 00000000 		.word	runtimeMode
 380 0194 08000000 		.word	.L11
 381              		.cfi_endproc
 382              	.LFE37:
 383              		.size	main, .-main
 384              		.text
 385              	.Letext0:
 386              		.file 2 "c:\\program files (x86)\\cypress\\psoc creator\\4.4\\psoc creator\\import\\gnu\\arm\\5.4.
 387              		.file 3 "c:\\program files (x86)\\cypress\\psoc creator\\4.4\\psoc creator\\import\\gnu\\arm\\5.4.
 388              		.file 4 "Generated_Source\\PSoC4/cytypes.h"
 389              		.file 5 "Generated_Source\\PSoC4/blue_Stack.h"
 390              		.file 6 "Generated_Source\\PSoC4/blue_dis.h"
 391              		.file 7 "sensor.h"
 392              		.file 8 "./interrupts.h"