ARM GAS  C:\Users\alexport\AppData\Local\Temp\ccBjgELh.s 			page 1


   1              		.syntax unified
   2              		.cpu cortex-m0
   3              		.fpu softvfp
   4              		.eabi_attribute 20, 1
   5              		.eabi_attribute 21, 1
   6              		.eabi_attribute 23, 3
   7              		.eabi_attribute 24, 1
   8              		.eabi_attribute 25, 1
   9              		.eabi_attribute 26, 1
  10              		.eabi_attribute 30, 6
  11              		.eabi_attribute 34, 0
  12              		.eabi_attribute 18, 4
  13              		.thumb
  14              		.syntax unified
  15              		.file	"modbus.c"
  16              		.text
  17              	.Ltext0:
  18              		.cfi_sections	.debug_frame
  19              		.comm	modbus_rxBuffer,200,4
  20              		.comm	modbus_txBuffer,256,4
  21              		.global	bytesIn
  22              		.bss
  23              		.type	bytesIn, %object
  24              		.size	bytesIn, 1
  25              	bytesIn:
  26 0000 00       		.space	1
  27              		.global	modbusRequestReceived
  28              		.type	modbusRequestReceived, %object
  29              		.size	modbusRequestReceived, 1
  30              	modbusRequestReceived:
  31 0001 00       		.space	1
  32              		.section	.text.modbusSend,"ax",%progbits
  33              		.align	2
  34              		.global	modbusSend
  35              		.code	16
  36              		.thumb_func
  37              		.type	modbusSend, %function
  38              	modbusSend:
  39              	.LFB35:
  40              		.file 1 "modbus.c"
   1:modbus.c      **** #include "modbus.h"
   2:modbus.c      **** 
   3:modbus.c      **** 
   4:modbus.c      **** uint8_t modbus_rxBuffer[MODBUS_RX_BUFFER_SIZE];
   5:modbus.c      **** uint8_t modbus_txBuffer[MODBUS_TX_BUFFER_SIZE];
   6:modbus.c      **** 
   7:modbus.c      **** uint8_t bytesIn=0;
   8:modbus.c      **** uint8_t modbusRequestReceived=0;
   9:modbus.c      **** 
  10:modbus.c      **** 
  11:modbus.c      **** void modbusSend(uint8 SlaveAddress, uint8 Mode,  uint16 StartRegAddress, uint16 RegCount )
  12:modbus.c      **** {
  41              		.loc 1 12 0
  42              		.cfi_startproc
  43              		@ args = 0, pretend = 0, frame = 16
  44              		@ frame_needed = 1, uses_anonymous_args = 0
  45 0000 B0B5     		push	{r4, r5, r7, lr}
ARM GAS  C:\Users\alexport\AppData\Local\Temp\ccBjgELh.s 			page 2


  46              		.cfi_def_cfa_offset 16
  47              		.cfi_offset 4, -16
  48              		.cfi_offset 5, -12
  49              		.cfi_offset 7, -8
  50              		.cfi_offset 14, -4
  51 0002 84B0     		sub	sp, sp, #16
  52              		.cfi_def_cfa_offset 32
  53 0004 00AF     		add	r7, sp, #0
  54              		.cfi_def_cfa_register 7
  55 0006 0500     		movs	r5, r0
  56 0008 0C00     		movs	r4, r1
  57 000a 1000     		movs	r0, r2
  58 000c 1900     		movs	r1, r3
  59 000e FB1D     		adds	r3, r7, #7
  60 0010 2A1C     		adds	r2, r5, #0
  61 0012 1A70     		strb	r2, [r3]
  62 0014 BB1D     		adds	r3, r7, #6
  63 0016 221C     		adds	r2, r4, #0
  64 0018 1A70     		strb	r2, [r3]
  65 001a 3B1D     		adds	r3, r7, #4
  66 001c 021C     		adds	r2, r0, #0
  67 001e 1A80     		strh	r2, [r3]
  68 0020 BB1C     		adds	r3, r7, #2
  69 0022 0A1C     		adds	r2, r1, #0
  70 0024 1A80     		strh	r2, [r3]
  13:modbus.c      ****     uint16 crc;
  14:modbus.c      ****     uint8 i;
  15:modbus.c      ****     // Build msg 
  16:modbus.c      ****     modbus_txBuffer[0] = (uint8) SlaveAddress;
  71              		.loc 1 16 0
  72 0026 2D4B     		ldr	r3, .L7
  73 0028 FA1D     		adds	r2, r7, #7
  74 002a 1278     		ldrb	r2, [r2]
  75 002c 1A70     		strb	r2, [r3]
  17:modbus.c      ****     modbus_txBuffer[1] = (uint8) Mode;
  76              		.loc 1 17 0
  77 002e 2B4B     		ldr	r3, .L7
  78 0030 BA1D     		adds	r2, r7, #6
  79 0032 1278     		ldrb	r2, [r2]
  80 0034 5A70     		strb	r2, [r3, #1]
  18:modbus.c      ****     modbus_txBuffer[2] = (uint8) 2;//(RegCount >> 8);
  81              		.loc 1 18 0
  82 0036 294B     		ldr	r3, .L7
  83 0038 0222     		movs	r2, #2
  84 003a 9A70     		strb	r2, [r3, #2]
  19:modbus.c      ****     modbus_txBuffer[3] = (uint8) 11;//RegCount;
  85              		.loc 1 19 0
  86 003c 274B     		ldr	r3, .L7
  87 003e 0B22     		movs	r2, #11
  88 0040 DA70     		strb	r2, [r3, #3]
  20:modbus.c      ****     modbus_txBuffer[4] = (uint8) 12; 
  89              		.loc 1 20 0
  90 0042 264B     		ldr	r3, .L7
  91 0044 0C22     		movs	r2, #12
  92 0046 1A71     		strb	r2, [r3, #4]
  21:modbus.c      ****     crc = (uint16) modbus_GenerateCRC(modbus_txBuffer,7);
  93              		.loc 1 21 0
ARM GAS  C:\Users\alexport\AppData\Local\Temp\ccBjgELh.s 			page 3


  94 0048 0C23     		movs	r3, #12
  95 004a FC18     		adds	r4, r7, r3
  96 004c 234B     		ldr	r3, .L7
  97 004e 0721     		movs	r1, #7
  98 0050 1800     		movs	r0, r3
  99 0052 FFF7FEFF 		bl	modbus_GenerateCRC
 100 0056 0300     		movs	r3, r0
 101 0058 2380     		strh	r3, [r4]
  22:modbus.c      ****     modbus_txBuffer[5] = (uint8) (crc >> 8);
 102              		.loc 1 22 0
 103 005a 0C23     		movs	r3, #12
 104 005c FB18     		adds	r3, r7, r3
 105 005e 1B88     		ldrh	r3, [r3]
 106 0060 1B0A     		lsrs	r3, r3, #8
 107 0062 9BB2     		uxth	r3, r3
 108 0064 DAB2     		uxtb	r2, r3
 109 0066 1D4B     		ldr	r3, .L7
 110 0068 5A71     		strb	r2, [r3, #5]
  23:modbus.c      ****     modbus_txBuffer[6] = (uint8) (crc & 0xFF);
 111              		.loc 1 23 0
 112 006a 0C23     		movs	r3, #12
 113 006c FB18     		adds	r3, r7, r3
 114 006e 1B88     		ldrh	r3, [r3]
 115 0070 DAB2     		uxtb	r2, r3
 116 0072 1A4B     		ldr	r3, .L7
 117 0074 9A71     		strb	r2, [r3, #6]
  24:modbus.c      ****     TXEN_Write(1);
 118              		.loc 1 24 0
 119 0076 0120     		movs	r0, #1
 120 0078 FFF7FEFF 		bl	TXEN_Write
  25:modbus.c      ****     for (i=0; i<7; i++) {
 121              		.loc 1 25 0
 122 007c 0F23     		movs	r3, #15
 123 007e FB18     		adds	r3, r7, r3
 124 0080 0022     		movs	r2, #0
 125 0082 1A70     		strb	r2, [r3]
 126 0084 0EE0     		b	.L2
 127              	.L3:
  26:modbus.c      ****         ModbusUART_UartPutChar(modbus_txBuffer[i]); 
 128              		.loc 1 26 0 discriminator 3
 129 0086 0F23     		movs	r3, #15
 130 0088 FB18     		adds	r3, r7, r3
 131 008a 1B78     		ldrb	r3, [r3]
 132 008c 134A     		ldr	r2, .L7
 133 008e D35C     		ldrb	r3, [r2, r3]
 134 0090 1800     		movs	r0, r3
 135 0092 FFF7FEFF 		bl	ModbusUART_SpiUartWriteTxData
  25:modbus.c      ****     for (i=0; i<7; i++) {
 136              		.loc 1 25 0 discriminator 3
 137 0096 0F23     		movs	r3, #15
 138 0098 FB18     		adds	r3, r7, r3
 139 009a 1A78     		ldrb	r2, [r3]
 140 009c 0F23     		movs	r3, #15
 141 009e FB18     		adds	r3, r7, r3
 142 00a0 0132     		adds	r2, r2, #1
 143 00a2 1A70     		strb	r2, [r3]
 144              	.L2:
ARM GAS  C:\Users\alexport\AppData\Local\Temp\ccBjgELh.s 			page 4


  25:modbus.c      ****     for (i=0; i<7; i++) {
 145              		.loc 1 25 0 is_stmt 0 discriminator 1
 146 00a4 0F23     		movs	r3, #15
 147 00a6 FB18     		adds	r3, r7, r3
 148 00a8 1B78     		ldrb	r3, [r3]
 149 00aa 062B     		cmp	r3, #6
 150 00ac EBD9     		bls	.L3
  27:modbus.c      ****     }
  28:modbus.c      ****     /*Wait until trasmission complete*/
  29:modbus.c      ****     while (0u != (ModbusUART_SpiUartGetTxBufferSize() + ModbusUART_GET_TX_FIFO_SR_VALID));
 151              		.loc 1 29 0 is_stmt 1
 152 00ae C046     		nop
 153              	.L6:
 154              		.loc 1 29 0 is_stmt 0 discriminator 5
 155 00b0 FFF7FEFF 		bl	ModbusUART_SpiUartGetTxBufferSize
 156 00b4 0100     		movs	r1, r0
 157 00b6 0A4B     		ldr	r3, .L7+4
 158 00b8 1A68     		ldr	r2, [r3]
 159 00ba 8023     		movs	r3, #128
 160 00bc 1B02     		lsls	r3, r3, #8
 161 00be 1340     		ands	r3, r2
 162 00c0 01D0     		beq	.L4
 163              		.loc 1 29 0 discriminator 1
 164 00c2 0123     		movs	r3, #1
 165 00c4 00E0     		b	.L5
 166              	.L4:
 167              		.loc 1 29 0 discriminator 2
 168 00c6 0023     		movs	r3, #0
 169              	.L5:
 170              		.loc 1 29 0 discriminator 4
 171 00c8 CB18     		adds	r3, r1, r3
 172 00ca 002B     		cmp	r3, #0
 173 00cc F0D1     		bne	.L6
  30:modbus.c      ****     TXEN_Write(0);
 174              		.loc 1 30 0 is_stmt 1
 175 00ce 0020     		movs	r0, #0
 176 00d0 FFF7FEFF 		bl	TXEN_Write
  31:modbus.c      **** }
 177              		.loc 1 31 0
 178 00d4 C046     		nop
 179 00d6 BD46     		mov	sp, r7
 180 00d8 04B0     		add	sp, sp, #16
 181              		@ sp needed
 182 00da B0BD     		pop	{r4, r5, r7, pc}
 183              	.L8:
 184              		.align	2
 185              	.L7:
 186 00dc 00000000 		.word	modbus_txBuffer
 187 00e0 08022540 		.word	1076167176
 188              		.cfi_endproc
 189              	.LFE35:
 190              		.size	modbusSend, .-modbusSend
 191              		.section	.text.modbusSendBulk,"ax",%progbits
 192              		.align	2
 193              		.global	modbusSendBulk
 194              		.code	16
 195              		.thumb_func
ARM GAS  C:\Users\alexport\AppData\Local\Temp\ccBjgELh.s 			page 5


 196              		.type	modbusSendBulk, %function
 197              	modbusSendBulk:
 198              	.LFB36:
  32:modbus.c      **** 
  33:modbus.c      **** void modbusSendBulk(uint8 SlaveAddress, uint8 Mode, uint16 RegCount )
  34:modbus.c      **** {
 199              		.loc 1 34 0
 200              		.cfi_startproc
 201              		@ args = 0, pretend = 0, frame = 16
 202              		@ frame_needed = 1, uses_anonymous_args = 0
 203 0000 90B5     		push	{r4, r7, lr}
 204              		.cfi_def_cfa_offset 12
 205              		.cfi_offset 4, -12
 206              		.cfi_offset 7, -8
 207              		.cfi_offset 14, -4
 208 0002 85B0     		sub	sp, sp, #20
 209              		.cfi_def_cfa_offset 32
 210 0004 00AF     		add	r7, sp, #0
 211              		.cfi_def_cfa_register 7
 212 0006 0400     		movs	r4, r0
 213 0008 0800     		movs	r0, r1
 214 000a 1100     		movs	r1, r2
 215 000c FB1D     		adds	r3, r7, #7
 216 000e 221C     		adds	r2, r4, #0
 217 0010 1A70     		strb	r2, [r3]
 218 0012 BB1D     		adds	r3, r7, #6
 219 0014 021C     		adds	r2, r0, #0
 220 0016 1A70     		strb	r2, [r3]
 221 0018 3B1D     		adds	r3, r7, #4
 222 001a 0A1C     		adds	r2, r1, #0
 223 001c 1A80     		strh	r2, [r3]
  35:modbus.c      ****     uint16 crc;
  36:modbus.c      ****     uint8 i;
  37:modbus.c      ****     uint16_t bytes =RegCount*2 ;
 224              		.loc 1 37 0
 225 001e 0E23     		movs	r3, #14
 226 0020 FA18     		adds	r2, r7, r3
 227 0022 3B1D     		adds	r3, r7, #4
 228 0024 1B88     		ldrh	r3, [r3]
 229 0026 DB18     		adds	r3, r3, r3
 230 0028 1380     		strh	r3, [r2]
  38:modbus.c      ****    
  39:modbus.c      ****     modbus_txBuffer[0] = (uint8) SlaveAddress;
 231              		.loc 1 39 0
 232 002a 1F4B     		ldr	r3, .L10
 233 002c FA1D     		adds	r2, r7, #7
 234 002e 1278     		ldrb	r2, [r2]
 235 0030 1A70     		strb	r2, [r3]
  40:modbus.c      ****     modbus_txBuffer[1] = (uint8) Mode;
 236              		.loc 1 40 0
 237 0032 1D4B     		ldr	r3, .L10
 238 0034 BA1D     		adds	r2, r7, #6
 239 0036 1278     		ldrb	r2, [r2]
 240 0038 5A70     		strb	r2, [r3, #1]
  41:modbus.c      ****     modbus_txBuffer[2] = (uint8) bytes;
 241              		.loc 1 41 0
 242 003a 0E23     		movs	r3, #14
ARM GAS  C:\Users\alexport\AppData\Local\Temp\ccBjgELh.s 			page 6


 243 003c FB18     		adds	r3, r7, r3
 244 003e 1B88     		ldrh	r3, [r3]
 245 0040 DAB2     		uxtb	r2, r3
 246 0042 194B     		ldr	r3, .L10
 247 0044 9A70     		strb	r2, [r3, #2]
  42:modbus.c      ****     crc = (uint16) modbus_GenerateCRC(modbus_txBuffer,bytes+5);
 248              		.loc 1 42 0
 249 0046 0E23     		movs	r3, #14
 250 0048 FB18     		adds	r3, r7, r3
 251 004a 1B88     		ldrh	r3, [r3]
 252 004c 0533     		adds	r3, r3, #5
 253 004e 9AB2     		uxth	r2, r3
 254 0050 0C23     		movs	r3, #12
 255 0052 FC18     		adds	r4, r7, r3
 256 0054 144B     		ldr	r3, .L10
 257 0056 1100     		movs	r1, r2
 258 0058 1800     		movs	r0, r3
 259 005a FFF7FEFF 		bl	modbus_GenerateCRC
 260 005e 0300     		movs	r3, r0
 261 0060 2380     		strh	r3, [r4]
  43:modbus.c      ****     modbus_txBuffer[bytes+3] = (uint8) (crc >> 8);
 262              		.loc 1 43 0
 263 0062 0E23     		movs	r3, #14
 264 0064 FB18     		adds	r3, r7, r3
 265 0066 1B88     		ldrh	r3, [r3]
 266 0068 0333     		adds	r3, r3, #3
 267 006a 0C22     		movs	r2, #12
 268 006c BA18     		adds	r2, r7, r2
 269 006e 1288     		ldrh	r2, [r2]
 270 0070 120A     		lsrs	r2, r2, #8
 271 0072 92B2     		uxth	r2, r2
 272 0074 D1B2     		uxtb	r1, r2
 273 0076 0C4A     		ldr	r2, .L10
 274 0078 D154     		strb	r1, [r2, r3]
  44:modbus.c      ****     modbus_txBuffer[bytes+4] = (uint8) (crc & 0xFF);
 275              		.loc 1 44 0
 276 007a 0E23     		movs	r3, #14
 277 007c FB18     		adds	r3, r7, r3
 278 007e 1B88     		ldrh	r3, [r3]
 279 0080 0433     		adds	r3, r3, #4
 280 0082 0C22     		movs	r2, #12
 281 0084 BA18     		adds	r2, r7, r2
 282 0086 1288     		ldrh	r2, [r2]
 283 0088 D1B2     		uxtb	r1, r2
 284 008a 074A     		ldr	r2, .L10
 285 008c D154     		strb	r1, [r2, r3]
  45:modbus.c      ****     modbusFlush(bytes+5); // bytes + preamble+ crc
 286              		.loc 1 45 0
 287 008e 0E23     		movs	r3, #14
 288 0090 FB18     		adds	r3, r7, r3
 289 0092 1B88     		ldrh	r3, [r3]
 290 0094 0533     		adds	r3, r3, #5
 291 0096 9BB2     		uxth	r3, r3
 292 0098 1800     		movs	r0, r3
 293 009a FFF7FEFF 		bl	modbusFlush
  46:modbus.c      **** }
 294              		.loc 1 46 0
ARM GAS  C:\Users\alexport\AppData\Local\Temp\ccBjgELh.s 			page 7


 295 009e C046     		nop
 296 00a0 BD46     		mov	sp, r7
 297 00a2 05B0     		add	sp, sp, #20
 298              		@ sp needed
 299 00a4 90BD     		pop	{r4, r7, pc}
 300              	.L11:
 301 00a6 C046     		.align	2
 302              	.L10:
 303 00a8 00000000 		.word	modbus_txBuffer
 304              		.cfi_endproc
 305              	.LFE36:
 306              		.size	modbusSendBulk, .-modbusSendBulk
 307              		.section	.text.modbusWriteResponse,"ax",%progbits
 308              		.align	2
 309              		.global	modbusWriteResponse
 310              		.code	16
 311              		.thumb_func
 312              		.type	modbusWriteResponse, %function
 313              	modbusWriteResponse:
 314              	.LFB37:
  47:modbus.c      **** 
  48:modbus.c      **** //void rs232SendBulk(uint8 SlaveAddress, uint8 Mode, uint16 RegCount )
  49:modbus.c      **** //{
  50:modbus.c      **** //    uint16 crc;
  51:modbus.c      **** //    uint8 i;
  52:modbus.c      **** //    uint16_t bytes =RegCount*2 ;
  53:modbus.c      **** //   
  54:modbus.c      **** //    modbus_txBuffer[0] = (uint8) SlaveAddress;
  55:modbus.c      **** //    modbus_txBuffer[1] = (uint8) Mode;
  56:modbus.c      **** //    modbus_txBuffer[2] = (uint8) bytes;
  57:modbus.c      **** //    crc = (uint16) modbus_GenerateCRC(modbus_txBuffer,bytes+5);
  58:modbus.c      **** //    modbus_txBuffer[bytes+3] = (uint8) (crc >> 8);
  59:modbus.c      **** //    modbus_txBuffer[bytes+4] = (uint8) (crc & 0xFF);
  60:modbus.c      **** //    rs232Flush(bytes+5); // bytes + preamble+ crc
  61:modbus.c      **** //}
  62:modbus.c      **** 
  63:modbus.c      **** 
  64:modbus.c      **** //void rs232WriteResponse(uint8 SlaveAddress, uint8 Mode,  uint16 StartRegAddress, uint16 data )
  65:modbus.c      **** //{
  66:modbus.c      **** //    uint16 crc;
  67:modbus.c      **** //    uint8 i;
  68:modbus.c      **** //     
  69:modbus.c      **** //    // Build msg 
  70:modbus.c      **** //    modbus_txBuffer[0] = (uint8) SlaveAddress;
  71:modbus.c      **** //    modbus_txBuffer[1] = (uint8) Mode;
  72:modbus.c      **** //    modbus_txBuffer[2] = (uint8) (StartRegAddress>>8)&0xFF;
  73:modbus.c      **** //    modbus_txBuffer[3] = (uint8) StartRegAddress & 0xFF;
  74:modbus.c      **** //    modbus_txBuffer[4] = (uint8) (data << 8) & 0xFF ; 
  75:modbus.c      **** //    modbus_txBuffer[5] = (uint8) data & 0xFF;
  76:modbus.c      **** //    crc = (uint16) modbus_GenerateCRC(modbus_txBuffer,8);
  77:modbus.c      **** //    modbus_txBuffer[6] = (uint8) (crc >> 8);
  78:modbus.c      **** //    modbus_txBuffer[7] = (uint8) (crc & 0xFF);
  79:modbus.c      **** //    
  80:modbus.c      **** //    for (i=0; i<8; i++) {
  81:modbus.c      **** //        RS232UART_PutChar(modbus_txBuffer[i]); 
  82:modbus.c      **** //    }
  83:modbus.c      **** //    
ARM GAS  C:\Users\alexport\AppData\Local\Temp\ccBjgELh.s 			page 8


  84:modbus.c      **** //    
  85:modbus.c      **** //}
  86:modbus.c      **** 
  87:modbus.c      **** 
  88:modbus.c      **** void modbusWriteResponse(uint8 SlaveAddress, uint8 Mode,  uint16 StartRegAddress, uint16 data )
  89:modbus.c      **** {
 315              		.loc 1 89 0
 316              		.cfi_startproc
 317              		@ args = 0, pretend = 0, frame = 16
 318              		@ frame_needed = 1, uses_anonymous_args = 0
 319 0000 B0B5     		push	{r4, r5, r7, lr}
 320              		.cfi_def_cfa_offset 16
 321              		.cfi_offset 4, -16
 322              		.cfi_offset 5, -12
 323              		.cfi_offset 7, -8
 324              		.cfi_offset 14, -4
 325 0002 84B0     		sub	sp, sp, #16
 326              		.cfi_def_cfa_offset 32
 327 0004 00AF     		add	r7, sp, #0
 328              		.cfi_def_cfa_register 7
 329 0006 0500     		movs	r5, r0
 330 0008 0C00     		movs	r4, r1
 331 000a 1000     		movs	r0, r2
 332 000c 1900     		movs	r1, r3
 333 000e FB1D     		adds	r3, r7, #7
 334 0010 2A1C     		adds	r2, r5, #0
 335 0012 1A70     		strb	r2, [r3]
 336 0014 BB1D     		adds	r3, r7, #6
 337 0016 221C     		adds	r2, r4, #0
 338 0018 1A70     		strb	r2, [r3]
 339 001a 3B1D     		adds	r3, r7, #4
 340 001c 021C     		adds	r2, r0, #0
 341 001e 1A80     		strh	r2, [r3]
 342 0020 BB1C     		adds	r3, r7, #2
 343 0022 0A1C     		adds	r2, r1, #0
 344 0024 1A80     		strh	r2, [r3]
  90:modbus.c      ****     uint16 crc;
  91:modbus.c      ****     uint8 i;
  92:modbus.c      ****      
  93:modbus.c      ****     // Build msg 
  94:modbus.c      ****     modbus_txBuffer[0] = (uint8) SlaveAddress;
 345              		.loc 1 94 0
 346 0026 334B     		ldr	r3, .L18
 347 0028 FA1D     		adds	r2, r7, #7
 348 002a 1278     		ldrb	r2, [r2]
 349 002c 1A70     		strb	r2, [r3]
  95:modbus.c      ****     modbus_txBuffer[1] = (uint8) Mode;
 350              		.loc 1 95 0
 351 002e 314B     		ldr	r3, .L18
 352 0030 BA1D     		adds	r2, r7, #6
 353 0032 1278     		ldrb	r2, [r2]
 354 0034 5A70     		strb	r2, [r3, #1]
  96:modbus.c      ****     
  97:modbus.c      ****     modbus_txBuffer[2] = (uint8) (StartRegAddress>>8)&0xFF;
 355              		.loc 1 97 0
 356 0036 3B1D     		adds	r3, r7, #4
 357 0038 1B88     		ldrh	r3, [r3]
ARM GAS  C:\Users\alexport\AppData\Local\Temp\ccBjgELh.s 			page 9


 358 003a 1B0A     		lsrs	r3, r3, #8
 359 003c 9BB2     		uxth	r3, r3
 360 003e DAB2     		uxtb	r2, r3
 361 0040 2C4B     		ldr	r3, .L18
 362 0042 9A70     		strb	r2, [r3, #2]
  98:modbus.c      ****     modbus_txBuffer[3] = (uint8) StartRegAddress & 0xFF;
 363              		.loc 1 98 0
 364 0044 3B1D     		adds	r3, r7, #4
 365 0046 1B88     		ldrh	r3, [r3]
 366 0048 DAB2     		uxtb	r2, r3
 367 004a 2A4B     		ldr	r3, .L18
 368 004c DA70     		strb	r2, [r3, #3]
  99:modbus.c      ****     
 100:modbus.c      ****     modbus_txBuffer[4] = (uint8) (data << 8) & 0xFF ; 
 369              		.loc 1 100 0
 370 004e 294B     		ldr	r3, .L18
 371 0050 0022     		movs	r2, #0
 372 0052 1A71     		strb	r2, [r3, #4]
 101:modbus.c      ****     modbus_txBuffer[5] = (uint8) data & 0xFF;
 373              		.loc 1 101 0
 374 0054 BB1C     		adds	r3, r7, #2
 375 0056 1B88     		ldrh	r3, [r3]
 376 0058 DAB2     		uxtb	r2, r3
 377 005a 264B     		ldr	r3, .L18
 378 005c 5A71     		strb	r2, [r3, #5]
 102:modbus.c      ****     
 103:modbus.c      ****     crc = (uint16) modbus_GenerateCRC(modbus_txBuffer,8);
 379              		.loc 1 103 0
 380 005e 0C23     		movs	r3, #12
 381 0060 FC18     		adds	r4, r7, r3
 382 0062 244B     		ldr	r3, .L18
 383 0064 0821     		movs	r1, #8
 384 0066 1800     		movs	r0, r3
 385 0068 FFF7FEFF 		bl	modbus_GenerateCRC
 386 006c 0300     		movs	r3, r0
 387 006e 2380     		strh	r3, [r4]
 104:modbus.c      **** 
 105:modbus.c      ****     modbus_txBuffer[6] = (uint8) (crc >> 8);
 388              		.loc 1 105 0
 389 0070 0C23     		movs	r3, #12
 390 0072 FB18     		adds	r3, r7, r3
 391 0074 1B88     		ldrh	r3, [r3]
 392 0076 1B0A     		lsrs	r3, r3, #8
 393 0078 9BB2     		uxth	r3, r3
 394 007a DAB2     		uxtb	r2, r3
 395 007c 1D4B     		ldr	r3, .L18
 396 007e 9A71     		strb	r2, [r3, #6]
 106:modbus.c      ****     modbus_txBuffer[7] = (uint8) (crc & 0xFF);
 397              		.loc 1 106 0
 398 0080 0C23     		movs	r3, #12
 399 0082 FB18     		adds	r3, r7, r3
 400 0084 1B88     		ldrh	r3, [r3]
 401 0086 DAB2     		uxtb	r2, r3
 402 0088 1A4B     		ldr	r3, .L18
 403 008a DA71     		strb	r2, [r3, #7]
 107:modbus.c      ****     
 108:modbus.c      ****     
ARM GAS  C:\Users\alexport\AppData\Local\Temp\ccBjgELh.s 			page 10


 109:modbus.c      ****     TXEN_Write(1);
 404              		.loc 1 109 0
 405 008c 0120     		movs	r0, #1
 406 008e FFF7FEFF 		bl	TXEN_Write
 110:modbus.c      ****     for (i=0; i<8; i++) {
 407              		.loc 1 110 0
 408 0092 0F23     		movs	r3, #15
 409 0094 FB18     		adds	r3, r7, r3
 410 0096 0022     		movs	r2, #0
 411 0098 1A70     		strb	r2, [r3]
 412 009a 0EE0     		b	.L13
 413              	.L14:
 111:modbus.c      ****         ModbusUART_UartPutChar(modbus_txBuffer[i]); 
 414              		.loc 1 111 0 discriminator 3
 415 009c 0F23     		movs	r3, #15
 416 009e FB18     		adds	r3, r7, r3
 417 00a0 1B78     		ldrb	r3, [r3]
 418 00a2 144A     		ldr	r2, .L18
 419 00a4 D35C     		ldrb	r3, [r2, r3]
 420 00a6 1800     		movs	r0, r3
 421 00a8 FFF7FEFF 		bl	ModbusUART_SpiUartWriteTxData
 110:modbus.c      ****     for (i=0; i<8; i++) {
 422              		.loc 1 110 0 discriminator 3
 423 00ac 0F23     		movs	r3, #15
 424 00ae FB18     		adds	r3, r7, r3
 425 00b0 1A78     		ldrb	r2, [r3]
 426 00b2 0F23     		movs	r3, #15
 427 00b4 FB18     		adds	r3, r7, r3
 428 00b6 0132     		adds	r2, r2, #1
 429 00b8 1A70     		strb	r2, [r3]
 430              	.L13:
 110:modbus.c      ****     for (i=0; i<8; i++) {
 431              		.loc 1 110 0 is_stmt 0 discriminator 1
 432 00ba 0F23     		movs	r3, #15
 433 00bc FB18     		adds	r3, r7, r3
 434 00be 1B78     		ldrb	r3, [r3]
 435 00c0 072B     		cmp	r3, #7
 436 00c2 EBD9     		bls	.L14
 112:modbus.c      ****     }
 113:modbus.c      ****     /*Wait until trasmission complete*/
 114:modbus.c      ****     while (0u != (ModbusUART_SpiUartGetTxBufferSize() + ModbusUART_GET_TX_FIFO_SR_VALID));
 437              		.loc 1 114 0 is_stmt 1
 438 00c4 C046     		nop
 439              	.L17:
 440              		.loc 1 114 0 is_stmt 0 discriminator 5
 441 00c6 FFF7FEFF 		bl	ModbusUART_SpiUartGetTxBufferSize
 442 00ca 0100     		movs	r1, r0
 443 00cc 0A4B     		ldr	r3, .L18+4
 444 00ce 1A68     		ldr	r2, [r3]
 445 00d0 8023     		movs	r3, #128
 446 00d2 1B02     		lsls	r3, r3, #8
 447 00d4 1340     		ands	r3, r2
 448 00d6 01D0     		beq	.L15
 449              		.loc 1 114 0 discriminator 1
 450 00d8 0123     		movs	r3, #1
 451 00da 00E0     		b	.L16
 452              	.L15:
ARM GAS  C:\Users\alexport\AppData\Local\Temp\ccBjgELh.s 			page 11


 453              		.loc 1 114 0 discriminator 2
 454 00dc 0023     		movs	r3, #0
 455              	.L16:
 456              		.loc 1 114 0 discriminator 4
 457 00de CB18     		adds	r3, r1, r3
 458 00e0 002B     		cmp	r3, #0
 459 00e2 F0D1     		bne	.L17
 115:modbus.c      ****     TXEN_Write(0);
 460              		.loc 1 115 0 is_stmt 1
 461 00e4 0020     		movs	r0, #0
 462 00e6 FFF7FEFF 		bl	TXEN_Write
 116:modbus.c      **** }
 463              		.loc 1 116 0
 464 00ea C046     		nop
 465 00ec BD46     		mov	sp, r7
 466 00ee 04B0     		add	sp, sp, #16
 467              		@ sp needed
 468 00f0 B0BD     		pop	{r4, r5, r7, pc}
 469              	.L19:
 470 00f2 C046     		.align	2
 471              	.L18:
 472 00f4 00000000 		.word	modbus_txBuffer
 473 00f8 08022540 		.word	1076167176
 474              		.cfi_endproc
 475              	.LFE37:
 476              		.size	modbusWriteResponse, .-modbusWriteResponse
 477              		.section	.text.modbusFlush,"ax",%progbits
 478              		.align	2
 479              		.global	modbusFlush
 480              		.code	16
 481              		.thumb_func
 482              		.type	modbusFlush, %function
 483              	modbusFlush:
 484              	.LFB38:
 117:modbus.c      **** 
 118:modbus.c      **** 
 119:modbus.c      **** //void rs232Flush(uint16_t bytes){
 120:modbus.c      **** //    for (uint16_t i=0; i<bytes; i++) {
 121:modbus.c      **** //        RS232UART_PutChar(modbus_txBuffer[i]); 
 122:modbus.c      **** //    }
 123:modbus.c      **** //}
 124:modbus.c      **** 
 125:modbus.c      **** 
 126:modbus.c      **** void modbusFlush(uint16_t bytes){
 485              		.loc 1 126 0
 486              		.cfi_startproc
 487              		@ args = 0, pretend = 0, frame = 16
 488              		@ frame_needed = 1, uses_anonymous_args = 0
 489 0000 80B5     		push	{r7, lr}
 490              		.cfi_def_cfa_offset 8
 491              		.cfi_offset 7, -8
 492              		.cfi_offset 14, -4
 493 0002 84B0     		sub	sp, sp, #16
 494              		.cfi_def_cfa_offset 24
 495 0004 00AF     		add	r7, sp, #0
 496              		.cfi_def_cfa_register 7
 497 0006 0200     		movs	r2, r0
ARM GAS  C:\Users\alexport\AppData\Local\Temp\ccBjgELh.s 			page 12


 498 0008 BB1D     		adds	r3, r7, #6
 499 000a 1A80     		strh	r2, [r3]
 127:modbus.c      ****     TXEN_Write(1);
 500              		.loc 1 127 0
 501 000c 0120     		movs	r0, #1
 502 000e FFF7FEFF 		bl	TXEN_Write
 128:modbus.c      ****     CyDelay(10);
 503              		.loc 1 128 0
 504 0012 0A20     		movs	r0, #10
 505 0014 FFF7FEFF 		bl	CyDelay
 506              	.LBB2:
 129:modbus.c      ****     for (uint16_t i=0; i<bytes; i++) {
 507              		.loc 1 129 0
 508 0018 0E23     		movs	r3, #14
 509 001a FB18     		adds	r3, r7, r3
 510 001c 0022     		movs	r2, #0
 511 001e 1A80     		strh	r2, [r3]
 512 0020 0EE0     		b	.L21
 513              	.L22:
 130:modbus.c      ****         ModbusUART_UartPutChar(modbus_txBuffer[i]); 
 514              		.loc 1 130 0 discriminator 3
 515 0022 0E23     		movs	r3, #14
 516 0024 FB18     		adds	r3, r7, r3
 517 0026 1B88     		ldrh	r3, [r3]
 518 0028 144A     		ldr	r2, .L26
 519 002a D35C     		ldrb	r3, [r2, r3]
 520 002c 1800     		movs	r0, r3
 521 002e FFF7FEFF 		bl	ModbusUART_SpiUartWriteTxData
 129:modbus.c      ****     for (uint16_t i=0; i<bytes; i++) {
 522              		.loc 1 129 0 discriminator 3
 523 0032 0E23     		movs	r3, #14
 524 0034 FB18     		adds	r3, r7, r3
 525 0036 1A88     		ldrh	r2, [r3]
 526 0038 0E23     		movs	r3, #14
 527 003a FB18     		adds	r3, r7, r3
 528 003c 0132     		adds	r2, r2, #1
 529 003e 1A80     		strh	r2, [r3]
 530              	.L21:
 129:modbus.c      ****     for (uint16_t i=0; i<bytes; i++) {
 531              		.loc 1 129 0 is_stmt 0 discriminator 1
 532 0040 0E23     		movs	r3, #14
 533 0042 FA18     		adds	r2, r7, r3
 534 0044 BB1D     		adds	r3, r7, #6
 535 0046 1288     		ldrh	r2, [r2]
 536 0048 1B88     		ldrh	r3, [r3]
 537 004a 9A42     		cmp	r2, r3
 538 004c E9D3     		bcc	.L22
 539              	.LBE2:
 131:modbus.c      ****         //CyDelay(2);
 132:modbus.c      ****     }
 133:modbus.c      ****     /*Wait until trasmission complete*/
 134:modbus.c      ****     while (0u != (ModbusUART_SpiUartGetTxBufferSize() + ModbusUART_GET_TX_FIFO_SR_VALID));
 540              		.loc 1 134 0 is_stmt 1
 541 004e C046     		nop
 542              	.L25:
 543              		.loc 1 134 0 is_stmt 0 discriminator 5
 544 0050 FFF7FEFF 		bl	ModbusUART_SpiUartGetTxBufferSize
ARM GAS  C:\Users\alexport\AppData\Local\Temp\ccBjgELh.s 			page 13


 545 0054 0100     		movs	r1, r0
 546 0056 0A4B     		ldr	r3, .L26+4
 547 0058 1A68     		ldr	r2, [r3]
 548 005a 8023     		movs	r3, #128
 549 005c 1B02     		lsls	r3, r3, #8
 550 005e 1340     		ands	r3, r2
 551 0060 01D0     		beq	.L23
 552              		.loc 1 134 0 discriminator 1
 553 0062 0123     		movs	r3, #1
 554 0064 00E0     		b	.L24
 555              	.L23:
 556              		.loc 1 134 0 discriminator 2
 557 0066 0023     		movs	r3, #0
 558              	.L24:
 559              		.loc 1 134 0 discriminator 4
 560 0068 CB18     		adds	r3, r1, r3
 561 006a 002B     		cmp	r3, #0
 562 006c F0D1     		bne	.L25
 135:modbus.c      ****     //CyDelay(2);
 136:modbus.c      ****     TXEN_Write(0);    
 563              		.loc 1 136 0 is_stmt 1
 564 006e 0020     		movs	r0, #0
 565 0070 FFF7FEFF 		bl	TXEN_Write
 137:modbus.c      **** }
 566              		.loc 1 137 0
 567 0074 C046     		nop
 568 0076 BD46     		mov	sp, r7
 569 0078 04B0     		add	sp, sp, #16
 570              		@ sp needed
 571 007a 80BD     		pop	{r7, pc}
 572              	.L27:
 573              		.align	2
 574              	.L26:
 575 007c 00000000 		.word	modbus_txBuffer
 576 0080 08022540 		.word	1076167176
 577              		.cfi_endproc
 578              	.LFE38:
 579              		.size	modbusFlush, .-modbusFlush
 580              		.section	.text.modbus_GenerateCRC,"ax",%progbits
 581              		.align	2
 582              		.global	modbus_GenerateCRC
 583              		.code	16
 584              		.thumb_func
 585              		.type	modbus_GenerateCRC, %function
 586              	modbus_GenerateCRC:
 587              	.LFB39:
 138:modbus.c      **** 
 139:modbus.c      **** uint16 modbus_GenerateCRC(uint8 *msg, uint16 msglen)
 140:modbus.c      **** {
 588              		.loc 1 140 0
 589              		.cfi_startproc
 590              		@ args = 0, pretend = 0, frame = 24
 591              		@ frame_needed = 1, uses_anonymous_args = 0
 592 0000 80B5     		push	{r7, lr}
 593              		.cfi_def_cfa_offset 8
 594              		.cfi_offset 7, -8
 595              		.cfi_offset 14, -4
ARM GAS  C:\Users\alexport\AppData\Local\Temp\ccBjgELh.s 			page 14


 596 0002 86B0     		sub	sp, sp, #24
 597              		.cfi_def_cfa_offset 32
 598 0004 00AF     		add	r7, sp, #0
 599              		.cfi_def_cfa_register 7
 600 0006 7860     		str	r0, [r7, #4]
 601 0008 0A00     		movs	r2, r1
 602 000a BB1C     		adds	r3, r7, #2
 603 000c 1A80     		strh	r2, [r3]
 141:modbus.c      ****     uint16 crc = 0xFFFF;
 604              		.loc 1 141 0
 605 000e 1623     		movs	r3, #22
 606 0010 FB18     		adds	r3, r7, r3
 607 0012 0122     		movs	r2, #1
 608 0014 5242     		rsbs	r2, r2, #0
 609 0016 1A80     		strh	r2, [r3]
 142:modbus.c      ****     uint16 crcHigh = 0;
 610              		.loc 1 142 0
 611 0018 0A23     		movs	r3, #10
 612 001a FB18     		adds	r3, r7, r3
 613 001c 0022     		movs	r2, #0
 614 001e 1A80     		strh	r2, [r3]
 143:modbus.c      ****     uint16 crcLow = 0;
 615              		.loc 1 143 0
 616 0020 0823     		movs	r3, #8
 617 0022 FB18     		adds	r3, r7, r3
 618 0024 0022     		movs	r2, #0
 619 0026 1A80     		strh	r2, [r3]
 144:modbus.c      ****     int i,j = 0;
 620              		.loc 1 144 0
 621 0028 0023     		movs	r3, #0
 622 002a FB60     		str	r3, [r7, #12]
 145:modbus.c      **** 
 146:modbus.c      ****       for(i=0;i<msglen-2;i++){
 623              		.loc 1 146 0
 624 002c 0023     		movs	r3, #0
 625 002e 3B61     		str	r3, [r7, #16]
 626 0030 34E0     		b	.L29
 627              	.L34:
 147:modbus.c      ****         crc ^= msg[i];
 628              		.loc 1 147 0
 629 0032 3B69     		ldr	r3, [r7, #16]
 630 0034 7A68     		ldr	r2, [r7, #4]
 631 0036 D318     		adds	r3, r2, r3
 632 0038 1B78     		ldrb	r3, [r3]
 633 003a 99B2     		uxth	r1, r3
 634 003c 1623     		movs	r3, #22
 635 003e FB18     		adds	r3, r7, r3
 636 0040 1622     		movs	r2, #22
 637 0042 BA18     		adds	r2, r7, r2
 638 0044 1288     		ldrh	r2, [r2]
 639 0046 4A40     		eors	r2, r1
 640 0048 1A80     		strh	r2, [r3]
 148:modbus.c      ****         for(j=8; j!=0; j--){
 641              		.loc 1 148 0
 642 004a 0823     		movs	r3, #8
 643 004c FB60     		str	r3, [r7, #12]
 644 004e 1FE0     		b	.L30
ARM GAS  C:\Users\alexport\AppData\Local\Temp\ccBjgELh.s 			page 15


 645              	.L33:
 149:modbus.c      ****           if((crc & 0x0001) != 0){
 646              		.loc 1 149 0
 647 0050 1623     		movs	r3, #22
 648 0052 FB18     		adds	r3, r7, r3
 649 0054 1B88     		ldrh	r3, [r3]
 650 0056 0122     		movs	r2, #1
 651 0058 1340     		ands	r3, r2
 652 005a 0FD0     		beq	.L31
 150:modbus.c      ****             crc >>= 1;
 653              		.loc 1 150 0
 654 005c 1623     		movs	r3, #22
 655 005e FB18     		adds	r3, r7, r3
 656 0060 1622     		movs	r2, #22
 657 0062 BA18     		adds	r2, r7, r2
 658 0064 1288     		ldrh	r2, [r2]
 659 0066 5208     		lsrs	r2, r2, #1
 660 0068 1A80     		strh	r2, [r3]
 151:modbus.c      ****             crc ^= 0xA001;
 661              		.loc 1 151 0
 662 006a 1623     		movs	r3, #22
 663 006c FB18     		adds	r3, r7, r3
 664 006e 1622     		movs	r2, #22
 665 0070 BA18     		adds	r2, r7, r2
 666 0072 1288     		ldrh	r2, [r2]
 667 0074 1F49     		ldr	r1, .L36
 668 0076 4A40     		eors	r2, r1
 669 0078 1A80     		strh	r2, [r3]
 670 007a 06E0     		b	.L32
 671              	.L31:
 152:modbus.c      ****           }
 153:modbus.c      ****           else{
 154:modbus.c      ****             crc >>= 1;
 672              		.loc 1 154 0
 673 007c 1623     		movs	r3, #22
 674 007e FB18     		adds	r3, r7, r3
 675 0080 1622     		movs	r2, #22
 676 0082 BA18     		adds	r2, r7, r2
 677 0084 1288     		ldrh	r2, [r2]
 678 0086 5208     		lsrs	r2, r2, #1
 679 0088 1A80     		strh	r2, [r3]
 680              	.L32:
 148:modbus.c      ****           if((crc & 0x0001) != 0){
 681              		.loc 1 148 0 discriminator 2
 682 008a FB68     		ldr	r3, [r7, #12]
 683 008c 013B     		subs	r3, r3, #1
 684 008e FB60     		str	r3, [r7, #12]
 685              	.L30:
 148:modbus.c      ****           if((crc & 0x0001) != 0){
 686              		.loc 1 148 0 is_stmt 0 discriminator 1
 687 0090 FB68     		ldr	r3, [r7, #12]
 688 0092 002B     		cmp	r3, #0
 689 0094 DCD1     		bne	.L33
 146:modbus.c      ****         crc ^= msg[i];
 690              		.loc 1 146 0 is_stmt 1 discriminator 2
 691 0096 3B69     		ldr	r3, [r7, #16]
 692 0098 0133     		adds	r3, r3, #1
ARM GAS  C:\Users\alexport\AppData\Local\Temp\ccBjgELh.s 			page 16


 693 009a 3B61     		str	r3, [r7, #16]
 694              	.L29:
 146:modbus.c      ****         crc ^= msg[i];
 695              		.loc 1 146 0 is_stmt 0 discriminator 1
 696 009c BB1C     		adds	r3, r7, #2
 697 009e 1B88     		ldrh	r3, [r3]
 698 00a0 9A1E     		subs	r2, r3, #2
 699 00a2 3B69     		ldr	r3, [r7, #16]
 700 00a4 9A42     		cmp	r2, r3
 701 00a6 C4DC     		bgt	.L34
 155:modbus.c      ****           }
 156:modbus.c      ****         }
 157:modbus.c      ****       }
 158:modbus.c      ****     //bytes are wrong way round so doing a swap here..
 159:modbus.c      ****     crcHigh = (crc & 0x00FF) <<8;
 702              		.loc 1 159 0 is_stmt 1
 703 00a8 1623     		movs	r3, #22
 704 00aa FB18     		adds	r3, r7, r3
 705 00ac 1B88     		ldrh	r3, [r3]
 706 00ae 1A02     		lsls	r2, r3, #8
 707 00b0 0A23     		movs	r3, #10
 708 00b2 FB18     		adds	r3, r7, r3
 709 00b4 1A80     		strh	r2, [r3]
 160:modbus.c      ****     crcLow = (crc & 0xFF00) >>8;
 710              		.loc 1 160 0
 711 00b6 0823     		movs	r3, #8
 712 00b8 FB18     		adds	r3, r7, r3
 713 00ba 1622     		movs	r2, #22
 714 00bc BA18     		adds	r2, r7, r2
 715 00be 1288     		ldrh	r2, [r2]
 716 00c0 120A     		lsrs	r2, r2, #8
 717 00c2 1A80     		strh	r2, [r3]
 161:modbus.c      ****     crcHigh |= crcLow;
 718              		.loc 1 161 0
 719 00c4 0A23     		movs	r3, #10
 720 00c6 FB18     		adds	r3, r7, r3
 721 00c8 0A22     		movs	r2, #10
 722 00ca B918     		adds	r1, r7, r2
 723 00cc 0822     		movs	r2, #8
 724 00ce BA18     		adds	r2, r7, r2
 725 00d0 0988     		ldrh	r1, [r1]
 726 00d2 1288     		ldrh	r2, [r2]
 727 00d4 0A43     		orrs	r2, r1
 728 00d6 1A80     		strh	r2, [r3]
 162:modbus.c      ****     crc = crcHigh;
 729              		.loc 1 162 0
 730 00d8 1623     		movs	r3, #22
 731 00da FB18     		adds	r3, r7, r3
 732 00dc 0A22     		movs	r2, #10
 733 00de BA18     		adds	r2, r7, r2
 734 00e0 1288     		ldrh	r2, [r2]
 735 00e2 1A80     		strh	r2, [r3]
 163:modbus.c      ****     return crc;
 736              		.loc 1 163 0
 737 00e4 1623     		movs	r3, #22
 738 00e6 FB18     		adds	r3, r7, r3
 739 00e8 1B88     		ldrh	r3, [r3]
ARM GAS  C:\Users\alexport\AppData\Local\Temp\ccBjgELh.s 			page 17


 164:modbus.c      **** }
 740              		.loc 1 164 0
 741 00ea 1800     		movs	r0, r3
 742 00ec BD46     		mov	sp, r7
 743 00ee 06B0     		add	sp, sp, #24
 744              		@ sp needed
 745 00f0 80BD     		pop	{r7, pc}
 746              	.L37:
 747 00f2 C046     		.align	2
 748              	.L36:
 749 00f4 01A0FFFF 		.word	-24575
 750              		.cfi_endproc
 751              	.LFE39:
 752              		.size	modbus_GenerateCRC, .-modbus_GenerateCRC
 753              		.section	.text.modbus_Reset,"ax",%progbits
 754              		.align	2
 755              		.global	modbus_Reset
 756              		.code	16
 757              		.thumb_func
 758              		.type	modbus_Reset, %function
 759              	modbus_Reset:
 760              	.LFB40:
 165:modbus.c      **** 
 166:modbus.c      **** 
 167:modbus.c      **** void modbus_Reset(void){
 761              		.loc 1 167 0
 762              		.cfi_startproc
 763              		@ args = 0, pretend = 0, frame = 0
 764              		@ frame_needed = 1, uses_anonymous_args = 0
 765 0000 80B5     		push	{r7, lr}
 766              		.cfi_def_cfa_offset 8
 767              		.cfi_offset 7, -8
 768              		.cfi_offset 14, -4
 769 0002 00AF     		add	r7, sp, #0
 770              		.cfi_def_cfa_register 7
 168:modbus.c      ****     bytesIn =0;
 771              		.loc 1 168 0
 772 0004 024B     		ldr	r3, .L39
 773 0006 0022     		movs	r2, #0
 774 0008 1A70     		strb	r2, [r3]
 169:modbus.c      **** }...
 775              		.loc 1 169 0
 776 000a C046     		nop
 777 000c BD46     		mov	sp, r7
 778              		@ sp needed
 779 000e 80BD     		pop	{r7, pc}
 780              	.L40:
 781              		.align	2
 782              	.L39:
 783 0010 00000000 		.word	bytesIn
 784              		.cfi_endproc
 785              	.LFE40:
 786              		.size	modbus_Reset, .-modbus_Reset
 787              		.text
 788              	.Letext0:
 789              		.file 2 "c:\\program files (x86)\\cypress\\psoc creator\\4.4\\psoc creator\\import\\gnu\\arm\\5.4.
 790              		.file 3 "c:\\program files (x86)\\cypress\\psoc creator\\4.4\\psoc creator\\import\\gnu\\arm\\5.4.
ARM GAS  C:\Users\alexport\AppData\Local\Temp\ccBjgELh.s 			page 18


 791              		.file 4 "Generated_Source\\PSoC4/cytypes.h"
 792              		.file 5 "Generated_Source\\PSoC4/blue_Stack.h"
 793              		.file 6 "Generated_Source\\PSoC4/blue_dis.h"