ARM GAS  C:\Users\alexport\AppData\Local\Temp\ccBjgELh.s 			page 1


   1              		.syntax unified
   2              		.cpu cortex-m0
   3              		.fpu softvfp
   4              		.eabi_attribute 20, 1
   5              		.eabi_attribute 21, 1
   6              		.eabi_attribute 23, 3
   7              		.eabi_attribute 24, 1
   8              		.eabi_attribute 25, 1
   9              		.eabi_attribute 26, 1
  10              		.eabi_attribute 30, 6
  11              		.eabi_attribute 34, 0
  12              		.eabi_attribute 18, 4
  13              		.thumb
  14              		.syntax unified
  15              		.file	"modbus.c"
  16              		.text
  17              	.Ltext0:
  18              		.cfi_sections	.debug_frame
  19              		.comm	modbus_rxBuffer,200,4
  20              		.comm	modbus_txBuffer,256,4
  21              		.global	bytesIn
  22              		.bss
  23              		.type	bytesIn, %object
  24              		.size	bytesIn, 1
  25              	bytesIn:
  26 0000 00       		.space	1
  27              		.global	modbusRequestReceived
  28              		.type	modbusRequestReceived, %object
  29              		.size	modbusRequestReceived, 1
  30              	modbusRequestReceived:
  31 0001 00       		.space	1
  32              		.section	.text.modbusSend,"ax",%progbits
  33              		.align	2
  34              		.global	modbusSend
  35              		.code	16
  36              		.thumb_func
  37              		.type	modbusSend, %function
  38              	modbusSend:
  39              	.LFB35:
  40              		.file 1 "modbus.c"
   1:modbus.c      **** #include "modbus.h"
   2:modbus.c      **** 
   3:modbus.c      **** 
   4:modbus.c      **** uint8_t modbus_rxBuffer[MODBUS_RX_BUFFER_SIZE];
   5:modbus.c      **** uint8_t modbus_txBuffer[MODBUS_TX_BUFFER_SIZE];
   6:modbus.c      **** 
   7:modbus.c      **** uint8_t bytesIn=0;
   8:modbus.c      **** uint8_t modbusRequestReceived=0;
   9:modbus.c      **** 
  10:modbus.c      **** 
  11:modbus.c      **** void modbusSend(uint8 SlaveAddress, uint8 Mode,  uint16 StartRegAddress, uint16 RegCount )
  12:modbus.c      **** {
  41              		.loc 1 12 0
  42              		.cfi_startproc
  43              		@ args = 0, pretend = 0, frame = 16
  44              		@ frame_needed = 1, uses_anonymous_args = 0
  45 0000 B0B5     		push	{r4, r5, r7, lr}
ARM GAS  C:\Users\alexport\AppData\Local\Temp\ccBjgELh.s 			page 2


  46              		.cfi_def_cfa_offset 16
  47              		.cfi_offset 4, -16
  48              		.cfi_offset 5, -12
  49              		.cfi_offset 7, -8
  50              		.cfi_offset 14, -4
  51 0002 84B0     		sub	sp, sp, #16
  52              		.cfi_def_cfa_offset 32
  53 0004 00AF     		add	r7, sp, #0
  54              		.cfi_def_cfa_register 7
  55 0006 0500     		movs	r5, r0
  56 0008 0C00     		movs	r4, r1
  57 000a 1000     		movs	r0, r2
  58 000c 1900     		movs	r1, r3
  59 000e FB1D     		adds	r3, r7, #7
  60 0010 2A1C     		adds	r2, r5, #0
  61 0012 1A70     		strb	r2, [r3]
  62 0014 BB1D     		adds	r3, r7, #6
  63 0016 221C     		adds	r2, r4, #0
  64 0018 1A70     		strb	r2, [r3]
  65 001a 3B1D     		adds	r3, r7, #4
  66 001c 021C     		adds	r2, r0, #0
  67 001e 1A80     		strh	r2, [r3]
  68 0020 BB1C     		adds	r3, r7, #2
  69 0022 0A1C     		adds	r2, r1, #0
  70 0024 1A80     		strh	r2, [r3]
  13:modbus.c      ****     uint16 crc;
  14:modbus.c      ****     uint8 i;
  15:modbus.c      ****     // Build msg 
  16:modbus.c      ****     modbus_txBuffer[0] = (uint8) SlaveAddress;
  71              		.loc 1 16 0
  72 0026 2D4B     		ldr	r3, .L7
  73 0028 FA1D     		adds	r2, r7, #7
  74 002a 1278     		ldrb	r2, [r2]
  75 002c 1A70     		strb	r2, [r3]
  17:modbus.c      ****     modbus_txBuffer[1] = (uint8) Mode;
  76              		.loc 1 17 0
  77 002e 2B4B     		ldr	r3, .L7
  78 0030 BA1D     		adds	r2, r7, #6
  79 0032 1278     		ldrb	r2, [r2]
  80 0034 5A70     		strb	r2, [r3, #1]
  18:modbus.c      ****     modbus_txBuffer[2] = (uint8) 2;//(RegCount >> 8);
  81              		.loc 1 18 0
  82 0036 294B     		ldr	r3, .L7
  83 0038 0222     		movs	r2, #2
  84 003a 9A70     		strb	r2, [r3, #2]
  19:modbus.c      ****     modbus_txBuffer[3] = (uint8) 11;//RegCount;
  85              		.loc 1 19 0
  86 003c 274B     		ldr	r3, .L7
  87 003e 0B22     		movs	r2, #11
  88 0040 DA70     		strb	r2, [r3, #3]
  20:modbus.c      ****     modbus_txBuffer[4] = (uint8) 12; 
  89              		.loc 1 20 0
  90 0042 264B     		ldr	r3, .L7
  91 0044 0C22     		movs	r2, #12
  92 0046 1A71     		strb	r2, [r3, #4]
  21:modbus.c      ****     crc = (uint16) modbus_GenerateCRC(modbus_txBuffer,7);
  93              		.loc 1 21 0
ARM GAS  C:\Users\alexport\AppData\Local\Temp\ccBjgELh.s 			page 3


  94 0048 0C23     		movs	r3, #12
  95 004a FC18     		adds	r4, r7, r3
  96 004c 234B     		ldr	r3, .L7
  97 004e 0721     		movs	r1, #7
  98 0050 1800     		movs	r0, r3
  99 0052 FFF7FEFF 		bl	modbus_GenerateCRC
 100 0056 0300     		movs	r3, r0
 101 0058 2380     		strh	r3, [r4]
  22:modbus.c      ****     modbus_txBuffer[5] = (uint8) (crc >> 8);
 102              		.loc 1 22 0
 103 005a 0C23     		movs	r3, #12
 104 005c FB18     		adds	r3, r7, r3
 105 005e 1B88     		ldrh	r3, [r3]
 106 0060 1B0A     		lsrs	r3, r3, #8
 107 0062 9BB2     		uxth	r3, r3
 108 0064 DAB2     		uxtb	r2, r3
 109 0066 1D4B     		ldr	r3, .L7
 110 0068 5A71     		strb	r2, [r3, #5]
  23:modbus.c      ****     modbus_txBuffer[6] = (uint8) (crc & 0xFF);
 111              		.loc 1 23 0
 112 006a 0C23     		movs	r3, #12
 113 006c FB18     		adds	r3, r7, r3
 114 006e 1B88     		ldrh	r3, [r3]
 115 0070 DAB2     		uxtb	r2, r3
 116 0072 1A4B     		ldr	r3, .L7
 117 0074 9A71     		strb	r2, [r3, #6]
  24:modbus.c      ****     TXEN_Write(1);
 118              		.loc 1 24 0
 119 0076 0120     		movs	r0, #1
 120 0078 FFF7FEFF 		bl	TXEN_Write
  25:modbus.c      ****     for (i=0; i<7; i++) {
 121              		.loc 1 25 0
 122 007c 0F23     		movs	r3, #15
 123 007e FB18     		adds	r3, r7, r3
 124 0080 0022     		movs	r2, #0
 125 0082 1A70     		strb	r2, [r3]
 126 0084 0EE0     		b	.L2
 127              	.L3:
  26:modbus.c      ****         ModbusUART_UartPutChar(modbus_txBuffer[i]); 
 128              		.loc 1 26 0 discriminator 3
 129 0086 0F23     		movs	r3, #15
 130 0088 FB18     		adds	r3, r7, r3
 131 008a 1B78     		ldrb	r3, [r3]
 132 008c 134A     		ldr	r2, .L7
 133 008e D35C     		ldrb	r3, [r2, r3]
 134 0090 1800     		movs	r0, r3
 135 0092 FFF7FEFF 		bl	ModbusUART_SpiUartWriteTxData
  25:modbus.c      ****     for (i=0; i<7; i++) {
 136              		.loc 1 25 0 discriminator 3
 137 0096 0F23     		movs	r3, #15
 138 0098 FB18     		adds	r3, r7, r3
 139 009a 1A78     		ldrb	r2, [r3]
 140 009c 0F23     		movs	r3, #15
 141 009e FB18     		adds	r3, r7, r3
 142 00a0 0132     		adds	r2, r2, #1
 143 00a2 1A70     		strb	r2, [r3]
 144              	.L2:
ARM GAS  C:\Users\alexport\AppData\Local\Temp\ccBjgELh.s 			page 4


  25:modbus.c      ****     for (i=0; i<7; i++) {
 145              		.loc 1 25 0 is_stmt 0 discriminator 1
 146 00a4 0F23     		movs	r3, #15
 147 00a6 FB18     		adds	r3, r7, r3
 148 00a8 1B78     		ldrb	r3, [r3]
 149 00aa 062B     		cmp	r3, #6
 150 00ac EBD9     		bls	.L3
  27:modbus.c      ****     }
  28:modbus.c      ****     /*Wait until trasmission complete*/
  29:modbus.c      ****     while (0u != (ModbusUART_SpiUartGetTxBufferSize() + ModbusUART_GET_TX_FIFO_SR_VALID));
 151              		.loc 1 29 0 is_stmt 1
 152 00ae C046     		nop
 153              	.L6:
 154              		.loc 1 29 0 is_stmt 0 discriminator 5
 155 00b0 FFF7FEFF 		bl	ModbusUART_SpiUartGetTxBufferSize
 156 00b4 0100     		movs	r1, r0
 157 00b6 0A4B     		ldr	r3, .L7+4
 158 00b8 1A68     		ldr	r2, [r3]
 159 00ba 8023     		movs	r3, #128
 160 00bc 1B02     		lsls	r3, r3, #8
 161 00be 1340     		ands	r3, r2
 162 00c0 01D0     		beq	.L4
 163              		.loc 1 29 0 discriminator 1
 164 00c2 0123     		movs	r3, #1
 165 00c4 00E0     		b	.L5
 166              	.L4:
 167              		.loc 1 29 0 discriminator 2
 168 00c6 0023     		movs	r3, #0
 169              	.L5:
 170              		.loc 1 29 0 discriminator 4
 171 00c8 CB18     		adds	r3, r1, r3
 172 00ca 002B     		cmp	r3, #0
 173 00cc F0D1     		bne	.L6
  30:modbus.c      ****     TXEN_Write(0);
 174              		.loc 1 30 0 is_stmt 1
 175 00ce 0020     		movs	r0, #0
 176 00d0 FFF7FEFF 		bl	TXEN_Write
  31:modbus.c      **** }
 177              		.loc 1 31 0
 178 00d4 C046     		nop
 179 00d6 BD46     		mov	sp, r7
 180 00d8 04B0     		add	sp, sp, #16
 181              		@ sp needed
 182 00da B0BD     		pop	{r4, r5, r7, pc}
 183              	.L8:
 184              		.align	2
 185              	.L7:
 186 00dc 00000000 		.word	modbus_txBuffer
 187 00e0 08022540 		.word	1076167176
 188              		.cfi_endproc
 189              	.LFE35:
 190              		.size	modbusSend, .-modbusSend
 191              		.section	.text.modbusSendBulk,"ax",%progbits
 192              		.align	2
 193              		.global	modbusSendBulk
 194              		.code	16
 195              		.thumb_func
ARM GAS  C:\Users\alexport\AppData\Local\Temp\ccBjgELh.s 			page 5


 196              		.type	modbusSendBulk, %function
 197              	modbusSendBulk:
 198              	.LFB36:
  32:modbus.c      **** 
  33:modbus.c      **** void modbusSendBulk(uint8 SlaveAddress, uint8 Mode, uint16 RegCount )
  34:modbus.c      **** {
 199              		.loc 1 34 0
 200              		.cfi_startproc
 201              		@ args = 0, pretend = 0, frame = 16
 202              		@ frame_needed = 1, uses_anonymous_args = 0
 203 0000 90B5     		push	{r4, r7, lr}
 204              		.cfi_def_cfa_offset 12
 205              		.cfi_offset 4, -12
 206              		.cfi_offset 7, -8
 207              		.cfi_offset 14, -4
 208 0002 85B0     		sub	sp, sp, #20
 209              		.cfi_def_cfa_offset 32
 210 0004 00AF     		add	r7, sp, #0
 211              		.cfi_def_cfa_register 7
 212 0006 0400     		movs	r4, r0
 213 0008 0800     		movs	r0, r1
 214 000a 1100     		movs	r1, r2
 215 000c FB1D     		adds	r3, r7, #7
 216 000e 221C     		adds	r2, r4, #0
 217 0010 1A70     		strb	r2, [r3]
 218 0012 BB1D     		adds	r3, r7, #6
 219 0014 021C     		adds	r2, r0, #0
 220 0016 1A70     		strb	r2, [r3]
 221 0018 3B1D     		adds	r3, r7, #4
 222 001a 0A1C     		adds	r2, r1, #0
 223 001c 1A80     		strh	r2, [r3]
  35:modbus.c      ****     uint16 crc;
  36:modbus.c      ****     uint8 i;
  37:modbus.c      ****     uint16_t bytes =RegCount*2 ;
 224              		.loc 1 37 0
 225 001e 0E23     		movs	r3, #14
 226 0020 FA18     		adds	r2, r7, r3
 227 0022 3B1D     		adds	r3, r7, #4
 228 0024 1B88     		ldrh	r3, [r3]
 229 0026 DB18     		adds	r3, r3, r3
 230 0028 1380     		strh	r3, [r2]
  38:modbus.c      ****    
  39:modbus.c      ****     modbus_txBuffer[0] = (uint8) SlaveAddress;
 231              		.loc 1 39 0
 232 002a 1F4B     		ldr	r3, .L10
 233 002c FA1D     		adds	r2, r7, #7
 234 002e 1278     		ldrb	r2, [r2]
 235 0030 1A70     		strb	r2, [r3]
  40:modbus.c      ****     modbus_txBuffer[1] = (uint8) Mode;
 236              		.loc 1 40 0
 237 0032 1D4B     		ldr	r3, .L10
 238 0034 BA1D     		adds	r2, r7, #6
 239 0036 1278     		ldrb	r2, [r2]
 240 0038 5A70     		strb	r2, [r3, #1]
  41:modbus.c      ****     modbus_txBuffer[2] = (uint8) bytes;
 241              		.loc 1 41 0
 242 003a 0E23     		movs	r3, #14
ARM GAS  C:\Users\alexport\AppData\Local\Temp\ccBjgELh.s 			page 6


 243 003c FB18     		adds	r3, r7, r3
 244 003e 1B88     		ldrh	r3, [r3]
 245 0040 DAB2     		uxtb	r2, r3
 246 0042 194B     		ldr	r3, .L10
 247 0044 9A70     		strb	r2, [r3, #2]
  42:modbus.c      ****     crc = (uint16) modbus_GenerateCRC(modbus_txBuffer,bytes+5);
 248              		.loc 1 42 0
 249 0046 0E23     		movs	r3, #14
 250 0048 FB18     		adds	r3, r7, r3
 251 004a 1B88     		ldrh	r3, [r3]
 252 004c 0533     		adds	r3, r3, #5
 253 004e 9AB2     		uxth	r2, r3
 254 0050 0C23     		movs	r3, #12
 255 0052 FC18     		adds	r4, r7, r3
 256 0054 144B     		ldr	r3, .L10
 257 0056 1100     		movs	r1, r2
 258 0058 1800     		movs	r0, r3
 259 005a FFF7FEFF 		bl	modbus_GenerateCRC
 260 005e 0300     		movs	r3, r0
 261 0060 2380     		strh	r3, [r4]
  43:modbus.c      ****     modbus_txBuffer[bytes+3] = (uint8) (crc >> 8);
 262              		.loc 1 43 0
 263 0062 0E23     		movs	r3, #14
 264 0064 FB18     		adds	r3, r7, r3
 265 0066 1B88     		ldrh	r3, [r3]
 266 0068 0333     		adds	r3, r3, #3
 267 006a 0C22     		movs	r2, #12
 268 006c BA18     		adds	r2, r7, r2
 269 006e 1288     		ldrh	r2, [r2]
 270 0070 120A     		lsrs	r2, r2, #8
 271 0072 92B2     		uxth	r2, r2
 272 0074 D1B2     		uxtb	r1, r2
 273 0076 0C4A     		ldr	r2, .L10
 274 0078 D154     		strb	r1, [r2, r3]
  44:modbus.c      ****     modbus_txBuffer[bytes+4] = (uint8) (crc & 0xFF);
 275              		.loc 1 44 0
 276 007a 0E23     		movs	r3, #14
 277 007c FB18     		adds	r3, r7, r3
 278 007e 1B88     		ldrh	r3, [r3]
 279 0080 0433     		adds	r3, r3, #4
 280 0082 0C22     		movs	r2, #12
 281 0084 BA18     		adds	r2, r7, r2
 282 0086 1288     		ldrh	r2, [r2]
 283 0088 D1B2     		uxtb	r1, r2
 284 008a 074A     		ldr	r2, .L10
 285 008c D154     		strb	r1, [r2, r3]
  45:modbus.c      ****     modbusFlush(bytes+5); // bytes + preamble+ crc
 286              		.loc 1 45 0
 287 008e 0E23     		movs	r3, #14
 288 0090 FB18     		adds	r3, r7, r3
 289 0092 1B88     		ldrh	r3, [r3]
 290 0094 0533     		adds	r3, r3, #5
 291 0096 9BB2     		uxth	r3, r3
 292 0098 1800     		movs	r0, r3
 293 009a FFF7FEFF 		bl	modbusFlush
  46:modbus.c      **** }
 294              		.loc 1 46 0
ARM GAS  C:\Users\alexport\AppData\Local\Temp\ccBjgELh.s 			page 7


 295 009e C046     		nop
 296 00a0 BD46     		mov	sp, r7
 297 00a2 05B0     		add	sp, sp, #20
 298              		@ sp needed
 299 00a4 90BD     		pop	{r4, r7, pc}
 300              	.L11:
 301 00a6 C046     		.align	2
 302              	.L10:
 303 00a8 00000000 		.word	modbus_txBuffer
 304              		.cfi_endproc
 305              	.LFE36:
 306              		.size	modbusSendBulk, .-modbusSendBulk
 307              		.section	.text.modbusWriteResponse,"ax",%progbits
 308              		.align	2
 309              		.global	modbusWriteResponse
 310              		.code	16
 311              		.thumb_func
 312              		.type	modbusWriteResponse, %function
 313              	modbusWriteResponse:
 314              	.LFB37:
  47:modbus.c      **** 
  48:modbus.c      **** //void rs232SendBulk(uint8 SlaveAddress, uint8 Mode, uint16 RegCount )
  49:modbus.c      **** //{
  50:modbus.c      **** //    uint16 crc;
  51:modbus.c      **** //    uint8 i;
  52:modbus.c      **** //    uint16_t bytes =RegCount*2 ;
  53:modbus.c      **** //   
  54:modbus.c      **** //    modbus_txBuffer[0] = (uint8) SlaveAddress;
  55:modbus.c      **** //    modbus_txBuffer[1] = (uint8) Mode;
  56:modbus.c      **** //    modbus_txBuffer[2] = (uint8) bytes;
  57:modbus.c      **** //    crc = (uint16) modbus_GenerateCRC(modbus_txBuffer,bytes+5);
  58:modbus.c      **** //    modbus_txBuffer[bytes+3] = (uint8) (crc >> 8);
  59:modbus.c      **** //    modbus_txBuffer[bytes+4] = (uint8) (crc & 0xFF);
  60:modbus.c      **** //    rs232Flush(bytes+5); // bytes + preamble+ crc
  61:modbus.c      **** //}
  62:modbus.c      **** 
  63:modbus.c      **** 
  64:modbus.c      **** //void rs232WriteResponse(uint8 SlaveAddress, uint8 Mode,  uint16 StartRegAddress, uint16 data )
  65:modbus.c      **** //{
  66:modbus.c      **** //    uint16 crc;
  67:modbus.c      **** //    uint8 i;
  68:modbus.c      **** //     
  69:modbus.c      **** //    // Build msg 
  70:modbus.c      **** //    modbus_txBuffer[0] = (uint8) SlaveAddress;
  71:modbus.c      **** //    modbus_txBuffer[1] = (uint8) Mode;
  72:modbus.c      **** //    modbus_txBuffer[2] = (uint8) (StartRegAddress>>8)&0xFF;
  73:modbus.c      **** //    modbus_txBuffer[3] = (uint8) StartRegAddress & 0xFF;
  74:modbus.c      **** //    modbus_txBuffer[4] = (uint8) (data << 8) & 0xFF ; 
  75:modbus.c      **** //    modbus_txBuffer[5] = (uint8) data & 0xFF;
  76:modbus.c      **** //    crc = (uint16) modbus_GenerateCRC(modbus_txBuffer,8);
  77:modbus.c      **** //    modbus_txBuffer[6] = (uint8) (crc >> 8);
  78:modbus.c      **** //    modbus_txBuffer[7] = (uint8) (crc & 0xFF);
  79:modbus.c      **** //    
  80:modbus.c      **** //    for (i=0; i<8; i++) {
  81:modbus.c      **** //        RS232UART_PutChar(modbus_txBuffer[i]); 
  82:modbus.c      **** //    }
  83:modbus.c      **** //    
ARM GAS  C:\Users\alexport\AppData\Local\Temp\ccBjgELh.s 			page 8


  84:modbus.c      **** //    
  85:modbus.c      **** //}
  86:modbus.c      **** 
  87:modbus.c      **** 
  88:modbus.c      **** void modbusWriteResponse(uint8 SlaveAddress, uint8 Mode,  uint16 StartRegAddress, uint16 data )
  89:modbus.c      **** {
 315              		.loc 1 89 0
 316              		.cfi_startproc
 317              		@ args = 0, pretend = 0, frame = 16
 318              		@ frame_needed = 1, uses_anonymous_args = 0
 319 0000 B0B5     		push	{r4, r5, r7, lr}
 320              		.cfi_def_cfa_offset 16
 321              		.cfi_offset 4, -16
 322              		.cfi_offset 5, -12
 323              		.cfi_offset 7, -8
 324              		.cfi_offset 14, -4
 325 0002 84B0     		sub	sp, sp, #16
 326              		.cfi_def_cfa_offset 32
 327 0004 00AF     		add	r7, sp, #0
 328              		.cfi_def_cfa_register 7
 329 0006 0500     		movs	r5, r0
 330 0008 0C00     		movs	r4, r1
 331 000a 1000     		movs	r0, r2
 332 000c 1900     		movs	r1, r3
 333 000e FB1D     		adds	r3, r7, #7
 334 0010 2A1C     		adds	r2, r5, #0
 335 0012 1A70     		strb	r2, [r3]
 336 0014 BB1D     		adds	r3, r7, #6
 337 0016 221C     		adds	r2, r4, #0
 338 0018 1A70     		strb	r2, [r3]
 339 001a 3B1D     		adds	r3, r7, #4
 340 001c 021C     		adds	r2, r0, #0
 341 001e 1A80     		strh	r2, [r3]
 342 0020 BB1C     		adds	r3, r7, #2
 343 0022 0A1C     		adds	r2, r1, #0
 344 0024 1A80     		strh	r2, [r3]
  90:modbus.c      ****     uint16 crc;
  91:modbus.c      ****     uint8 i;
  92:modbus.c      ****      
  93:modbus.c      ****     // Build msg 
  94:modbus.c      ****     modbus_txBuffer[0] = (uint8) SlaveAddress;
 345              		.loc 1 94 0
 346 0026 334B     		ldr	r3, .L18
 347 0028 FA1D     		adds	r2, r7, #7
 348 002a 1278     		ldrb	r2, [r2]
 349 002c 1A70     		strb	r2, [r3]
  95:modbus.c      ****     modbus_txBuffer[1] = (uint8) Mode;
 350              		.loc 1 95 0
 351 002e 314B     		ldr	r3, .L18
 352 0030 BA1D     		adds	r2, r7, #6
 353 0032 1278     		ldrb	r2, [r2]
 354 0034 5A70     		strb	r2, [r3, #1]
  96:modbus.c      ****     
  97:modbus.c      ****     modbus_txBuffer[2] = (uint8) (StartRegAddress>>8)&0xFF;
 355              		.loc 1 97 0
 356 0036 3B1D     		adds	r3, r7, #4
 357 0038 1B88     		ldrh	r3, [r3]
ARM GAS  C:\Users\alexport\AppData\Local\Temp\ccBjgELh.s 			page 9


 358 003a 1B0A     		lsrs	r3, r3, #8
 359 003c 9BB2     		uxth	r3, r3
 360 003e DAB2     		uxtb	r2, r3
 361 0040 2C4B     		ldr	r3, .L18
 362 0042 9A70     		strb	r2, [r3, #2]
  98:modbus.c      ****     modbus_txBuffer[3] = (uint8) StartRegAddress & 0xFF;
 363              		.loc 1 98 0
 364 0044 3B1D     		adds	r3, r7, #4
 365 0046 1B88     		ldrh	r3, [r3]
 366 0048 DAB2     		uxtb	r2, r3
 367 004a 2A4B     		ldr	r3, .L18
 368 004c DA70     		strb	r2, [r3, #3]
  99:modbus.c      ****     
 100:modbus.c      ****     modbus_txBuffer[4] = (uint8) (data << 8) & 0xFF ; 
 369              		.loc 1 100 0
 370 004e 294B     		ldr	r3, .L18
 371 0050 0022     		movs	r2, #0
 372 0052 1A71     		strb	r2, [r3, #4]
 101:modbus.c      ****     modbus_txBuffer[5] = (uint8) data & 0xFF;
 373              		.loc 1 101 0
 374 0054 BB1C     		adds	r3, r7, #2
 375 0056 1B88     		ldrh	r3, [r3]
 376 0058 DAB2     		uxtb	r2, r3
 377 005a 264B     		ldr	r3, .L18
 378 005c 5A71     		strb	r2, [r3, #5]
 102:modbus.c      ****     
 103:modbus.c      ****     crc = (uint16) modbus_GenerateCRC(modbus_txBuffer,8);
 379              		.loc 1 103 0
 380 005e 0C23     		movs	r3, #12
 381 0060 FC18     		adds	r4, r7, r3
 382 0062 244B     		ldr	r3, .L18
 383 0064 0821     		movs	r1, #8
 384 0066 1800     		movs	r0, r3
 385 0068 FFF7FEFF 		bl	modbus_GenerateCRC
 386 006c 0300     		movs	r3, r0
 387 006e 2380     		strh	r3, [r4]
 104:modbus.c      **** 
 105:modbus.c      ****     modbus_txBuffer[6] = (uint8) (crc >> 8);
 388              		.loc 1 105 0
 389 0070 0C23     		movs	r3, #12
 390 0072 FB18     		adds	r3, r7, r3
 391 0074 1B88     		ldrh	r3, [r3]
 392 0076 1B0A     		lsrs	r3, r3, #8
 393 0078 9BB2     		uxth	r3, r3
 394 007a DAB2     		uxtb	r2, r3
 395 007c 1D4B     		ldr	r3, .L18
 396 007e 9A71     		strb	r2, [r3, #6]
 106:modbus.c      ****     modbus_txBuffer[7] = (uint8) (crc & 0xFF);
 397              		.loc 1 106 0
 398 0080 0C23     		movs	r3, #12
 399 0082 FB18     		adds	r3, r7, r3
 400 0084 1B88     		ldrh	r3, [r3]
 401 0086 DAB2     		uxtb	r2, r3
 402 0088 1A4B     		ldr	r3, .L18
 403 008a DA71     		strb	r2, [r3, #7]
 107:modbus.c      ****     
 108:modbus.c      ****     
ARM GAS  C:\Users\alexport\AppData\Local\Temp\ccBjgELh.s 			page 10


 109:modbus.c      ****     TXEN_Write(1);
 404              		.loc 1 109 0
 405 008c 0120     		movs	r0, #1
 406 008e FFF7FEFF 		bl	TXEN_Write
 110:modbus.c      ****     for (i=0; i<8; i++) {
 407              		.loc 1 110 0
 408 0092 0F23     		movs	r3, #15
 409 0094 FB18     		adds	r3, r7, r3
 410 0096 0022     		movs	r2, #0
 411 0098 1A70     		strb	r2, [r3]
 412 009a 0EE0     		b	.L13
 413              	.L14:
 111:modbus.c      ****         ModbusUART_UartPutChar(modbus_txBuffer[i]); 
 414              		.loc 1 111 0 discriminator 3
 415 009c 0F23     		movs	r3, #15
 416 009e FB18     		adds	r3, r7, r3
 417 00a0 1B78     		ldrb	r3, [r3]
 418 00a2 144A     		ldr	r2, .L18
 419 00a4 D35C     		ldrb	r3, [r2, r3]
 420 00a6 1800     		movs	r0, r3
 421 00a8 FFF7FEFF 		bl	ModbusUART_SpiUartWriteTxData
 110:modbus.c      ****     for (i=0; i<8; i++) {
 422              		.loc 1 110 0 discriminator 3
 423 00ac 0F23     		movs	r3, #15
 424 00ae FB18     		adds	r3, r7, r3
 425 00b0 1A78     		ldrb	r2, [r3]
 426 00b2 0F23     		movs	r3, #15
 427 00b4 FB18     		adds	r3, r7, r3
 428 00b6 0132     		adds	r2, r2, #1
 429 00b8 1A70     		strb	r2, [r3]
 430              	.L13:
 110:modbus.c      ****     for (i=0; i<8; i++) {
 431              		.loc 1 110 0 is_stmt 0 discriminator 1
 432 00ba 0F23     		movs	r3, #15
 433 00bc FB18     		adds	r3, r7, r3
 434 00be 1B78     		ldrb	r3, [r3]
 435 00c0 072B     		cmp	r3, #7
 436 00c2 EBD9     		bls	.L14
 112:modbus.c      ****     }
 113:modbus.c      ****     /*Wait until trasmission complete*/
 114:modbus.c      ****     while (0u != (ModbusUART_SpiUartGetTxBufferSize() + ModbusUART_GET_TX_FIFO_SR_VALID));
 437              		.loc 1 114 0 is_stmt 1
 438 00c4 C046     		nop
 439              	.L17:
 440              		.loc 1 114 0 is_stmt 0 discriminator 5
 441 00c6 FFF7FEFF 		bl	ModbusUART_SpiUartGetTxBufferSize
 442 00ca 0100     		movs	r1, r0
 443 00cc 0A4B     		ldr	r3, .L18+4
 444 00ce 1A68     		ldr	r2, [r3]
 445 00d0 8023     		movs	r3, #128
 446 00d2 1B02     		lsls	r3, r3, #8
 447 00d4 1340     		ands	r3, r2
 448 00d6 01D0     		beq	.L15
 449              		.loc 1 114 0 discriminator 1
 450 00d8 0123     		movs	r3, #1
 451 00da 00E0     		b	.L16
 452              	.L15:
ARM GAS  C:\Users\alexport\AppData\Local\Temp\ccBjgELh.s 			page 11


 453              		.loc 1 114 0 discriminator 2
 454 00dc 0023     		movs	r3, #0
 455              	.L16:
 456              		.loc 1 114 0 discriminator 4
 457 00de CB18     		adds	r3, r1, r3
 458 00e0 002B     		cmp	r3, #0
 459 00e2 F0D1     		bne	.L17
 115:modbus.c      ****     TXEN_Write(0);
 460              		.loc 1 115 0 is_stmt 1
 461 00e4 0020     		movs	r0, #0
 462 00e6 FFF7FEFF 		bl	TXEN_Write
 116:modbus.c      **** }
 463              		.loc 1 116 0
 464 00ea C046     		nop
 465 00ec BD46     		mov	sp, r7
 466 00ee 04B0     		add	sp, sp, #16
 467              		@ sp needed
 468 00f0 B0BD     		pop	{r4, r5, r7, pc}
 469              	.L19:
 470 00f2 C046     		.align	2
 471              	.L18:
 472 00f4 00000000 		.word	modbus_txBuffer
 473 00f8 08022540 		.word	1076167176
 474              		.cfi_endproc
 475              	.LFE37:
 476              		.size	modbusWriteResponse, .-modbusWriteResponse
 477              		.section	.text.modbusFlush,"ax",%progbits
 478              		.align	2
 479              		.global	modbusFlush
 480              		.code	16
 481              		.thumb_func
 482              		.type	modbusFlush, %function
 483              	modbusFlush:
 484              	.LFB38:
 117:modbus.c      **** 
 118:modbus.c      **** 
 119:modbus.c      **** //void rs232Flush(uint16_t bytes){
 120:modbus.c      **** //    for (uint16_t i=0; i<bytes; i++) {
 121:modbus.c      **** //        RS232UART_PutChar(modbus_txBuffer[i]); 
 122:modbus.c      **** //    }
 123:modbus.c      **** //}
 124:modbus.c      **** 
 125:modbus.c      **** 
 126:modbus.c      **** void modbusFlush(uint16_t bytes){
 485              		.loc 1 126 0
 486              		.cfi_startproc
 487              		@ args = 0, pretend = 0, frame = 16
 488              		@ frame_needed = 1, uses_anonymous_args = 0
 489 0000 80B5     		push	{r7, lr}
 490              		.cfi_def_cfa_offset 8
 491              		.cfi_offset 7, -8
 492              		.cfi_offset 14, -4
 493 0002 84B0     		sub	sp, sp, #16
 494              		.cfi_def_cfa_offset 24
 495 0004 00AF     		add	r7, sp, #0
 496              		.cfi_def_cfa_register 7
 497 0006 0200     		movs	r2, r0
ARM GAS  C:\Users\alexport\AppData\Local\Temp\ccBjgELh.s 			page 12


 498 0008 BB1D     		adds	r3, r7, #6
 499 000a 1A80     		strh	r2, [r3]
 127:modbus.c      ****     TXEN_Write(1);
 500              		.loc 1 127 0
 501 000c 0120     		movs	r0, #1
 502 000e FFF7FEFF 		bl	TXEN_Write
 128:modbus.c      ****     CyDelay(10);
 503              		.loc 1 128 0
 504 0012 0A20     		movs	r0, #10
 505 0014 FFF7FEFF 		bl	CyDelay
 506              	.LBB2:
 129:modbus.c      ****     for (uint16_t i=0; i<bytes; i++) {
 507              		.loc 1 129 0
 508 0018 0E23     		movs	r3, #14
 509 001a FB18     		adds	r3, r7, r3
 510 001c 0022     		movs	r2, #0
 511 001e 1A80     		strh	r2, [r3]
 512 0020 0EE0     		b	.L21
 513              	.L22:
 130:modbus.c      ****         ModbusUART_UartPutChar(modbus_txBuffer[i]); 
 514              		.loc 1 130 0 discriminator 3
 515 0022 0E23     		movs	r3, #14
 516 0024 FB18     		adds	r3, r7, r3
 517 0026 1B88     		ldrh	r3, [r3]
 518 0028 144A     		ldr	r2, .L26
 519 002a D35C     		ldrb	r3, [r2, r3]
 520 002c 1800     		movs	r0, r3
 521 002e FFF7FEFF 		bl	ModbusUART_SpiUartWriteTxData
 129:modbus.c      ****     for (uint16_t i=0; i<bytes; i++) {
 522              		.loc 1 129 0 discriminator 3
 523 0032 0E23     		movs	r3, #14
 524 0034 FB18     		adds	r3, r7, r3
 525 0036 1A88     		ldrh	r2, [r3]
 526 0038 0E23     		movs	r3, #14
 527 003a FB18     		adds	r3, r7, r3
 528 003c 0132     		adds	r2, r2, #1
 529 003e 1A80     		strh	r2, [r3]
 530              	.L21:
 129:modbus.c      ****     for (uint16_t i=0; i<bytes; i++) {
 531              		.loc 1 129 0 is_stmt 0 discriminator 1
 532 0040 0E23     		movs	r3, #14
 533 0042 FA18     		adds	r2, r7, r3
 534 0044 BB1D     		adds	r3, r7, #6
 535 0046 1288     		ldrh	r2, [r2]
 536 0048 1B88     		ldrh	r3, [r3]
 537 004a 9A42     		cmp	r2, r3
 538 004c E9D3     		bcc	.L22
 539              	.LBE2:
 131:modbus.c      ****         //CyDelay(2);
 132:modbus.c      ****     }
 133:modbus.c      ****     /*Wait until trasmission complete*/
 134:modbus.c      ****     while (0u != (ModbusUART_SpiUartGetTxBufferSize() + ModbusUART_GET_TX_FIFO_SR_VALID));
 540              		.loc 1 134 0 is_stmt 1
 541 004e C046     		nop
 542              	.L25:
 543              		.loc 1 134 0 is_stmt 0 discriminator 5
 544 0050 FFF7FEFF 		bl	ModbusUART_SpiUartGetTxBufferSize
ARM GAS  C:\Users\alexport\AppData\Local\Temp\ccBjgELh.s 			page 13


 545 0054 0100     		movs	r1, r0
 546 0056 0A4B     		ldr	r3, .L26+4
 547 0058 1A68     		ldr	r2, [r3]
 548 005a 8023     		movs	r3, #128
 549 005c 1B02     		lsls	r3, r3, #8
 550 005e 1340     		ands	r3, r2
 551 0060 01D0     		beq	.L23
 552              		.loc 1 134 0 discriminator 1
 553 0062 0123     		movs	r3, #1
 554 0064 00E0     		b	.L24
 555              	.L23:
 556              		.loc 1 134 0 discriminator 2
 557 0066 0023     		movs	r3, #0
 558              	.L24:
 559              		.loc 1 134 0 discriminator 4
 560 0068 CB18     		adds	r3, r1, r3
 561 006a 002B     		cmp	r3, #0
 562 006c F0D1     		bne	.L25
 135:modbus.c      ****     //CyDelay(2);
 136:modbus.c      ****     TXEN_Write(0);    
 563              		.loc 1 136 0 is_stmt 1
 564 006e 0020     		movs	r0, #0
 565 0070 FFF7FEFF 		bl	TXEN_Write
 137:modbus.c      **** }
 566              		.loc 1 137 0
 567 0074 C046     		nop
 568 0076 BD46     		mov	sp, r7
 569 0078 04B0     		add	sp, sp, #16
 570              		@ sp needed
 571 007a 80BD     		pop	{r7, pc}
 572              	.L27:
 573              		.align	2
 574              	.L26:
 575 007c 00000000 		.word	modbus_txBuffer
 576 0080 08022540 		.word	1076167176
 577              		.cfi_endproc
 578              	.LFE38:
 579              		.size	modbusFlush, .-modbusFlush
 580              		.section	.text.modbus_GenerateCRC,"ax",%progbits
 581              		.align	2
 582              		.global	modbus_GenerateCRC
 583              		.code	16
 584              		.thumb_func
 585              		.type	modbus_GenerateCRC, %function
 586              	modbus_GenerateCRC:
 587              	.LFB39:
 138:modbus.c      **** 
 139:modbus.c      **** uint16 modbus_GenerateCRC(uint8 *msg, uint16 msglen)
 140:modbus.c      **** {
 588              		.loc 1 140 0
 589              		.cfi_startproc
 590              		@ args = 0, pretend = 0, frame = 24
 591              		@ frame_needed = 1, uses_anonymous_args = 0
 592 0000 80B5     		push	{r7, lr}
 593              		.cfi_def_cfa_offset 8
 594              		.cfi_offset 7, -8
 595              		.cfi_offset 14, -4
ARM GAS  C:\Users\alexport\AppData\Local\Temp\ccBjgELh.s 			page 14


 596 0002 86B0     		sub	sp, sp, #24
 597              		.cfi_def_cfa_offset 32
 598 0004 00AF     		add	r7, sp, #0
 599              		.cfi_def_cfa_register 7
 600 0006 7860     		str	r0, [r7, #4]
 601 0008 0A00     		movs	r2, r1
 602 000a BB1C     		adds	r3, r7, #2
 603 000c 1A80     		strh	r2, [r3]
 141:modbus.c      ****     uint16 crc = 0xFFFF;
 604              		.loc 1 141 0
 605 000e 1623     		movs	r3, #22
 606 0010 FB18     		adds	r3, r7, r3
 607 0012 0122     		movs	r2, #1
 608 0014 5242     		rsbs	r2, r2, #0
 609 0016 1A80     		strh	r2, [r3]
 142:modbus.c      ****     uint16 crcHigh = 0;
 610              		.loc 1 142 0
 611 0018 0A23     		movs	r3, #10
 612 001a FB18     		adds	r3, r7, r3
 613 001c 0022     		movs	r2, #0
 614 001e 1A80     		strh	r2, [r3]
 143:modbus.c      ****     uint16 crcLow = 0;
 615              		.loc 1 143 0
 616 0020 0823     		movs	r3, #8
 617 0022 FB18     		adds	r3, r7, r3
 618 0024 0022     		movs	r2, #0
 619 0026 1A80     		strh	r2, [r3]
 144:modbus.c      ****     int i,j = 0;
 620              		.loc 1 144 0
 621 0028 0023     		movs	r3, #0
 622 002a FB60     		str	r3, [r7, #12]
 145:modbus.c      **** 
 146:modbus.c      ****       for(i=0;i<msglen-2;i++){
 623              		.loc 1 146 0
 624 002c 0023     		movs	r3, #0
 625 002e 3B61     		str	r3, [r7, #16]
 626 0030 34E0     		b	.L29
 627              	.L34:
 147:modbus.c      ****         crc ^= msg[i];
 628              		.loc 1 147 0
 629 0032 3B69     		ldr	r3, [r7, #16]
 630 0034 7A68     		ldr	r2, [r7, #4]
 631 0036 D318     		adds	r3, r2, r3
 632 0038 1B78     		ldrb	r3, [r3]
 633 003a 99B2     		uxth	r1, r3
 634 003c 1623     		movs	r3, #22
 635 003e FB18     		adds	r3, r7, r3
 636 0040 1622     		movs	r2, #22
 637 0042 BA18     		adds	r2, r7, r2
 638 0044 1288     		ldrh	r2, [r2]
 639 0046 4A40     		eors	r2, r1
 640 0048 1A80     		strh	r2, [r3]
 148:modbus.c      ****         for(j=8; j!=0; j--){
 641              		.loc 1 148 0
 642 004a 0823     		movs	r3, #8
 643 004c FB60     		str	r3, [r7, #12]
 644 004e 1FE0     		b	.L30
ARM GAS  C:\Users\alexport\AppData\Local\Temp\ccBjgELh.s 			page 15


 645              	.L33:
 149:modbus.c      ****           if((crc & 0x0001) != 0){
 646              		.loc 1 149 0
 647 0050 1623     		movs	r3, #22
 648 0052 FB18     		adds	r3, r7, r3
 649 0054 1B88     		ldrh	r3, [r3]
 650 0056 0122     		movs	r2, #1
 651 0058 1340     		ands	r3, r2
 652 005a 0FD0     		beq	.L31
 150:modbus.c      ****             crc >>= 1;
 653              		.loc 1 150 0
 654 005c 1623     		movs	r3, #22
 655 005e FB18     		adds	r3, r7, r3
 656 0060 1622     		movs	r2, #22
 657 0062 BA18     		adds	r2, r7, r2
 658 0064 1288     		ldrh	r2, [r2]
 659 0066 5208     		lsrs	r2, r2, #1
 660 0068 1A80     		strh	r2, [r3]
 151:modbus.c      ****             crc ^= 0xA001;
 661              		.loc 1 151 0
 662 006a 1623     		movs	r3, #22
 663 006c FB18     		adds	r3, r7, r3
 664 006e 1622     		movs	r2, #22
 665 0070 BA18     		adds	r2, r7, r2
 666 0072 1288     		ldrh	r2, [r2]
 667 0074 1F49     		ldr	r1, .L36
 668 0076 4A40     		eors	r2, r1
 669 0078 1A80     		strh	r2, [r3]
 670 007a 06E0     		b	.L32
 671              	.L31:
 152:modbus.c      ****           }
 153:modbus.c      ****           else{
 154:modbus.c      ****             crc >>= 1;
 672              		.loc 1 154 0
 673 007c 1623     		movs	r3, #22
 674 007e FB18     		adds	r3, r7, r3
 675 0080 1622     		movs	r2, #22
 676 0082 BA18     		adds	r2, r7, r2
 677 0084 1288     		ldrh	r2, [r2]
 678 0086 5208     		lsrs	r2, r2, #1
 679 0088 1A80     		strh	r2, [r3]
 680              	.L32:
 148:modbus.c      ****           if((crc & 0x0001) != 0){
 681              		.loc 1 148 0 discriminator 2
 682 008a FB68     		ldr	r3, [r7, #12]
 683 008c 013B     		subs	r3, r3, #1
 684 008e FB60     		str	r3, [r7, #12]
 685              	.L30:
 148:modbus.c      ****           if((crc & 0x0001) != 0){
 686              		.loc 1 148 0 is_stmt 0 discriminator 1
 687 0090 FB68     		ldr	r3, [r7, #12]
 688 0092 002B     		cmp	r3, #0
 689 0094 DCD1     		bne	.L33
 146:modbus.c      ****         crc ^= msg[i];
 690              		.loc 1 146 0 is_stmt 1 discriminator 2
 691 0096 3B69     		ldr	r3, [r7, #16]
 692 0098 0133     		adds	r3, r3, #1
ARM GAS  C:\Users\alexport\AppData\Local\Temp\ccBjgELh.s 			page 16


 693 009a 3B61     		str	r3, [r7, #16]
 694              	.L29:
 146:modbus.c      ****         crc ^= msg[i];
 695              		.loc 1 146 0 is_stmt 0 discriminator 1
 696 009c BB1C     		adds	r3, r7, #2
 697 009e 1B88     		ldrh	r3, [r3]
 698 00a0 9A1E     		subs	r2, r3, #2
 699 00a2 3B69     		ldr	r3, [r7, #16]
 700 00a4 9A42     		cmp	r2, r3
 701 00a6 C4DC     		bgt	.L34
 155:modbus.c      ****           }
 156:modbus.c      ****         }
 157:modbus.c      ****       }
 158:modbus.c      ****     //bytes are wrong way round so doing a swap here..
 159:modbus.c      ****     crcHigh = (crc & 0x00FF) <<8;
 702              		.loc 1 159 0 is_stmt 1
 703 00a8 1623     		movs	r3, #22
 704 00aa FB18     		adds	r3, r7, r3
 705 00ac 1B88     		ldrh	r3, [r3]
 706 00ae 1A02     		lsls	r2, r3, #8
 707 00b0 0A23     		movs	r3, #10
 708 00b2 FB18     		adds	r3, r7, r3
 709 00b4 1A80     		strh	r2, [r3]
 160:modbus.c      ****     crcLow = (crc & 0xFF00) >>8;
 710              		.loc 1 160 0
 711 00b6 0823     		movs	r3, #8
 712 00b8 FB18     		adds	r3, r7, r3
 713 00ba 1622     		movs	r2, #22
 714 00bc BA18     		adds	r2, r7, r2
 715 00be 1288     		ldrh	r2, [r2]
 716 00c0 120A     		lsrs	r2, r2, #8
 717 00c2 1A80     		strh	r2, [r3]
 161:modbus.c      ****     crcHigh |= crcLow;
 718              		.loc 1 161 0
 719 00c4 0A23     		movs	r3, #10
 720 00c6 FB18     		adds	r3, r7, r3
 721 00c8 0A22     		movs	r2, #10
 722 00ca B918     		adds	r1, r7, r2
 723 00cc 0822     		movs	r2, #8
 724 00ce BA18     		adds	r2, r7, r2
 725 00d0 0988     		ldrh	r1, [r1]
 726 00d2 1288     		ldrh	r2, [r2]
 727 00d4 0A43     		orrs	r2, r1
 728 00d6 1A80     		strh	r2, [r3]
 162:modbus.c      ****     crc = crcHigh;
 729              		.loc 1 162 0
 730 00d8 1623     		movs	r3, #22
 731 00da FB18     		adds	r3, r7, r3
 732 00dc 0A22     		movs	r2, #10
 733 00de BA18     		adds	r2, r7, r2
 734 00e0 1288     		ldrh	r2, [r2]
 735 00e2 1A80     		strh	r2, [r3]
 163:modbus.c      ****     return crc;
 736              		.loc 1 163 0
 737 00e4 1623     		movs	r3, #22
 738 00e6 FB18     		adds	r3, r7, r3
 739 00e8 1B88     		ldrh	r3, [r3]
ARM GAS  C:\Users\alexport\AppData\Local\Temp\ccBjgELh.s 			page 17


 164:modbus.c      **** }
 740              		.loc 1 164 0
 741 00ea 1800     		movs	r0, r3
 742 00ec BD46     		mov	sp, r7
 743 00ee 06B0     		add	sp, sp, #24
 744              		@ sp needed
 745 00f0 80BD     		pop	{r7, pc}
 746              	.L37:
 747 00f2 C046     		.align	2
 748              	.L36:
 749 00f4 01A0FFFF 		.word	-24575
 750              		.cfi_endproc
 751              	.LFE39:
 752              		.size	modbus_GenerateCRC, .-modbus_GenerateCRC
 753              		.section	.text.modbus_Reset,"ax",%progbits
 754              		.align	2
 755              		.global	modbus_Reset
 756              		.code	16
 757              		.thumb_func
 758              		.type	modbus_Reset, %function
 759              	modbus_Reset:
 760              	.LFB40:
 165:modbus.c      **** 
 166:modbus.c      **** 
 167:modbus.c      **** void modbus_Reset(void){
 761              		.loc 1 167 0
 762              		.cfi_startproc
 763              		@ args = 0, pretend = 0, frame = 0
 764              		@ frame_needed = 1, uses_anonymous_args = 0
 765 0000 80B5     		push	{r7, lr}
 766              		.cfi_def_cfa_offset 8
 767              		.cfi_offset 7, -8
 768              		.cfi_offset 14, -4
 769 0002 00AF     		add	r7, sp, #0
 770              		.cfi_def_cfa_register 7
 168:modbus.c      ****     bytesIn =0;
 771              		.loc 1 168 0
 772 0004 024B     		ldr	r3, .L39
 773 0006 0022     		movs	r2, #0
 774 0008 1A70     		strb	r2, [r3]
 169:modbus.c      **** }...
 775              		.loc 1 169 0
 776 000a C046     		nop
 777 000c BD46     		mov	sp, r7
 778              		@ sp needed
 779 000e 80BD     		pop	{r7, pc}
 780              	.L40:
 781              		.align	2
 782              	.L39:
 783 0010 00000000 		.word	bytesIn
 784              		.cfi_endproc
 785              	.LFE40:
 786              		.size	modbus_Reset, .-modbus_Reset
 787              		.text
 788              	.Letext0:
 789              		.file 2 "c:\\program files (x86)\\cypress\\psoc creator\\4.4\\psoc creator\\import\\gnu\\arm\\5.4.
 790              		.file 3 "c:\\program files (x86)\\cypress\\psoc creator\\4.4\\psoc creator\\import\\gnu\\arm\\5.4.
ARM GAS  C:\Users\alexport\AppData\Local\Temp\ccBjgELh.s 			page 18


 791              		.file 4 "Generated_Source\\PSoC4/cytypes.h"
 792              		.file 5 "Generated_Source\\PSoC4/blue_Stack.h"
 793              		.file 6 "Generated_Source\\PSoC4/blue_dis.h"
 794              		.section	.debug_info,"",%progbits
 795              	.Ldebug_info0:
 796 0000 55050000 		.4byte	0x555
 797 0004 0400     		.2byte	0x4
 798 0006 00000000 		.4byte	.Ldebug_abbrev0
 799 000a 04       		.byte	0x4
 800 000b 01       		.uleb128 0x1
 801 000c 98050000 		.4byte	.LASF121
 802 0010 0C       		.byte	0xc
 803 0011 3F000000 		.4byte	.LASF122
 804 0015 140B0000 		.4byte	.LASF123
 805 0019 00000000 		.4byte	.Ldebug_ranges0+0
 806 001d 00000000 		.4byte	0
 807 0021 00000000 		.4byte	.Ldebug_line0
 808 0025 02       		.uleb128 0x2
 809 0026 01       		.byte	0x1
 810 0027 06       		.byte	0x6
 811 0028 FE010000 		.4byte	.LASF0
 812 002c 03       		.uleb128 0x3
 813 002d 00010000 		.4byte	.LASF3
 814 0031 02       		.byte	0x2
 815 0032 1D       		.byte	0x1d
 816 0033 37000000 		.4byte	0x37
 817 0037 02       		.uleb128 0x2
 818 0038 01       		.byte	0x1
 819 0039 08       		.byte	0x8
 820 003a 84080000 		.4byte	.LASF1
 821 003e 02       		.uleb128 0x2
 822 003f 02       		.byte	0x2
 823 0040 05       		.byte	0x5
 824 0041 B4080000 		.4byte	.LASF2
 825 0045 03       		.uleb128 0x3
 826 0046 190A0000 		.4byte	.LASF4
 827 004a 02       		.byte	0x2
 828 004b 2B       		.byte	0x2b
 829 004c 50000000 		.4byte	0x50
 830 0050 02       		.uleb128 0x2
 831 0051 02       		.byte	0x2
 832 0052 07       		.byte	0x7
 833 0053 010B0000 		.4byte	.LASF5
 834 0057 02       		.uleb128 0x2
 835 0058 04       		.byte	0x4
 836 0059 05       		.byte	0x5
 837 005a 29010000 		.4byte	.LASF6
 838 005e 02       		.uleb128 0x2
 839 005f 04       		.byte	0x4
 840 0060 07       		.byte	0x7
 841 0061 EE030000 		.4byte	.LASF7
 842 0065 02       		.uleb128 0x2
 843 0066 08       		.byte	0x8
 844 0067 05       		.byte	0x5
 845 0068 F0010000 		.4byte	.LASF8
 846 006c 02       		.uleb128 0x2
 847 006d 08       		.byte	0x8
ARM GAS  C:\Users\alexport\AppData\Local\Temp\ccBjgELh.s 			page 19


 848 006e 07       		.byte	0x7
 849 006f 32010000 		.4byte	.LASF9
 850 0073 04       		.uleb128 0x4
 851 0074 04       		.byte	0x4
 852 0075 05       		.byte	0x5
 853 0076 696E7400 		.ascii	"int\000"
 854 007a 02       		.uleb128 0x2
 855 007b 04       		.byte	0x4
 856 007c 07       		.byte	0x7
 857 007d B9030000 		.4byte	.LASF10
 858 0081 03       		.uleb128 0x3
 859 0082 590B0000 		.4byte	.LASF11
 860 0086 03       		.byte	0x3
 861 0087 18       		.byte	0x18
 862 0088 2C000000 		.4byte	0x2c
 863 008c 03       		.uleb128 0x3
 864 008d E5030000 		.4byte	.LASF12
 865 0091 03       		.byte	0x3
 866 0092 24       		.byte	0x24
 867 0093 45000000 		.4byte	0x45
 868 0097 05       		.uleb128 0x5
 869 0098 D0020000 		.4byte	.LASF13
 870 009c 04       		.byte	0x4
 871 009d FC01     		.2byte	0x1fc
 872 009f 37000000 		.4byte	0x37
 873 00a3 05       		.uleb128 0x5
 874 00a4 48000000 		.4byte	.LASF14
 875 00a8 04       		.byte	0x4
 876 00a9 FD01     		.2byte	0x1fd
 877 00ab 50000000 		.4byte	0x50
 878 00af 05       		.uleb128 0x5
 879 00b0 13030000 		.4byte	.LASF15
 880 00b4 04       		.byte	0x4
 881 00b5 FE01     		.2byte	0x1fe
 882 00b7 5E000000 		.4byte	0x5e
 883 00bb 02       		.uleb128 0x2
 884 00bc 04       		.byte	0x4
 885 00bd 04       		.byte	0x4
 886 00be 2F080000 		.4byte	.LASF16
 887 00c2 02       		.uleb128 0x2
 888 00c3 08       		.byte	0x8
 889 00c4 04       		.byte	0x4
 890 00c5 F5020000 		.4byte	.LASF17
 891 00c9 02       		.uleb128 0x2
 892 00ca 01       		.byte	0x1
 893 00cb 08       		.byte	0x8
 894 00cc F2090000 		.4byte	.LASF18
 895 00d0 05       		.uleb128 0x5
 896 00d1 5D060000 		.4byte	.LASF19
 897 00d5 04       		.byte	0x4
 898 00d6 A802     		.2byte	0x2a8
 899 00d8 DC000000 		.4byte	0xdc
 900 00dc 06       		.uleb128 0x6
 901 00dd AF000000 		.4byte	0xaf
 902 00e1 02       		.uleb128 0x2
 903 00e2 08       		.byte	0x8
 904 00e3 04       		.byte	0x4
ARM GAS  C:\Users\alexport\AppData\Local\Temp\ccBjgELh.s 			page 20


 905 00e4 B7090000 		.4byte	.LASF20
 906 00e8 02       		.uleb128 0x2
 907 00e9 04       		.byte	0x4
 908 00ea 07       		.byte	0x7
 909 00eb 0F070000 		.4byte	.LASF21
 910 00ef 07       		.uleb128 0x7
 911 00f0 04       		.byte	0x4
 912 00f1 97000000 		.4byte	0x97
 913 00f5 08       		.uleb128 0x8
 914 00f6 01       		.byte	0x1
 915 00f7 37000000 		.4byte	0x37
 916 00fb 05       		.byte	0x5
 917 00fc 3501     		.2byte	0x135
 918 00fe B3020000 		.4byte	0x2b3
 919 0102 09       		.uleb128 0x9
 920 0103 AE040000 		.4byte	.LASF22
 921 0107 00       		.byte	0
 922 0108 09       		.uleb128 0x9
 923 0109 0A020000 		.4byte	.LASF23
 924 010d 01       		.byte	0x1
 925 010e 09       		.uleb128 0x9
 926 010f 17010000 		.4byte	.LASF24
 927 0113 02       		.byte	0x2
 928 0114 09       		.uleb128 0x9
 929 0115 E80A0000 		.4byte	.LASF25
 930 0119 03       		.byte	0x3
 931 011a 09       		.uleb128 0x9
 932 011b 49010000 		.4byte	.LASF26
 933 011f 04       		.byte	0x4
 934 0120 09       		.uleb128 0x9
 935 0121 23000000 		.4byte	.LASF27
 936 0125 05       		.byte	0x5
 937 0126 09       		.uleb128 0x9
 938 0127 E3040000 		.4byte	.LASF28
 939 012b 06       		.byte	0x6
 940 012c 09       		.uleb128 0x9
 941 012d 63060000 		.4byte	.LASF29
 942 0131 20       		.byte	0x20
 943 0132 09       		.uleb128 0x9
 944 0133 3C020000 		.4byte	.LASF30
 945 0137 21       		.byte	0x21
 946 0138 09       		.uleb128 0x9
 947 0139 1B050000 		.4byte	.LASF31
 948 013d 22       		.byte	0x22
 949 013e 09       		.uleb128 0x9
 950 013f C20A0000 		.4byte	.LASF32
 951 0143 23       		.byte	0x23
 952 0144 09       		.uleb128 0x9
 953 0145 8E070000 		.4byte	.LASF33
 954 0149 24       		.byte	0x24
 955 014a 09       		.uleb128 0x9
 956 014b 18070000 		.4byte	.LASF34
 957 014f 25       		.byte	0x25
 958 0150 09       		.uleb128 0x9
 959 0151 8A020000 		.4byte	.LASF35
 960 0155 26       		.byte	0x26
 961 0156 09       		.uleb128 0x9
ARM GAS  C:\Users\alexport\AppData\Local\Temp\ccBjgELh.s 			page 21


 962 0157 3F050000 		.4byte	.LASF36
 963 015b 27       		.byte	0x27
 964 015c 09       		.uleb128 0x9
 965 015d F7090000 		.4byte	.LASF37
 966 0161 28       		.byte	0x28
 967 0162 09       		.uleb128 0x9
 968 0163 A2010000 		.4byte	.LASF38
 969 0167 29       		.byte	0x29
 970 0168 09       		.uleb128 0x9
 971 0169 6E000000 		.4byte	.LASF39
 972 016d 2A       		.byte	0x2a
 973 016e 09       		.uleb128 0x9
 974 016f 1D020000 		.4byte	.LASF40
 975 0173 2B       		.byte	0x2b
 976 0174 09       		.uleb128 0x9
 977 0175 880B0000 		.4byte	.LASF41
 978 0179 2C       		.byte	0x2c
 979 017a 09       		.uleb128 0x9
 980 017b C7010000 		.4byte	.LASF42
 981 017f 2D       		.byte	0x2d
 982 0180 09       		.uleb128 0x9
 983 0181 4D0A0000 		.4byte	.LASF43
 984 0185 2E       		.byte	0x2e
 985 0186 09       		.uleb128 0x9
 986 0187 B8000000 		.4byte	.LASF44
 987 018b 2F       		.byte	0x2f
 988 018c 09       		.uleb128 0x9
 989 018d 6D070000 		.4byte	.LASF45
 990 0191 30       		.byte	0x30
 991 0192 09       		.uleb128 0x9
 992 0193 F30B0000 		.4byte	.LASF46
 993 0197 31       		.byte	0x31
 994 0198 09       		.uleb128 0x9
 995 0199 4C070000 		.4byte	.LASF47
 996 019d 32       		.byte	0x32
 997 019e 09       		.uleb128 0x9
 998 019f 71090000 		.4byte	.LASF48
 999 01a3 33       		.byte	0x33
 1000 01a4 09       		.uleb128 0x9
 1001 01a5 00040000 		.4byte	.LASF49
 1002 01a9 34       		.byte	0x34
 1003 01aa 09       		.uleb128 0x9
 1004 01ab 7A030000 		.4byte	.LASF50
 1005 01af 35       		.byte	0x35
 1006 01b0 09       		.uleb128 0x9
 1007 01b1 5E050000 		.4byte	.LASF51
 1008 01b5 36       		.byte	0x36
 1009 01b6 09       		.uleb128 0x9
 1010 01b7 9B060000 		.4byte	.LASF52
 1011 01bb 37       		.byte	0x37
 1012 01bc 09       		.uleb128 0x9
 1013 01bd 57090000 		.4byte	.LASF53
 1014 01c1 40       		.byte	0x40
 1015 01c2 09       		.uleb128 0x9
 1016 01c3 26060000 		.4byte	.LASF54
 1017 01c7 41       		.byte	0x41
 1018 01c8 09       		.uleb128 0x9
ARM GAS  C:\Users\alexport\AppData\Local\Temp\ccBjgELh.s 			page 22


 1019 01c9 330C0000 		.4byte	.LASF55
 1020 01cd 42       		.byte	0x42
 1021 01ce 09       		.uleb128 0x9
 1022 01cf B2020000 		.4byte	.LASF56
 1023 01d3 43       		.byte	0x43
 1024 01d4 09       		.uleb128 0x9
 1025 01d5 32040000 		.4byte	.LASF57
 1026 01d9 44       		.byte	0x44
 1027 01da 09       		.uleb128 0x9
 1028 01db 08080000 		.4byte	.LASF58
 1029 01df 45       		.byte	0x45
 1030 01e0 09       		.uleb128 0x9
 1031 01e1 EE060000 		.4byte	.LASF59
 1032 01e5 46       		.byte	0x46
 1033 01e6 09       		.uleb128 0x9
 1034 01e7 C5040000 		.4byte	.LASF60
 1035 01eb 47       		.byte	0x47
 1036 01ec 09       		.uleb128 0x9
 1037 01ed 610B0000 		.4byte	.LASF61
 1038 01f1 48       		.byte	0x48
 1039 01f2 09       		.uleb128 0x9
 1040 01f3 53020000 		.4byte	.LASF62
 1041 01f7 49       		.byte	0x49
 1042 01f8 09       		.uleb128 0x9
 1043 01f9 940A0000 		.4byte	.LASF63
 1044 01fd 4A       		.byte	0x4a
 1045 01fe 09       		.uleb128 0x9
 1046 01ff E1000000 		.4byte	.LASF64
 1047 0203 4B       		.byte	0x4b
 1048 0204 09       		.uleb128 0x9
 1049 0205 18040000 		.4byte	.LASF65
 1050 0209 4C       		.byte	0x4c
 1051 020a 09       		.uleb128 0x9
 1052 020b 32070000 		.4byte	.LASF66
 1053 020f 4D       		.byte	0x4d
 1054 0210 09       		.uleb128 0x9
 1055 0211 6C020000 		.4byte	.LASF67
 1056 0215 4E       		.byte	0x4e
 1057 0216 09       		.uleb128 0x9
 1058 0217 17090000 		.4byte	.LASF68
 1059 021b 4F       		.byte	0x4f
 1060 021c 09       		.uleb128 0x9
 1061 021d FC040000 		.4byte	.LASF69
 1062 0221 50       		.byte	0x50
 1063 0222 09       		.uleb128 0x9
 1064 0223 D6020000 		.4byte	.LASF70
 1065 0227 51       		.byte	0x51
 1066 0228 09       		.uleb128 0x9
 1067 0229 AA070000 		.4byte	.LASF71
 1068 022d 52       		.byte	0x52
 1069 022e 09       		.uleb128 0x9
 1070 022f BE080000 		.4byte	.LASF72
 1071 0233 53       		.byte	0x53
 1072 0234 09       		.uleb128 0x9
 1073 0235 36090000 		.4byte	.LASF73
 1074 0239 54       		.byte	0x54
 1075 023a 09       		.uleb128 0x9
ARM GAS  C:\Users\alexport\AppData\Local\Temp\ccBjgELh.s 			page 23


 1076 023b 50040000 		.4byte	.LASF74
 1077 023f 55       		.byte	0x55
 1078 0240 09       		.uleb128 0x9
 1079 0241 97030000 		.4byte	.LASF75
 1080 0245 56       		.byte	0x56
 1081 0246 09       		.uleb128 0x9
 1082 0247 240A0000 		.4byte	.LASF76
 1083 024b 57       		.byte	0x57
 1084 024c 09       		.uleb128 0x9
 1085 024d 74040000 		.4byte	.LASF77
 1086 0251 58       		.byte	0x58
 1087 0252 09       		.uleb128 0x9
 1088 0253 7C010000 		.4byte	.LASF78
 1089 0257 70       		.byte	0x70
 1090 0258 09       		.uleb128 0x9
 1091 0259 CD0B0000 		.4byte	.LASF79
 1092 025d 71       		.byte	0x71
 1093 025e 09       		.uleb128 0x9
 1094 025f 41060000 		.4byte	.LASF80
 1095 0263 72       		.byte	0x72
 1096 0264 09       		.uleb128 0x9
 1097 0265 D0060000 		.4byte	.LASF81
 1098 0269 73       		.byte	0x73
 1099 026a 09       		.uleb128 0x9
 1100 026b E3070000 		.4byte	.LASF82
 1101 026f 74       		.byte	0x74
 1102 0270 09       		.uleb128 0x9
 1103 0271 AC0B0000 		.4byte	.LASF83
 1104 0275 75       		.byte	0x75
 1105 0276 09       		.uleb128 0x9
 1106 0277 97000000 		.4byte	.LASF84
 1107 027b 76       		.byte	0x76
 1108 027c 09       		.uleb128 0x9
 1109 027d 4F000000 		.4byte	.LASF85
 1110 0281 77       		.byte	0x77
 1111 0282 09       		.uleb128 0x9
 1112 0283 00000000 		.4byte	.LASF86
 1113 0287 78       		.byte	0x78
 1114 0288 09       		.uleb128 0x9
 1115 0289 710A0000 		.4byte	.LASF87
 1116 028d 79       		.byte	0x79
 1117 028e 09       		.uleb128 0x9
 1118 028f 56030000 		.4byte	.LASF88
 1119 0293 7A       		.byte	0x7a
 1120 0294 09       		.uleb128 0x9
 1121 0295 5E010000 		.4byte	.LASF89
 1122 0299 FA       		.byte	0xfa
 1123 029a 09       		.uleb128 0x9
 1124 029b C6030000 		.4byte	.LASF90
 1125 029f FB       		.byte	0xfb
 1126 02a0 09       		.uleb128 0x9
 1127 02a1 EE080000 		.4byte	.LASF91
 1128 02a5 FC       		.byte	0xfc
 1129 02a6 09       		.uleb128 0x9
 1130 02a7 C3090000 		.4byte	.LASF92
 1131 02ab FD       		.byte	0xfd
 1132 02ac 09       		.uleb128 0x9
ARM GAS  C:\Users\alexport\AppData\Local\Temp\ccBjgELh.s 			page 24


 1133 02ad 43030000 		.4byte	.LASF93
 1134 02b1 FF       		.byte	0xff
 1135 02b2 00       		.byte	0
 1136 02b3 0A       		.uleb128 0xa
 1137 02b4 01       		.byte	0x1
 1138 02b5 37000000 		.4byte	0x37
 1139 02b9 06       		.byte	0x6
 1140 02ba 22       		.byte	0x22
 1141 02bb FC020000 		.4byte	0x2fc
 1142 02bf 09       		.uleb128 0x9
 1143 02c0 170C0000 		.4byte	.LASF94
 1144 02c4 00       		.byte	0
 1145 02c5 09       		.uleb128 0x9
 1146 02c6 DB090000 		.4byte	.LASF95
 1147 02ca 01       		.byte	0x1
 1148 02cb 09       		.uleb128 0x9
 1149 02cc 6C080000 		.4byte	.LASF96
 1150 02d0 02       		.byte	0x2
 1151 02d1 09       		.uleb128 0x9
 1152 02d2 2C030000 		.4byte	.LASF97
 1153 02d6 03       		.byte	0x3
 1154 02d7 09       		.uleb128 0x9
 1155 02d8 FC020000 		.4byte	.LASF98
 1156 02dc 04       		.byte	0x4
 1157 02dd 09       		.uleb128 0x9
 1158 02de 00090000 		.4byte	.LASF99
 1159 02e2 05       		.byte	0x5
 1160 02e3 09       		.uleb128 0x9
 1161 02e4 87060000 		.4byte	.LASF100
 1162 02e8 06       		.byte	0x6
 1163 02e9 09       		.uleb128 0x9
 1164 02ea CB070000 		.4byte	.LASF101
 1165 02ee 07       		.byte	0x7
 1166 02ef 09       		.uleb128 0x9
 1167 02f0 87050000 		.4byte	.LASF102
 1168 02f4 08       		.byte	0x8
 1169 02f5 09       		.uleb128 0x9
 1170 02f6 92080000 		.4byte	.LASF103
 1171 02fa 09       		.byte	0x9
 1172 02fb 00       		.byte	0
 1173 02fc 0B       		.uleb128 0xb
 1174 02fd A3040000 		.4byte	.LASF108
 1175 0301 01       		.byte	0x1
 1176 0302 0B       		.byte	0xb
 1177 0303 00000000 		.4byte	.LFB35
 1178 0307 E4000000 		.4byte	.LFE35-.LFB35
 1179 030b 01       		.uleb128 0x1
 1180 030c 9C       		.byte	0x9c
 1181 030d 64030000 		.4byte	0x364
 1182 0311 0C       		.uleb128 0xc
 1183 0312 0A010000 		.4byte	.LASF104
 1184 0316 01       		.byte	0x1
 1185 0317 0B       		.byte	0xb
 1186 0318 97000000 		.4byte	0x97
 1187 031c 02       		.uleb128 0x2
 1188 031d 91       		.byte	0x91
 1189 031e 67       		.sleb128 -25
ARM GAS  C:\Users\alexport\AppData\Local\Temp\ccBjgELh.s 			page 25


 1190 031f 0C       		.uleb128 0xc
 1191 0320 51030000 		.4byte	.LASF105
 1192 0324 01       		.byte	0x1
 1193 0325 0B       		.byte	0xb
 1194 0326 97000000 		.4byte	0x97
 1195 032a 02       		.uleb128 0x2
 1196 032b 91       		.byte	0x91
 1197 032c 66       		.sleb128 -26
 1198 032d 0C       		.uleb128 0xc
 1199 032e B20A0000 		.4byte	.LASF106
 1200 0332 01       		.byte	0x1
 1201 0333 0B       		.byte	0xb
 1202 0334 A3000000 		.4byte	0xa3
 1203 0338 02       		.uleb128 0x2
 1204 0339 91       		.byte	0x91
 1205 033a 64       		.sleb128 -28
 1206 033b 0C       		.uleb128 0xc
 1207 033c AE090000 		.4byte	.LASF107
 1208 0340 01       		.byte	0x1
 1209 0341 0B       		.byte	0xb
 1210 0342 A3000000 		.4byte	0xa3
 1211 0346 02       		.uleb128 0x2
 1212 0347 91       		.byte	0x91
 1213 0348 62       		.sleb128 -30
 1214 0349 0D       		.uleb128 0xd
 1215 034a 63726300 		.ascii	"crc\000"
 1216 034e 01       		.byte	0x1
 1217 034f 0D       		.byte	0xd
 1218 0350 A3000000 		.4byte	0xa3
 1219 0354 02       		.uleb128 0x2
 1220 0355 91       		.byte	0x91
 1221 0356 6C       		.sleb128 -20
 1222 0357 0D       		.uleb128 0xd
 1223 0358 6900     		.ascii	"i\000"
 1224 035a 01       		.byte	0x1
 1225 035b 0E       		.byte	0xe
 1226 035c 97000000 		.4byte	0x97
 1227 0360 02       		.uleb128 0x2
 1228 0361 91       		.byte	0x91
 1229 0362 6F       		.sleb128 -17
 1230 0363 00       		.byte	0
 1231 0364 0B       		.uleb128 0xb
 1232 0365 DF080000 		.4byte	.LASF109
 1233 0369 01       		.byte	0x1
 1234 036a 21       		.byte	0x21
 1235 036b 00000000 		.4byte	.LFB36
 1236 036f AC000000 		.4byte	.LFE36-.LFB36
 1237 0373 01       		.uleb128 0x1
 1238 0374 9C       		.byte	0x9c
 1239 0375 C9030000 		.4byte	0x3c9
 1240 0379 0C       		.uleb128 0xc
 1241 037a 0A010000 		.4byte	.LASF104
 1242 037e 01       		.byte	0x1
 1243 037f 21       		.byte	0x21
 1244 0380 97000000 		.4byte	0x97
 1245 0384 02       		.uleb128 0x2
 1246 0385 91       		.byte	0x91
ARM GAS  C:\Users\alexport\AppData\Local\Temp\ccBjgELh.s 			page 26


 1247 0386 67       		.sleb128 -25
 1248 0387 0C       		.uleb128 0xc
 1249 0388 51030000 		.4byte	.LASF105
 1250 038c 01       		.byte	0x1
 1251 038d 21       		.byte	0x21
 1252 038e 97000000 		.4byte	0x97
 1253 0392 02       		.uleb128 0x2
 1254 0393 91       		.byte	0x91
 1255 0394 66       		.sleb128 -26
 1256 0395 0C       		.uleb128 0xc
 1257 0396 AE090000 		.4byte	.LASF107
 1258 039a 01       		.byte	0x1
 1259 039b 21       		.byte	0x21
 1260 039c A3000000 		.4byte	0xa3
 1261 03a0 02       		.uleb128 0x2
 1262 03a1 91       		.byte	0x91
 1263 03a2 64       		.sleb128 -28
 1264 03a3 0D       		.uleb128 0xd
 1265 03a4 63726300 		.ascii	"crc\000"
 1266 03a8 01       		.byte	0x1
 1267 03a9 23       		.byte	0x23
 1268 03aa A3000000 		.4byte	0xa3
 1269 03ae 02       		.uleb128 0x2
 1270 03af 91       		.byte	0x91
 1271 03b0 6C       		.sleb128 -20
 1272 03b1 0E       		.uleb128 0xe
 1273 03b2 6900     		.ascii	"i\000"
 1274 03b4 01       		.byte	0x1
 1275 03b5 24       		.byte	0x24
 1276 03b6 97000000 		.4byte	0x97
 1277 03ba 0F       		.uleb128 0xf
 1278 03bb 1A030000 		.4byte	.LASF110
 1279 03bf 01       		.byte	0x1
 1280 03c0 25       		.byte	0x25
 1281 03c1 8C000000 		.4byte	0x8c
 1282 03c5 02       		.uleb128 0x2
 1283 03c6 91       		.byte	0x91
 1284 03c7 6E       		.sleb128 -18
 1285 03c8 00       		.byte	0
 1286 03c9 0B       		.uleb128 0xb
 1287 03ca 58080000 		.4byte	.LASF111
 1288 03ce 01       		.byte	0x1
 1289 03cf 58       		.byte	0x58
 1290 03d0 00000000 		.4byte	.LFB37
 1291 03d4 FC000000 		.4byte	.LFE37-.LFB37
 1292 03d8 01       		.uleb128 0x1
 1293 03d9 9C       		.byte	0x9c
 1294 03da 31040000 		.4byte	0x431
 1295 03de 0C       		.uleb128 0xc
 1296 03df 0A010000 		.4byte	.LASF104
 1297 03e3 01       		.byte	0x1
 1298 03e4 58       		.byte	0x58
 1299 03e5 97000000 		.4byte	0x97
 1300 03e9 02       		.uleb128 0x2
 1301 03ea 91       		.byte	0x91
 1302 03eb 67       		.sleb128 -25
 1303 03ec 0C       		.uleb128 0xc
ARM GAS  C:\Users\alexport\AppData\Local\Temp\ccBjgELh.s 			page 27


 1304 03ed 51030000 		.4byte	.LASF105
 1305 03f1 01       		.byte	0x1
 1306 03f2 58       		.byte	0x58
 1307 03f3 97000000 		.4byte	0x97
 1308 03f7 02       		.uleb128 0x2
 1309 03f8 91       		.byte	0x91
 1310 03f9 66       		.sleb128 -26
 1311 03fa 0C       		.uleb128 0xc
 1312 03fb B20A0000 		.4byte	.LASF106
 1313 03ff 01       		.byte	0x1
 1314 0400 58       		.byte	0x58
 1315 0401 A3000000 		.4byte	0xa3
 1316 0405 02       		.uleb128 0x2
 1317 0406 91       		.byte	0x91
 1318 0407 64       		.sleb128 -28
 1319 0408 0C       		.uleb128 0xc
 1320 0409 97040000 		.4byte	.LASF112
 1321 040d 01       		.byte	0x1
 1322 040e 58       		.byte	0x58
 1323 040f A3000000 		.4byte	0xa3
 1324 0413 02       		.uleb128 0x2
 1325 0414 91       		.byte	0x91
 1326 0415 62       		.sleb128 -30
 1327 0416 0D       		.uleb128 0xd
 1328 0417 63726300 		.ascii	"crc\000"
 1329 041b 01       		.byte	0x1
 1330 041c 5A       		.byte	0x5a
 1331 041d A3000000 		.4byte	0xa3
 1332 0421 02       		.uleb128 0x2
 1333 0422 91       		.byte	0x91
 1334 0423 6C       		.sleb128 -20
 1335 0424 0D       		.uleb128 0xd
 1336 0425 6900     		.ascii	"i\000"
 1337 0427 01       		.byte	0x1
 1338 0428 5B       		.byte	0x5b
 1339 0429 97000000 		.4byte	0x97
 1340 042d 02       		.uleb128 0x2
 1341 042e 91       		.byte	0x91
 1342 042f 6F       		.sleb128 -17
 1343 0430 00       		.byte	0
 1344 0431 0B       		.uleb128 0xb
 1345 0432 20030000 		.4byte	.LASF113
 1346 0436 01       		.byte	0x1
 1347 0437 7E       		.byte	0x7e
 1348 0438 00000000 		.4byte	.LFB38
 1349 043c 84000000 		.4byte	.LFE38-.LFB38
 1350 0440 01       		.uleb128 0x1
 1351 0441 9C       		.byte	0x9c
 1352 0442 6B040000 		.4byte	0x46b
 1353 0446 0C       		.uleb128 0xc
 1354 0447 1A030000 		.4byte	.LASF110
 1355 044b 01       		.byte	0x1
 1356 044c 7E       		.byte	0x7e
 1357 044d 8C000000 		.4byte	0x8c
 1358 0451 02       		.uleb128 0x2
 1359 0452 91       		.byte	0x91
 1360 0453 6E       		.sleb128 -18
ARM GAS  C:\Users\alexport\AppData\Local\Temp\ccBjgELh.s 			page 28


 1361 0454 10       		.uleb128 0x10
 1362 0455 18000000 		.4byte	.LBB2
 1363 0459 36000000 		.4byte	.LBE2-.LBB2
 1364 045d 0D       		.uleb128 0xd
 1365 045e 6900     		.ascii	"i\000"
 1366 0460 01       		.byte	0x1
 1367 0461 81       		.byte	0x81
 1368 0462 8C000000 		.4byte	0x8c
 1369 0466 02       		.uleb128 0x2
 1370 0467 91       		.byte	0x91
 1371 0468 76       		.sleb128 -10
 1372 0469 00       		.byte	0
 1373 046a 00       		.byte	0
 1374 046b 11       		.uleb128 0x11
 1375 046c 45080000 		.4byte	.LASF124
 1376 0470 01       		.byte	0x1
 1377 0471 8B       		.byte	0x8b
 1378 0472 A3000000 		.4byte	0xa3
 1379 0476 00000000 		.4byte	.LFB39
 1380 047a F8000000 		.4byte	.LFE39-.LFB39
 1381 047e 01       		.uleb128 0x1
 1382 047f 9C       		.byte	0x9c
 1383 0480 E3040000 		.4byte	0x4e3
 1384 0484 12       		.uleb128 0x12
 1385 0485 6D736700 		.ascii	"msg\000"
 1386 0489 01       		.byte	0x1
 1387 048a 8B       		.byte	0x8b
 1388 048b EF000000 		.4byte	0xef
 1389 048f 02       		.uleb128 0x2
 1390 0490 91       		.byte	0x91
 1391 0491 64       		.sleb128 -28
 1392 0492 0C       		.uleb128 0xc
 1393 0493 01080000 		.4byte	.LASF114
 1394 0497 01       		.byte	0x1
 1395 0498 8B       		.byte	0x8b
 1396 0499 A3000000 		.4byte	0xa3
 1397 049d 02       		.uleb128 0x2
 1398 049e 91       		.byte	0x91
 1399 049f 62       		.sleb128 -30
 1400 04a0 0D       		.uleb128 0xd
 1401 04a1 63726300 		.ascii	"crc\000"
 1402 04a5 01       		.byte	0x1
 1403 04a6 8D       		.byte	0x8d
 1404 04a7 A3000000 		.4byte	0xa3
 1405 04ab 02       		.uleb128 0x2
 1406 04ac 91       		.byte	0x91
 1407 04ad 76       		.sleb128 -10
 1408 04ae 0F       		.uleb128 0xf
 1409 04af 7F050000 		.4byte	.LASF115
 1410 04b3 01       		.byte	0x1
 1411 04b4 8E       		.byte	0x8e
 1412 04b5 A3000000 		.4byte	0xa3
 1413 04b9 02       		.uleb128 0x2
 1414 04ba 91       		.byte	0x91
 1415 04bb 6A       		.sleb128 -22
 1416 04bc 0F       		.uleb128 0xf
 1417 04bd 9C040000 		.4byte	.LASF116
ARM GAS  C:\Users\alexport\AppData\Local\Temp\ccBjgELh.s 			page 29


 1418 04c1 01       		.byte	0x1
 1419 04c2 8F       		.byte	0x8f
 1420 04c3 A3000000 		.4byte	0xa3
 1421 04c7 02       		.uleb128 0x2
 1422 04c8 91       		.byte	0x91
 1423 04c9 68       		.sleb128 -24
 1424 04ca 0D       		.uleb128 0xd
 1425 04cb 6900     		.ascii	"i\000"
 1426 04cd 01       		.byte	0x1
 1427 04ce 90       		.byte	0x90
 1428 04cf 73000000 		.4byte	0x73
 1429 04d3 02       		.uleb128 0x2
 1430 04d4 91       		.byte	0x91
 1431 04d5 70       		.sleb128 -16
 1432 04d6 0D       		.uleb128 0xd
 1433 04d7 6A00     		.ascii	"j\000"
 1434 04d9 01       		.byte	0x1
 1435 04da 90       		.byte	0x90
 1436 04db 73000000 		.4byte	0x73
 1437 04df 02       		.uleb128 0x2
 1438 04e0 91       		.byte	0x91
 1439 04e1 6C       		.sleb128 -20
 1440 04e2 00       		.byte	0
 1441 04e3 13       		.uleb128 0x13
 1442 04e4 A7080000 		.4byte	.LASF125
 1443 04e8 01       		.byte	0x1
 1444 04e9 A7       		.byte	0xa7
 1445 04ea 00000000 		.4byte	.LFB40
 1446 04ee 14000000 		.4byte	.LFE40-.LFB40
 1447 04f2 01       		.uleb128 0x1
 1448 04f3 9C       		.byte	0x9c
 1449 04f4 14       		.uleb128 0x14
 1450 04f5 98090000 		.4byte	.LASF117
 1451 04f9 01       		.byte	0x1
 1452 04fa 08       		.byte	0x8
 1453 04fb 81000000 		.4byte	0x81
 1454 04ff 05       		.uleb128 0x5
 1455 0500 03       		.byte	0x3
 1456 0501 00000000 		.4byte	modbusRequestReceived
 1457 0505 15       		.uleb128 0x15
 1458 0506 81000000 		.4byte	0x81
 1459 050a 15050000 		.4byte	0x515
 1460 050e 16       		.uleb128 0x16
 1461 050f E8000000 		.4byte	0xe8
 1462 0513 C7       		.byte	0xc7
 1463 0514 00       		.byte	0
 1464 0515 14       		.uleb128 0x14
 1465 0516 35080000 		.4byte	.LASF118
 1466 051a 01       		.byte	0x1
 1467 051b 04       		.byte	0x4
 1468 051c 05050000 		.4byte	0x505
 1469 0520 05       		.uleb128 0x5
 1470 0521 03       		.byte	0x3
 1471 0522 00000000 		.4byte	modbus_rxBuffer
 1472 0526 15       		.uleb128 0x15
 1473 0527 81000000 		.4byte	0x81
 1474 052b 36050000 		.4byte	0x536
ARM GAS  C:\Users\alexport\AppData\Local\Temp\ccBjgELh.s 			page 30


 1475 052f 16       		.uleb128 0x16
 1476 0530 E8000000 		.4byte	0xe8
 1477 0534 FF       		.byte	0xff
 1478 0535 00       		.byte	0
 1479 0536 14       		.uleb128 0x14
 1480 0537 510C0000 		.4byte	.LASF119
 1481 053b 01       		.byte	0x1
 1482 053c 05       		.byte	0x5
 1483 053d 26050000 		.4byte	0x526
 1484 0541 05       		.uleb128 0x5
 1485 0542 03       		.byte	0x3
 1486 0543 00000000 		.4byte	modbus_txBuffer
 1487 0547 14       		.uleb128 0x14
 1488 0548 BF010000 		.4byte	.LASF120
 1489 054c 01       		.byte	0x1
 1490 054d 07       		.byte	0x7
 1491 054e 81000000 		.4byte	0x81
 1492 0552 05       		.uleb128 0x5
 1493 0553 03       		.byte	0x3
 1494 0554 00000000 		.4byte	bytesIn
 1495 0558 00       		.byte	0
 1496              		.section	.debug_abbrev,"",%progbits
 1497              	.Ldebug_abbrev0:
 1498 0000 01       		.uleb128 0x1
 1499 0001 11       		.uleb128 0x11
 1500 0002 01       		.byte	0x1
 1501 0003 25       		.uleb128 0x25
 1502 0004 0E       		.uleb128 0xe
 1503 0005 13       		.uleb128 0x13
 1504 0006 0B       		.uleb128 0xb
 1505 0007 03       		.uleb128 0x3
 1506 0008 0E       		.uleb128 0xe
 1507 0009 1B       		.uleb128 0x1b
 1508 000a 0E       		.uleb128 0xe
 1509 000b 55       		.uleb128 0x55
 1510 000c 17       		.uleb128 0x17
 1511 000d 11       		.uleb128 0x11
 1512 000e 01       		.uleb128 0x1
 1513 000f 10       		.uleb128 0x10
 1514 0010 17       		.uleb128 0x17
 1515 0011 00       		.byte	0
 1516 0012 00       		.byte	0
 1517 0013 02       		.uleb128 0x2
 1518 0014 24       		.uleb128 0x24
 1519 0015 00       		.byte	0
 1520 0016 0B       		.uleb128 0xb
 1521 0017 0B       		.uleb128 0xb
 1522 0018 3E       		.uleb128 0x3e
 1523 0019 0B       		.uleb128 0xb
 1524 001a 03       		.uleb128 0x3
 1525 001b 0E       		.uleb128 0xe
 1526 001c 00       		.byte	0
 1527 001d 00       		.byte	0
 1528 001e 03       		.uleb128 0x3
 1529 001f 16       		.uleb128 0x16
 1530 0020 00       		.byte	0
 1531 0021 03       		.uleb128 0x3
ARM GAS  C:\Users\alexport\AppData\Local\Temp\ccBjgELh.s 			page 31


 1532 0022 0E       		.uleb128 0xe
 1533 0023 3A       		.uleb128 0x3a
 1534 0024 0B       		.uleb128 0xb
 1535 0025 3B       		.uleb128 0x3b
 1536 0026 0B       		.uleb128 0xb
 1537 0027 49       		.uleb128 0x49
 1538 0028 13       		.uleb128 0x13
 1539 0029 00       		.byte	0
 1540 002a 00       		.byte	0
 1541 002b 04       		.uleb128 0x4
 1542 002c 24       		.uleb128 0x24
 1543 002d 00       		.byte	0
 1544 002e 0B       		.uleb128 0xb
 1545 002f 0B       		.uleb128 0xb
 1546 0030 3E       		.uleb128 0x3e
 1547 0031 0B       		.uleb128 0xb
 1548 0032 03       		.uleb128 0x3
 1549 0033 08       		.uleb128 0x8
 1550 0034 00       		.byte	0
 1551 0035 00       		.byte	0
 1552 0036 05       		.uleb128 0x5
 1553 0037 16       		.uleb128 0x16
 1554 0038 00       		.byte	0
 1555 0039 03       		.uleb128 0x3
 1556 003a 0E       		.uleb128 0xe
 1557 003b 3A       		.uleb128 0x3a
 1558 003c 0B       		.uleb128 0xb
 1559 003d 3B       		.uleb128 0x3b
 1560 003e 05       		.uleb128 0x5
 1561 003f 49       		.uleb128 0x49
 1562 0040 13       		.uleb128 0x13
 1563 0041 00       		.byte	0
 1564 0042 00       		.byte	0
 1565 0043 06       		.uleb128 0x6
 1566 0044 35       		.uleb128 0x35
 1567 0045 00       		.byte	0
 1568 0046 49       		.uleb128 0x49
 1569 0047 13       		.uleb128 0x13
 1570 0048 00       		.byte	0
 1571 0049 00       		.byte	0
 1572 004a 07       		.uleb128 0x7
 1573 004b 0F       		.uleb128 0xf
 1574 004c 00       		.byte	0
 1575 004d 0B       		.uleb128 0xb
 1576 004e 0B       		.uleb128 0xb
 1577 004f 49       		.uleb128 0x49
 1578 0050 13       		.uleb128 0x13
 1579 0051 00       		.byte	0
 1580 0052 00       		.byte	0
 1581 0053 08       		.uleb128 0x8
 1582 0054 04       		.uleb128 0x4
 1583 0055 01       		.byte	0x1
 1584 0056 0B       		.uleb128 0xb
 1585 0057 0B       		.uleb128 0xb
 1586 0058 49       		.uleb128 0x49
 1587 0059 13       		.uleb128 0x13
 1588 005a 3A       		.uleb128 0x3a
ARM GAS  C:\Users\alexport\AppData\Local\Temp\ccBjgELh.s 			page 32


 1589 005b 0B       		.uleb128 0xb
 1590 005c 3B       		.uleb128 0x3b
 1591 005d 05       		.uleb128 0x5
 1592 005e 01       		.uleb128 0x1
 1593 005f 13       		.uleb128 0x13
 1594 0060 00       		.byte	0
 1595 0061 00       		.byte	0
 1596 0062 09       		.uleb128 0x9
 1597 0063 28       		.uleb128 0x28
 1598 0064 00       		.byte	0
 1599 0065 03       		.uleb128 0x3
 1600 0066 0E       		.uleb128 0xe
 1601 0067 1C       		.uleb128 0x1c
 1602 0068 0B       		.uleb128 0xb
 1603 0069 00       		.byte	0
 1604 006a 00       		.byte	0
 1605 006b 0A       		.uleb128 0xa
 1606 006c 04       		.uleb128 0x4
 1607 006d 01       		.byte	0x1
 1608 006e 0B       		.uleb128 0xb
 1609 006f 0B       		.uleb128 0xb
 1610 0070 49       		.uleb128 0x49
 1611 0071 13       		.uleb128 0x13
 1612 0072 3A       		.uleb128 0x3a
 1613 0073 0B       		.uleb128 0xb
 1614 0074 3B       		.uleb128 0x3b
 1615 0075 0B       		.uleb128 0xb
 1616 0076 01       		.uleb128 0x1
 1617 0077 13       		.uleb128 0x13
 1618 0078 00       		.byte	0
 1619 0079 00       		.byte	0
 1620 007a 0B       		.uleb128 0xb
 1621 007b 2E       		.uleb128 0x2e
 1622 007c 01       		.byte	0x1
 1623 007d 3F       		.uleb128 0x3f
 1624 007e 19       		.uleb128 0x19
 1625 007f 03       		.uleb128 0x3
 1626 0080 0E       		.uleb128 0xe
 1627 0081 3A       		.uleb128 0x3a
 1628 0082 0B       		.uleb128 0xb
 1629 0083 3B       		.uleb128 0x3b
 1630 0084 0B       		.uleb128 0xb
 1631 0085 27       		.uleb128 0x27
 1632 0086 19       		.uleb128 0x19
 1633 0087 11       		.uleb128 0x11
 1634 0088 01       		.uleb128 0x1
 1635 0089 12       		.uleb128 0x12
 1636 008a 06       		.uleb128 0x6
 1637 008b 40       		.uleb128 0x40
 1638 008c 18       		.uleb128 0x18
 1639 008d 9642     		.uleb128 0x2116
 1640 008f 19       		.uleb128 0x19
 1641 0090 01       		.uleb128 0x1
 1642 0091 13       		.uleb128 0x13
 1643 0092 00       		.byte	0
 1644 0093 00       		.byte	0
 1645 0094 0C       		.uleb128 0xc
ARM GAS  C:\Users\alexport\AppData\Local\Temp\ccBjgELh.s 			page 33


 1646 0095 05       		.uleb128 0x5
 1647 0096 00       		.byte	0
 1648 0097 03       		.uleb128 0x3
 1649 0098 0E       		.uleb128 0xe
 1650 0099 3A       		.uleb128 0x3a
 1651 009a 0B       		.uleb128 0xb
 1652 009b 3B       		.uleb128 0x3b
 1653 009c 0B       		.uleb128 0xb
 1654 009d 49       		.uleb128 0x49
 1655 009e 13       		.uleb128 0x13
 1656 009f 02       		.uleb128 0x2
 1657 00a0 18       		.uleb128 0x18
 1658 00a1 00       		.byte	0
 1659 00a2 00       		.byte	0
 1660 00a3 0D       		.uleb128 0xd
 1661 00a4 34       		.uleb128 0x34
 1662 00a5 00       		.byte	0
 1663 00a6 03       		.uleb128 0x3
 1664 00a7 08       		.uleb128 0x8
 1665 00a8 3A       		.uleb128 0x3a
 1666 00a9 0B       		.uleb128 0xb
 1667 00aa 3B       		.uleb128 0x3b
 1668 00ab 0B       		.uleb128 0xb
 1669 00ac 49       		.uleb128 0x49
 1670 00ad 13       		.uleb128 0x13
 1671 00ae 02       		.uleb128 0x2
 1672 00af 18       		.uleb128 0x18
 1673 00b0 00       		.byte	0
 1674 00b1 00       		.byte	0
 1675 00b2 0E       		.uleb128 0xe
 1676 00b3 34       		.uleb128 0x34
 1677 00b4 00       		.byte	0
 1678 00b5 03       		.uleb128 0x3
 1679 00b6 08       		.uleb128 0x8
 1680 00b7 3A       		.uleb128 0x3a
 1681 00b8 0B       		.uleb128 0xb
 1682 00b9 3B       		.uleb128 0x3b
 1683 00ba 0B       		.uleb128 0xb
 1684 00bb 49       		.uleb128 0x49
 1685 00bc 13       		.uleb128 0x13
 1686 00bd 00       		.byte	0
 1687 00be 00       		.byte	0
 1688 00bf 0F       		.uleb128 0xf
 1689 00c0 34       		.uleb128 0x34
 1690 00c1 00       		.byte	0
 1691 00c2 03       		.uleb128 0x3
 1692 00c3 0E       		.uleb128 0xe
 1693 00c4 3A       		.uleb128 0x3a
 1694 00c5 0B       		.uleb128 0xb
 1695 00c6 3B       		.uleb128 0x3b
 1696 00c7 0B       		.uleb128 0xb
 1697 00c8 49       		.uleb128 0x49
 1698 00c9 13       		.uleb128 0x13
 1699 00ca 02       		.uleb128 0x2
 1700 00cb 18       		.uleb128 0x18
 1701 00cc 00       		.byte	0
 1702 00cd 00       		.byte	0
ARM GAS  C:\Users\alexport\AppData\Local\Temp\ccBjgELh.s 			page 34


 1703 00ce 10       		.uleb128 0x10
 1704 00cf 0B       		.uleb128 0xb
 1705 00d0 01       		.byte	0x1
 1706 00d1 11       		.uleb128 0x11
 1707 00d2 01       		.uleb128 0x1
 1708 00d3 12       		.uleb128 0x12
 1709 00d4 06       		.uleb128 0x6
 1710 00d5 00       		.byte	0
 1711 00d6 00       		.byte	0
 1712 00d7 11       		.uleb128 0x11
 1713 00d8 2E       		.uleb128 0x2e
 1714 00d9 01       		.byte	0x1
 1715 00da 3F       		.uleb128 0x3f
 1716 00db 19       		.uleb128 0x19
 1717 00dc 03       		.uleb128 0x3
 1718 00dd 0E       		.uleb128 0xe
 1719 00de 3A       		.uleb128 0x3a
 1720 00df 0B       		.uleb128 0xb
 1721 00e0 3B       		.uleb128 0x3b
 1722 00e1 0B       		.uleb128 0xb
 1723 00e2 27       		.uleb128 0x27
 1724 00e3 19       		.uleb128 0x19
 1725 00e4 49       		.uleb128 0x49
 1726 00e5 13       		.uleb128 0x13
 1727 00e6 11       		.uleb128 0x11
 1728 00e7 01       		.uleb128 0x1
 1729 00e8 12       		.uleb128 0x12
 1730 00e9 06       		.uleb128 0x6
 1731 00ea 40       		.uleb128 0x40
 1732 00eb 18       		.uleb128 0x18
 1733 00ec 9742     		.uleb128 0x2117
 1734 00ee 19       		.uleb128 0x19
 1735 00ef 01       		.uleb128 0x1
 1736 00f0 13       		.uleb128 0x13
 1737 00f1 00       		.byte	0
 1738 00f2 00       		.byte	0
 1739 00f3 12       		.uleb128 0x12
 1740 00f4 05       		.uleb128 0x5
 1741 00f5 00       		.byte	0
 1742 00f6 03       		.uleb128 0x3
 1743 00f7 08       		.uleb128 0x8
 1744 00f8 3A       		.uleb128 0x3a
 1745 00f9 0B       		.uleb128 0xb
 1746 00fa 3B       		.uleb128 0x3b
 1747 00fb 0B       		.uleb128 0xb
 1748 00fc 49       		.uleb128 0x49
 1749 00fd 13       		.uleb128 0x13
 1750 00fe 02       		.uleb128 0x2
 1751 00ff 18       		.uleb128 0x18
 1752 0100 00       		.byte	0
 1753 0101 00       		.byte	0
 1754 0102 13       		.uleb128 0x13
 1755 0103 2E       		.uleb128 0x2e
 1756 0104 00       		.byte	0
 1757 0105 3F       		.uleb128 0x3f
 1758 0106 19       		.uleb128 0x19
 1759 0107 03       		.uleb128 0x3
ARM GAS  C:\Users\alexport\AppData\Local\Temp\ccBjgELh.s 			page 35


 1760 0108 0E       		.uleb128 0xe
 1761 0109 3A       		.uleb128 0x3a
 1762 010a 0B       		.uleb128 0xb
 1763 010b 3B       		.uleb128 0x3b
 1764 010c 0B       		.uleb128 0xb
 1765 010d 27       		.uleb128 0x27
 1766 010e 19       		.uleb128 0x19
 1767 010f 11       		.uleb128 0x11
 1768 0110 01       		.uleb128 0x1
 1769 0111 12       		.uleb128 0x12
 1770 0112 06       		.uleb128 0x6
 1771 0113 40       		.uleb128 0x40
 1772 0114 18       		.uleb128 0x18
 1773 0115 9742     		.uleb128 0x2117
 1774 0117 19       		.uleb128 0x19
 1775 0118 00       		.byte	0
 1776 0119 00       		.byte	0
 1777 011a 14       		.uleb128 0x14
 1778 011b 34       		.uleb128 0x34
 1779 011c 00       		.byte	0
 1780 011d 03       		.uleb128 0x3
 1781 011e 0E       		.uleb128 0xe
 1782 011f 3A       		.uleb128 0x3a
 1783 0120 0B       		.uleb128 0xb
 1784 0121 3B       		.uleb128 0x3b
 1785 0122 0B       		.uleb128 0xb
 1786 0123 49       		.uleb128 0x49
 1787 0124 13       		.uleb128 0x13
 1788 0125 3F       		.uleb128 0x3f
 1789 0126 19       		.uleb128 0x19
 1790 0127 02       		.uleb128 0x2
 1791 0128 18       		.uleb128 0x18
 1792 0129 00       		.byte	0
 1793 012a 00       		.byte	0
 1794 012b 15       		.uleb128 0x15
 1795 012c 01       		.uleb128 0x1
 1796 012d 01       		.byte	0x1
 1797 012e 49       		.uleb128 0x49
 1798 012f 13       		.uleb128 0x13
 1799 0130 01       		.uleb128 0x1
 1800 0131 13       		.uleb128 0x13
 1801 0132 00       		.byte	0
 1802 0133 00       		.byte	0
 1803 0134 16       		.uleb128 0x16
 1804 0135 21       		.uleb128 0x21
 1805 0136 00       		.byte	0
 1806 0137 49       		.uleb128 0x49
 1807 0138 13       		.uleb128 0x13
 1808 0139 2F       		.uleb128 0x2f
 1809 013a 0B       		.uleb128 0xb
 1810 013b 00       		.byte	0
 1811 013c 00       		.byte	0
 1812 013d 00       		.byte	0
 1813              		.section	.debug_aranges,"",%progbits
 1814 0000 44000000 		.4byte	0x44
 1815 0004 0200     		.2byte	0x2
 1816 0006 00000000 		.4byte	.Ldebug_info0
ARM GAS  C:\Users\alexport\AppData\Local\Temp\ccBjgELh.s 			page 36


 1817 000a 04       		.byte	0x4
 1818 000b 00       		.byte	0
 1819 000c 0000     		.2byte	0
 1820 000e 0000     		.2byte	0
 1821 0010 00000000 		.4byte	.LFB35
 1822 0014 E4000000 		.4byte	.LFE35-.LFB35
 1823 0018 00000000 		.4byte	.LFB36
 1824 001c AC000000 		.4byte	.LFE36-.LFB36
 1825 0020 00000000 		.4byte	.LFB37
 1826 0024 FC000000 		.4byte	.LFE37-.LFB37
 1827 0028 00000000 		.4byte	.LFB38
 1828 002c 84000000 		.4byte	.LFE38-.LFB38
 1829 0030 00000000 		.4byte	.LFB39
 1830 0034 F8000000 		.4byte	.LFE39-.LFB39
 1831 0038 00000000 		.4byte	.LFB40
 1832 003c 14000000 		.4byte	.LFE40-.LFB40
 1833 0040 00000000 		.4byte	0
 1834 0044 00000000 		.4byte	0
 1835              		.section	.debug_ranges,"",%progbits
 1836              	.Ldebug_ranges0:
 1837 0000 00000000 		.4byte	.LFB35
 1838 0004 E4000000 		.4byte	.LFE35
 1839 0008 00000000 		.4byte	.LFB36
 1840 000c AC000000 		.4byte	.LFE36
 1841 0010 00000000 		.4byte	.LFB37
 1842 0014 FC000000 		.4byte	.LFE37
 1843 0018 00000000 		.4byte	.LFB38
 1844 001c 84000000 		.4byte	.LFE38
 1845 0020 00000000 		.4byte	.LFB39
 1846 0024 F8000000 		.4byte	.LFE39
 1847 0028 00000000 		.4byte	.LFB40
 1848 002c 14000000 		.4byte	.LFE40
 1849 0030 00000000 		.4byte	0
 1850 0034 00000000 		.4byte	0
 1851              		.section	.debug_line,"",%progbits
 1852              	.Ldebug_line0:
 1853 0000 92020000 		.section	.debug_str,"MS",%progbits,1
 1853      02005E01 
 1853      00000201 
 1853      FB0E0D00 
 1853      01010101 
 1854              	.LASF86:
 1855 0000 4359424C 		.ascii	"CYBLE_EVT_L2CAP_CBFC_RX_CREDIT_IND\000"
 1855      455F4556 
 1855      545F4C32 
 1855      4341505F 
 1855      43424643 
 1856              	.LASF27:
 1857 0023 4359424C 		.ascii	"CYBLE_EVT_STACK_BUSY_STATUS\000"
 1857      455F4556 
 1857      545F5354 
 1857      41434B5F 
 1857      42555359 
 1858              	.LASF122:
 1859 003f 6D6F6462 		.ascii	"modbus.c\000"
 1859      75732E63 
 1859      00
ARM GAS  C:\Users\alexport\AppData\Local\Temp\ccBjgELh.s 			page 37


 1860              	.LASF14:
 1861 0048 75696E74 		.ascii	"uint16\000"
 1861      313600
 1862              	.LASF85:
 1863 004f 4359424C 		.ascii	"CYBLE_EVT_L2CAP_CBFC_DATA_READ\000"
 1863      455F4556 
 1863      545F4C32 
 1863      4341505F 
 1863      43424643 
 1864              	.LASF39:
 1865 006e 4359424C 		.ascii	"CYBLE_EVT_GAP_CONNECTION_UPDATE_COMPLETE\000"
 1865      455F4556 
 1865      545F4741 
 1865      505F434F 
 1865      4E4E4543 
 1866              	.LASF84:
 1867 0097 4359424C 		.ascii	"CYBLE_EVT_L2CAP_CBFC_DISCONN_CNF\000"
 1867      455F4556 
 1867      545F4C32 
 1867      4341505F 
 1867      43424643 
 1868              	.LASF44:
 1869 00b8 4359424C 		.ascii	"CYBLE_EVT_GAP_OOB_GENERATED_NOTIFICATION\000"
 1869      455F4556 
 1869      545F4741 
 1869      505F4F4F 
 1869      425F4745 
 1870              	.LASF64:
 1871 00e1 4359424C 		.ascii	"CYBLE_EVT_GATTC_READ_MULTI_RSP\000"
 1871      455F4556 
 1871      545F4741 
 1871      5454435F 
 1871      52454144 
 1872              	.LASF3:
 1873 0100 5F5F7569 		.ascii	"__uint8_t\000"
 1873      6E74385F 
 1873      7400
 1874              	.LASF104:
 1875 010a 536C6176 		.ascii	"SlaveAddress\000"
 1875      65416464 
 1875      72657373 
 1875      00
 1876              	.LASF24:
 1877 0117 4359424C 		.ascii	"CYBLE_EVT_TIMEOUT\000"
 1877      455F4556 
 1877      545F5449 
 1877      4D454F55 
 1877      5400
 1878              	.LASF6:
 1879 0129 6C6F6E67 		.ascii	"long int\000"
 1879      20696E74 
 1879      00
 1880              	.LASF9:
 1881 0132 6C6F6E67 		.ascii	"long long unsigned int\000"
 1881      206C6F6E 
 1881      6720756E 
 1881      7369676E 
ARM GAS  C:\Users\alexport\AppData\Local\Temp\ccBjgELh.s 			page 38


 1881      65642069 
 1882              	.LASF26:
 1883 0149 4359424C 		.ascii	"CYBLE_EVT_HCI_STATUS\000"
 1883      455F4556 
 1883      545F4843 
 1883      495F5354 
 1883      41545553 
 1884              	.LASF89:
 1885 015e 4359424C 		.ascii	"CYBLE_EVT_PENDING_FLASH_WRITE\000"
 1885      455F4556 
 1885      545F5045 
 1885      4E44494E 
 1885      475F464C 
 1886              	.LASF78:
 1887 017c 4359424C 		.ascii	"CYBLE_EVT_L2CAP_CONN_PARAM_UPDATE_REQ\000"
 1887      455F4556 
 1887      545F4C32 
 1887      4341505F 
 1887      434F4E4E 
 1888              	.LASF38:
 1889 01a2 4359424C 		.ascii	"CYBLE_EVT_GAP_ENCRYPT_CHANGE\000"
 1889      455F4556 
 1889      545F4741 
 1889      505F454E 
 1889      43525950 
 1890              	.LASF120:
 1891 01bf 62797465 		.ascii	"bytesIn\000"
 1891      73496E00 
 1892              	.LASF42:
 1893 01c7 4359424C 		.ascii	"CYBLE_EVT_GAP_NUMERIC_COMPARISON_REQUEST\000"
 1893      455F4556 
 1893      545F4741 
 1893      505F4E55 
 1893      4D455249 
 1894              	.LASF8:
 1895 01f0 6C6F6E67 		.ascii	"long long int\000"
 1895      206C6F6E 
 1895      6720696E 
 1895      7400
 1896              	.LASF0:
 1897 01fe 7369676E 		.ascii	"signed char\000"
 1897      65642063 
 1897      68617200 
 1898              	.LASF23:
 1899 020a 4359424C 		.ascii	"CYBLE_EVT_STACK_ON\000"
 1899      455F4556 
 1899      545F5354 
 1899      41434B5F 
 1899      4F4E00
 1900              	.LASF40:
 1901 021d 4359424C 		.ascii	"CYBLE_EVT_GAPC_SCAN_START_STOP\000"
 1901      455F4556 
 1901      545F4741 
 1901      50435F53 
 1901      43414E5F 
 1902              	.LASF30:
 1903 023c 4359424C 		.ascii	"CYBLE_EVT_GAP_AUTH_REQ\000"
ARM GAS  C:\Users\alexport\AppData\Local\Temp\ccBjgELh.s 			page 39


 1903      455F4556 
 1903      545F4741 
 1903      505F4155 
 1903      54485F52 
 1904              	.LASF62:
 1905 0253 4359424C 		.ascii	"CYBLE_EVT_GATTC_READ_RSP\000"
 1905      455F4556 
 1905      545F4741 
 1905      5454435F 
 1905      52454144 
 1906              	.LASF67:
 1907 026c 4359424C 		.ascii	"CYBLE_EVT_GATTS_WRITE_CMD_REQ\000"
 1907      455F4556 
 1907      545F4741 
 1907      5454535F 
 1907      57524954 
 1908              	.LASF35:
 1909 028a 4359424C 		.ascii	"CYBLE_EVT_GAPP_ADVERTISEMENT_START_STOP\000"
 1909      455F4556 
 1909      545F4741 
 1909      50505F41 
 1909      44564552 
 1910              	.LASF56:
 1911 02b2 4359424C 		.ascii	"CYBLE_EVT_GATTS_XCNHG_MTU_REQ\000"
 1911      455F4556 
 1911      545F4741 
 1911      5454535F 
 1911      58434E48 
 1912              	.LASF13:
 1913 02d0 75696E74 		.ascii	"uint8\000"
 1913      3800
 1914              	.LASF70:
 1915 02d6 4359424C 		.ascii	"CYBLE_EVT_GATTC_EXEC_WRITE_RSP\000"
 1915      455F4556 
 1915      545F4741 
 1915      5454435F 
 1915      45584543 
 1916              	.LASF17:
 1917 02f5 646F7562 		.ascii	"double\000"
 1917      6C6500
 1918              	.LASF98:
 1919 02fc 4359424C 		.ascii	"CYBLE_DIS_FIRMWARE_REV\000"
 1919      455F4449 
 1919      535F4649 
 1919      524D5741 
 1919      52455F52 
 1920              	.LASF15:
 1921 0313 75696E74 		.ascii	"uint32\000"
 1921      333200
 1922              	.LASF110:
 1923 031a 62797465 		.ascii	"bytes\000"
 1923      7300
 1924              	.LASF113:
 1925 0320 6D6F6462 		.ascii	"modbusFlush\000"
 1925      7573466C 
 1925      75736800 
 1926              	.LASF97:
ARM GAS  C:\Users\alexport\AppData\Local\Temp\ccBjgELh.s 			page 40


 1927 032c 4359424C 		.ascii	"CYBLE_DIS_HARDWARE_REV\000"
 1927      455F4449 
 1927      535F4841 
 1927      52445741 
 1927      52455F52 
 1928              	.LASF93:
 1929 0343 4359424C 		.ascii	"CYBLE_EVT_MAX\000"
 1929      455F4556 
 1929      545F4D41 
 1929      5800
 1930              	.LASF105:
 1931 0351 4D6F6465 		.ascii	"Mode\000"
 1931      00
 1932              	.LASF88:
 1933 0356 4359424C 		.ascii	"CYBLE_EVT_L2CAP_CBFC_DATA_WRITE_IND\000"
 1933      455F4556 
 1933      545F4C32 
 1933      4341505F 
 1933      43424643 
 1934              	.LASF50:
 1935 037a 4359424C 		.ascii	"CYBLE_EVT_GAP_SCAN_REQ_RECVD\000"
 1935      455F4556 
 1935      545F4741 
 1935      505F5343 
 1935      414E5F52 
 1936              	.LASF75:
 1937 0397 4359424C 		.ascii	"CYBLE_EVT_GATTC_STOP_CMD_COMPLETE\000"
 1937      455F4556 
 1937      545F4741 
 1937      5454435F 
 1937      53544F50 
 1938              	.LASF10:
 1939 03b9 756E7369 		.ascii	"unsigned int\000"
 1939      676E6564 
 1939      20696E74 
 1939      00
 1940              	.LASF90:
 1941 03c6 4359424C 		.ascii	"CYBLE_EVT_LE_PING_AUTH_TIMEOUT\000"
 1941      455F4556 
 1941      545F4C45 
 1941      5F50494E 
 1941      475F4155 
 1942              	.LASF12:
 1943 03e5 75696E74 		.ascii	"uint16_t\000"
 1943      31365F74 
 1943      00
 1944              	.LASF7:
 1945 03ee 6C6F6E67 		.ascii	"long unsigned int\000"
 1945      20756E73 
 1945      69676E65 
 1945      6420696E 
 1945      7400
 1946              	.LASF49:
 1947 0400 4359424C 		.ascii	"CYBLE_EVT_GAP_CONN_ESTB\000"
 1947      455F4556 
 1947      545F4741 
 1947      505F434F 
ARM GAS  C:\Users\alexport\AppData\Local\Temp\ccBjgELh.s 			page 41


 1947      4E4E5F45 
 1948              	.LASF65:
 1949 0418 4359424C 		.ascii	"CYBLE_EVT_GATTS_WRITE_REQ\000"
 1949      455F4556 
 1949      545F4741 
 1949      5454535F 
 1949      57524954 
 1950              	.LASF57:
 1951 0432 4359424C 		.ascii	"CYBLE_EVT_GATTC_XCHNG_MTU_RSP\000"
 1951      455F4556 
 1951      545F4741 
 1951      5454435F 
 1951      5843484E 
 1952              	.LASF74:
 1953 0450 4359424C 		.ascii	"CYBLE_EVT_GATTS_DATA_SIGNED_CMD_REQ\000"
 1953      455F4556 
 1953      545F4741 
 1953      5454535F 
 1953      44415441 
 1954              	.LASF77:
 1955 0474 4359424C 		.ascii	"CYBLE_EVT_GATTC_LONG_PROCEDURE_END\000"
 1955      455F4556 
 1955      545F4741 
 1955      5454435F 
 1955      4C4F4E47 
 1956              	.LASF112:
 1957 0497 64617461 		.ascii	"data\000"
 1957      00
 1958              	.LASF116:
 1959 049c 6372634C 		.ascii	"crcLow\000"
 1959      6F7700
 1960              	.LASF108:
 1961 04a3 6D6F6462 		.ascii	"modbusSend\000"
 1961      75735365 
 1961      6E6400
 1962              	.LASF22:
 1963 04ae 4359424C 		.ascii	"CYBLE_EVT_HOST_INVALID\000"
 1963      455F4556 
 1963      545F484F 
 1963      53545F49 
 1963      4E56414C 
 1964              	.LASF60:
 1965 04c5 4359424C 		.ascii	"CYBLE_EVT_GATTC_FIND_INFO_RSP\000"
 1965      455F4556 
 1965      545F4741 
 1965      5454435F 
 1965      46494E44 
 1966              	.LASF28:
 1967 04e3 4359424C 		.ascii	"CYBLE_EVT_MEMORY_REQUEST\000"
 1967      455F4556 
 1967      545F4D45 
 1967      4D4F5259 
 1967      5F524551 
 1968              	.LASF69:
 1969 04fc 4359424C 		.ascii	"CYBLE_EVT_GATTS_EXEC_WRITE_REQ\000"
 1969      455F4556 
 1969      545F4741 
ARM GAS  C:\Users\alexport\AppData\Local\Temp\ccBjgELh.s 			page 42


 1969      5454535F 
 1969      45584543 
 1970              	.LASF31:
 1971 051b 4359424C 		.ascii	"CYBLE_EVT_GAP_PASSKEY_ENTRY_REQUEST\000"
 1971      455F4556 
 1971      545F4741 
 1971      505F5041 
 1971      53534B45 
 1972              	.LASF36:
 1973 053f 4359424C 		.ascii	"CYBLE_EVT_GAP_DEVICE_CONNECTED\000"
 1973      455F4556 
 1973      545F4741 
 1973      505F4445 
 1973      56494345 
 1974              	.LASF51:
 1975 055e 4359424C 		.ascii	"CYBLE_EVT_GAP_AUTH_REQ_REPLY_ERR\000"
 1975      455F4556 
 1975      545F4741 
 1975      505F4155 
 1975      54485F52 
 1976              	.LASF115:
 1977 057f 63726348 		.ascii	"crcHigh\000"
 1977      69676800 
 1978              	.LASF102:
 1979 0587 4359424C 		.ascii	"CYBLE_DIS_PNP_ID\000"
 1979      455F4449 
 1979      535F504E 
 1979      505F4944 
 1979      00
 1980              	.LASF121:
 1981 0598 474E5520 		.ascii	"GNU C11 5.4.1 20160609 (release) [ARM/embedded-5-br"
 1981      43313120 
 1981      352E342E 
 1981      31203230 
 1981      31363036 
 1982 05cb 616E6368 		.ascii	"anch revision 237715] -mcpu=cortex-m0 -mthumb -g -O"
 1982      20726576 
 1982      6973696F 
 1982      6E203233 
 1982      37373135 
 1983 05fe 30202D66 		.ascii	"0 -ffunction-sections -ffat-lto-objects\000"
 1983      66756E63 
 1983      74696F6E 
 1983      2D736563 
 1983      74696F6E 
 1984              	.LASF54:
 1985 0626 4359424C 		.ascii	"CYBLE_EVT_GATT_CONNECT_IND\000"
 1985      455F4556 
 1985      545F4741 
 1985      54545F43 
 1985      4F4E4E45 
 1986              	.LASF80:
 1987 0641 4359424C 		.ascii	"CYBLE_EVT_L2CAP_COMMAND_REJ\000"
 1987      455F4556 
 1987      545F4C32 
 1987      4341505F 
 1987      434F4D4D 
ARM GAS  C:\Users\alexport\AppData\Local\Temp\ccBjgELh.s 			page 43


 1988              	.LASF19:
 1989 065d 72656733 		.ascii	"reg32\000"
 1989      3200
 1990              	.LASF29:
 1991 0663 4359424C 		.ascii	"CYBLE_EVT_GAPC_SCAN_PROGRESS_RESULT\000"
 1991      455F4556 
 1991      545F4741 
 1991      50435F53 
 1991      43414E5F 
 1992              	.LASF100:
 1993 0687 4359424C 		.ascii	"CYBLE_DIS_SYSTEM_ID\000"
 1993      455F4449 
 1993      535F5359 
 1993      5354454D 
 1993      5F494400 
 1994              	.LASF52:
 1995 069b 4359424C 		.ascii	"CYBLE_EVT_GAP_SMP_LOC_P256_KEYS_GEN_AND_SET_COMPLET"
 1995      455F4556 
 1995      545F4741 
 1995      505F534D 
 1995      505F4C4F 
 1996 06ce 4500     		.ascii	"E\000"
 1997              	.LASF81:
 1998 06d0 4359424C 		.ascii	"CYBLE_EVT_L2CAP_CBFC_CONN_IND\000"
 1998      455F4556 
 1998      545F4C32 
 1998      4341505F 
 1998      43424643 
 1999              	.LASF59:
 2000 06ee 4359424C 		.ascii	"CYBLE_EVT_GATTC_READ_BY_TYPE_RSP\000"
 2000      455F4556 
 2000      545F4741 
 2000      5454435F 
 2000      52454144 
 2001              	.LASF21:
 2002 070f 73697A65 		.ascii	"sizetype\000"
 2002      74797065 
 2002      00
 2003              	.LASF34:
 2004 0718 4359424C 		.ascii	"CYBLE_EVT_GAP_AUTH_FAILED\000"
 2004      455F4556 
 2004      545F4741 
 2004      505F4155 
 2004      54485F46 
 2005              	.LASF66:
 2006 0732 4359424C 		.ascii	"CYBLE_EVT_GATTC_WRITE_RSP\000"
 2006      455F4556 
 2006      545F4741 
 2006      5454435F 
 2006      57524954 
 2007              	.LASF47:
 2008 074c 4359424C 		.ascii	"CYBLE_EVT_GAPC_DIRECT_ADV_REPORT\000"
 2008      455F4556 
 2008      545F4741 
 2008      50435F44 
 2008      49524543 
 2009              	.LASF45:
ARM GAS  C:\Users\alexport\AppData\Local\Temp\ccBjgELh.s 			page 44


 2010 076d 4359424C 		.ascii	"CYBLE_EVT_GAP_DATA_LENGTH_CHANGE\000"
 2010      455F4556 
 2010      545F4741 
 2010      505F4441 
 2010      54415F4C 
 2011              	.LASF33:
 2012 078e 4359424C 		.ascii	"CYBLE_EVT_GAP_AUTH_COMPLETE\000"
 2012      455F4556 
 2012      545F4741 
 2012      505F4155 
 2012      54485F43 
 2013              	.LASF71:
 2014 07aa 4359424C 		.ascii	"CYBLE_EVT_GATTC_HANDLE_VALUE_NTF\000"
 2014      455F4556 
 2014      545F4741 
 2014      5454435F 
 2014      48414E44 
 2015              	.LASF101:
 2016 07cb 4359424C 		.ascii	"CYBLE_DIS_REG_CERT_DATA\000"
 2016      455F4449 
 2016      535F5245 
 2016      475F4345 
 2016      52545F44 
 2017              	.LASF82:
 2018 07e3 4359424C 		.ascii	"CYBLE_EVT_L2CAP_CBFC_CONN_CNF\000"
 2018      455F4556 
 2018      545F4C32 
 2018      4341505F 
 2018      43424643 
 2019              	.LASF114:
 2020 0801 6D73676C 		.ascii	"msglen\000"
 2020      656E00
 2021              	.LASF58:
 2022 0808 4359424C 		.ascii	"CYBLE_EVT_GATTC_READ_BY_GROUP_TYPE_RSP\000"
 2022      455F4556 
 2022      545F4741 
 2022      5454435F 
 2022      52454144 
 2023              	.LASF16:
 2024 082f 666C6F61 		.ascii	"float\000"
 2024      7400
 2025              	.LASF118:
 2026 0835 6D6F6462 		.ascii	"modbus_rxBuffer\000"
 2026      75735F72 
 2026      78427566 
 2026      66657200 
 2027              	.LASF124:
 2028 0845 6D6F6462 		.ascii	"modbus_GenerateCRC\000"
 2028      75735F47 
 2028      656E6572 
 2028      61746543 
 2028      524300
 2029              	.LASF111:
 2030 0858 6D6F6462 		.ascii	"modbusWriteResponse\000"
 2030      75735772 
 2030      69746552 
 2030      6573706F 
ARM GAS  C:\Users\alexport\AppData\Local\Temp\ccBjgELh.s 			page 45


 2030      6E736500 
 2031              	.LASF96:
 2032 086c 4359424C 		.ascii	"CYBLE_DIS_SERIAL_NUMBER\000"
 2032      455F4449 
 2032      535F5345 
 2032      5249414C 
 2032      5F4E554D 
 2033              	.LASF1:
 2034 0884 756E7369 		.ascii	"unsigned char\000"
 2034      676E6564 
 2034      20636861 
 2034      7200
 2035              	.LASF103:
 2036 0892 4359424C 		.ascii	"CYBLE_DIS_CHAR_COUNT\000"
 2036      455F4449 
 2036      535F4348 
 2036      41525F43 
 2036      4F554E54 
 2037              	.LASF125:
 2038 08a7 6D6F6462 		.ascii	"modbus_Reset\000"
 2038      75735F52 
 2038      65736574 
 2038      00
 2039              	.LASF2:
 2040 08b4 73686F72 		.ascii	"short int\000"
 2040      7420696E 
 2040      7400
 2041              	.LASF72:
 2042 08be 4359424C 		.ascii	"CYBLE_EVT_GATTC_HANDLE_VALUE_IND\000"
 2042      455F4556 
 2042      545F4741 
 2042      5454435F 
 2042      48414E44 
 2043              	.LASF109:
 2044 08df 6D6F6462 		.ascii	"modbusSendBulk\000"
 2044      75735365 
 2044      6E644275 
 2044      6C6B00
 2045              	.LASF91:
 2046 08ee 4359424C 		.ascii	"CYBLE_EVT_HCI_PKT\000"
 2046      455F4556 
 2046      545F4843 
 2046      495F504B 
 2046      5400
 2047              	.LASF99:
 2048 0900 4359424C 		.ascii	"CYBLE_DIS_SOFTWARE_REV\000"
 2048      455F4449 
 2048      535F534F 
 2048      46545741 
 2048      52455F52 
 2049              	.LASF68:
 2050 0917 4359424C 		.ascii	"CYBLE_EVT_GATTS_PREP_WRITE_REQ\000"
 2050      455F4556 
 2050      545F4741 
 2050      5454535F 
 2050      50524550 
 2051              	.LASF73:
ARM GAS  C:\Users\alexport\AppData\Local\Temp\ccBjgELh.s 			page 46


 2052 0936 4359424C 		.ascii	"CYBLE_EVT_GATTS_HANDLE_VALUE_CNF\000"
 2052      455F4556 
 2052      545F4741 
 2052      5454535F 
 2052      48414E44 
 2053              	.LASF53:
 2054 0957 4359424C 		.ascii	"CYBLE_EVT_GATTC_ERROR_RSP\000"
 2054      455F4556 
 2054      545F4741 
 2054      5454435F 
 2054      4552524F 
 2055              	.LASF48:
 2056 0971 4359424C 		.ascii	"CYBLE_EVT_GAP_SMP_NEGOTIATED_AUTH_INFO\000"
 2056      455F4556 
 2056      545F4741 
 2056      505F534D 
 2056      505F4E45 
 2057              	.LASF117:
 2058 0998 6D6F6462 		.ascii	"modbusRequestReceived\000"
 2058      75735265 
 2058      71756573 
 2058      74526563 
 2058      65697665 
 2059              	.LASF107:
 2060 09ae 52656743 		.ascii	"RegCount\000"
 2060      6F756E74 
 2060      00
 2061              	.LASF20:
 2062 09b7 6C6F6E67 		.ascii	"long double\000"
 2062      20646F75 
 2062      626C6500 
 2063              	.LASF92:
 2064 09c3 4359424C 		.ascii	"CYBLE_EVT_FLASH_CORRUPT\000"
 2064      455F4556 
 2064      545F464C 
 2064      4153485F 
 2064      434F5252 
 2065              	.LASF95:
 2066 09db 4359424C 		.ascii	"CYBLE_DIS_MODEL_NUMBER\000"
 2066      455F4449 
 2066      535F4D4F 
 2066      44454C5F 
 2066      4E554D42 
 2067              	.LASF18:
 2068 09f2 63686172 		.ascii	"char\000"
 2068      00
 2069              	.LASF37:
 2070 09f7 4359424C 		.ascii	"CYBLE_EVT_GAP_DEVICE_DISCONNECTED\000"
 2070      455F4556 
 2070      545F4741 
 2070      505F4445 
 2070      56494345 
 2071              	.LASF4:
 2072 0a19 5F5F7569 		.ascii	"__uint16_t\000"
 2072      6E743136 
 2072      5F7400
 2073              	.LASF76:
ARM GAS  C:\Users\alexport\AppData\Local\Temp\ccBjgELh.s 			page 47


 2074 0a24 4359424C 		.ascii	"CYBLE_EVT_GATTS_READ_CHAR_VAL_ACCESS_REQ\000"
 2074      455F4556 
 2074      545F4741 
 2074      5454535F 
 2074      52454144 
 2075              	.LASF43:
 2076 0a4d 4359424C 		.ascii	"CYBLE_EVT_GAP_KEYPRESS_NOTIFICATION\000"
 2076      455F4556 
 2076      545F4741 
 2076      505F4B45 
 2076      59505245 
 2077              	.LASF87:
 2078 0a71 4359424C 		.ascii	"CYBLE_EVT_L2CAP_CBFC_TX_CREDIT_IND\000"
 2078      455F4556 
 2078      545F4C32 
 2078      4341505F 
 2078      43424643 
 2079              	.LASF63:
 2080 0a94 4359424C 		.ascii	"CYBLE_EVT_GATTC_READ_BLOB_RSP\000"
 2080      455F4556 
 2080      545F4741 
 2080      5454435F 
 2080      52454144 
 2081              	.LASF106:
 2082 0ab2 53746172 		.ascii	"StartRegAddress\000"
 2082      74526567 
 2082      41646472 
 2082      65737300 
 2083              	.LASF32:
 2084 0ac2 4359424C 		.ascii	"CYBLE_EVT_GAP_PASSKEY_DISPLAY_REQUEST\000"
 2084      455F4556 
 2084      545F4741 
 2084      505F5041 
 2084      53534B45 
 2085              	.LASF25:
 2086 0ae8 4359424C 		.ascii	"CYBLE_EVT_HARDWARE_ERROR\000"
 2086      455F4556 
 2086      545F4841 
 2086      52445741 
 2086      52455F45 
 2087              	.LASF5:
 2088 0b01 73686F72 		.ascii	"short unsigned int\000"
 2088      7420756E 
 2088      7369676E 
 2088      65642069 
 2088      6E7400
 2089              	.LASF123:
 2090 0b14 433A5C55 		.ascii	"C:\\Users\\alexport\\OneDrive - Safeguard Analytics"
 2090      73657273 
 2090      5C616C65 
 2090      78706F72 
 2090      745C4F6E 
 2091 0b44 5C53412D 		.ascii	"\\SA-220\\SA-220.cydsn\000"
 2091      3232305C 
 2091      53412D32 
 2091      32302E63 
 2091      7964736E 
ARM GAS  C:\Users\alexport\AppData\Local\Temp\ccBjgELh.s 			page 48


 2092              	.LASF11:
 2093 0b59 75696E74 		.ascii	"uint8_t\000"
 2093      385F7400 
 2094              	.LASF61:
 2095 0b61 4359424C 		.ascii	"CYBLE_EVT_GATTC_FIND_BY_TYPE_VALUE_RSP\000"
 2095      455F4556 
 2095      545F4741 
 2095      5454435F 
 2095      46494E44 
 2096              	.LASF41:
 2097 0b88 4359424C 		.ascii	"CYBLE_EVT_GAP_KEYINFO_EXCHNGE_CMPLT\000"
 2097      455F4556 
 2097      545F4741 
 2097      505F4B45 
 2097      59494E46 
 2098              	.LASF83:
 2099 0bac 4359424C 		.ascii	"CYBLE_EVT_L2CAP_CBFC_DISCONN_IND\000"
 2099      455F4556 
 2099      545F4C32 
 2099      4341505F 
 2099      43424643 
 2100              	.LASF79:
 2101 0bcd 4359424C 		.ascii	"CYBLE_EVT_L2CAP_CONN_PARAM_UPDATE_RSP\000"
 2101      455F4556 
 2101      545F4C32 
 2101      4341505F 
 2101      434F4E4E 
 2102              	.LASF46:
 2103 0bf3 4359424C 		.ascii	"CYBLE_EVT_GAP_ENHANCE_CONN_COMPLETE\000"
 2103      455F4556 
 2103      545F4741 
 2103      505F454E 
 2103      48414E43 
 2104              	.LASF94:
 2105 0c17 4359424C 		.ascii	"CYBLE_DIS_MANUFACTURER_NAME\000"
 2105      455F4449 
 2105      535F4D41 
 2105      4E554641 
 2105      43545552 
 2106              	.LASF55:
 2107 0c33 4359424C 		.ascii	"CYBLE_EVT_GATT_DISCONNECT_IND\000"
 2107      455F4556 
 2107      545F4741 
 2107      54545F44 
 2107      4953434F 
 2108              	.LASF119:
 2109 0c51 6D6F6462 		.ascii	"modbus_txBuffer\000"
 2109      75735F74 
 2109      78427566 
 2109      66657200 
 2110              		.ident	"GCC: (GNU Tools for ARM Embedded Processors) 5.4.1 20160609 (release) [ARM/embedded-5-bran
