ARM GAS  C:\Users\alexport\AppData\Local\Temp\ccH3icja.s 			page 1


   1              		.syntax unified
   2              		.cpu cortex-m0
   3              		.fpu softvfp
   4              		.eabi_attribute 20, 1
   5              		.eabi_attribute 21, 1
   6              		.eabi_attribute 23, 3
   7              		.eabi_attribute 24, 1
   8              		.eabi_attribute 25, 1
   9              		.eabi_attribute 26, 1
  10              		.eabi_attribute 30, 6
  11              		.eabi_attribute 34, 0
  12              		.eabi_attribute 18, 4
  13              		.thumb
  14              		.syntax unified
  15              		.file	"PM_ADC.c"
  16              		.text
  17              	.Ltext0:
  18              		.cfi_sections	.debug_frame
  19              		.global	PM_ADC_initVar
  20              		.bss
  21              		.type	PM_ADC_initVar, %object
  22              		.size	PM_ADC_initVar, 1
  23              	PM_ADC_initVar:
  24 0000 00       		.space	1
  25              		.comm	PM_ADC_offset,2,4
  26              		.comm	PM_ADC_countsPer10Volt,4,4
  27              		.section	.rodata
  28              		.align	2
  29              		.type	PM_ADC_channelsConfig, %object
  30              		.size	PM_ADC_channelsConfig, 4
  31              	PM_ADC_channelsConfig:
  32 0000 00000000 		.space	4
  33              		.section	.text.PM_ADC_Start,"ax",%progbits
  34              		.align	2
  35              		.global	PM_ADC_Start
  36              		.code	16
  37              		.thumb_func
  38              		.type	PM_ADC_Start, %function
  39              	PM_ADC_Start:
  40              	.LFB2:
  41              		.file 1 "Generated_Source\\PSoC4\\PM_ADC.c"
   1:Generated_Source\PSoC4/PM_ADC.c **** /*******************************************************************************
   2:Generated_Source\PSoC4/PM_ADC.c **** * File Name: PM_ADC.c
   3:Generated_Source\PSoC4/PM_ADC.c **** * Version 2.50
   4:Generated_Source\PSoC4/PM_ADC.c **** *
   5:Generated_Source\PSoC4/PM_ADC.c **** * Description:
   6:Generated_Source\PSoC4/PM_ADC.c **** *  This file provides the source code to the API for the Sequencing Successive
   7:Generated_Source\PSoC4/PM_ADC.c **** *  Approximation ADC Component Component.
   8:Generated_Source\PSoC4/PM_ADC.c **** *
   9:Generated_Source\PSoC4/PM_ADC.c **** * Note:
  10:Generated_Source\PSoC4/PM_ADC.c **** *
  11:Generated_Source\PSoC4/PM_ADC.c **** ********************************************************************************
  12:Generated_Source\PSoC4/PM_ADC.c **** * Copyright 2008-2017, Cypress Semiconductor Corporation.  All rights reserved.
  13:Generated_Source\PSoC4/PM_ADC.c **** * You may use this file only in accordance with the license, terms, conditions,
  14:Generated_Source\PSoC4/PM_ADC.c **** * disclaimers, and limitations in the end user license agreement accompanying
  15:Generated_Source\PSoC4/PM_ADC.c **** * the software package with which this file was provided.
  16:Generated_Source\PSoC4/PM_ADC.c **** *******************************************************************************/
ARM GAS  C:\Users\alexport\AppData\Local\Temp\ccH3icja.s 			page 2


  17:Generated_Source\PSoC4/PM_ADC.c **** 
  18:Generated_Source\PSoC4/PM_ADC.c **** #include "PM_ADC.h"
  19:Generated_Source\PSoC4/PM_ADC.c **** 
  20:Generated_Source\PSoC4/PM_ADC.c **** 
  21:Generated_Source\PSoC4/PM_ADC.c **** /***************************************
  22:Generated_Source\PSoC4/PM_ADC.c **** * Global data allocation
  23:Generated_Source\PSoC4/PM_ADC.c **** ***************************************/
  24:Generated_Source\PSoC4/PM_ADC.c **** uint8 PM_ADC_initVar = 0u;
  25:Generated_Source\PSoC4/PM_ADC.c **** volatile int16 PM_ADC_offset[PM_ADC_TOTAL_CHANNELS_NUM];
  26:Generated_Source\PSoC4/PM_ADC.c **** volatile int32 PM_ADC_countsPer10Volt[PM_ADC_TOTAL_CHANNELS_NUM];   /* Gain compensation */
  27:Generated_Source\PSoC4/PM_ADC.c **** 
  28:Generated_Source\PSoC4/PM_ADC.c **** 
  29:Generated_Source\PSoC4/PM_ADC.c **** /***************************************
  30:Generated_Source\PSoC4/PM_ADC.c **** * Local data allocation
  31:Generated_Source\PSoC4/PM_ADC.c **** ***************************************/
  32:Generated_Source\PSoC4/PM_ADC.c **** /* Channels configuration generated by customiser */
  33:Generated_Source\PSoC4/PM_ADC.c **** static const uint32 CYCODE PM_ADC_channelsConfig[] = { 0x00000000u };
  34:Generated_Source\PSoC4/PM_ADC.c **** 
  35:Generated_Source\PSoC4/PM_ADC.c **** 
  36:Generated_Source\PSoC4/PM_ADC.c **** /*******************************************************************************
  37:Generated_Source\PSoC4/PM_ADC.c **** * Function Name: PM_ADC_Start
  38:Generated_Source\PSoC4/PM_ADC.c **** ********************************************************************************
  39:Generated_Source\PSoC4/PM_ADC.c **** *
  40:Generated_Source\PSoC4/PM_ADC.c **** * Summary:
  41:Generated_Source\PSoC4/PM_ADC.c **** *  Performs all required initialization for this component
  42:Generated_Source\PSoC4/PM_ADC.c **** *  and enables the power. The power will be set to the appropriate
  43:Generated_Source\PSoC4/PM_ADC.c **** *  power based on the clock frequency.
  44:Generated_Source\PSoC4/PM_ADC.c **** *
  45:Generated_Source\PSoC4/PM_ADC.c **** * Parameters:
  46:Generated_Source\PSoC4/PM_ADC.c **** *  None.
  47:Generated_Source\PSoC4/PM_ADC.c **** *
  48:Generated_Source\PSoC4/PM_ADC.c **** * Return:
  49:Generated_Source\PSoC4/PM_ADC.c **** *  None.
  50:Generated_Source\PSoC4/PM_ADC.c **** *
  51:Generated_Source\PSoC4/PM_ADC.c **** * Global variables:
  52:Generated_Source\PSoC4/PM_ADC.c **** *  The PM_ADC_initVar variable is used to indicate when/if initial
  53:Generated_Source\PSoC4/PM_ADC.c **** *  configuration of this component has happened. The variable is initialized to
  54:Generated_Source\PSoC4/PM_ADC.c **** *  zero and set to 1 the first time ADC_Start() is called. This allows for
  55:Generated_Source\PSoC4/PM_ADC.c **** *  component Re-Start without re-initialization in all subsequent calls to the
  56:Generated_Source\PSoC4/PM_ADC.c **** *  PM_ADC_Start() routine.
  57:Generated_Source\PSoC4/PM_ADC.c **** *  If re-initialization of the component is required the variable should be set
  58:Generated_Source\PSoC4/PM_ADC.c **** *  to zero before call of PM_ADC_Start() routine, or the user may call
  59:Generated_Source\PSoC4/PM_ADC.c **** *  PM_ADC_Init() and PM_ADC_Enable() as done in the
  60:Generated_Source\PSoC4/PM_ADC.c **** *  PM_ADC_Start() routine.
  61:Generated_Source\PSoC4/PM_ADC.c **** *
  62:Generated_Source\PSoC4/PM_ADC.c **** *******************************************************************************/
  63:Generated_Source\PSoC4/PM_ADC.c **** void PM_ADC_Start(void)
  64:Generated_Source\PSoC4/PM_ADC.c **** {
  42              		.loc 1 64 0
  43              		.cfi_startproc
  44              		@ args = 0, pretend = 0, frame = 0
  45              		@ frame_needed = 1, uses_anonymous_args = 0
  46 0000 80B5     		push	{r7, lr}
  47              		.cfi_def_cfa_offset 8
  48              		.cfi_offset 7, -8
  49              		.cfi_offset 14, -4
  50 0002 00AF     		add	r7, sp, #0
ARM GAS  C:\Users\alexport\AppData\Local\Temp\ccH3icja.s 			page 3


  51              		.cfi_def_cfa_register 7
  65:Generated_Source\PSoC4/PM_ADC.c ****     /* If not Initialized then initialize all required hardware and software */
  66:Generated_Source\PSoC4/PM_ADC.c ****     if(PM_ADC_initVar == 0u)
  52              		.loc 1 66 0
  53 0004 064B     		ldr	r3, .L3
  54 0006 1B78     		ldrb	r3, [r3]
  55 0008 002B     		cmp	r3, #0
  56 000a 04D1     		bne	.L2
  67:Generated_Source\PSoC4/PM_ADC.c ****     {
  68:Generated_Source\PSoC4/PM_ADC.c ****         PM_ADC_Init();
  57              		.loc 1 68 0
  58 000c FFF7FEFF 		bl	PM_ADC_Init
  69:Generated_Source\PSoC4/PM_ADC.c ****         PM_ADC_initVar = 1u;
  59              		.loc 1 69 0
  60 0010 034B     		ldr	r3, .L3
  61 0012 0122     		movs	r2, #1
  62 0014 1A70     		strb	r2, [r3]
  63              	.L2:
  70:Generated_Source\PSoC4/PM_ADC.c ****     }
  71:Generated_Source\PSoC4/PM_ADC.c ****     PM_ADC_Enable();
  64              		.loc 1 71 0
  65 0016 FFF7FEFF 		bl	PM_ADC_Enable
  72:Generated_Source\PSoC4/PM_ADC.c **** }
  66              		.loc 1 72 0
  67 001a C046     		nop
  68 001c BD46     		mov	sp, r7
  69              		@ sp needed
  70 001e 80BD     		pop	{r7, pc}
  71              	.L4:
  72              		.align	2
  73              	.L3:
  74 0020 00000000 		.word	PM_ADC_initVar
  75              		.cfi_endproc
  76              	.LFE2:
  77              		.size	PM_ADC_Start, .-PM_ADC_Start
  78              		.global	__aeabi_idiv
  79              		.section	.text.PM_ADC_Init,"ax",%progbits
  80              		.align	2
  81              		.global	PM_ADC_Init
  82              		.code	16
  83              		.thumb_func
  84              		.type	PM_ADC_Init, %function
  85              	PM_ADC_Init:
  86              	.LFB3:
  73:Generated_Source\PSoC4/PM_ADC.c **** 
  74:Generated_Source\PSoC4/PM_ADC.c **** 
  75:Generated_Source\PSoC4/PM_ADC.c **** /*******************************************************************************
  76:Generated_Source\PSoC4/PM_ADC.c **** * Function Name: PM_ADC_Init
  77:Generated_Source\PSoC4/PM_ADC.c **** ********************************************************************************
  78:Generated_Source\PSoC4/PM_ADC.c **** *
  79:Generated_Source\PSoC4/PM_ADC.c **** * Summary:
  80:Generated_Source\PSoC4/PM_ADC.c **** *  Initialize component's parameters to the parameters set by user in the
  81:Generated_Source\PSoC4/PM_ADC.c **** *  customizer of the component placed onto schematic. Usually called in
  82:Generated_Source\PSoC4/PM_ADC.c **** *  PM_ADC_Start().
  83:Generated_Source\PSoC4/PM_ADC.c **** *
  84:Generated_Source\PSoC4/PM_ADC.c **** * Parameters:
  85:Generated_Source\PSoC4/PM_ADC.c **** *  None.
ARM GAS  C:\Users\alexport\AppData\Local\Temp\ccH3icja.s 			page 4


  86:Generated_Source\PSoC4/PM_ADC.c **** *
  87:Generated_Source\PSoC4/PM_ADC.c **** * Return:
  88:Generated_Source\PSoC4/PM_ADC.c **** *  None.
  89:Generated_Source\PSoC4/PM_ADC.c **** *
  90:Generated_Source\PSoC4/PM_ADC.c **** * Global variables:
  91:Generated_Source\PSoC4/PM_ADC.c **** *  The PM_ADC_offset variable is initialized.
  92:Generated_Source\PSoC4/PM_ADC.c **** *
  93:Generated_Source\PSoC4/PM_ADC.c **** *******************************************************************************/
  94:Generated_Source\PSoC4/PM_ADC.c **** void PM_ADC_Init(void)
  95:Generated_Source\PSoC4/PM_ADC.c **** {
  87              		.loc 1 95 0
  88              		.cfi_startproc
  89              		@ args = 0, pretend = 0, frame = 16
  90              		@ frame_needed = 1, uses_anonymous_args = 0
  91 0000 80B5     		push	{r7, lr}
  92              		.cfi_def_cfa_offset 8
  93              		.cfi_offset 7, -8
  94              		.cfi_offset 14, -4
  95 0002 84B0     		sub	sp, sp, #16
  96              		.cfi_def_cfa_offset 24
  97 0004 00AF     		add	r7, sp, #0
  98              		.cfi_def_cfa_register 7
  96:Generated_Source\PSoC4/PM_ADC.c ****     uint32 chNum;
  97:Generated_Source\PSoC4/PM_ADC.c ****     uint32 tmpRegVal;
  98:Generated_Source\PSoC4/PM_ADC.c ****     int32 counts;
  99:Generated_Source\PSoC4/PM_ADC.c **** 
 100:Generated_Source\PSoC4/PM_ADC.c ****     #if(PM_ADC_TOTAL_CHANNELS_NUM > 1u)
 101:Generated_Source\PSoC4/PM_ADC.c ****         static const uint8 CYCODE PM_ADC_InputsPlacement[] =
 102:Generated_Source\PSoC4/PM_ADC.c ****         {
 103:Generated_Source\PSoC4/PM_ADC.c ****             (uint8)(PM_ADC_cy_psoc4_sarmux_8__CH_0_PORT << 4u) |
 104:Generated_Source\PSoC4/PM_ADC.c ****             (uint8)PM_ADC_cy_psoc4_sarmux_8__CH_0_PIN
 105:Generated_Source\PSoC4/PM_ADC.c ****             ,(uint8)(PM_ADC_cy_psoc4_sarmux_8__CH_1_PORT << 4u) |
 106:Generated_Source\PSoC4/PM_ADC.c ****              (uint8)PM_ADC_cy_psoc4_sarmux_8__CH_1_PIN
 107:Generated_Source\PSoC4/PM_ADC.c ****             #if(PM_ADC_TOTAL_CHANNELS_NUM > 2u)
 108:Generated_Source\PSoC4/PM_ADC.c ****                 ,(uint8)(PM_ADC_cy_psoc4_sarmux_8__CH_2_PORT << 4u) |
 109:Generated_Source\PSoC4/PM_ADC.c ****                  (uint8)PM_ADC_cy_psoc4_sarmux_8__CH_2_PIN
 110:Generated_Source\PSoC4/PM_ADC.c ****             #endif /* End PM_ADC_TOTAL_CHANNELS_NUM > 2u */
 111:Generated_Source\PSoC4/PM_ADC.c ****             #if(PM_ADC_TOTAL_CHANNELS_NUM > 3u)
 112:Generated_Source\PSoC4/PM_ADC.c ****                 ,(uint8)(PM_ADC_cy_psoc4_sarmux_8__CH_3_PORT << 4u) |
 113:Generated_Source\PSoC4/PM_ADC.c ****                  (uint8)PM_ADC_cy_psoc4_sarmux_8__CH_3_PIN
 114:Generated_Source\PSoC4/PM_ADC.c ****             #endif /* End PM_ADC_TOTAL_CHANNELS_NUM > 3u */
 115:Generated_Source\PSoC4/PM_ADC.c ****             #if(PM_ADC_TOTAL_CHANNELS_NUM > 4u)
 116:Generated_Source\PSoC4/PM_ADC.c ****                 ,(uint8)(PM_ADC_cy_psoc4_sarmux_8__CH_4_PORT << 4u) |
 117:Generated_Source\PSoC4/PM_ADC.c ****                  (uint8)PM_ADC_cy_psoc4_sarmux_8__CH_4_PIN
 118:Generated_Source\PSoC4/PM_ADC.c ****             #endif /* End PM_ADC_TOTAL_CHANNELS_NUM > 4u */
 119:Generated_Source\PSoC4/PM_ADC.c ****             #if(PM_ADC_TOTAL_CHANNELS_NUM > 5u)
 120:Generated_Source\PSoC4/PM_ADC.c ****                 ,(uint8)(PM_ADC_cy_psoc4_sarmux_8__CH_5_PORT << 4u) |
 121:Generated_Source\PSoC4/PM_ADC.c ****                  (uint8)PM_ADC_cy_psoc4_sarmux_8__CH_5_PIN
 122:Generated_Source\PSoC4/PM_ADC.c ****             #endif /* End PM_ADC_TOTAL_CHANNELS_NUM > 5u */
 123:Generated_Source\PSoC4/PM_ADC.c ****             #if(PM_ADC_TOTAL_CHANNELS_NUM > 6u)
 124:Generated_Source\PSoC4/PM_ADC.c ****                 ,(uint8)(PM_ADC_cy_psoc4_sarmux_8__CH_6_PORT << 4u) |
 125:Generated_Source\PSoC4/PM_ADC.c ****                  (uint8)PM_ADC_cy_psoc4_sarmux_8__CH_6_PIN
 126:Generated_Source\PSoC4/PM_ADC.c ****             #endif /* End PM_ADC_TOTAL_CHANNELS_NUM > 6u */
 127:Generated_Source\PSoC4/PM_ADC.c ****             #if(PM_ADC_TOTAL_CHANNELS_NUM > 7u)
 128:Generated_Source\PSoC4/PM_ADC.c ****                 ,(uint8)(PM_ADC_cy_psoc4_sarmux_8__CH_7_PORT << 4u) |
 129:Generated_Source\PSoC4/PM_ADC.c ****                  (uint8)PM_ADC_cy_psoc4_sarmux_8__CH_7_PIN
 130:Generated_Source\PSoC4/PM_ADC.c ****             #endif /* End PM_ADC_TOTAL_CHANNELS_NUM > 7u */
ARM GAS  C:\Users\alexport\AppData\Local\Temp\ccH3icja.s 			page 5


 131:Generated_Source\PSoC4/PM_ADC.c ****             #if(PM_ADC_TOTAL_CHANNELS_NUM > 8u)
 132:Generated_Source\PSoC4/PM_ADC.c ****                 ,(uint8)(PM_ADC_cy_psoc4_sarmux_8__CH_8_PORT << 4u) |
 133:Generated_Source\PSoC4/PM_ADC.c ****                  (uint8)PM_ADC_cy_psoc4_sarmux_8__CH_8_PIN
 134:Generated_Source\PSoC4/PM_ADC.c ****             #endif /* End PM_ADC_TOTAL_CHANNELS_NUM > 8u */
 135:Generated_Source\PSoC4/PM_ADC.c ****             #if(PM_ADC_TOTAL_CHANNELS_NUM > 9u)
 136:Generated_Source\PSoC4/PM_ADC.c ****                 ,(uint8)(PM_ADC_cy_psoc4_sarmux_8__CH_9_PORT << 4u) |
 137:Generated_Source\PSoC4/PM_ADC.c ****                  (uint8)PM_ADC_cy_psoc4_sarmux_8__CH_9_PIN
 138:Generated_Source\PSoC4/PM_ADC.c ****             #endif /* End PM_ADC_TOTAL_CHANNELS_NUM > 9u */
 139:Generated_Source\PSoC4/PM_ADC.c ****             #if(PM_ADC_TOTAL_CHANNELS_NUM > 10u)
 140:Generated_Source\PSoC4/PM_ADC.c ****                 ,(uint8)(PM_ADC_cy_psoc4_sarmux_8__CH_10_PORT << 4u) |
 141:Generated_Source\PSoC4/PM_ADC.c ****                  (uint8)PM_ADC_cy_psoc4_sarmux_8__CH_10_PIN
 142:Generated_Source\PSoC4/PM_ADC.c ****             #endif /* End PM_ADC_TOTAL_CHANNELS_NUM > 10u */
 143:Generated_Source\PSoC4/PM_ADC.c ****             #if(PM_ADC_TOTAL_CHANNELS_NUM > 11u)
 144:Generated_Source\PSoC4/PM_ADC.c ****                 ,(uint8)(PM_ADC_cy_psoc4_sarmux_8__CH_11_PORT << 4u) |
 145:Generated_Source\PSoC4/PM_ADC.c ****                  (uint8)PM_ADC_cy_psoc4_sarmux_8__CH_11_PIN
 146:Generated_Source\PSoC4/PM_ADC.c ****             #endif /* End PM_ADC_TOTAL_CHANNELS_NUM > 11u */
 147:Generated_Source\PSoC4/PM_ADC.c ****             #if(PM_ADC_TOTAL_CHANNELS_NUM > 12u)
 148:Generated_Source\PSoC4/PM_ADC.c ****                 ,(uint8)(PM_ADC_cy_psoc4_sarmux_8__CH_12_PORT << 4u) |
 149:Generated_Source\PSoC4/PM_ADC.c ****                  (uint8)PM_ADC_cy_psoc4_sarmux_8__CH_12_PIN
 150:Generated_Source\PSoC4/PM_ADC.c ****             #endif /* End PM_ADC_TOTAL_CHANNELS_NUM > 12u */
 151:Generated_Source\PSoC4/PM_ADC.c ****             #if(PM_ADC_TOTAL_CHANNELS_NUM > 13u)
 152:Generated_Source\PSoC4/PM_ADC.c ****                 ,(uint8)(PM_ADC_cy_psoc4_sarmux_8__CH_13_PORT << 4u) |
 153:Generated_Source\PSoC4/PM_ADC.c ****                  (uint8)PM_ADC_cy_psoc4_sarmux_8__CH_13_PIN
 154:Generated_Source\PSoC4/PM_ADC.c ****             #endif /* End PM_ADC_TOTAL_CHANNELS_NUM > 13u */
 155:Generated_Source\PSoC4/PM_ADC.c ****             #if(PM_ADC_TOTAL_CHANNELS_NUM > 14u)
 156:Generated_Source\PSoC4/PM_ADC.c ****                 ,(uint8)(PM_ADC_cy_psoc4_sarmux_8__CH_14_PORT << 4u) |
 157:Generated_Source\PSoC4/PM_ADC.c ****                  (uint8)PM_ADC_cy_psoc4_sarmux_8__CH_14_PIN
 158:Generated_Source\PSoC4/PM_ADC.c ****             #endif /* End PM_ADC_TOTAL_CHANNELS_NUM > 14u */
 159:Generated_Source\PSoC4/PM_ADC.c ****             #if(PM_ADC_TOTAL_CHANNELS_NUM > 15u)
 160:Generated_Source\PSoC4/PM_ADC.c ****                 ,(uint8)(PM_ADC_cy_psoc4_sarmux_8__CH_15_PORT << 4u) |
 161:Generated_Source\PSoC4/PM_ADC.c ****                  (uint8)PM_ADC_cy_psoc4_sarmux_8__CH_15_PIN
 162:Generated_Source\PSoC4/PM_ADC.c ****             #endif /* End PM_ADC_TOTAL_CHANNELS_NUM > 15u */
 163:Generated_Source\PSoC4/PM_ADC.c ****             #if(PM_ADC_TOTAL_CHANNELS_NUM > 16u)
 164:Generated_Source\PSoC4/PM_ADC.c ****                 ,(uint8)(PM_ADC_cy_psoc4_sarmux_8__CH_16_PORT << 4u) |
 165:Generated_Source\PSoC4/PM_ADC.c ****                  (uint8)PM_ADC_cy_psoc4_sarmux_8__CH_16_PIN
 166:Generated_Source\PSoC4/PM_ADC.c ****             #endif /* End PM_ADC_TOTAL_CHANNELS_NUM > 16u */
 167:Generated_Source\PSoC4/PM_ADC.c ****         };
 168:Generated_Source\PSoC4/PM_ADC.c ****     #endif /* End PM_ADC_TOTAL_CHANNELS_NUM > 1u */
 169:Generated_Source\PSoC4/PM_ADC.c **** 
 170:Generated_Source\PSoC4/PM_ADC.c ****     #if(PM_ADC_IRQ_REMOVE == 0u)
 171:Generated_Source\PSoC4/PM_ADC.c ****         /* Start and set interrupt vector */
 172:Generated_Source\PSoC4/PM_ADC.c ****         CyIntSetPriority(PM_ADC_INTC_NUMBER, PM_ADC_INTC_PRIOR_NUMBER);
  99              		.loc 1 172 0
 100 0006 0321     		movs	r1, #3
 101 0008 0F20     		movs	r0, #15
 102 000a FFF7FEFF 		bl	CyIntSetPriority
 173:Generated_Source\PSoC4/PM_ADC.c ****         (void)CyIntSetVector(PM_ADC_INTC_NUMBER, &PM_ADC_ISR);
 103              		.loc 1 173 0
 104 000e 514B     		ldr	r3, .L16
 105 0010 1900     		movs	r1, r3
 106 0012 0F20     		movs	r0, #15
 107 0014 FFF7FEFF 		bl	CyIntSetVector
 174:Generated_Source\PSoC4/PM_ADC.c ****     #endif   /* End PM_ADC_IRQ_REMOVE */
 175:Generated_Source\PSoC4/PM_ADC.c **** 
 176:Generated_Source\PSoC4/PM_ADC.c ****     /* Init SAR and MUX registers */
 177:Generated_Source\PSoC4/PM_ADC.c ****     PM_ADC_SAR_CHAN_EN_REG = PM_ADC_DEFAULT_EN_CHANNELS;
 108              		.loc 1 177 0
ARM GAS  C:\Users\alexport\AppData\Local\Temp\ccH3icja.s 			page 6


 109 0018 4F4B     		ldr	r3, .L16+4
 110 001a FF22     		movs	r2, #255
 111 001c 1A60     		str	r2, [r3]
 178:Generated_Source\PSoC4/PM_ADC.c ****     PM_ADC_SAR_CTRL_REG |= PM_ADC_DEFAULT_CTRL_REG_CFG | 
 179:Generated_Source\PSoC4/PM_ADC.c ****         /* Enable the SAR internal pump when global pump is enabled */
 180:Generated_Source\PSoC4/PM_ADC.c ****         (((PM_ADC_PUMP_CTRL_REG & PM_ADC_PUMP_CTRL_ENABLED) != 0u) ? 
 112              		.loc 1 180 0
 113 001e 4F4B     		ldr	r3, .L16+8
 114 0020 1B68     		ldr	r3, [r3]
 178:Generated_Source\PSoC4/PM_ADC.c ****     PM_ADC_SAR_CTRL_REG |= PM_ADC_DEFAULT_CTRL_REG_CFG | 
 115              		.loc 1 178 0
 116 0022 002B     		cmp	r3, #0
 117 0024 01DA     		bge	.L6
 178:Generated_Source\PSoC4/PM_ADC.c ****     PM_ADC_SAR_CTRL_REG |= PM_ADC_DEFAULT_CTRL_REG_CFG | 
 118              		.loc 1 178 0 is_stmt 0 discriminator 1
 119 0026 4E49     		ldr	r1, .L16+12
 120 0028 00E0     		b	.L7
 121              	.L6:
 178:Generated_Source\PSoC4/PM_ADC.c ****     PM_ADC_SAR_CTRL_REG |= PM_ADC_DEFAULT_CTRL_REG_CFG | 
 122              		.loc 1 178 0 discriminator 2
 123 002a 4E49     		ldr	r1, .L16+16
 124              	.L7:
 178:Generated_Source\PSoC4/PM_ADC.c ****     PM_ADC_SAR_CTRL_REG |= PM_ADC_DEFAULT_CTRL_REG_CFG | 
 125              		.loc 1 178 0 discriminator 4
 126 002c 4E4B     		ldr	r3, .L16+20
 127 002e 4E4A     		ldr	r2, .L16+20
 128 0030 1268     		ldr	r2, [r2]
 129 0032 0A43     		orrs	r2, r1
 130 0034 1A60     		str	r2, [r3]
 181:Generated_Source\PSoC4/PM_ADC.c ****         PM_ADC_BOOSTPUMP_EN : 0u);
 182:Generated_Source\PSoC4/PM_ADC.c ****     PM_ADC_SAR_SAMPLE_CTRL_REG = PM_ADC_DEFAULT_SAMPLE_CTRL_REG_CFG;
 131              		.loc 1 182 0 is_stmt 1 discriminator 4
 132 0036 4D4B     		ldr	r3, .L16+24
 133 0038 4D4A     		ldr	r2, .L16+28
 134 003a 1A60     		str	r2, [r3]
 183:Generated_Source\PSoC4/PM_ADC.c ****     PM_ADC_SAR_RANGE_THRES_REG = PM_ADC_DEFAULT_RANGE_THRES_REG_CFG;
 135              		.loc 1 183 0 discriminator 4
 136 003c 4D4B     		ldr	r3, .L16+32
 137 003e 4E4A     		ldr	r2, .L16+36
 138 0040 1A60     		str	r2, [r3]
 184:Generated_Source\PSoC4/PM_ADC.c ****     PM_ADC_SAR_RANGE_COND_REG  = PM_ADC_COMPARE_MODE;
 139              		.loc 1 184 0 discriminator 4
 140 0042 4E4B     		ldr	r3, .L16+40
 141 0044 0022     		movs	r2, #0
 142 0046 1A60     		str	r2, [r3]
 185:Generated_Source\PSoC4/PM_ADC.c ****     PM_ADC_SAR_SAMPLE_TIME01_REG = PM_ADC_DEFAULT_SAMPLE_TIME01_REG_CFG;
 143              		.loc 1 185 0 discriminator 4
 144 0048 4D4B     		ldr	r3, .L16+44
 145 004a 4E4A     		ldr	r2, .L16+48
 146 004c 1A60     		str	r2, [r3]
 186:Generated_Source\PSoC4/PM_ADC.c ****     PM_ADC_SAR_SAMPLE_TIME23_REG = PM_ADC_DEFAULT_SAMPLE_TIME23_REG_CFG;
 147              		.loc 1 186 0 discriminator 4
 148 004e 4E4B     		ldr	r3, .L16+52
 149 0050 4E4A     		ldr	r2, .L16+56
 150 0052 1A60     		str	r2, [r3]
 187:Generated_Source\PSoC4/PM_ADC.c ****     
 188:Generated_Source\PSoC4/PM_ADC.c ****     /* Connect Vm to VSSA when even one channel is single-ended or multiple channels configured */
ARM GAS  C:\Users\alexport\AppData\Local\Temp\ccH3icja.s 			page 7


 189:Generated_Source\PSoC4/PM_ADC.c ****     #if(PM_ADC_DEFAULT_MUX_SWITCH0 != 0u)
 190:Generated_Source\PSoC4/PM_ADC.c ****         PM_ADC_MUX_SWITCH0_REG |= PM_ADC_DEFAULT_MUX_SWITCH0;
 191:Generated_Source\PSoC4/PM_ADC.c ****         /* Set MUX_HW_CTRL_VSSA in MUX_SWITCH_HW_CTRL when multiple channels enabled */
 192:Generated_Source\PSoC4/PM_ADC.c ****         #if(PM_ADC_TOTAL_CHANNELS_NUM > 1u)
 193:Generated_Source\PSoC4/PM_ADC.c ****             PM_ADC_MUX_SWITCH_HW_CTRL_REG |= PM_ADC_DEFAULT_MUX_SWITCH0;
 194:Generated_Source\PSoC4/PM_ADC.c ****         #endif /* PM_ADC_TOTAL_CHANNELS_NUM > 1u */
 195:Generated_Source\PSoC4/PM_ADC.c ****     #endif /*PM_ADC_CHANNELS_MODE !=0 */
 196:Generated_Source\PSoC4/PM_ADC.c **** 
 197:Generated_Source\PSoC4/PM_ADC.c ****     PM_ADC_SAR_SATURATE_INTR_MASK_REG = 0u;
 151              		.loc 1 197 0 discriminator 4
 152 0054 4E4B     		ldr	r3, .L16+60
 153 0056 0022     		movs	r2, #0
 154 0058 1A60     		str	r2, [r3]
 198:Generated_Source\PSoC4/PM_ADC.c ****     PM_ADC_SAR_RANGE_INTR_MASK_REG = 0u;
 155              		.loc 1 198 0 discriminator 4
 156 005a 4E4B     		ldr	r3, .L16+64
 157 005c 0022     		movs	r2, #0
 158 005e 1A60     		str	r2, [r3]
 199:Generated_Source\PSoC4/PM_ADC.c ****     PM_ADC_SAR_INTR_MASK_REG = PM_ADC_SAR_INTR_MASK;
 159              		.loc 1 199 0 discriminator 4
 160 0060 4D4B     		ldr	r3, .L16+68
 161 0062 0122     		movs	r2, #1
 162 0064 1A60     		str	r2, [r3]
 200:Generated_Source\PSoC4/PM_ADC.c **** 
 201:Generated_Source\PSoC4/PM_ADC.c ****     #if(PM_ADC_CY_SAR_IP_VER == PM_ADC_CY_SAR_IP_VER0)
 202:Generated_Source\PSoC4/PM_ADC.c ****         PM_ADC_ANA_TRIM_REG = PM_ADC_TRIM_COEF;
 203:Generated_Source\PSoC4/PM_ADC.c ****     #endif /* (PM_ADC_CY_SAR_IP_VER == PM_ADC_CY_SAR_IP_VER0) */
 204:Generated_Source\PSoC4/PM_ADC.c **** 
 205:Generated_Source\PSoC4/PM_ADC.c ****     /* Read and modify default configuration based on characterization */
 206:Generated_Source\PSoC4/PM_ADC.c ****     tmpRegVal = PM_ADC_SAR_DFT_CTRL_REG;
 163              		.loc 1 206 0 discriminator 4
 164 0066 4D4B     		ldr	r3, .L16+72
 165 0068 1B68     		ldr	r3, [r3]
 166 006a 7B60     		str	r3, [r7, #4]
 207:Generated_Source\PSoC4/PM_ADC.c ****     tmpRegVal &= (uint32)~PM_ADC_DCEN;
 167              		.loc 1 207 0 discriminator 4
 168 006c 7B68     		ldr	r3, [r7, #4]
 169 006e 4C4A     		ldr	r2, .L16+76
 170 0070 1340     		ands	r3, r2
 171 0072 7B60     		str	r3, [r7, #4]
 208:Generated_Source\PSoC4/PM_ADC.c ****     
 209:Generated_Source\PSoC4/PM_ADC.c ****     #if(PM_ADC_CY_SAR_IP_VER == PM_ADC_CY_SAR_IP_VER0)
 210:Generated_Source\PSoC4/PM_ADC.c ****         #if(PM_ADC_NOMINAL_CLOCK_FREQ > (PM_ADC_MAX_FREQUENCY / 2))
 211:Generated_Source\PSoC4/PM_ADC.c ****             tmpRegVal |= PM_ADC_SEL_CSEL_DFT_CHAR;
 212:Generated_Source\PSoC4/PM_ADC.c ****         #else  /* clock speed < 9 Mhz */
 213:Generated_Source\PSoC4/PM_ADC.c ****             tmpRegVal |= PM_ADC_DLY_INC;
 214:Generated_Source\PSoC4/PM_ADC.c ****         #endif /* clock speed > 9 Mhz */
 215:Generated_Source\PSoC4/PM_ADC.c ****     #else
 216:Generated_Source\PSoC4/PM_ADC.c ****         #if ((PM_ADC_DEFAULT_VREF_SEL == PM_ADC__INTERNAL1024) || \
 217:Generated_Source\PSoC4/PM_ADC.c ****              (PM_ADC_DEFAULT_VREF_SEL == PM_ADC__INTERNALVREF))
 218:Generated_Source\PSoC4/PM_ADC.c ****             tmpRegVal |= PM_ADC_DLY_INC;
 219:Generated_Source\PSoC4/PM_ADC.c ****         #else
 220:Generated_Source\PSoC4/PM_ADC.c ****             tmpRegVal |= PM_ADC_DCEN;
 172              		.loc 1 220 0 discriminator 4
 173 0074 7B68     		ldr	r3, [r7, #4]
 174 0076 8022     		movs	r2, #128
 175 0078 9205     		lsls	r2, r2, #22
ARM GAS  C:\Users\alexport\AppData\Local\Temp\ccH3icja.s 			page 8


 176 007a 1343     		orrs	r3, r2
 177 007c 7B60     		str	r3, [r7, #4]
 221:Generated_Source\PSoC4/PM_ADC.c ****             tmpRegVal &= (uint32)~PM_ADC_DLY_INC;
 178              		.loc 1 221 0 discriminator 4
 179 007e 7B68     		ldr	r3, [r7, #4]
 180 0080 0122     		movs	r2, #1
 181 0082 9343     		bics	r3, r2
 182 0084 7B60     		str	r3, [r7, #4]
 222:Generated_Source\PSoC4/PM_ADC.c ****         #endif /* ((PM_ADC_DEFAULT_VREF_SEL == PM_ADC__INTERNAL1024) || \
 223:Generated_Source\PSoC4/PM_ADC.c ****                    (PM_ADC_DEFAULT_VREF_SEL == PM_ADC__INTERNALVREF)) */
 224:Generated_Source\PSoC4/PM_ADC.c ****     #endif /* (PM_ADC_CY_SAR_IP_VER == PM_ADC_CY_SAR_IP_VER0) */
 225:Generated_Source\PSoC4/PM_ADC.c ****     
 226:Generated_Source\PSoC4/PM_ADC.c ****     PM_ADC_SAR_DFT_CTRL_REG = tmpRegVal;
 183              		.loc 1 226 0 discriminator 4
 184 0086 454B     		ldr	r3, .L16+72
 185 0088 7A68     		ldr	r2, [r7, #4]
 186 008a 1A60     		str	r2, [r3]
 227:Generated_Source\PSoC4/PM_ADC.c **** 
 228:Generated_Source\PSoC4/PM_ADC.c ****     #if(PM_ADC_MAX_RESOLUTION != PM_ADC_RESOLUTION_12)
 229:Generated_Source\PSoC4/PM_ADC.c ****         PM_ADC_WOUNDING_REG = PM_ADC_ALT_WOUNDING;
 230:Generated_Source\PSoC4/PM_ADC.c ****     #endif /* PM_ADC_MAX_RESOLUTION != PM_ADC_RESOLUTION_12 */
 231:Generated_Source\PSoC4/PM_ADC.c **** 
 232:Generated_Source\PSoC4/PM_ADC.c ****     for(chNum = 0u; chNum < PM_ADC_TOTAL_CHANNELS_NUM; chNum++)
 187              		.loc 1 232 0 discriminator 4
 188 008c 0023     		movs	r3, #0
 189 008e FB60     		str	r3, [r7, #12]
 190 0090 59E0     		b	.L8
 191              	.L15:
 233:Generated_Source\PSoC4/PM_ADC.c ****     {
 234:Generated_Source\PSoC4/PM_ADC.c ****         tmpRegVal = (PM_ADC_channelsConfig[chNum] & PM_ADC_CHANNEL_CONFIG_MASK);
 192              		.loc 1 234 0
 193 0092 0022     		movs	r2, #0
 194 0094 DC23     		movs	r3, #220
 195 0096 9B01     		lsls	r3, r3, #6
 196 0098 1340     		ands	r3, r2
 197 009a 7B60     		str	r3, [r7, #4]
 235:Generated_Source\PSoC4/PM_ADC.c ****         #if(PM_ADC_TOTAL_CHANNELS_NUM > 1u)
 236:Generated_Source\PSoC4/PM_ADC.c ****             tmpRegVal |= PM_ADC_InputsPlacement[chNum];
 237:Generated_Source\PSoC4/PM_ADC.c ****         #endif /* End PM_ADC_TOTAL_CHANNELS_NUM > 1u */
 238:Generated_Source\PSoC4/PM_ADC.c ****         
 239:Generated_Source\PSoC4/PM_ADC.c ****         
 240:Generated_Source\PSoC4/PM_ADC.c ****         /* When the part is limited to 10-bit then the SUB_RESOLUTION bit
 241:Generated_Source\PSoC4/PM_ADC.c ****         *  will be ignored and the RESOLUTION bit selects between 10-bit
 242:Generated_Source\PSoC4/PM_ADC.c ****         *  (0) and 8-bit (1) resolution.
 243:Generated_Source\PSoC4/PM_ADC.c ****         */
 244:Generated_Source\PSoC4/PM_ADC.c ****         #if((PM_ADC_MAX_RESOLUTION != PM_ADC_RESOLUTION_12) && \
 245:Generated_Source\PSoC4/PM_ADC.c ****             (PM_ADC_ALT_WOUNDING == PM_ADC_WOUNDING_10BIT))
 246:Generated_Source\PSoC4/PM_ADC.c ****             tmpRegVal &= (uint32)(~PM_ADC_ALT_RESOLUTION_ON);
 247:Generated_Source\PSoC4/PM_ADC.c ****         #endif /* PM_ADC_MAX_RESOLUTION != PM_ADC_RESOLUTION_12 */
 248:Generated_Source\PSoC4/PM_ADC.c **** 
 249:Generated_Source\PSoC4/PM_ADC.c ****         #if(PM_ADC_INJ_CHANNEL_ENABLED)
 250:Generated_Source\PSoC4/PM_ADC.c ****         if(chNum < PM_ADC_SEQUENCED_CHANNELS_NUM)
 251:Generated_Source\PSoC4/PM_ADC.c ****         #endif /* PM_ADC_INJ_CHANNEL_ENABLED */
 252:Generated_Source\PSoC4/PM_ADC.c ****         {
 253:Generated_Source\PSoC4/PM_ADC.c ****             CY_SET_REG32((reg32 *)(PM_ADC_SAR_CHAN_CONFIG_IND + (uint32)(chNum << 2)), tmpRegVal);
 198              		.loc 1 253 0
 199 009c FB68     		ldr	r3, [r7, #12]
ARM GAS  C:\Users\alexport\AppData\Local\Temp\ccH3icja.s 			page 9


 200 009e 9B00     		lsls	r3, r3, #2
 201 00a0 404A     		ldr	r2, .L16+80
 202 00a2 9446     		mov	ip, r2
 203 00a4 6344     		add	r3, r3, ip
 204 00a6 7A68     		ldr	r2, [r7, #4]
 205 00a8 1A60     		str	r2, [r3]
 254:Generated_Source\PSoC4/PM_ADC.c **** 
 255:Generated_Source\PSoC4/PM_ADC.c ****             if((PM_ADC_channelsConfig[chNum] & PM_ADC_IS_SATURATE_EN_MASK) != 0u)
 206              		.loc 1 255 0
 207 00aa 0022     		movs	r2, #0
 208 00ac 0123     		movs	r3, #1
 209 00ae 1340     		ands	r3, r2
 210 00b0 0AD0     		beq	.L9
 256:Generated_Source\PSoC4/PM_ADC.c ****             {
 257:Generated_Source\PSoC4/PM_ADC.c ****                 PM_ADC_SAR_SATURATE_INTR_MASK_REG |= (uint16)((uint16)1 << chNum);
 211              		.loc 1 257 0
 212 00b2 374B     		ldr	r3, .L16+60
 213 00b4 364A     		ldr	r2, .L16+60
 214 00b6 1168     		ldr	r1, [r2]
 215 00b8 0120     		movs	r0, #1
 216 00ba FA68     		ldr	r2, [r7, #12]
 217 00bc 9040     		lsls	r0, r0, r2
 218 00be 0200     		movs	r2, r0
 219 00c0 1204     		lsls	r2, r2, #16
 220 00c2 120C     		lsrs	r2, r2, #16
 221 00c4 0A43     		orrs	r2, r1
 222 00c6 1A60     		str	r2, [r3]
 223              	.L9:
 258:Generated_Source\PSoC4/PM_ADC.c ****             }
 259:Generated_Source\PSoC4/PM_ADC.c **** 
 260:Generated_Source\PSoC4/PM_ADC.c ****             if((PM_ADC_channelsConfig[chNum] & PM_ADC_IS_RANGE_CTRL_EN_MASK) != 0u)
 224              		.loc 1 260 0
 225 00c8 0022     		movs	r2, #0
 226 00ca 0223     		movs	r3, #2
 227 00cc 1340     		ands	r3, r2
 228 00ce 0AD0     		beq	.L10
 261:Generated_Source\PSoC4/PM_ADC.c ****             {
 262:Generated_Source\PSoC4/PM_ADC.c ****                 PM_ADC_SAR_RANGE_INTR_MASK_REG |= (uint16)((uint16)1 << chNum);
 229              		.loc 1 262 0
 230 00d0 304B     		ldr	r3, .L16+64
 231 00d2 304A     		ldr	r2, .L16+64
 232 00d4 1168     		ldr	r1, [r2]
 233 00d6 0120     		movs	r0, #1
 234 00d8 FA68     		ldr	r2, [r7, #12]
 235 00da 9040     		lsls	r0, r0, r2
 236 00dc 0200     		movs	r2, r0
 237 00de 1204     		lsls	r2, r2, #16
 238 00e0 120C     		lsrs	r2, r2, #16
 239 00e2 0A43     		orrs	r2, r1
 240 00e4 1A60     		str	r2, [r3]
 241              	.L10:
 263:Generated_Source\PSoC4/PM_ADC.c ****             }
 264:Generated_Source\PSoC4/PM_ADC.c ****         }
 265:Generated_Source\PSoC4/PM_ADC.c ****         #if(PM_ADC_INJ_CHANNEL_ENABLED)
 266:Generated_Source\PSoC4/PM_ADC.c ****             else
 267:Generated_Source\PSoC4/PM_ADC.c ****             {
 268:Generated_Source\PSoC4/PM_ADC.c ****                 CY_SET_REG32(PM_ADC_SAR_INJ_CHAN_CONFIG_PTR, tmpRegVal | PM_ADC_INJ_TAILGATING);
ARM GAS  C:\Users\alexport\AppData\Local\Temp\ccH3icja.s 			page 10


 269:Generated_Source\PSoC4/PM_ADC.c **** 
 270:Generated_Source\PSoC4/PM_ADC.c ****                 if((PM_ADC_channelsConfig[chNum] & PM_ADC_IS_SATURATE_EN_MASK) != 0u)
 271:Generated_Source\PSoC4/PM_ADC.c ****                 {
 272:Generated_Source\PSoC4/PM_ADC.c ****                     PM_ADC_SAR_INTR_MASK_REG |= PM_ADC_INJ_SATURATE_MASK;
 273:Generated_Source\PSoC4/PM_ADC.c ****                 }
 274:Generated_Source\PSoC4/PM_ADC.c **** 
 275:Generated_Source\PSoC4/PM_ADC.c ****                 if((PM_ADC_channelsConfig[chNum] & PM_ADC_IS_RANGE_CTRL_EN_MASK) != 0u)
 276:Generated_Source\PSoC4/PM_ADC.c ****                 {
 277:Generated_Source\PSoC4/PM_ADC.c ****                     PM_ADC_SAR_INTR_MASK_REG |= PM_ADC_INJ_RANGE_MASK;
 278:Generated_Source\PSoC4/PM_ADC.c ****                 }
 279:Generated_Source\PSoC4/PM_ADC.c ****             }
 280:Generated_Source\PSoC4/PM_ADC.c ****         #endif /* PM_ADC_INJ_CHANNEL_ENABLED */
 281:Generated_Source\PSoC4/PM_ADC.c **** 
 282:Generated_Source\PSoC4/PM_ADC.c ****         if((PM_ADC_channelsConfig[chNum] & PM_ADC_ALT_RESOLUTION_ON) != 0u)
 242              		.loc 1 282 0
 243 00e6 0022     		movs	r2, #0
 244 00e8 8023     		movs	r3, #128
 245 00ea 9B00     		lsls	r3, r3, #2
 246 00ec 1340     		ands	r3, r2
 247 00ee 03D0     		beq	.L11
 283:Generated_Source\PSoC4/PM_ADC.c ****         {
 284:Generated_Source\PSoC4/PM_ADC.c ****                counts = (int32)PM_ADC_DEFAULT_MAX_WRK_ALT;
 248              		.loc 1 284 0
 249 00f0 8023     		movs	r3, #128
 250 00f2 5B00     		lsls	r3, r3, #1
 251 00f4 BB60     		str	r3, [r7, #8]
 252 00f6 02E0     		b	.L12
 253              	.L11:
 285:Generated_Source\PSoC4/PM_ADC.c ****         }
 286:Generated_Source\PSoC4/PM_ADC.c ****         else
 287:Generated_Source\PSoC4/PM_ADC.c ****         {
 288:Generated_Source\PSoC4/PM_ADC.c ****                counts = (int32)PM_ADC_SAR_WRK_MAX_12BIT;
 254              		.loc 1 288 0
 255 00f8 8023     		movs	r3, #128
 256 00fa 5B01     		lsls	r3, r3, #5
 257 00fc BB60     		str	r3, [r7, #8]
 258              	.L12:
 289:Generated_Source\PSoC4/PM_ADC.c ****         }
 290:Generated_Source\PSoC4/PM_ADC.c **** 
 291:Generated_Source\PSoC4/PM_ADC.c ****         if((PM_ADC_channelsConfig[chNum] & PM_ADC_DIFFERENTIAL_EN) == 0u)
 259              		.loc 1 291 0
 260 00fe 0022     		movs	r2, #0
 261 0100 8023     		movs	r3, #128
 262 0102 5B00     		lsls	r3, r3, #1
 263 0104 1340     		ands	r3, r2
 264 0106 05D1     		bne	.L13
 292:Generated_Source\PSoC4/PM_ADC.c ****         {
 293:Generated_Source\PSoC4/PM_ADC.c ****             #if((PM_ADC_DEFAULT_SE_RESULT_FORMAT_SEL == PM_ADC__FSIGNED) && \
 294:Generated_Source\PSoC4/PM_ADC.c ****                 (PM_ADC_DEFAULT_NEG_INPUT_SEL == PM_ADC__VREF))
 295:Generated_Source\PSoC4/PM_ADC.c ****                 /* Set offset to the minus half scale to convert results to unsigned format */
 296:Generated_Source\PSoC4/PM_ADC.c ****                 PM_ADC_offset[chNum] = (int16)(counts / -2);
 297:Generated_Source\PSoC4/PM_ADC.c ****             #else
 298:Generated_Source\PSoC4/PM_ADC.c ****                 PM_ADC_offset[chNum] = 0;
 265              		.loc 1 298 0
 266 0108 274B     		ldr	r3, .L16+84
 267 010a FA68     		ldr	r2, [r7, #12]
 268 010c 5200     		lsls	r2, r2, #1
ARM GAS  C:\Users\alexport\AppData\Local\Temp\ccH3icja.s 			page 11


 269 010e 0021     		movs	r1, #0
 270 0110 D152     		strh	r1, [r2, r3]
 271 0112 04E0     		b	.L14
 272              	.L13:
 299:Generated_Source\PSoC4/PM_ADC.c ****             #endif /* end DEFAULT_SE_RESULT_FORMAT_SEL == PM_ADC__FSIGNED */
 300:Generated_Source\PSoC4/PM_ADC.c ****         }
 301:Generated_Source\PSoC4/PM_ADC.c ****         else    /* Differential channel */
 302:Generated_Source\PSoC4/PM_ADC.c ****         {
 303:Generated_Source\PSoC4/PM_ADC.c ****             #if(PM_ADC_DEFAULT_DIFF_RESULT_FORMAT_SEL == PM_ADC__FUNSIGNED)
 304:Generated_Source\PSoC4/PM_ADC.c ****                 /* Set offset to the half scale to convert results to signed format */
 305:Generated_Source\PSoC4/PM_ADC.c ****                 PM_ADC_offset[chNum] = (int16)(counts / 2);
 306:Generated_Source\PSoC4/PM_ADC.c ****             #else
 307:Generated_Source\PSoC4/PM_ADC.c ****                 PM_ADC_offset[chNum] = 0;
 273              		.loc 1 307 0
 274 0114 244B     		ldr	r3, .L16+84
 275 0116 FA68     		ldr	r2, [r7, #12]
 276 0118 5200     		lsls	r2, r2, #1
 277 011a 0021     		movs	r1, #0
 278 011c D152     		strh	r1, [r2, r3]
 279              	.L14:
 308:Generated_Source\PSoC4/PM_ADC.c ****             #endif /* end PM_ADC_DEFAULT_DIFF_RESULT_FORMAT_SEL == PM_ADC__FUNSIGNED */
 309:Generated_Source\PSoC4/PM_ADC.c ****         }
 310:Generated_Source\PSoC4/PM_ADC.c ****         /* Calculate gain in counts per 10 volts with rounding */
 311:Generated_Source\PSoC4/PM_ADC.c ****         PM_ADC_countsPer10Volt[chNum] = (int16)(((counts * PM_ADC_10MV_COUNTS) +
 280              		.loc 1 311 0 discriminator 2
 281 011e BB68     		ldr	r3, [r7, #8]
 282 0120 224A     		ldr	r2, .L16+88
 283 0122 5343     		muls	r3, r2
 284 0124 224A     		ldr	r2, .L16+92
 285 0126 9446     		mov	ip, r2
 286 0128 6344     		add	r3, r3, ip
 312:Generated_Source\PSoC4/PM_ADC.c ****                             PM_ADC_DEFAULT_VREF_MV_VALUE) / (PM_ADC_DEFAULT_VREF_MV_VALUE * 2));
 287              		.loc 1 312 0 discriminator 2
 288 012a 2249     		ldr	r1, .L16+96
 289 012c 1800     		movs	r0, r3
 290 012e FFF7FEFF 		bl	__aeabi_idiv
 291 0132 0300     		movs	r3, r0
 311:Generated_Source\PSoC4/PM_ADC.c ****                             PM_ADC_DEFAULT_VREF_MV_VALUE) / (PM_ADC_DEFAULT_VREF_MV_VALUE * 2));
 292              		.loc 1 311 0 discriminator 2
 293 0134 1BB2     		sxth	r3, r3
 294 0136 1900     		movs	r1, r3
 295 0138 1F4B     		ldr	r3, .L16+100
 296 013a FA68     		ldr	r2, [r7, #12]
 297 013c 9200     		lsls	r2, r2, #2
 298 013e D150     		str	r1, [r2, r3]
 232:Generated_Source\PSoC4/PM_ADC.c ****     {
 299              		.loc 1 232 0 discriminator 2
 300 0140 FB68     		ldr	r3, [r7, #12]
 301 0142 0133     		adds	r3, r3, #1
 302 0144 FB60     		str	r3, [r7, #12]
 303              	.L8:
 232:Generated_Source\PSoC4/PM_ADC.c ****     {
 304              		.loc 1 232 0 is_stmt 0 discriminator 1
 305 0146 FB68     		ldr	r3, [r7, #12]
 306 0148 002B     		cmp	r3, #0
 307 014a A2D0     		beq	.L15
 313:Generated_Source\PSoC4/PM_ADC.c ****     }
ARM GAS  C:\Users\alexport\AppData\Local\Temp\ccH3icja.s 			page 12


 314:Generated_Source\PSoC4/PM_ADC.c **** }
 308              		.loc 1 314 0 is_stmt 1
 309 014c C046     		nop
 310 014e BD46     		mov	sp, r7
 311 0150 04B0     		add	sp, sp, #16
 312              		@ sp needed
 313 0152 80BD     		pop	{r7, pc}
 314              	.L17:
 315              		.align	2
 316              	.L16:
 317 0154 00000000 		.word	PM_ADC_ISR
 318 0158 20003A40 		.word	1077542944
 319 015c 80033A40 		.word	1077543808
 320 0160 500E1050 		.word	1343229520
 321 0164 500E0050 		.word	1342180944
 322 0168 00003A40 		.word	1077542912
 323 016c 04003A40 		.word	1077542916
 324 0170 88000080 		.word	-2147483512
 325 0174 18003A40 		.word	1077542936
 326 0178 0000FF07 		.word	134152192
 327 017c 1C003A40 		.word	1077542940
 328 0180 10003A40 		.word	1077542928
 329 0184 20000200 		.word	131104
 330 0188 14003A40 		.word	1077542932
 331 018c 02000200 		.word	131074
 332 0190 28023A40 		.word	1077543464
 333 0194 38023A40 		.word	1077543480
 334 0198 18023A40 		.word	1077543448
 335 019c 30003A40 		.word	1077542960
 336 01a0 FFFFFFDF 		.word	-536870913
 337 01a4 80003A40 		.word	1077543040
 338 01a8 00000000 		.word	PM_ADC_offset
 339 01ac 10270000 		.word	10000
 340 01b0 C4090000 		.word	2500
 341 01b4 88130000 		.word	5000
 342 01b8 00000000 		.word	PM_ADC_countsPer10Volt
 343              		.cfi_endproc
 344              	.LFE3:
 345              		.size	PM_ADC_Init, .-PM_ADC_Init
 346              		.section	.text.PM_ADC_Enable,"ax",%progbits
 347              		.align	2
 348              		.global	PM_ADC_Enable
 349              		.code	16
 350              		.thumb_func
 351              		.type	PM_ADC_Enable, %function
 352              	PM_ADC_Enable:
 353              	.LFB4:
 315:Generated_Source\PSoC4/PM_ADC.c **** 
 316:Generated_Source\PSoC4/PM_ADC.c **** /*******************************************************************************
 317:Generated_Source\PSoC4/PM_ADC.c **** * Function Name: ADC_SAR_1_Enable
 318:Generated_Source\PSoC4/PM_ADC.c **** ********************************************************************************
 319:Generated_Source\PSoC4/PM_ADC.c **** *
 320:Generated_Source\PSoC4/PM_ADC.c **** * Summary:
 321:Generated_Source\PSoC4/PM_ADC.c **** *  Enables the clock and analog power for SAR ADC.
 322:Generated_Source\PSoC4/PM_ADC.c **** *
 323:Generated_Source\PSoC4/PM_ADC.c **** * Parameters:
 324:Generated_Source\PSoC4/PM_ADC.c **** *  None.
ARM GAS  C:\Users\alexport\AppData\Local\Temp\ccH3icja.s 			page 13


 325:Generated_Source\PSoC4/PM_ADC.c **** *
 326:Generated_Source\PSoC4/PM_ADC.c **** * Return:
 327:Generated_Source\PSoC4/PM_ADC.c **** *  None.
 328:Generated_Source\PSoC4/PM_ADC.c **** *
 329:Generated_Source\PSoC4/PM_ADC.c **** *******************************************************************************/
 330:Generated_Source\PSoC4/PM_ADC.c **** void PM_ADC_Enable(void)
 331:Generated_Source\PSoC4/PM_ADC.c **** {
 354              		.loc 1 331 0
 355              		.cfi_startproc
 356              		@ args = 0, pretend = 0, frame = 0
 357              		@ frame_needed = 1, uses_anonymous_args = 0
 358 0000 80B5     		push	{r7, lr}
 359              		.cfi_def_cfa_offset 8
 360              		.cfi_offset 7, -8
 361              		.cfi_offset 14, -4
 362 0002 00AF     		add	r7, sp, #0
 363              		.cfi_def_cfa_register 7
 332:Generated_Source\PSoC4/PM_ADC.c ****     if (0u == (PM_ADC_SAR_CTRL_REG & PM_ADC_ENABLE))
 364              		.loc 1 332 0
 365 0004 0A4B     		ldr	r3, .L22
 366 0006 1B68     		ldr	r3, [r3]
 367 0008 002B     		cmp	r3, #0
 368 000a 0EDB     		blt	.L21
 333:Generated_Source\PSoC4/PM_ADC.c ****     {
 334:Generated_Source\PSoC4/PM_ADC.c ****         #if(PM_ADC_CY_SAR_IP_VER != PM_ADC_CY_SAR_IP_VER0)
 335:Generated_Source\PSoC4/PM_ADC.c **** 
 336:Generated_Source\PSoC4/PM_ADC.c ****             while (0u != (PM_ADC_SAR_STATUS_REG & PM_ADC_STATUS_BUSY))
 369              		.loc 1 336 0
 370 000c C046     		nop
 371              	.L20:
 372              		.loc 1 336 0 is_stmt 0 discriminator 1
 373 000e 094B     		ldr	r3, .L22+4
 374 0010 1B68     		ldr	r3, [r3]
 375 0012 002B     		cmp	r3, #0
 376 0014 FBDB     		blt	.L20
 337:Generated_Source\PSoC4/PM_ADC.c ****             {
 338:Generated_Source\PSoC4/PM_ADC.c ****                 /* wait for SAR to go idle to avoid deadlock */
 339:Generated_Source\PSoC4/PM_ADC.c ****             }
 340:Generated_Source\PSoC4/PM_ADC.c ****         #endif /* (PM_ADC_CY_SAR_IP_VER != PM_ADC_CY_SAR_IP_VER0) */
 341:Generated_Source\PSoC4/PM_ADC.c ****         
 342:Generated_Source\PSoC4/PM_ADC.c ****         PM_ADC_SAR_CTRL_REG |= PM_ADC_ENABLE;
 377              		.loc 1 342 0 is_stmt 1
 378 0016 064B     		ldr	r3, .L22
 379 0018 054A     		ldr	r2, .L22
 380 001a 1268     		ldr	r2, [r2]
 381 001c 8021     		movs	r1, #128
 382 001e 0906     		lsls	r1, r1, #24
 383 0020 0A43     		orrs	r2, r1
 384 0022 1A60     		str	r2, [r3]
 343:Generated_Source\PSoC4/PM_ADC.c ****         
 344:Generated_Source\PSoC4/PM_ADC.c ****         /* The block is ready to use 10 us after the enable signal is set high. */
 345:Generated_Source\PSoC4/PM_ADC.c ****         CyDelayUs(PM_ADC_10US_DELAY);         
 385              		.loc 1 345 0
 386 0024 0A20     		movs	r0, #10
 387 0026 FFF7FEFF 		bl	CyDelayUs
 388              	.L21:
 346:Generated_Source\PSoC4/PM_ADC.c ****     }
ARM GAS  C:\Users\alexport\AppData\Local\Temp\ccH3icja.s 			page 14


 347:Generated_Source\PSoC4/PM_ADC.c **** }
 389              		.loc 1 347 0
 390 002a C046     		nop
 391 002c BD46     		mov	sp, r7
 392              		@ sp needed
 393 002e 80BD     		pop	{r7, pc}
 394              	.L23:
 395              		.align	2
 396              	.L22:
 397 0030 00003A40 		.word	1077542912
 398 0034 08023A40 		.word	1077543432
 399              		.cfi_endproc
 400              	.LFE4:
 401              		.size	PM_ADC_Enable, .-PM_ADC_Enable
 402              		.section	.text.PM_ADC_Stop,"ax",%progbits
 403              		.align	2
 404              		.global	PM_ADC_Stop
 405              		.code	16
 406              		.thumb_func
 407              		.type	PM_ADC_Stop, %function
 408              	PM_ADC_Stop:
 409              	.LFB5:
 348:Generated_Source\PSoC4/PM_ADC.c **** 
 349:Generated_Source\PSoC4/PM_ADC.c **** 
 350:Generated_Source\PSoC4/PM_ADC.c **** /*******************************************************************************
 351:Generated_Source\PSoC4/PM_ADC.c **** * Function Name: PM_ADC_Stop
 352:Generated_Source\PSoC4/PM_ADC.c **** ********************************************************************************
 353:Generated_Source\PSoC4/PM_ADC.c **** *
 354:Generated_Source\PSoC4/PM_ADC.c **** * Summary:
 355:Generated_Source\PSoC4/PM_ADC.c **** *  This function stops ADC conversions and puts the ADC into its lowest power
 356:Generated_Source\PSoC4/PM_ADC.c **** *  mode.
 357:Generated_Source\PSoC4/PM_ADC.c **** *
 358:Generated_Source\PSoC4/PM_ADC.c **** * Parameters:
 359:Generated_Source\PSoC4/PM_ADC.c **** *  None.
 360:Generated_Source\PSoC4/PM_ADC.c **** *
 361:Generated_Source\PSoC4/PM_ADC.c **** * Return:
 362:Generated_Source\PSoC4/PM_ADC.c **** *  None.
 363:Generated_Source\PSoC4/PM_ADC.c **** *
 364:Generated_Source\PSoC4/PM_ADC.c **** *******************************************************************************/
 365:Generated_Source\PSoC4/PM_ADC.c **** void PM_ADC_Stop(void)
 366:Generated_Source\PSoC4/PM_ADC.c **** {
 410              		.loc 1 366 0
 411              		.cfi_startproc
 412              		@ args = 0, pretend = 0, frame = 0
 413              		@ frame_needed = 1, uses_anonymous_args = 0
 414 0000 80B5     		push	{r7, lr}
 415              		.cfi_def_cfa_offset 8
 416              		.cfi_offset 7, -8
 417              		.cfi_offset 14, -4
 418 0002 00AF     		add	r7, sp, #0
 419              		.cfi_def_cfa_register 7
 367:Generated_Source\PSoC4/PM_ADC.c ****     PM_ADC_SAR_CTRL_REG &= (uint32)~PM_ADC_ENABLE;
 420              		.loc 1 367 0
 421 0004 044B     		ldr	r3, .L25
 422 0006 044A     		ldr	r2, .L25
 423 0008 1268     		ldr	r2, [r2]
 424 000a 5200     		lsls	r2, r2, #1
ARM GAS  C:\Users\alexport\AppData\Local\Temp\ccH3icja.s 			page 15


 425 000c 5208     		lsrs	r2, r2, #1
 426 000e 1A60     		str	r2, [r3]
 368:Generated_Source\PSoC4/PM_ADC.c **** }
 427              		.loc 1 368 0
 428 0010 C046     		nop
 429 0012 BD46     		mov	sp, r7
 430              		@ sp needed
 431 0014 80BD     		pop	{r7, pc}
 432              	.L26:
 433 0016 C046     		.align	2
 434              	.L25:
 435 0018 00003A40 		.word	1077542912
 436              		.cfi_endproc
 437              	.LFE5:
 438              		.size	PM_ADC_Stop, .-PM_ADC_Stop
 439              		.section	.text.PM_ADC_StartConvert,"ax",%progbits
 440              		.align	2
 441              		.global	PM_ADC_StartConvert
 442              		.code	16
 443              		.thumb_func
 444              		.type	PM_ADC_StartConvert, %function
 445              	PM_ADC_StartConvert:
 446              	.LFB6:
 369:Generated_Source\PSoC4/PM_ADC.c **** 
 370:Generated_Source\PSoC4/PM_ADC.c **** 
 371:Generated_Source\PSoC4/PM_ADC.c **** /*******************************************************************************
 372:Generated_Source\PSoC4/PM_ADC.c **** * Function Name: PM_ADC_StartConvert
 373:Generated_Source\PSoC4/PM_ADC.c **** ********************************************************************************
 374:Generated_Source\PSoC4/PM_ADC.c **** *
 375:Generated_Source\PSoC4/PM_ADC.c **** * Summary:
 376:Generated_Source\PSoC4/PM_ADC.c **** *  Description:
 377:Generated_Source\PSoC4/PM_ADC.c **** *  For free running mode, this API starts the conversion process and it
 378:Generated_Source\PSoC4/PM_ADC.c **** *  runs continuously.
 379:Generated_Source\PSoC4/PM_ADC.c **** *
 380:Generated_Source\PSoC4/PM_ADC.c **** *  In a triggered mode, this routine triggers every conversion by
 381:Generated_Source\PSoC4/PM_ADC.c **** *  writing into the FW_TRIGGER bit in SAR_START_CTRL reg. In triggered mode,
 382:Generated_Source\PSoC4/PM_ADC.c **** *  every conversion has to start by this API.
 383:Generated_Source\PSoC4/PM_ADC.c **** *
 384:Generated_Source\PSoC4/PM_ADC.c **** * Parameters:
 385:Generated_Source\PSoC4/PM_ADC.c **** *  None.
 386:Generated_Source\PSoC4/PM_ADC.c **** *
 387:Generated_Source\PSoC4/PM_ADC.c **** * Return:
 388:Generated_Source\PSoC4/PM_ADC.c **** *  None.
 389:Generated_Source\PSoC4/PM_ADC.c **** *
 390:Generated_Source\PSoC4/PM_ADC.c **** *******************************************************************************/
 391:Generated_Source\PSoC4/PM_ADC.c **** void PM_ADC_StartConvert(void)
 392:Generated_Source\PSoC4/PM_ADC.c **** {
 447              		.loc 1 392 0
 448              		.cfi_startproc
 449              		@ args = 0, pretend = 0, frame = 0
 450              		@ frame_needed = 1, uses_anonymous_args = 0
 451 0000 80B5     		push	{r7, lr}
 452              		.cfi_def_cfa_offset 8
 453              		.cfi_offset 7, -8
 454              		.cfi_offset 14, -4
 455 0002 00AF     		add	r7, sp, #0
 456              		.cfi_def_cfa_register 7
ARM GAS  C:\Users\alexport\AppData\Local\Temp\ccH3icja.s 			page 16


 393:Generated_Source\PSoC4/PM_ADC.c ****     #if(PM_ADC_DEFAULT_SAMPLE_MODE_SEL == PM_ADC__FREERUNNING)
 394:Generated_Source\PSoC4/PM_ADC.c ****         PM_ADC_SAR_SAMPLE_CTRL_REG |= PM_ADC_CONTINUOUS_EN;
 457              		.loc 1 394 0
 458 0004 044B     		ldr	r3, .L28
 459 0006 044A     		ldr	r2, .L28
 460 0008 1268     		ldr	r2, [r2]
 461 000a 8021     		movs	r1, #128
 462 000c 4902     		lsls	r1, r1, #9
 463 000e 0A43     		orrs	r2, r1
 464 0010 1A60     		str	r2, [r3]
 395:Generated_Source\PSoC4/PM_ADC.c ****     #else /* Firmware trigger */
 396:Generated_Source\PSoC4/PM_ADC.c ****         PM_ADC_SAR_START_CTRL_REG = PM_ADC_FW_TRIGGER;
 397:Generated_Source\PSoC4/PM_ADC.c ****     #endif /* End PM_ADC_DEFAULT_SAMPLE_MODE == PM_ADC__FREERUNNING */
 398:Generated_Source\PSoC4/PM_ADC.c **** 
 399:Generated_Source\PSoC4/PM_ADC.c **** }
 465              		.loc 1 399 0
 466 0012 C046     		nop
 467 0014 BD46     		mov	sp, r7
 468              		@ sp needed
 469 0016 80BD     		pop	{r7, pc}
 470              	.L29:
 471              		.align	2
 472              	.L28:
 473 0018 04003A40 		.word	1077542916
 474              		.cfi_endproc
 475              	.LFE6:
 476              		.size	PM_ADC_StartConvert, .-PM_ADC_StartConvert
 477              		.section	.text.PM_ADC_StopConvert,"ax",%progbits
 478              		.align	2
 479              		.global	PM_ADC_StopConvert
 480              		.code	16
 481              		.thumb_func
 482              		.type	PM_ADC_StopConvert, %function
 483              	PM_ADC_StopConvert:
 484              	.LFB7:
 400:Generated_Source\PSoC4/PM_ADC.c **** 
 401:Generated_Source\PSoC4/PM_ADC.c **** 
 402:Generated_Source\PSoC4/PM_ADC.c **** /*******************************************************************************
 403:Generated_Source\PSoC4/PM_ADC.c **** * Function Name: PM_ADC_StopConvert
 404:Generated_Source\PSoC4/PM_ADC.c **** ********************************************************************************
 405:Generated_Source\PSoC4/PM_ADC.c **** *
 406:Generated_Source\PSoC4/PM_ADC.c **** * Summary:
 407:Generated_Source\PSoC4/PM_ADC.c **** *  Forces the ADC to stop all conversions.
 408:Generated_Source\PSoC4/PM_ADC.c **** *
 409:Generated_Source\PSoC4/PM_ADC.c **** * Parameters:
 410:Generated_Source\PSoC4/PM_ADC.c **** *  None.
 411:Generated_Source\PSoC4/PM_ADC.c **** *
 412:Generated_Source\PSoC4/PM_ADC.c **** * Return:
 413:Generated_Source\PSoC4/PM_ADC.c **** *  None.
 414:Generated_Source\PSoC4/PM_ADC.c **** *
 415:Generated_Source\PSoC4/PM_ADC.c **** *******************************************************************************/
 416:Generated_Source\PSoC4/PM_ADC.c **** void PM_ADC_StopConvert(void)
 417:Generated_Source\PSoC4/PM_ADC.c **** {
 485              		.loc 1 417 0
 486              		.cfi_startproc
 487              		@ args = 0, pretend = 0, frame = 0
 488              		@ frame_needed = 1, uses_anonymous_args = 0
ARM GAS  C:\Users\alexport\AppData\Local\Temp\ccH3icja.s 			page 17


 489 0000 80B5     		push	{r7, lr}
 490              		.cfi_def_cfa_offset 8
 491              		.cfi_offset 7, -8
 492              		.cfi_offset 14, -4
 493 0002 00AF     		add	r7, sp, #0
 494              		.cfi_def_cfa_register 7
 418:Generated_Source\PSoC4/PM_ADC.c ****     #if(PM_ADC_DEFAULT_SAMPLE_MODE_SEL == PM_ADC__FREERUNNING)
 419:Generated_Source\PSoC4/PM_ADC.c ****         PM_ADC_SAR_SAMPLE_CTRL_REG &= (uint32)(~PM_ADC_CONTINUOUS_EN);
 495              		.loc 1 419 0
 496 0004 044B     		ldr	r3, .L31
 497 0006 044A     		ldr	r2, .L31
 498 0008 1268     		ldr	r2, [r2]
 499 000a 0449     		ldr	r1, .L31+4
 500 000c 0A40     		ands	r2, r1
 501 000e 1A60     		str	r2, [r3]
 420:Generated_Source\PSoC4/PM_ADC.c ****     #endif /* PM_ADC_DEFAULT_SAMPLE_MODE == PM_ADC__FREERUNNING */
 421:Generated_Source\PSoC4/PM_ADC.c **** }
 502              		.loc 1 421 0
 503 0010 C046     		nop
 504 0012 BD46     		mov	sp, r7
 505              		@ sp needed
 506 0014 80BD     		pop	{r7, pc}
 507              	.L32:
 508 0016 C046     		.align	2
 509              	.L31:
 510 0018 04003A40 		.word	1077542916
 511 001c FFFFFEFF 		.word	-65537
 512              		.cfi_endproc
 513              	.LFE7:
 514              		.size	PM_ADC_StopConvert, .-PM_ADC_StopConvert
 515              		.section	.text.PM_ADC_IsEndConversion,"ax",%progbits
 516              		.align	2
 517              		.global	PM_ADC_IsEndConversion
 518              		.code	16
 519              		.thumb_func
 520              		.type	PM_ADC_IsEndConversion, %function
 521              	PM_ADC_IsEndConversion:
 522              	.LFB8:
 422:Generated_Source\PSoC4/PM_ADC.c **** 
 423:Generated_Source\PSoC4/PM_ADC.c **** 
 424:Generated_Source\PSoC4/PM_ADC.c **** /*******************************************************************************
 425:Generated_Source\PSoC4/PM_ADC.c **** * Function Name: PM_ADC_IsEndConversion
 426:Generated_Source\PSoC4/PM_ADC.c **** ********************************************************************************
 427:Generated_Source\PSoC4/PM_ADC.c **** *
 428:Generated_Source\PSoC4/PM_ADC.c **** * Summary:
 429:Generated_Source\PSoC4/PM_ADC.c **** *  Description: Checks for ADC end of conversion for the case one
 430:Generated_Source\PSoC4/PM_ADC.c **** *  channel and end of scan for the case of multiple channels. It acts
 431:Generated_Source\PSoC4/PM_ADC.c **** *  as a software version of the EOC. This function provides the
 432:Generated_Source\PSoC4/PM_ADC.c **** *  programmer with two options. In one mode this function
 433:Generated_Source\PSoC4/PM_ADC.c **** *  immediately returns with the conversion status. In the other mode,
 434:Generated_Source\PSoC4/PM_ADC.c **** *  the function does not return (blocking) until the conversion has
 435:Generated_Source\PSoC4/PM_ADC.c **** *  completed.
 436:Generated_Source\PSoC4/PM_ADC.c **** *
 437:Generated_Source\PSoC4/PM_ADC.c **** * Parameters:
 438:Generated_Source\PSoC4/PM_ADC.c **** *  ADC_RETURN_STATUS        -> Immediately returns conversion result status
 439:Generated_Source\PSoC4/PM_ADC.c **** *  ADC_WAIT_FOR_RESULT      -> Does not return until ADC complete
 440:Generated_Source\PSoC4/PM_ADC.c **** *  ADC_RETURN_STATUS_INJ    -> Immediately returns conversion result status
ARM GAS  C:\Users\alexport\AppData\Local\Temp\ccH3icja.s 			page 18


 441:Generated_Source\PSoC4/PM_ADC.c **** *                              for injection channel
 442:Generated_Source\PSoC4/PM_ADC.c **** *  ADC_WAIT_FOR_RESULT_INJ  -> Does not return until ADC completes injection
 443:Generated_Source\PSoC4/PM_ADC.c **** *                              channel conversion
 444:Generated_Source\PSoC4/PM_ADC.c **** *
 445:Generated_Source\PSoC4/PM_ADC.c **** * Return:
 446:Generated_Source\PSoC4/PM_ADC.c **** *  If a non-zero value is returned, the last conversion or scan has completed.
 447:Generated_Source\PSoC4/PM_ADC.c **** *  If the returned value is zero, the ADC is still in the process of a scan.
 448:Generated_Source\PSoC4/PM_ADC.c **** *
 449:Generated_Source\PSoC4/PM_ADC.c **** *******************************************************************************/
 450:Generated_Source\PSoC4/PM_ADC.c **** uint32 PM_ADC_IsEndConversion(uint32 retMode)
 451:Generated_Source\PSoC4/PM_ADC.c **** {
 523              		.loc 1 451 0
 524              		.cfi_startproc
 525              		@ args = 0, pretend = 0, frame = 16
 526              		@ frame_needed = 1, uses_anonymous_args = 0
 527 0000 80B5     		push	{r7, lr}
 528              		.cfi_def_cfa_offset 8
 529              		.cfi_offset 7, -8
 530              		.cfi_offset 14, -4
 531 0002 84B0     		sub	sp, sp, #16
 532              		.cfi_def_cfa_offset 24
 533 0004 00AF     		add	r7, sp, #0
 534              		.cfi_def_cfa_register 7
 535 0006 7860     		str	r0, [r7, #4]
 452:Generated_Source\PSoC4/PM_ADC.c ****     uint32 status = 0u;
 536              		.loc 1 452 0
 537 0008 0023     		movs	r3, #0
 538 000a FB60     		str	r3, [r7, #12]
 453:Generated_Source\PSoC4/PM_ADC.c **** 
 454:Generated_Source\PSoC4/PM_ADC.c ****     if((retMode & (PM_ADC_RETURN_STATUS | PM_ADC_WAIT_FOR_RESULT)) != 0u)
 539              		.loc 1 454 0
 540 000c 7B68     		ldr	r3, [r7, #4]
 541 000e 0322     		movs	r2, #3
 542 0010 1340     		ands	r3, r2
 543 0012 11D0     		beq	.L34
 544              	.L36:
 455:Generated_Source\PSoC4/PM_ADC.c ****     {
 456:Generated_Source\PSoC4/PM_ADC.c ****         do
 457:Generated_Source\PSoC4/PM_ADC.c ****         {
 458:Generated_Source\PSoC4/PM_ADC.c ****             status = PM_ADC_SAR_INTR_REG & PM_ADC_EOS_MASK;
 545              		.loc 1 458 0 discriminator 2
 546 0014 0B4B     		ldr	r3, .L38
 547 0016 1B68     		ldr	r3, [r3]
 548 0018 0122     		movs	r2, #1
 549 001a 1340     		ands	r3, r2
 550 001c FB60     		str	r3, [r7, #12]
 459:Generated_Source\PSoC4/PM_ADC.c ****         }while((status == 0u) && ((retMode & PM_ADC_WAIT_FOR_RESULT) != 0u));
 551              		.loc 1 459 0 discriminator 2
 552 001e FB68     		ldr	r3, [r7, #12]
 553 0020 002B     		cmp	r3, #0
 554 0022 03D1     		bne	.L35
 555              		.loc 1 459 0 is_stmt 0 discriminator 1
 556 0024 7B68     		ldr	r3, [r7, #4]
 557 0026 0222     		movs	r2, #2
 558 0028 1340     		ands	r3, r2
 559 002a F3D1     		bne	.L36
 560              	.L35:
ARM GAS  C:\Users\alexport\AppData\Local\Temp\ccH3icja.s 			page 19


 460:Generated_Source\PSoC4/PM_ADC.c **** 
 461:Generated_Source\PSoC4/PM_ADC.c ****         if(status != 0u)
 561              		.loc 1 461 0 is_stmt 1
 562 002c FB68     		ldr	r3, [r7, #12]
 563 002e 002B     		cmp	r3, #0
 564 0030 02D0     		beq	.L34
 462:Generated_Source\PSoC4/PM_ADC.c ****         {
 463:Generated_Source\PSoC4/PM_ADC.c ****             /* Clear EOS bit */
 464:Generated_Source\PSoC4/PM_ADC.c ****             PM_ADC_SAR_INTR_REG = PM_ADC_EOS_MASK;
 565              		.loc 1 464 0
 566 0032 044B     		ldr	r3, .L38
 567 0034 0122     		movs	r2, #1
 568 0036 1A60     		str	r2, [r3]
 569              	.L34:
 465:Generated_Source\PSoC4/PM_ADC.c ****         }
 466:Generated_Source\PSoC4/PM_ADC.c ****     }
 467:Generated_Source\PSoC4/PM_ADC.c **** 
 468:Generated_Source\PSoC4/PM_ADC.c ****     #if(PM_ADC_INJ_CHANNEL_ENABLED)
 469:Generated_Source\PSoC4/PM_ADC.c ****         if((retMode & (PM_ADC_RETURN_STATUS_INJ | PM_ADC_WAIT_FOR_RESULT_INJ)) != 0u)
 470:Generated_Source\PSoC4/PM_ADC.c ****         {
 471:Generated_Source\PSoC4/PM_ADC.c ****             do
 472:Generated_Source\PSoC4/PM_ADC.c ****             {
 473:Generated_Source\PSoC4/PM_ADC.c ****                 status |= PM_ADC_SAR_INTR_REG & PM_ADC_INJ_EOC_MASK;
 474:Generated_Source\PSoC4/PM_ADC.c ****             }while(((status & PM_ADC_INJ_EOC_MASK) == 0u) &&
 475:Generated_Source\PSoC4/PM_ADC.c ****                    ((retMode & PM_ADC_WAIT_FOR_RESULT_INJ) != 0u));
 476:Generated_Source\PSoC4/PM_ADC.c **** 
 477:Generated_Source\PSoC4/PM_ADC.c ****             if((status & PM_ADC_INJ_EOC_MASK) != 0u)
 478:Generated_Source\PSoC4/PM_ADC.c ****             {
 479:Generated_Source\PSoC4/PM_ADC.c ****                 /* Clear Injection EOS bit */
 480:Generated_Source\PSoC4/PM_ADC.c ****                 PM_ADC_SAR_INTR_REG = PM_ADC_INJ_EOC_MASK;
 481:Generated_Source\PSoC4/PM_ADC.c ****             }
 482:Generated_Source\PSoC4/PM_ADC.c ****         }
 483:Generated_Source\PSoC4/PM_ADC.c ****     #endif /* PM_ADC_INJ_CHANNEL_ENABLED */
 484:Generated_Source\PSoC4/PM_ADC.c **** 
 485:Generated_Source\PSoC4/PM_ADC.c ****     return (status);
 570              		.loc 1 485 0
 571 0038 FB68     		ldr	r3, [r7, #12]
 486:Generated_Source\PSoC4/PM_ADC.c **** }
 572              		.loc 1 486 0
 573 003a 1800     		movs	r0, r3
 574 003c BD46     		mov	sp, r7
 575 003e 04B0     		add	sp, sp, #16
 576              		@ sp needed
 577 0040 80BD     		pop	{r7, pc}
 578              	.L39:
 579 0042 C046     		.align	2
 580              	.L38:
 581 0044 10023A40 		.word	1077543440
 582              		.cfi_endproc
 583              	.LFE8:
 584              		.size	PM_ADC_IsEndConversion, .-PM_ADC_IsEndConversion
 585              		.section	.text.PM_ADC_GetResult16,"ax",%progbits
 586              		.align	2
 587              		.global	PM_ADC_GetResult16
 588              		.code	16
 589              		.thumb_func
 590              		.type	PM_ADC_GetResult16, %function
ARM GAS  C:\Users\alexport\AppData\Local\Temp\ccH3icja.s 			page 20


 591              	PM_ADC_GetResult16:
 592              	.LFB9:
 487:Generated_Source\PSoC4/PM_ADC.c **** 
 488:Generated_Source\PSoC4/PM_ADC.c **** 
 489:Generated_Source\PSoC4/PM_ADC.c **** /*******************************************************************************
 490:Generated_Source\PSoC4/PM_ADC.c **** * Function Name: PM_ADC_GetResult16
 491:Generated_Source\PSoC4/PM_ADC.c **** ********************************************************************************
 492:Generated_Source\PSoC4/PM_ADC.c **** *
 493:Generated_Source\PSoC4/PM_ADC.c **** * Summary:
 494:Generated_Source\PSoC4/PM_ADC.c **** *  Gets the data available in the SAR DATA register.
 495:Generated_Source\PSoC4/PM_ADC.c **** *
 496:Generated_Source\PSoC4/PM_ADC.c **** * Parameters:
 497:Generated_Source\PSoC4/PM_ADC.c **** *  chan: The ADC channel in which to return the result. The first channel
 498:Generated_Source\PSoC4/PM_ADC.c **** *  is 0 and the injection channel if enabled is the number of valid channels.
 499:Generated_Source\PSoC4/PM_ADC.c **** *
 500:Generated_Source\PSoC4/PM_ADC.c **** * Return:
 501:Generated_Source\PSoC4/PM_ADC.c **** *  Returns converted data as a signed 16-bit integer
 502:Generated_Source\PSoC4/PM_ADC.c **** *
 503:Generated_Source\PSoC4/PM_ADC.c **** *******************************************************************************/
 504:Generated_Source\PSoC4/PM_ADC.c **** int16 PM_ADC_GetResult16(uint32 chan)
 505:Generated_Source\PSoC4/PM_ADC.c **** {
 593              		.loc 1 505 0
 594              		.cfi_startproc
 595              		@ args = 0, pretend = 0, frame = 16
 596              		@ frame_needed = 1, uses_anonymous_args = 0
 597 0000 80B5     		push	{r7, lr}
 598              		.cfi_def_cfa_offset 8
 599              		.cfi_offset 7, -8
 600              		.cfi_offset 14, -4
 601 0002 84B0     		sub	sp, sp, #16
 602              		.cfi_def_cfa_offset 24
 603 0004 00AF     		add	r7, sp, #0
 604              		.cfi_def_cfa_register 7
 605 0006 7860     		str	r0, [r7, #4]
 506:Generated_Source\PSoC4/PM_ADC.c ****     uint32 result;
 507:Generated_Source\PSoC4/PM_ADC.c **** 
 508:Generated_Source\PSoC4/PM_ADC.c ****     /* Halt CPU in debug mode if channel is out of valid range */
 509:Generated_Source\PSoC4/PM_ADC.c ****     CYASSERT(chan < PM_ADC_TOTAL_CHANNELS_NUM);
 606              		.loc 1 509 0
 607 0008 7B68     		ldr	r3, [r7, #4]
 608 000a 002B     		cmp	r3, #0
 609 000c 02D0     		beq	.L41
 610              		.loc 1 509 0 is_stmt 0 discriminator 1
 611 000e 0020     		movs	r0, #0
 612 0010 FFF7FEFF 		bl	CyHalt
 613              	.L41:
 510:Generated_Source\PSoC4/PM_ADC.c **** 
 511:Generated_Source\PSoC4/PM_ADC.c ****     if(chan < PM_ADC_SEQUENCED_CHANNELS_NUM)
 614              		.loc 1 511 0 is_stmt 1
 615 0014 7B68     		ldr	r3, [r7, #4]
 616 0016 002B     		cmp	r3, #0
 617 0018 09D1     		bne	.L42
 512:Generated_Source\PSoC4/PM_ADC.c ****     {
 513:Generated_Source\PSoC4/PM_ADC.c ****         result = CY_GET_REG32((reg32 *)(PM_ADC_SAR_CHAN_RESULT_IND + (uint32)(chan << 2u))) &
 618              		.loc 1 513 0
 619 001a 7B68     		ldr	r3, [r7, #4]
 620 001c 9B00     		lsls	r3, r3, #2
ARM GAS  C:\Users\alexport\AppData\Local\Temp\ccH3icja.s 			page 21


 621 001e 084A     		ldr	r2, .L45
 622 0020 9446     		mov	ip, r2
 623 0022 6344     		add	r3, r3, ip
 624 0024 1B68     		ldr	r3, [r3]
 625 0026 1B04     		lsls	r3, r3, #16
 626 0028 1B0C     		lsrs	r3, r3, #16
 627 002a FB60     		str	r3, [r7, #12]
 628 002c 01E0     		b	.L43
 629              	.L42:
 514:Generated_Source\PSoC4/PM_ADC.c ****                 PM_ADC_RESULT_MASK;
 515:Generated_Source\PSoC4/PM_ADC.c ****     }
 516:Generated_Source\PSoC4/PM_ADC.c ****     else
 517:Generated_Source\PSoC4/PM_ADC.c ****     {
 518:Generated_Source\PSoC4/PM_ADC.c ****         #if(PM_ADC_INJ_CHANNEL_ENABLED)
 519:Generated_Source\PSoC4/PM_ADC.c ****             result = PM_ADC_SAR_INJ_RESULT_REG & PM_ADC_RESULT_MASK;
 520:Generated_Source\PSoC4/PM_ADC.c ****         #else
 521:Generated_Source\PSoC4/PM_ADC.c ****             result = 0u;
 630              		.loc 1 521 0
 631 002e 0023     		movs	r3, #0
 632 0030 FB60     		str	r3, [r7, #12]
 633              	.L43:
 522:Generated_Source\PSoC4/PM_ADC.c ****         #endif /* PM_ADC_INJ_CHANNEL_ENABLED */
 523:Generated_Source\PSoC4/PM_ADC.c ****     }
 524:Generated_Source\PSoC4/PM_ADC.c **** 
 525:Generated_Source\PSoC4/PM_ADC.c ****     return ( (int16)result );
 634              		.loc 1 525 0
 635 0032 FB68     		ldr	r3, [r7, #12]
 636 0034 1BB2     		sxth	r3, r3
 526:Generated_Source\PSoC4/PM_ADC.c **** }
 637              		.loc 1 526 0
 638 0036 1800     		movs	r0, r3
 639 0038 BD46     		mov	sp, r7
 640 003a 04B0     		add	sp, sp, #16
 641              		@ sp needed
 642 003c 80BD     		pop	{r7, pc}
 643              	.L46:
 644 003e C046     		.align	2
 645              	.L45:
 646 0040 80013A40 		.word	1077543296
 647              		.cfi_endproc
 648              	.LFE9:
 649              		.size	PM_ADC_GetResult16, .-PM_ADC_GetResult16
 650              		.section	.text.PM_ADC_SetChanMask,"ax",%progbits
 651              		.align	2
 652              		.global	PM_ADC_SetChanMask
 653              		.code	16
 654              		.thumb_func
 655              		.type	PM_ADC_SetChanMask, %function
 656              	PM_ADC_SetChanMask:
 657              	.LFB10:
 527:Generated_Source\PSoC4/PM_ADC.c **** 
 528:Generated_Source\PSoC4/PM_ADC.c **** 
 529:Generated_Source\PSoC4/PM_ADC.c **** /*******************************************************************************
 530:Generated_Source\PSoC4/PM_ADC.c **** * Function Name: PM_ADC_SetChanMask
 531:Generated_Source\PSoC4/PM_ADC.c **** ********************************************************************************
 532:Generated_Source\PSoC4/PM_ADC.c **** *
 533:Generated_Source\PSoC4/PM_ADC.c **** * Summary:
ARM GAS  C:\Users\alexport\AppData\Local\Temp\ccH3icja.s 			page 22


 534:Generated_Source\PSoC4/PM_ADC.c **** *  Sets the channel enable mask.
 535:Generated_Source\PSoC4/PM_ADC.c **** *
 536:Generated_Source\PSoC4/PM_ADC.c **** * Parameters:
 537:Generated_Source\PSoC4/PM_ADC.c **** *  mask: Sets which channels that will be
 538:Generated_Source\PSoC4/PM_ADC.c **** *  scanned. Setting bits for channels that do not exist will have no
 539:Generated_Source\PSoC4/PM_ADC.c **** *  effect. For example, if only 6 channels were enabled, setting a
 540:Generated_Source\PSoC4/PM_ADC.c **** *  mask of 0x0103 would only enable the last two channels (0 and 1).
 541:Generated_Source\PSoC4/PM_ADC.c **** *  This API will not enable the injection channel.
 542:Generated_Source\PSoC4/PM_ADC.c **** *  Examples: If the component is setup to sequence through 8
 543:Generated_Source\PSoC4/PM_ADC.c **** *  channels, a mask of 0x000F would enable channels 0, 1, 2, and 3.
 544:Generated_Source\PSoC4/PM_ADC.c **** *
 545:Generated_Source\PSoC4/PM_ADC.c **** * Return:
 546:Generated_Source\PSoC4/PM_ADC.c **** *  None.
 547:Generated_Source\PSoC4/PM_ADC.c **** *
 548:Generated_Source\PSoC4/PM_ADC.c **** *******************************************************************************/
 549:Generated_Source\PSoC4/PM_ADC.c **** void PM_ADC_SetChanMask(uint32 mask)
 550:Generated_Source\PSoC4/PM_ADC.c **** {
 658              		.loc 1 550 0
 659              		.cfi_startproc
 660              		@ args = 0, pretend = 0, frame = 8
 661              		@ frame_needed = 1, uses_anonymous_args = 0
 662 0000 80B5     		push	{r7, lr}
 663              		.cfi_def_cfa_offset 8
 664              		.cfi_offset 7, -8
 665              		.cfi_offset 14, -4
 666 0002 82B0     		sub	sp, sp, #8
 667              		.cfi_def_cfa_offset 16
 668 0004 00AF     		add	r7, sp, #0
 669              		.cfi_def_cfa_register 7
 670 0006 7860     		str	r0, [r7, #4]
 551:Generated_Source\PSoC4/PM_ADC.c ****     PM_ADC_SAR_CHAN_EN_REG = mask & PM_ADC_MAX_CHANNELS_EN_MASK;
 671              		.loc 1 551 0
 672 0008 044B     		ldr	r3, .L48
 673 000a 7A68     		ldr	r2, [r7, #4]
 674 000c 0121     		movs	r1, #1
 675 000e 0A40     		ands	r2, r1
 676 0010 1A60     		str	r2, [r3]
 552:Generated_Source\PSoC4/PM_ADC.c **** }
 677              		.loc 1 552 0
 678 0012 C046     		nop
 679 0014 BD46     		mov	sp, r7
 680 0016 02B0     		add	sp, sp, #8
 681              		@ sp needed
 682 0018 80BD     		pop	{r7, pc}
 683              	.L49:
 684 001a C046     		.align	2
 685              	.L48:
 686 001c 20003A40 		.word	1077542944
 687              		.cfi_endproc
 688              	.LFE10:
 689              		.size	PM_ADC_SetChanMask, .-PM_ADC_SetChanMask
 690              		.section	.text.PM_ADC_SetLowLimit,"ax",%progbits
 691              		.align	2
 692              		.global	PM_ADC_SetLowLimit
 693              		.code	16
 694              		.thumb_func
 695              		.type	PM_ADC_SetLowLimit, %function
ARM GAS  C:\Users\alexport\AppData\Local\Temp\ccH3icja.s 			page 23


 696              	PM_ADC_SetLowLimit:
 697              	.LFB11:
 553:Generated_Source\PSoC4/PM_ADC.c **** 
 554:Generated_Source\PSoC4/PM_ADC.c **** #if(PM_ADC_INJ_CHANNEL_ENABLED)
 555:Generated_Source\PSoC4/PM_ADC.c **** 
 556:Generated_Source\PSoC4/PM_ADC.c **** 
 557:Generated_Source\PSoC4/PM_ADC.c ****     /*******************************************************************************
 558:Generated_Source\PSoC4/PM_ADC.c ****     * Function Name: PM_ADC_EnableInjection
 559:Generated_Source\PSoC4/PM_ADC.c ****     ********************************************************************************
 560:Generated_Source\PSoC4/PM_ADC.c ****     *
 561:Generated_Source\PSoC4/PM_ADC.c ****     * Summary:
 562:Generated_Source\PSoC4/PM_ADC.c ****     *  Enables the injection channel for the next scan only.
 563:Generated_Source\PSoC4/PM_ADC.c ****     *
 564:Generated_Source\PSoC4/PM_ADC.c ****     * Parameters:
 565:Generated_Source\PSoC4/PM_ADC.c ****     *  None.
 566:Generated_Source\PSoC4/PM_ADC.c ****     *
 567:Generated_Source\PSoC4/PM_ADC.c ****     * Return:
 568:Generated_Source\PSoC4/PM_ADC.c ****     *  None.
 569:Generated_Source\PSoC4/PM_ADC.c ****     *
 570:Generated_Source\PSoC4/PM_ADC.c ****     *******************************************************************************/
 571:Generated_Source\PSoC4/PM_ADC.c ****     void PM_ADC_EnableInjection(void)
 572:Generated_Source\PSoC4/PM_ADC.c ****     {
 573:Generated_Source\PSoC4/PM_ADC.c ****         PM_ADC_SAR_INJ_CHAN_CONFIG_REG |= PM_ADC_INJ_CHAN_EN;
 574:Generated_Source\PSoC4/PM_ADC.c ****     }
 575:Generated_Source\PSoC4/PM_ADC.c **** 
 576:Generated_Source\PSoC4/PM_ADC.c **** #endif /* PM_ADC_INJ_CHANNEL_ENABLED */
 577:Generated_Source\PSoC4/PM_ADC.c **** 
 578:Generated_Source\PSoC4/PM_ADC.c **** 
 579:Generated_Source\PSoC4/PM_ADC.c **** /*******************************************************************************
 580:Generated_Source\PSoC4/PM_ADC.c **** * Function Name: PM_ADC_SetLowLimit
 581:Generated_Source\PSoC4/PM_ADC.c **** ********************************************************************************
 582:Generated_Source\PSoC4/PM_ADC.c **** *
 583:Generated_Source\PSoC4/PM_ADC.c **** * Summary:
 584:Generated_Source\PSoC4/PM_ADC.c **** *  Sets the low limit parameter for a limit condition.
 585:Generated_Source\PSoC4/PM_ADC.c **** *
 586:Generated_Source\PSoC4/PM_ADC.c **** * Parameters:
 587:Generated_Source\PSoC4/PM_ADC.c **** *  lowLimit: The low limit for a limit condition.
 588:Generated_Source\PSoC4/PM_ADC.c **** *
 589:Generated_Source\PSoC4/PM_ADC.c **** * Return:
 590:Generated_Source\PSoC4/PM_ADC.c **** *  None.
 591:Generated_Source\PSoC4/PM_ADC.c **** *
 592:Generated_Source\PSoC4/PM_ADC.c **** *******************************************************************************/
 593:Generated_Source\PSoC4/PM_ADC.c **** void PM_ADC_SetLowLimit(uint32 lowLimit)
 594:Generated_Source\PSoC4/PM_ADC.c **** {
 698              		.loc 1 594 0
 699              		.cfi_startproc
 700              		@ args = 0, pretend = 0, frame = 8
 701              		@ frame_needed = 1, uses_anonymous_args = 0
 702 0000 80B5     		push	{r7, lr}
 703              		.cfi_def_cfa_offset 8
 704              		.cfi_offset 7, -8
 705              		.cfi_offset 14, -4
 706 0002 82B0     		sub	sp, sp, #8
 707              		.cfi_def_cfa_offset 16
 708 0004 00AF     		add	r7, sp, #0
 709              		.cfi_def_cfa_register 7
 710 0006 7860     		str	r0, [r7, #4]
ARM GAS  C:\Users\alexport\AppData\Local\Temp\ccH3icja.s 			page 24


 595:Generated_Source\PSoC4/PM_ADC.c ****     PM_ADC_SAR_RANGE_THRES_REG &= (uint32)(~PM_ADC_RANGE_LOW_MASK);
 711              		.loc 1 595 0
 712 0008 084B     		ldr	r3, .L51
 713 000a 084A     		ldr	r2, .L51
 714 000c 1268     		ldr	r2, [r2]
 715 000e 120C     		lsrs	r2, r2, #16
 716 0010 1204     		lsls	r2, r2, #16
 717 0012 1A60     		str	r2, [r3]
 596:Generated_Source\PSoC4/PM_ADC.c ****     PM_ADC_SAR_RANGE_THRES_REG |= lowLimit & PM_ADC_RANGE_LOW_MASK;
 718              		.loc 1 596 0
 719 0014 054B     		ldr	r3, .L51
 720 0016 054A     		ldr	r2, .L51
 721 0018 1168     		ldr	r1, [r2]
 722 001a 7A68     		ldr	r2, [r7, #4]
 723 001c 1204     		lsls	r2, r2, #16
 724 001e 120C     		lsrs	r2, r2, #16
 725 0020 0A43     		orrs	r2, r1
 726 0022 1A60     		str	r2, [r3]
 597:Generated_Source\PSoC4/PM_ADC.c **** }
 727              		.loc 1 597 0
 728 0024 C046     		nop
 729 0026 BD46     		mov	sp, r7
 730 0028 02B0     		add	sp, sp, #8
 731              		@ sp needed
 732 002a 80BD     		pop	{r7, pc}
 733              	.L52:
 734              		.align	2
 735              	.L51:
 736 002c 18003A40 		.word	1077542936
 737              		.cfi_endproc
 738              	.LFE11:
 739              		.size	PM_ADC_SetLowLimit, .-PM_ADC_SetLowLimit
 740              		.section	.text.PM_ADC_SetHighLimit,"ax",%progbits
 741              		.align	2
 742              		.global	PM_ADC_SetHighLimit
 743              		.code	16
 744              		.thumb_func
 745              		.type	PM_ADC_SetHighLimit, %function
 746              	PM_ADC_SetHighLimit:
 747              	.LFB12:
 598:Generated_Source\PSoC4/PM_ADC.c **** 
 599:Generated_Source\PSoC4/PM_ADC.c **** 
 600:Generated_Source\PSoC4/PM_ADC.c **** /*******************************************************************************
 601:Generated_Source\PSoC4/PM_ADC.c **** * Function Name: PM_ADC_SetHighLimit
 602:Generated_Source\PSoC4/PM_ADC.c **** ********************************************************************************
 603:Generated_Source\PSoC4/PM_ADC.c **** *
 604:Generated_Source\PSoC4/PM_ADC.c **** * Summary:
 605:Generated_Source\PSoC4/PM_ADC.c **** *  Sets the low limit parameter for a limit condition.
 606:Generated_Source\PSoC4/PM_ADC.c **** *
 607:Generated_Source\PSoC4/PM_ADC.c **** * Parameters:
 608:Generated_Source\PSoC4/PM_ADC.c **** *  highLimit: The high limit for a limit condition.
 609:Generated_Source\PSoC4/PM_ADC.c **** *
 610:Generated_Source\PSoC4/PM_ADC.c **** * Return:
 611:Generated_Source\PSoC4/PM_ADC.c **** *  None.
 612:Generated_Source\PSoC4/PM_ADC.c **** *
 613:Generated_Source\PSoC4/PM_ADC.c **** *******************************************************************************/
 614:Generated_Source\PSoC4/PM_ADC.c **** void PM_ADC_SetHighLimit(uint32 highLimit)
ARM GAS  C:\Users\alexport\AppData\Local\Temp\ccH3icja.s 			page 25


 615:Generated_Source\PSoC4/PM_ADC.c **** {
 748              		.loc 1 615 0
 749              		.cfi_startproc
 750              		@ args = 0, pretend = 0, frame = 8
 751              		@ frame_needed = 1, uses_anonymous_args = 0
 752 0000 80B5     		push	{r7, lr}
 753              		.cfi_def_cfa_offset 8
 754              		.cfi_offset 7, -8
 755              		.cfi_offset 14, -4
 756 0002 82B0     		sub	sp, sp, #8
 757              		.cfi_def_cfa_offset 16
 758 0004 00AF     		add	r7, sp, #0
 759              		.cfi_def_cfa_register 7
 760 0006 7860     		str	r0, [r7, #4]
 616:Generated_Source\PSoC4/PM_ADC.c ****     PM_ADC_SAR_RANGE_THRES_REG &= (uint32)(~PM_ADC_RANGE_HIGH_MASK);
 761              		.loc 1 616 0
 762 0008 084B     		ldr	r3, .L54
 763 000a 084A     		ldr	r2, .L54
 764 000c 1268     		ldr	r2, [r2]
 765 000e 1204     		lsls	r2, r2, #16
 766 0010 120C     		lsrs	r2, r2, #16
 767 0012 1A60     		str	r2, [r3]
 617:Generated_Source\PSoC4/PM_ADC.c ****     PM_ADC_SAR_RANGE_THRES_REG |= (uint32)(highLimit << PM_ADC_RANGE_HIGH_OFFSET);
 768              		.loc 1 617 0
 769 0014 054B     		ldr	r3, .L54
 770 0016 054A     		ldr	r2, .L54
 771 0018 1168     		ldr	r1, [r2]
 772 001a 7A68     		ldr	r2, [r7, #4]
 773 001c 1204     		lsls	r2, r2, #16
 774 001e 0A43     		orrs	r2, r1
 775 0020 1A60     		str	r2, [r3]
 618:Generated_Source\PSoC4/PM_ADC.c **** }
 776              		.loc 1 618 0
 777 0022 C046     		nop
 778 0024 BD46     		mov	sp, r7
 779 0026 02B0     		add	sp, sp, #8
 780              		@ sp needed
 781 0028 80BD     		pop	{r7, pc}
 782              	.L55:
 783 002a C046     		.align	2
 784              	.L54:
 785 002c 18003A40 		.word	1077542936
 786              		.cfi_endproc
 787              	.LFE12:
 788              		.size	PM_ADC_SetHighLimit, .-PM_ADC_SetHighLimit
 789              		.section	.text.PM_ADC_SetLimitMask,"ax",%progbits
 790              		.align	2
 791              		.global	PM_ADC_SetLimitMask
 792              		.code	16
 793              		.thumb_func
 794              		.type	PM_ADC_SetLimitMask, %function
 795              	PM_ADC_SetLimitMask:
 796              	.LFB13:
 619:Generated_Source\PSoC4/PM_ADC.c **** 
 620:Generated_Source\PSoC4/PM_ADC.c **** 
 621:Generated_Source\PSoC4/PM_ADC.c **** /*******************************************************************************
 622:Generated_Source\PSoC4/PM_ADC.c **** * Function Name: PM_ADC_SetLimitMask
ARM GAS  C:\Users\alexport\AppData\Local\Temp\ccH3icja.s 			page 26


 623:Generated_Source\PSoC4/PM_ADC.c **** ********************************************************************************
 624:Generated_Source\PSoC4/PM_ADC.c **** *
 625:Generated_Source\PSoC4/PM_ADC.c **** * Summary:
 626:Generated_Source\PSoC4/PM_ADC.c **** *  Sets the channel limit condition mask.
 627:Generated_Source\PSoC4/PM_ADC.c **** *
 628:Generated_Source\PSoC4/PM_ADC.c **** * Parameters:
 629:Generated_Source\PSoC4/PM_ADC.c **** *  mask: Sets which channels that may cause a
 630:Generated_Source\PSoC4/PM_ADC.c **** *  limit condition interrupt. Setting bits for channels that do not exist
 631:Generated_Source\PSoC4/PM_ADC.c **** *  will have no effect. For example, if only 6 channels were enabled,
 632:Generated_Source\PSoC4/PM_ADC.c **** *  setting a mask of 0x0103 would only enable the last two channels (0 and 1).
 633:Generated_Source\PSoC4/PM_ADC.c **** *
 634:Generated_Source\PSoC4/PM_ADC.c **** * Return:
 635:Generated_Source\PSoC4/PM_ADC.c **** *  None.
 636:Generated_Source\PSoC4/PM_ADC.c **** *
 637:Generated_Source\PSoC4/PM_ADC.c **** *******************************************************************************/
 638:Generated_Source\PSoC4/PM_ADC.c **** void PM_ADC_SetLimitMask(uint32 mask)
 639:Generated_Source\PSoC4/PM_ADC.c **** {
 797              		.loc 1 639 0
 798              		.cfi_startproc
 799              		@ args = 0, pretend = 0, frame = 8
 800              		@ frame_needed = 1, uses_anonymous_args = 0
 801 0000 80B5     		push	{r7, lr}
 802              		.cfi_def_cfa_offset 8
 803              		.cfi_offset 7, -8
 804              		.cfi_offset 14, -4
 805 0002 82B0     		sub	sp, sp, #8
 806              		.cfi_def_cfa_offset 16
 807 0004 00AF     		add	r7, sp, #0
 808              		.cfi_def_cfa_register 7
 809 0006 7860     		str	r0, [r7, #4]
 640:Generated_Source\PSoC4/PM_ADC.c ****     PM_ADC_SAR_RANGE_INTR_MASK_REG = mask & PM_ADC_MAX_CHANNELS_EN_MASK;
 810              		.loc 1 640 0
 811 0008 044B     		ldr	r3, .L57
 812 000a 7A68     		ldr	r2, [r7, #4]
 813 000c 0121     		movs	r1, #1
 814 000e 0A40     		ands	r2, r1
 815 0010 1A60     		str	r2, [r3]
 641:Generated_Source\PSoC4/PM_ADC.c **** }
 816              		.loc 1 641 0
 817 0012 C046     		nop
 818 0014 BD46     		mov	sp, r7
 819 0016 02B0     		add	sp, sp, #8
 820              		@ sp needed
 821 0018 80BD     		pop	{r7, pc}
 822              	.L58:
 823 001a C046     		.align	2
 824              	.L57:
 825 001c 38023A40 		.word	1077543480
 826              		.cfi_endproc
 827              	.LFE13:
 828              		.size	PM_ADC_SetLimitMask, .-PM_ADC_SetLimitMask
 829              		.section	.text.PM_ADC_SetSatMask,"ax",%progbits
 830              		.align	2
 831              		.global	PM_ADC_SetSatMask
 832              		.code	16
 833              		.thumb_func
 834              		.type	PM_ADC_SetSatMask, %function
ARM GAS  C:\Users\alexport\AppData\Local\Temp\ccH3icja.s 			page 27


 835              	PM_ADC_SetSatMask:
 836              	.LFB14:
 642:Generated_Source\PSoC4/PM_ADC.c **** 
 643:Generated_Source\PSoC4/PM_ADC.c **** 
 644:Generated_Source\PSoC4/PM_ADC.c **** /*******************************************************************************
 645:Generated_Source\PSoC4/PM_ADC.c **** * Function Name: PM_ADC_SetSatMask
 646:Generated_Source\PSoC4/PM_ADC.c **** ********************************************************************************
 647:Generated_Source\PSoC4/PM_ADC.c **** *
 648:Generated_Source\PSoC4/PM_ADC.c **** * Summary:
 649:Generated_Source\PSoC4/PM_ADC.c **** *  Sets the channel saturation event mask.
 650:Generated_Source\PSoC4/PM_ADC.c **** *
 651:Generated_Source\PSoC4/PM_ADC.c **** * Parameters:
 652:Generated_Source\PSoC4/PM_ADC.c **** *  mask: Sets which channels that may cause a
 653:Generated_Source\PSoC4/PM_ADC.c **** *  saturation event interrupt. Setting bits for channels that do not exist
 654:Generated_Source\PSoC4/PM_ADC.c **** *  will have no effect. For example, if only 8 channels were enabled,
 655:Generated_Source\PSoC4/PM_ADC.c **** *  setting a mask of 0x01C0 would only enable two channels (6 and 7).
 656:Generated_Source\PSoC4/PM_ADC.c **** *
 657:Generated_Source\PSoC4/PM_ADC.c **** * Return:
 658:Generated_Source\PSoC4/PM_ADC.c **** *  None.
 659:Generated_Source\PSoC4/PM_ADC.c **** *
 660:Generated_Source\PSoC4/PM_ADC.c **** *******************************************************************************/
 661:Generated_Source\PSoC4/PM_ADC.c **** void PM_ADC_SetSatMask(uint32 mask)
 662:Generated_Source\PSoC4/PM_ADC.c **** {
 837              		.loc 1 662 0
 838              		.cfi_startproc
 839              		@ args = 0, pretend = 0, frame = 8
 840              		@ frame_needed = 1, uses_anonymous_args = 0
 841 0000 80B5     		push	{r7, lr}
 842              		.cfi_def_cfa_offset 8
 843              		.cfi_offset 7, -8
 844              		.cfi_offset 14, -4
 845 0002 82B0     		sub	sp, sp, #8
 846              		.cfi_def_cfa_offset 16
 847 0004 00AF     		add	r7, sp, #0
 848              		.cfi_def_cfa_register 7
 849 0006 7860     		str	r0, [r7, #4]
 663:Generated_Source\PSoC4/PM_ADC.c ****     PM_ADC_SAR_SATURATE_INTR_MASK_REG = mask & PM_ADC_MAX_CHANNELS_EN_MASK;
 850              		.loc 1 663 0
 851 0008 044B     		ldr	r3, .L60
 852 000a 7A68     		ldr	r2, [r7, #4]
 853 000c 0121     		movs	r1, #1
 854 000e 0A40     		ands	r2, r1
 855 0010 1A60     		str	r2, [r3]
 664:Generated_Source\PSoC4/PM_ADC.c **** }
 856              		.loc 1 664 0
 857 0012 C046     		nop
 858 0014 BD46     		mov	sp, r7
 859 0016 02B0     		add	sp, sp, #8
 860              		@ sp needed
 861 0018 80BD     		pop	{r7, pc}
 862              	.L61:
 863 001a C046     		.align	2
 864              	.L60:
 865 001c 28023A40 		.word	1077543464
 866              		.cfi_endproc
 867              	.LFE14:
 868              		.size	PM_ADC_SetSatMask, .-PM_ADC_SetSatMask
ARM GAS  C:\Users\alexport\AppData\Local\Temp\ccH3icja.s 			page 28


 869              		.section	.text.PM_ADC_SetOffset,"ax",%progbits
 870              		.align	2
 871              		.global	PM_ADC_SetOffset
 872              		.code	16
 873              		.thumb_func
 874              		.type	PM_ADC_SetOffset, %function
 875              	PM_ADC_SetOffset:
 876              	.LFB15:
 665:Generated_Source\PSoC4/PM_ADC.c **** 
 666:Generated_Source\PSoC4/PM_ADC.c **** 
 667:Generated_Source\PSoC4/PM_ADC.c **** /*******************************************************************************
 668:Generated_Source\PSoC4/PM_ADC.c **** * Function Name: PM_ADC_SetOffset
 669:Generated_Source\PSoC4/PM_ADC.c **** ********************************************************************************
 670:Generated_Source\PSoC4/PM_ADC.c **** *
 671:Generated_Source\PSoC4/PM_ADC.c **** * Summary:
 672:Generated_Source\PSoC4/PM_ADC.c **** *   Description: Sets the ADC offset which is used by the functions
 673:Generated_Source\PSoC4/PM_ADC.c **** *   ADC_CountsTo_uVolts, ADC_CountsTo_mVolts and ADC_CountsTo_Volts
 674:Generated_Source\PSoC4/PM_ADC.c **** *   to substract the offset from the given reading
 675:Generated_Source\PSoC4/PM_ADC.c **** *   before calculating the voltage conversion.
 676:Generated_Source\PSoC4/PM_ADC.c **** *
 677:Generated_Source\PSoC4/PM_ADC.c **** * Parameters:
 678:Generated_Source\PSoC4/PM_ADC.c **** *  chan: ADC channel number.
 679:Generated_Source\PSoC4/PM_ADC.c **** *  offset: This value is a measured value when the
 680:Generated_Source\PSoC4/PM_ADC.c **** *          inputs are shorted or connected to the same input voltage.
 681:Generated_Source\PSoC4/PM_ADC.c **** *
 682:Generated_Source\PSoC4/PM_ADC.c **** * Return:
 683:Generated_Source\PSoC4/PM_ADC.c **** *  None.
 684:Generated_Source\PSoC4/PM_ADC.c **** *
 685:Generated_Source\PSoC4/PM_ADC.c **** * Global variables:
 686:Generated_Source\PSoC4/PM_ADC.c **** *  PM_ADC_Offset:  Modified to set the user provided offset.
 687:Generated_Source\PSoC4/PM_ADC.c **** *
 688:Generated_Source\PSoC4/PM_ADC.c **** *******************************************************************************/
 689:Generated_Source\PSoC4/PM_ADC.c **** void PM_ADC_SetOffset(uint32 chan, int16 offset)
 690:Generated_Source\PSoC4/PM_ADC.c **** {
 877              		.loc 1 690 0
 878              		.cfi_startproc
 879              		@ args = 0, pretend = 0, frame = 8
 880              		@ frame_needed = 1, uses_anonymous_args = 0
 881 0000 80B5     		push	{r7, lr}
 882              		.cfi_def_cfa_offset 8
 883              		.cfi_offset 7, -8
 884              		.cfi_offset 14, -4
 885 0002 82B0     		sub	sp, sp, #8
 886              		.cfi_def_cfa_offset 16
 887 0004 00AF     		add	r7, sp, #0
 888              		.cfi_def_cfa_register 7
 889 0006 7860     		str	r0, [r7, #4]
 890 0008 0A00     		movs	r2, r1
 891 000a BB1C     		adds	r3, r7, #2
 892 000c 1A80     		strh	r2, [r3]
 691:Generated_Source\PSoC4/PM_ADC.c ****     /* Halt CPU in debug mode if channel is out of valid range */
 692:Generated_Source\PSoC4/PM_ADC.c ****     CYASSERT(chan < PM_ADC_TOTAL_CHANNELS_NUM);
 893              		.loc 1 692 0
 894 000e 7B68     		ldr	r3, [r7, #4]
 895 0010 002B     		cmp	r3, #0
 896 0012 02D0     		beq	.L63
 897              		.loc 1 692 0 is_stmt 0 discriminator 1
ARM GAS  C:\Users\alexport\AppData\Local\Temp\ccH3icja.s 			page 29


 898 0014 0020     		movs	r0, #0
 899 0016 FFF7FEFF 		bl	CyHalt
 900              	.L63:
 693:Generated_Source\PSoC4/PM_ADC.c **** 
 694:Generated_Source\PSoC4/PM_ADC.c ****     PM_ADC_offset[chan] = offset;
 901              		.loc 1 694 0 is_stmt 1
 902 001a 054B     		ldr	r3, .L64
 903 001c 7A68     		ldr	r2, [r7, #4]
 904 001e 5200     		lsls	r2, r2, #1
 905 0020 B91C     		adds	r1, r7, #2
 906 0022 0988     		ldrh	r1, [r1]
 907 0024 D152     		strh	r1, [r2, r3]
 695:Generated_Source\PSoC4/PM_ADC.c **** }
 908              		.loc 1 695 0
 909 0026 C046     		nop
 910 0028 BD46     		mov	sp, r7
 911 002a 02B0     		add	sp, sp, #8
 912              		@ sp needed
 913 002c 80BD     		pop	{r7, pc}
 914              	.L65:
 915 002e C046     		.align	2
 916              	.L64:
 917 0030 00000000 		.word	PM_ADC_offset
 918              		.cfi_endproc
 919              	.LFE15:
 920              		.size	PM_ADC_SetOffset, .-PM_ADC_SetOffset
 921              		.section	.text.PM_ADC_SetGain,"ax",%progbits
 922              		.align	2
 923              		.global	PM_ADC_SetGain
 924              		.code	16
 925              		.thumb_func
 926              		.type	PM_ADC_SetGain, %function
 927              	PM_ADC_SetGain:
 928              	.LFB16:
 696:Generated_Source\PSoC4/PM_ADC.c **** 
 697:Generated_Source\PSoC4/PM_ADC.c **** 
 698:Generated_Source\PSoC4/PM_ADC.c **** /*******************************************************************************
 699:Generated_Source\PSoC4/PM_ADC.c **** * Function Name: PM_ADC_SetGain
 700:Generated_Source\PSoC4/PM_ADC.c **** ********************************************************************************
 701:Generated_Source\PSoC4/PM_ADC.c **** *
 702:Generated_Source\PSoC4/PM_ADC.c **** * Summary:
 703:Generated_Source\PSoC4/PM_ADC.c **** *  Description: Sets the ADC gain in counts per 10 volt for the voltage
 704:Generated_Source\PSoC4/PM_ADC.c **** *  conversion functions below. This value is set by default by the
 705:Generated_Source\PSoC4/PM_ADC.c **** *  reference and input range settings. It should only be used to further
 706:Generated_Source\PSoC4/PM_ADC.c **** *  calibrate the ADC with a known input or if an external reference is
 707:Generated_Source\PSoC4/PM_ADC.c **** *  used. Affects the ADC_CountsTo_uVolts, ADC_CountsTo_mVolts
 708:Generated_Source\PSoC4/PM_ADC.c **** *  and ADC_CountsTo_Volts functions by supplying the correct
 709:Generated_Source\PSoC4/PM_ADC.c **** *  conversion between ADC counts and voltage.
 710:Generated_Source\PSoC4/PM_ADC.c **** *
 711:Generated_Source\PSoC4/PM_ADC.c **** * Parameters:
 712:Generated_Source\PSoC4/PM_ADC.c **** *  chan: ADC channel number.
 713:Generated_Source\PSoC4/PM_ADC.c **** *  adcGain: ADC gain in counts per 10 volts.
 714:Generated_Source\PSoC4/PM_ADC.c **** *
 715:Generated_Source\PSoC4/PM_ADC.c **** * Return:
 716:Generated_Source\PSoC4/PM_ADC.c **** *  None.
 717:Generated_Source\PSoC4/PM_ADC.c **** *
 718:Generated_Source\PSoC4/PM_ADC.c **** * Global variables:
ARM GAS  C:\Users\alexport\AppData\Local\Temp\ccH3icja.s 			page 30


 719:Generated_Source\PSoC4/PM_ADC.c **** *  PM_ADC_CountsPer10Volt:  modified to set the ADC gain in counts
 720:Generated_Source\PSoC4/PM_ADC.c **** *   per 10 volt.
 721:Generated_Source\PSoC4/PM_ADC.c **** *
 722:Generated_Source\PSoC4/PM_ADC.c **** *******************************************************************************/
 723:Generated_Source\PSoC4/PM_ADC.c **** void PM_ADC_SetGain(uint32 chan, int32 adcGain)
 724:Generated_Source\PSoC4/PM_ADC.c **** {
 929              		.loc 1 724 0
 930              		.cfi_startproc
 931              		@ args = 0, pretend = 0, frame = 8
 932              		@ frame_needed = 1, uses_anonymous_args = 0
 933 0000 80B5     		push	{r7, lr}
 934              		.cfi_def_cfa_offset 8
 935              		.cfi_offset 7, -8
 936              		.cfi_offset 14, -4
 937 0002 82B0     		sub	sp, sp, #8
 938              		.cfi_def_cfa_offset 16
 939 0004 00AF     		add	r7, sp, #0
 940              		.cfi_def_cfa_register 7
 941 0006 7860     		str	r0, [r7, #4]
 942 0008 3960     		str	r1, [r7]
 725:Generated_Source\PSoC4/PM_ADC.c ****     /* Halt CPU in debug mode if channel is out of valid range */
 726:Generated_Source\PSoC4/PM_ADC.c ****     CYASSERT(chan < PM_ADC_TOTAL_CHANNELS_NUM);
 943              		.loc 1 726 0
 944 000a 7B68     		ldr	r3, [r7, #4]
 945 000c 002B     		cmp	r3, #0
 946 000e 02D0     		beq	.L67
 947              		.loc 1 726 0 is_stmt 0 discriminator 1
 948 0010 0020     		movs	r0, #0
 949 0012 FFF7FEFF 		bl	CyHalt
 950              	.L67:
 727:Generated_Source\PSoC4/PM_ADC.c **** 
 728:Generated_Source\PSoC4/PM_ADC.c ****     PM_ADC_countsPer10Volt[chan] = adcGain;
 951              		.loc 1 728 0 is_stmt 1
 952 0016 044B     		ldr	r3, .L68
 953 0018 7A68     		ldr	r2, [r7, #4]
 954 001a 9200     		lsls	r2, r2, #2
 955 001c 3968     		ldr	r1, [r7]
 956 001e D150     		str	r1, [r2, r3]
 729:Generated_Source\PSoC4/PM_ADC.c **** }
 957              		.loc 1 729 0
 958 0020 C046     		nop
 959 0022 BD46     		mov	sp, r7
 960 0024 02B0     		add	sp, sp, #8
 961              		@ sp needed
 962 0026 80BD     		pop	{r7, pc}
 963              	.L69:
 964              		.align	2
 965              	.L68:
 966 0028 00000000 		.word	PM_ADC_countsPer10Volt
 967              		.cfi_endproc
 968              	.LFE16:
 969              		.size	PM_ADC_SetGain, .-PM_ADC_SetGain
 970              		.section	.text.PM_ADC_CountsTo_mVolts,"ax",%progbits
 971              		.align	2
 972              		.global	PM_ADC_CountsTo_mVolts
 973              		.code	16
 974              		.thumb_func
ARM GAS  C:\Users\alexport\AppData\Local\Temp\ccH3icja.s 			page 31


 975              		.type	PM_ADC_CountsTo_mVolts, %function
 976              	PM_ADC_CountsTo_mVolts:
 977              	.LFB17:
 730:Generated_Source\PSoC4/PM_ADC.c **** 
 731:Generated_Source\PSoC4/PM_ADC.c **** 
 732:Generated_Source\PSoC4/PM_ADC.c **** #if(PM_ADC_DEFAULT_JUSTIFICATION_SEL == PM_ADC__RIGHT)
 733:Generated_Source\PSoC4/PM_ADC.c **** 
 734:Generated_Source\PSoC4/PM_ADC.c **** 
 735:Generated_Source\PSoC4/PM_ADC.c ****     /*******************************************************************************
 736:Generated_Source\PSoC4/PM_ADC.c ****     * Function Name: PM_ADC_CountsTo_mVolts
 737:Generated_Source\PSoC4/PM_ADC.c ****     ********************************************************************************
 738:Generated_Source\PSoC4/PM_ADC.c ****     *
 739:Generated_Source\PSoC4/PM_ADC.c ****     * Summary:
 740:Generated_Source\PSoC4/PM_ADC.c ****     *  This function converts ADC counts to mVolts
 741:Generated_Source\PSoC4/PM_ADC.c ****     *  This function is not available when left data format justification selected.
 742:Generated_Source\PSoC4/PM_ADC.c ****     *
 743:Generated_Source\PSoC4/PM_ADC.c ****     * Parameters:
 744:Generated_Source\PSoC4/PM_ADC.c ****     *  chan: The ADC channel number.
 745:Generated_Source\PSoC4/PM_ADC.c ****     *  adcCounts: Result from the ADC conversion
 746:Generated_Source\PSoC4/PM_ADC.c ****     *
 747:Generated_Source\PSoC4/PM_ADC.c ****     * Return:
 748:Generated_Source\PSoC4/PM_ADC.c ****     *  Results in mVolts
 749:Generated_Source\PSoC4/PM_ADC.c ****     *
 750:Generated_Source\PSoC4/PM_ADC.c ****     * Global variables:
 751:Generated_Source\PSoC4/PM_ADC.c ****     *  PM_ADC_countsPer10Volt:  used to convert ADC counts to mVolts.
 752:Generated_Source\PSoC4/PM_ADC.c ****     *  PM_ADC_Offset:  Used as the offset while converting ADC counts
 753:Generated_Source\PSoC4/PM_ADC.c ****     *   to mVolts.
 754:Generated_Source\PSoC4/PM_ADC.c ****     *
 755:Generated_Source\PSoC4/PM_ADC.c ****     *******************************************************************************/
 756:Generated_Source\PSoC4/PM_ADC.c ****     int16 PM_ADC_CountsTo_mVolts(uint32 chan, int16 adcCounts)
 757:Generated_Source\PSoC4/PM_ADC.c ****     {
 978              		.loc 1 757 0
 979              		.cfi_startproc
 980              		@ args = 0, pretend = 0, frame = 16
 981              		@ frame_needed = 1, uses_anonymous_args = 0
 982 0000 80B5     		push	{r7, lr}
 983              		.cfi_def_cfa_offset 8
 984              		.cfi_offset 7, -8
 985              		.cfi_offset 14, -4
 986 0002 84B0     		sub	sp, sp, #16
 987              		.cfi_def_cfa_offset 24
 988 0004 00AF     		add	r7, sp, #0
 989              		.cfi_def_cfa_register 7
 990 0006 7860     		str	r0, [r7, #4]
 991 0008 0A00     		movs	r2, r1
 992 000a BB1C     		adds	r3, r7, #2
 993 000c 1A80     		strh	r2, [r3]
 758:Generated_Source\PSoC4/PM_ADC.c ****         int16 mVolts;
 759:Generated_Source\PSoC4/PM_ADC.c **** 
 760:Generated_Source\PSoC4/PM_ADC.c ****         /* Halt CPU in debug mode if channel is out of valid range */
 761:Generated_Source\PSoC4/PM_ADC.c ****         CYASSERT(chan < PM_ADC_TOTAL_CHANNELS_NUM);
 994              		.loc 1 761 0
 995 000e 7B68     		ldr	r3, [r7, #4]
 996 0010 002B     		cmp	r3, #0
 997 0012 02D0     		beq	.L71
 998              		.loc 1 761 0 is_stmt 0 discriminator 1
 999 0014 0020     		movs	r0, #0
ARM GAS  C:\Users\alexport\AppData\Local\Temp\ccH3icja.s 			page 32


 1000 0016 FFF7FEFF 		bl	CyHalt
 1001              	.L71:
 762:Generated_Source\PSoC4/PM_ADC.c **** 
 763:Generated_Source\PSoC4/PM_ADC.c ****         /* Divide the adcCount when accumulate averaging mode selected */
 764:Generated_Source\PSoC4/PM_ADC.c ****         #if(PM_ADC_DEFAULT_AVG_MODE == PM_ADC__ACCUMULATE)
 765:Generated_Source\PSoC4/PM_ADC.c ****             if((PM_ADC_channelsConfig[chan] & PM_ADC_AVERAGING_EN) != 0u)
 766:Generated_Source\PSoC4/PM_ADC.c ****             {
 767:Generated_Source\PSoC4/PM_ADC.c ****                 adcCounts /= PM_ADC_DEFAULT_AVG_SAMPLES_DIV;
 768:Generated_Source\PSoC4/PM_ADC.c ****             }
 769:Generated_Source\PSoC4/PM_ADC.c ****         #endif /* PM_ADC_DEFAULT_AVG_MODE == PM_ADC__ACCUMULATE */
 770:Generated_Source\PSoC4/PM_ADC.c **** 
 771:Generated_Source\PSoC4/PM_ADC.c ****         /* Subtract ADC offset */
 772:Generated_Source\PSoC4/PM_ADC.c ****         adcCounts -= PM_ADC_offset[chan];
 1002              		.loc 1 772 0 is_stmt 1
 1003 001a 1E4B     		ldr	r3, .L77
 1004 001c 7A68     		ldr	r2, [r7, #4]
 1005 001e 5200     		lsls	r2, r2, #1
 1006 0020 D35A     		ldrh	r3, [r2, r3]
 1007 0022 19B2     		sxth	r1, r3
 1008 0024 BB1C     		adds	r3, r7, #2
 1009 0026 1A88     		ldrh	r2, [r3]
 1010 0028 8BB2     		uxth	r3, r1
 1011 002a D31A     		subs	r3, r2, r3
 1012 002c 9AB2     		uxth	r2, r3
 1013 002e BB1C     		adds	r3, r7, #2
 1014 0030 1A80     		strh	r2, [r3]
 773:Generated_Source\PSoC4/PM_ADC.c **** 
 774:Generated_Source\PSoC4/PM_ADC.c ****         mVolts = (int16)((((int32)adcCounts * PM_ADC_10MV_COUNTS) + ( (adcCounts > 0) ?
 1015              		.loc 1 774 0
 1016 0032 BB1C     		adds	r3, r7, #2
 1017 0034 0022     		movs	r2, #0
 1018 0036 9B5E     		ldrsh	r3, [r3, r2]
 1019 0038 174A     		ldr	r2, .L77+4
 1020 003a 5A43     		muls	r2, r3
 775:Generated_Source\PSoC4/PM_ADC.c ****                  (PM_ADC_countsPer10Volt[chan] / 2) : (-(PM_ADC_countsPer10Volt[chan] / 2)) ))
 1021              		.loc 1 775 0
 1022 003c BB1C     		adds	r3, r7, #2
 1023 003e 0021     		movs	r1, #0
 1024 0040 5B5E     		ldrsh	r3, [r3, r1]
 1025 0042 002B     		cmp	r3, #0
 1026 0044 08DD     		ble	.L72
 1027              		.loc 1 775 0 is_stmt 0 discriminator 1
 1028 0046 154B     		ldr	r3, .L77+8
 1029 0048 7968     		ldr	r1, [r7, #4]
 1030 004a 8900     		lsls	r1, r1, #2
 1031 004c CB58     		ldr	r3, [r1, r3]
 1032 004e 002B     		cmp	r3, #0
 1033 0050 00DA     		bge	.L73
 1034 0052 0133     		adds	r3, r3, #1
 1035              	.L73:
 1036 0054 5B10     		asrs	r3, r3, #1
 1037 0056 08E0     		b	.L74
 1038              	.L72:
 1039              		.loc 1 775 0 discriminator 2
 1040 0058 104B     		ldr	r3, .L77+8
 1041 005a 7968     		ldr	r1, [r7, #4]
 1042 005c 8900     		lsls	r1, r1, #2
ARM GAS  C:\Users\alexport\AppData\Local\Temp\ccH3icja.s 			page 33


 1043 005e CB58     		ldr	r3, [r1, r3]
 1044 0060 002B     		cmp	r3, #0
 1045 0062 00DA     		bge	.L75
 1046 0064 0133     		adds	r3, r3, #1
 1047              	.L75:
 1048 0066 5B10     		asrs	r3, r3, #1
 1049 0068 5B42     		rsbs	r3, r3, #0
 1050              	.L74:
 774:Generated_Source\PSoC4/PM_ADC.c ****                  (PM_ADC_countsPer10Volt[chan] / 2) : (-(PM_ADC_countsPer10Volt[chan] / 2)) ))
 1051              		.loc 1 774 0 is_stmt 1
 1052 006a D018     		adds	r0, r2, r3
 776:Generated_Source\PSoC4/PM_ADC.c ****                  / PM_ADC_countsPer10Volt[chan]);
 1053              		.loc 1 776 0
 1054 006c 0B4B     		ldr	r3, .L77+8
 1055 006e 7A68     		ldr	r2, [r7, #4]
 1056 0070 9200     		lsls	r2, r2, #2
 1057 0072 D358     		ldr	r3, [r2, r3]
 1058 0074 1900     		movs	r1, r3
 1059 0076 FFF7FEFF 		bl	__aeabi_idiv
 1060 007a 0300     		movs	r3, r0
 1061 007c 1A00     		movs	r2, r3
 774:Generated_Source\PSoC4/PM_ADC.c ****                  (PM_ADC_countsPer10Volt[chan] / 2) : (-(PM_ADC_countsPer10Volt[chan] / 2)) ))
 1062              		.loc 1 774 0
 1063 007e 0E23     		movs	r3, #14
 1064 0080 FB18     		adds	r3, r7, r3
 1065 0082 1A80     		strh	r2, [r3]
 777:Generated_Source\PSoC4/PM_ADC.c **** 
 778:Generated_Source\PSoC4/PM_ADC.c ****         return( mVolts );
 1066              		.loc 1 778 0
 1067 0084 0E23     		movs	r3, #14
 1068 0086 FB18     		adds	r3, r7, r3
 1069 0088 0022     		movs	r2, #0
 1070 008a 9B5E     		ldrsh	r3, [r3, r2]
 779:Generated_Source\PSoC4/PM_ADC.c ****     }
 1071              		.loc 1 779 0
 1072 008c 1800     		movs	r0, r3
 1073 008e BD46     		mov	sp, r7
 1074 0090 04B0     		add	sp, sp, #16
 1075              		@ sp needed
 1076 0092 80BD     		pop	{r7, pc}
 1077              	.L78:
 1078              		.align	2
 1079              	.L77:
 1080 0094 00000000 		.word	PM_ADC_offset
 1081 0098 10270000 		.word	10000
 1082 009c 00000000 		.word	PM_ADC_countsPer10Volt
 1083              		.cfi_endproc
 1084              	.LFE17:
 1085              		.size	PM_ADC_CountsTo_mVolts, .-PM_ADC_CountsTo_mVolts
 1086              		.global	__aeabi_lmul
 1087              		.global	__aeabi_ldivmod
 1088              		.section	.text.PM_ADC_CountsTo_uVolts,"ax",%progbits
 1089              		.align	2
 1090              		.global	PM_ADC_CountsTo_uVolts
 1091              		.code	16
 1092              		.thumb_func
 1093              		.type	PM_ADC_CountsTo_uVolts, %function
ARM GAS  C:\Users\alexport\AppData\Local\Temp\ccH3icja.s 			page 34


 1094              	PM_ADC_CountsTo_uVolts:
 1095              	.LFB18:
 780:Generated_Source\PSoC4/PM_ADC.c **** 
 781:Generated_Source\PSoC4/PM_ADC.c **** 
 782:Generated_Source\PSoC4/PM_ADC.c ****     /*******************************************************************************
 783:Generated_Source\PSoC4/PM_ADC.c ****     * Function Name: PM_ADC_CountsTo_uVolts
 784:Generated_Source\PSoC4/PM_ADC.c ****     ********************************************************************************
 785:Generated_Source\PSoC4/PM_ADC.c ****     *
 786:Generated_Source\PSoC4/PM_ADC.c ****     * Summary:
 787:Generated_Source\PSoC4/PM_ADC.c ****     *  This function converts ADC counts to micro Volts
 788:Generated_Source\PSoC4/PM_ADC.c ****     *  This function is not available when left data format justification selected.
 789:Generated_Source\PSoC4/PM_ADC.c ****     *
 790:Generated_Source\PSoC4/PM_ADC.c ****     * Parameters:
 791:Generated_Source\PSoC4/PM_ADC.c ****     *  chan: The ADC channel number.
 792:Generated_Source\PSoC4/PM_ADC.c ****     *  adcCounts: Result from the ADC conversion
 793:Generated_Source\PSoC4/PM_ADC.c ****     *
 794:Generated_Source\PSoC4/PM_ADC.c ****     * Return:
 795:Generated_Source\PSoC4/PM_ADC.c ****     *  Results in uVolts
 796:Generated_Source\PSoC4/PM_ADC.c ****     *
 797:Generated_Source\PSoC4/PM_ADC.c ****     * Global variables:
 798:Generated_Source\PSoC4/PM_ADC.c ****     *  PM_ADC_countsPer10Volt:  used to convert ADC counts to uVolts.
 799:Generated_Source\PSoC4/PM_ADC.c ****     *  PM_ADC_Offset:  Used as the offset while converting ADC counts
 800:Generated_Source\PSoC4/PM_ADC.c ****     *   to mVolts.
 801:Generated_Source\PSoC4/PM_ADC.c ****     *
 802:Generated_Source\PSoC4/PM_ADC.c ****     * Theory:
 803:Generated_Source\PSoC4/PM_ADC.c ****     *  Care must be taken to not exceed the maximum value for a 31 bit signed
 804:Generated_Source\PSoC4/PM_ADC.c ****     *  number in the conversion to uVolts and at the same time not loose
 805:Generated_Source\PSoC4/PM_ADC.c ****     *  resolution.
 806:Generated_Source\PSoC4/PM_ADC.c ****     *  To convert adcCounts to microVolts it is required to be multiplied
 807:Generated_Source\PSoC4/PM_ADC.c ****     *  on 10 million and later divide on gain in counts per 10V.
 808:Generated_Source\PSoC4/PM_ADC.c ****     *
 809:Generated_Source\PSoC4/PM_ADC.c ****     *******************************************************************************/
 810:Generated_Source\PSoC4/PM_ADC.c ****     int32 PM_ADC_CountsTo_uVolts(uint32 chan, int16 adcCounts)
 811:Generated_Source\PSoC4/PM_ADC.c ****     {
 1096              		.loc 1 811 0
 1097              		.cfi_startproc
 1098              		@ args = 0, pretend = 0, frame = 24
 1099              		@ frame_needed = 1, uses_anonymous_args = 0
 1100 0000 B0B5     		push	{r4, r5, r7, lr}
 1101              		.cfi_def_cfa_offset 16
 1102              		.cfi_offset 4, -16
 1103              		.cfi_offset 5, -12
 1104              		.cfi_offset 7, -8
 1105              		.cfi_offset 14, -4
 1106 0002 86B0     		sub	sp, sp, #24
 1107              		.cfi_def_cfa_offset 40
 1108 0004 00AF     		add	r7, sp, #0
 1109              		.cfi_def_cfa_register 7
 1110 0006 F860     		str	r0, [r7, #12]
 1111 0008 0A00     		movs	r2, r1
 1112 000a 0A23     		movs	r3, #10
 1113 000c FB18     		adds	r3, r7, r3
 1114 000e 1A80     		strh	r2, [r3]
 812:Generated_Source\PSoC4/PM_ADC.c ****         int64 uVolts;
 813:Generated_Source\PSoC4/PM_ADC.c **** 
 814:Generated_Source\PSoC4/PM_ADC.c ****         /* Halt CPU in debug mode if channel is out of valid range */
 815:Generated_Source\PSoC4/PM_ADC.c ****         CYASSERT(chan < PM_ADC_TOTAL_CHANNELS_NUM);
ARM GAS  C:\Users\alexport\AppData\Local\Temp\ccH3icja.s 			page 35


 1115              		.loc 1 815 0
 1116 0010 FB68     		ldr	r3, [r7, #12]
 1117 0012 002B     		cmp	r3, #0
 1118 0014 02D0     		beq	.L80
 1119              		.loc 1 815 0 is_stmt 0 discriminator 1
 1120 0016 0020     		movs	r0, #0
 1121 0018 FFF7FEFF 		bl	CyHalt
 1122              	.L80:
 816:Generated_Source\PSoC4/PM_ADC.c **** 
 817:Generated_Source\PSoC4/PM_ADC.c ****         /* Divide the adcCount when accumulate averaging mode selected */
 818:Generated_Source\PSoC4/PM_ADC.c ****         #if(PM_ADC_DEFAULT_AVG_MODE == PM_ADC__ACCUMULATE)
 819:Generated_Source\PSoC4/PM_ADC.c ****             if((PM_ADC_channelsConfig[chan] & PM_ADC_AVERAGING_EN) != 0u)
 820:Generated_Source\PSoC4/PM_ADC.c ****             {
 821:Generated_Source\PSoC4/PM_ADC.c ****                 adcCounts /= PM_ADC_DEFAULT_AVG_SAMPLES_DIV;
 822:Generated_Source\PSoC4/PM_ADC.c ****             }
 823:Generated_Source\PSoC4/PM_ADC.c ****         #endif /* PM_ADC_DEFAULT_AVG_MODE == PM_ADC__ACCUMULATE */
 824:Generated_Source\PSoC4/PM_ADC.c **** 
 825:Generated_Source\PSoC4/PM_ADC.c ****         /* Subtract ADC offset */
 826:Generated_Source\PSoC4/PM_ADC.c ****         adcCounts -= PM_ADC_offset[chan];
 1123              		.loc 1 826 0 is_stmt 1
 1124 001c 194B     		ldr	r3, .L82
 1125 001e FA68     		ldr	r2, [r7, #12]
 1126 0020 5200     		lsls	r2, r2, #1
 1127 0022 D35A     		ldrh	r3, [r2, r3]
 1128 0024 19B2     		sxth	r1, r3
 1129 0026 0A23     		movs	r3, #10
 1130 0028 FB18     		adds	r3, r7, r3
 1131 002a 1A88     		ldrh	r2, [r3]
 1132 002c 8BB2     		uxth	r3, r1
 1133 002e D31A     		subs	r3, r2, r3
 1134 0030 9AB2     		uxth	r2, r3
 1135 0032 0A23     		movs	r3, #10
 1136 0034 FB18     		adds	r3, r7, r3
 1137 0036 1A80     		strh	r2, [r3]
 827:Generated_Source\PSoC4/PM_ADC.c **** 
 828:Generated_Source\PSoC4/PM_ADC.c ****         uVolts = ((int64)adcCounts * PM_ADC_10UV_COUNTS) / PM_ADC_countsPer10Volt[chan];
 1138              		.loc 1 828 0
 1139 0038 0A23     		movs	r3, #10
 1140 003a FB18     		adds	r3, r7, r3
 1141 003c 1B88     		ldrh	r3, [r3]
 1142 003e 1BB2     		sxth	r3, r3
 1143 0040 3B60     		str	r3, [r7]
 1144 0042 DB17     		asrs	r3, r3, #31
 1145 0044 7B60     		str	r3, [r7, #4]
 1146 0046 104A     		ldr	r2, .L82+4
 1147 0048 0023     		movs	r3, #0
 1148 004a 3868     		ldr	r0, [r7]
 1149 004c 7968     		ldr	r1, [r7, #4]
 1150 004e FFF7FEFF 		bl	__aeabi_lmul
 1151 0052 0200     		movs	r2, r0
 1152 0054 0B00     		movs	r3, r1
 1153 0056 1000     		movs	r0, r2
 1154 0058 1900     		movs	r1, r3
 1155 005a 0C4B     		ldr	r3, .L82+8
 1156 005c FA68     		ldr	r2, [r7, #12]
 1157 005e 9200     		lsls	r2, r2, #2
 1158 0060 D358     		ldr	r3, [r2, r3]
ARM GAS  C:\Users\alexport\AppData\Local\Temp\ccH3icja.s 			page 36


 1159 0062 1C00     		movs	r4, r3
 1160 0064 DB17     		asrs	r3, r3, #31
 1161 0066 1D00     		movs	r5, r3
 1162 0068 2200     		movs	r2, r4
 1163 006a 2B00     		movs	r3, r5
 1164 006c FFF7FEFF 		bl	__aeabi_ldivmod
 1165 0070 0300     		movs	r3, r0
 1166 0072 0C00     		movs	r4, r1
 1167 0074 3B61     		str	r3, [r7, #16]
 1168 0076 7C61     		str	r4, [r7, #20]
 829:Generated_Source\PSoC4/PM_ADC.c **** 
 830:Generated_Source\PSoC4/PM_ADC.c ****         return( (int32)uVolts );
 1169              		.loc 1 830 0
 1170 0078 3B69     		ldr	r3, [r7, #16]
 831:Generated_Source\PSoC4/PM_ADC.c ****     }
 1171              		.loc 1 831 0
 1172 007a 1800     		movs	r0, r3
 1173 007c BD46     		mov	sp, r7
 1174 007e 06B0     		add	sp, sp, #24
 1175              		@ sp needed
 1176 0080 B0BD     		pop	{r4, r5, r7, pc}
 1177              	.L83:
 1178 0082 C046     		.align	2
 1179              	.L82:
 1180 0084 00000000 		.word	PM_ADC_offset
 1181 0088 80969800 		.word	10000000
 1182 008c 00000000 		.word	PM_ADC_countsPer10Volt
 1183              		.cfi_endproc
 1184              	.LFE18:
 1185              		.size	PM_ADC_CountsTo_uVolts, .-PM_ADC_CountsTo_uVolts
 1186              		.global	__aeabi_i2f
 1187              		.global	__aeabi_fmul
 1188              		.global	__aeabi_fdiv
 1189              		.section	.text.PM_ADC_CountsTo_Volts,"ax",%progbits
 1190              		.align	2
 1191              		.global	PM_ADC_CountsTo_Volts
 1192              		.code	16
 1193              		.thumb_func
 1194              		.type	PM_ADC_CountsTo_Volts, %function
 1195              	PM_ADC_CountsTo_Volts:
 1196              	.LFB19:
 832:Generated_Source\PSoC4/PM_ADC.c **** 
 833:Generated_Source\PSoC4/PM_ADC.c **** 
 834:Generated_Source\PSoC4/PM_ADC.c ****     /*******************************************************************************
 835:Generated_Source\PSoC4/PM_ADC.c ****     * Function Name: PM_ADC_CountsTo_Volts
 836:Generated_Source\PSoC4/PM_ADC.c ****     ********************************************************************************
 837:Generated_Source\PSoC4/PM_ADC.c ****     *
 838:Generated_Source\PSoC4/PM_ADC.c ****     * Summary:
 839:Generated_Source\PSoC4/PM_ADC.c ****     *  Converts the ADC output to Volts as a floating point number.
 840:Generated_Source\PSoC4/PM_ADC.c ****     *  This function is not available when left data format justification selected.
 841:Generated_Source\PSoC4/PM_ADC.c ****     *
 842:Generated_Source\PSoC4/PM_ADC.c ****     * Parameters:
 843:Generated_Source\PSoC4/PM_ADC.c ****     *  chan: The ADC channel number.
 844:Generated_Source\PSoC4/PM_ADC.c ****     *  Result from the ADC conversion
 845:Generated_Source\PSoC4/PM_ADC.c ****     *
 846:Generated_Source\PSoC4/PM_ADC.c ****     * Return:
 847:Generated_Source\PSoC4/PM_ADC.c ****     *  Results in Volts
ARM GAS  C:\Users\alexport\AppData\Local\Temp\ccH3icja.s 			page 37


 848:Generated_Source\PSoC4/PM_ADC.c ****     *
 849:Generated_Source\PSoC4/PM_ADC.c ****     * Global variables:
 850:Generated_Source\PSoC4/PM_ADC.c ****     *  PM_ADC_countsPer10Volt:  used to convert ADC counts to Volts.
 851:Generated_Source\PSoC4/PM_ADC.c ****     *  PM_ADC_Offset:  Used as the offset while converting ADC counts
 852:Generated_Source\PSoC4/PM_ADC.c ****     *   to mVolts.
 853:Generated_Source\PSoC4/PM_ADC.c ****     *
 854:Generated_Source\PSoC4/PM_ADC.c ****     *******************************************************************************/
 855:Generated_Source\PSoC4/PM_ADC.c ****     float32 PM_ADC_CountsTo_Volts(uint32 chan, int16 adcCounts)
 856:Generated_Source\PSoC4/PM_ADC.c ****     {
 1197              		.loc 1 856 0
 1198              		.cfi_startproc
 1199              		@ args = 0, pretend = 0, frame = 16
 1200              		@ frame_needed = 1, uses_anonymous_args = 0
 1201 0000 90B5     		push	{r4, r7, lr}
 1202              		.cfi_def_cfa_offset 12
 1203              		.cfi_offset 4, -12
 1204              		.cfi_offset 7, -8
 1205              		.cfi_offset 14, -4
 1206 0002 85B0     		sub	sp, sp, #20
 1207              		.cfi_def_cfa_offset 32
 1208 0004 00AF     		add	r7, sp, #0
 1209              		.cfi_def_cfa_register 7
 1210 0006 7860     		str	r0, [r7, #4]
 1211 0008 0A00     		movs	r2, r1
 1212 000a BB1C     		adds	r3, r7, #2
 1213 000c 1A80     		strh	r2, [r3]
 857:Generated_Source\PSoC4/PM_ADC.c ****         float32 volts;
 858:Generated_Source\PSoC4/PM_ADC.c **** 
 859:Generated_Source\PSoC4/PM_ADC.c ****         /* Halt CPU in debug mode if channel is out of valid range */
 860:Generated_Source\PSoC4/PM_ADC.c ****         CYASSERT(chan < PM_ADC_TOTAL_CHANNELS_NUM);
 1214              		.loc 1 860 0
 1215 000e 7B68     		ldr	r3, [r7, #4]
 1216 0010 002B     		cmp	r3, #0
 1217 0012 02D0     		beq	.L85
 1218              		.loc 1 860 0 is_stmt 0 discriminator 1
 1219 0014 0020     		movs	r0, #0
 1220 0016 FFF7FEFF 		bl	CyHalt
 1221              	.L85:
 861:Generated_Source\PSoC4/PM_ADC.c **** 
 862:Generated_Source\PSoC4/PM_ADC.c ****         /* Divide the adcCount when accumulate averaging mode selected */
 863:Generated_Source\PSoC4/PM_ADC.c ****         #if(PM_ADC_DEFAULT_AVG_MODE == PM_ADC__ACCUMULATE)
 864:Generated_Source\PSoC4/PM_ADC.c ****             if((PM_ADC_channelsConfig[chan] & PM_ADC_AVERAGING_EN) != 0u)
 865:Generated_Source\PSoC4/PM_ADC.c ****             {
 866:Generated_Source\PSoC4/PM_ADC.c ****                 adcCounts /= PM_ADC_DEFAULT_AVG_SAMPLES_DIV;
 867:Generated_Source\PSoC4/PM_ADC.c ****             }
 868:Generated_Source\PSoC4/PM_ADC.c ****         #endif /* PM_ADC_DEFAULT_AVG_MODE == PM_ADC__ACCUMULATE */
 869:Generated_Source\PSoC4/PM_ADC.c **** 
 870:Generated_Source\PSoC4/PM_ADC.c ****         /* Subtract ADC offset */
 871:Generated_Source\PSoC4/PM_ADC.c ****         adcCounts -= PM_ADC_offset[chan];
 1222              		.loc 1 871 0 is_stmt 1
 1223 001a 164B     		ldr	r3, .L87
 1224 001c 7A68     		ldr	r2, [r7, #4]
 1225 001e 5200     		lsls	r2, r2, #1
 1226 0020 D35A     		ldrh	r3, [r2, r3]
 1227 0022 19B2     		sxth	r1, r3
 1228 0024 BB1C     		adds	r3, r7, #2
 1229 0026 1A88     		ldrh	r2, [r3]
ARM GAS  C:\Users\alexport\AppData\Local\Temp\ccH3icja.s 			page 38


 1230 0028 8BB2     		uxth	r3, r1
 1231 002a D31A     		subs	r3, r2, r3
 1232 002c 9AB2     		uxth	r2, r3
 1233 002e BB1C     		adds	r3, r7, #2
 1234 0030 1A80     		strh	r2, [r3]
 872:Generated_Source\PSoC4/PM_ADC.c **** 
 873:Generated_Source\PSoC4/PM_ADC.c ****         volts = ((float32)adcCounts * PM_ADC_10V_COUNTS) / (float32)PM_ADC_countsPer10Volt[chan];
 1235              		.loc 1 873 0
 1236 0032 BB1C     		adds	r3, r7, #2
 1237 0034 0022     		movs	r2, #0
 1238 0036 9B5E     		ldrsh	r3, [r3, r2]
 1239 0038 1800     		movs	r0, r3
 1240 003a FFF7FEFF 		bl	__aeabi_i2f
 1241 003e 031C     		adds	r3, r0, #0
 1242 0040 0D49     		ldr	r1, .L87+4
 1243 0042 181C     		adds	r0, r3, #0
 1244 0044 FFF7FEFF 		bl	__aeabi_fmul
 1245 0048 031C     		adds	r3, r0, #0
 1246 004a 1C1C     		adds	r4, r3, #0
 1247 004c 0B4B     		ldr	r3, .L87+8
 1248 004e 7A68     		ldr	r2, [r7, #4]
 1249 0050 9200     		lsls	r2, r2, #2
 1250 0052 D358     		ldr	r3, [r2, r3]
 1251 0054 1800     		movs	r0, r3
 1252 0056 FFF7FEFF 		bl	__aeabi_i2f
 1253 005a 031C     		adds	r3, r0, #0
 1254 005c 191C     		adds	r1, r3, #0
 1255 005e 201C     		adds	r0, r4, #0
 1256 0060 FFF7FEFF 		bl	__aeabi_fdiv
 1257 0064 031C     		adds	r3, r0, #0
 1258 0066 FB60     		str	r3, [r7, #12]
 874:Generated_Source\PSoC4/PM_ADC.c **** 
 875:Generated_Source\PSoC4/PM_ADC.c ****         return( volts );
 1259              		.loc 1 875 0
 1260 0068 FB68     		ldr	r3, [r7, #12]
 876:Generated_Source\PSoC4/PM_ADC.c ****     }
 1261              		.loc 1 876 0
 1262 006a 181C     		adds	r0, r3, #0
 1263 006c BD46     		mov	sp, r7
 1264 006e 05B0     		add	sp, sp, #20
 1265              		@ sp needed
 1266 0070 90BD     		pop	{r4, r7, pc}
 1267              	.L88:
 1268 0072 C046     		.align	2
 1269              	.L87:
 1270 0074 00000000 		.word	PM_ADC_offset
 1271 0078 00002041 		.word	1092616192
 1272 007c 00000000 		.word	PM_ADC_countsPer10Volt
 1273              		.cfi_endproc
 1274              	.LFE19:
 1275              		.size	PM_ADC_CountsTo_Volts, .-PM_ADC_CountsTo_Volts
 1276              		.text
 1277              	.Letext0:
 1278              		.file 2 "Generated_Source\\PSoC4\\cytypes.h"