ARM GAS  C:\Users\alexport\AppData\Local\Temp\ccunthcd.s 			page 1


   1              		.syntax unified
   2              		.cpu cortex-m0
   3              		.fpu softvfp
   4              		.eabi_attribute 20, 1
   5              		.eabi_attribute 21, 1
   6              		.eabi_attribute 23, 3
   7              		.eabi_attribute 24, 1
   8              		.eabi_attribute 25, 1
   9              		.eabi_attribute 26, 1
  10              		.eabi_attribute 30, 6
  11              		.eabi_attribute 34, 0
  12              		.eabi_attribute 18, 4
  13              		.thumb
  14              		.syntax unified
  15              		.file	"PM_DMA_Enable.c"
  16              		.text
  17              	.Ltext0:
  18              		.cfi_sections	.debug_frame
  19              		.section	.text.PM_DMA_Enable_ChEnable,"ax",%progbits
  20              		.align	2
  21              		.code	16
  22              		.thumb_func
  23              		.type	PM_DMA_Enable_ChEnable, %function
  24              	PM_DMA_Enable_ChEnable:
  25              	.LFB0:
  26              		.file 1 "Generated_Source\\PSoC4\\PM_DMA_Enable.h"
   1:Generated_Source\PSoC4/PM_DMA_Enable.h **** /*******************************************************************************
   2:Generated_Source\PSoC4/PM_DMA_Enable.h **** * File Name: PM_DMA_Enable.h
   3:Generated_Source\PSoC4/PM_DMA_Enable.h **** * Version 1.0
   4:Generated_Source\PSoC4/PM_DMA_Enable.h **** *
   5:Generated_Source\PSoC4/PM_DMA_Enable.h **** * Description:
   6:Generated_Source\PSoC4/PM_DMA_Enable.h **** *  This file provides DMA channel defines and API function definitions.
   7:Generated_Source\PSoC4/PM_DMA_Enable.h **** *
   8:Generated_Source\PSoC4/PM_DMA_Enable.h **** ********************************************************************************
   9:Generated_Source\PSoC4/PM_DMA_Enable.h **** * Copyright 2015, Cypress Semiconductor Corporation. All rights reserved.
  10:Generated_Source\PSoC4/PM_DMA_Enable.h **** * You may use this file only in accordance with the license, terms, conditions,
  11:Generated_Source\PSoC4/PM_DMA_Enable.h **** * disclaimers, and limitations in the end user license agreement accompanying
  12:Generated_Source\PSoC4/PM_DMA_Enable.h **** * the software package with which this file was provided.
  13:Generated_Source\PSoC4/PM_DMA_Enable.h **** *******************************************************************************/
  14:Generated_Source\PSoC4/PM_DMA_Enable.h **** 
  15:Generated_Source\PSoC4/PM_DMA_Enable.h **** #ifndef CY_DMA_CHANNEL_PM_DMA_Enable_H
  16:Generated_Source\PSoC4/PM_DMA_Enable.h **** #define CY_DMA_CHANNEL_PM_DMA_Enable_H
  17:Generated_Source\PSoC4/PM_DMA_Enable.h **** 
  18:Generated_Source\PSoC4/PM_DMA_Enable.h **** #include "CyDMA.h"
  19:Generated_Source\PSoC4/PM_DMA_Enable.h **** 
  20:Generated_Source\PSoC4/PM_DMA_Enable.h ****     
  21:Generated_Source\PSoC4/PM_DMA_Enable.h **** /***************************************
  22:Generated_Source\PSoC4/PM_DMA_Enable.h **** *   Conditional Compilation Parameters
  23:Generated_Source\PSoC4/PM_DMA_Enable.h **** ***************************************/
  24:Generated_Source\PSoC4/PM_DMA_Enable.h **** 
  25:Generated_Source\PSoC4/PM_DMA_Enable.h **** #define PM_DMA_Enable_CHANNEL           (PM_DMA_Enable__CHANNEL_NUMBER)
  26:Generated_Source\PSoC4/PM_DMA_Enable.h **** #define PM_DMA_Enable_CHANNEL_MASK      ((uint32)(1UL << PM_DMA_Enable_CHANNEL))
  27:Generated_Source\PSoC4/PM_DMA_Enable.h **** 
  28:Generated_Source\PSoC4/PM_DMA_Enable.h **** 
  29:Generated_Source\PSoC4/PM_DMA_Enable.h **** /***************************************
  30:Generated_Source\PSoC4/PM_DMA_Enable.h **** *        Function Prototypes
  31:Generated_Source\PSoC4/PM_DMA_Enable.h **** ***************************************/
ARM GAS  C:\Users\alexport\AppData\Local\Temp\ccunthcd.s 			page 2


  32:Generated_Source\PSoC4/PM_DMA_Enable.h **** 
  33:Generated_Source\PSoC4/PM_DMA_Enable.h **** /* Functions specific to this DMA channel */
  34:Generated_Source\PSoC4/PM_DMA_Enable.h **** void PM_DMA_Enable_Init(void);
  35:Generated_Source\PSoC4/PM_DMA_Enable.h **** void PM_DMA_Enable_Start(void * srcAddress, void * dstAddress);
  36:Generated_Source\PSoC4/PM_DMA_Enable.h **** 
  37:Generated_Source\PSoC4/PM_DMA_Enable.h **** /* Inline functions that call global API functions */
  38:Generated_Source\PSoC4/PM_DMA_Enable.h **** static void   PM_DMA_Enable_ChEnable(void);
  39:Generated_Source\PSoC4/PM_DMA_Enable.h **** static void   PM_DMA_Enable_ChDisable(void);
  40:Generated_Source\PSoC4/PM_DMA_Enable.h **** static void   PM_DMA_Enable_Trigger(void);
  41:Generated_Source\PSoC4/PM_DMA_Enable.h **** static void   PM_DMA_Enable_SetPriority(int32 priority);
  42:Generated_Source\PSoC4/PM_DMA_Enable.h **** static int32  PM_DMA_Enable_GetPriority(void);
  43:Generated_Source\PSoC4/PM_DMA_Enable.h **** static void   PM_DMA_Enable_SetNextDescriptor(int32 descriptor);
  44:Generated_Source\PSoC4/PM_DMA_Enable.h **** static int32  PM_DMA_Enable_GetNextDescriptor(void);
  45:Generated_Source\PSoC4/PM_DMA_Enable.h **** static void   PM_DMA_Enable_SetConfiguration(int32 descriptor, const cydma_init_struct * config);
  46:Generated_Source\PSoC4/PM_DMA_Enable.h **** static void   PM_DMA_Enable_ValidateDescriptor(int32 descriptor);
  47:Generated_Source\PSoC4/PM_DMA_Enable.h **** static uint32 PM_DMA_Enable_GetDescriptorStatus(int32 descriptor);
  48:Generated_Source\PSoC4/PM_DMA_Enable.h **** static void   PM_DMA_Enable_SetSrcAddress(int32 descriptor, void * srcAddress);
  49:Generated_Source\PSoC4/PM_DMA_Enable.h **** static void * PM_DMA_Enable_GetSrcAddress(int32 descriptor);
  50:Generated_Source\PSoC4/PM_DMA_Enable.h **** static void   PM_DMA_Enable_SetDstAddress(int32 descriptor, void * dstAddress);
  51:Generated_Source\PSoC4/PM_DMA_Enable.h **** static void * PM_DMA_Enable_GetDstAddress(int32 descriptor);
  52:Generated_Source\PSoC4/PM_DMA_Enable.h **** static void   PM_DMA_Enable_SetDataElementSize(int32 descriptor, uint32 dataElementSize);
  53:Generated_Source\PSoC4/PM_DMA_Enable.h **** static uint32 PM_DMA_Enable_GetDataElementSize(int32 descriptor);
  54:Generated_Source\PSoC4/PM_DMA_Enable.h **** static void   PM_DMA_Enable_SetNumDataElements(int32 descriptor, int32 numDataElements);
  55:Generated_Source\PSoC4/PM_DMA_Enable.h **** static int32  PM_DMA_Enable_GetNumDataElements(int32 descriptor);
  56:Generated_Source\PSoC4/PM_DMA_Enable.h **** static void   PM_DMA_Enable_SetSrcDstTransferWidth(int32 descriptor, uint32 transferWidth);
  57:Generated_Source\PSoC4/PM_DMA_Enable.h **** static uint32 PM_DMA_Enable_GetSrcDstTransferWidth(int32 descriptor);
  58:Generated_Source\PSoC4/PM_DMA_Enable.h **** static void   PM_DMA_Enable_SetAddressIncrement(int32 descriptor, uint32 addressIncrement);
  59:Generated_Source\PSoC4/PM_DMA_Enable.h **** static uint32 PM_DMA_Enable_GetAddressIncrement(int32 descriptor);
  60:Generated_Source\PSoC4/PM_DMA_Enable.h **** static void   PM_DMA_Enable_SetTriggerType(int32 descriptor, uint32 triggerType);
  61:Generated_Source\PSoC4/PM_DMA_Enable.h **** static uint32 PM_DMA_Enable_GetTriggerType(int32 descriptor);
  62:Generated_Source\PSoC4/PM_DMA_Enable.h **** static void   PM_DMA_Enable_SetTransferMode(int32 descriptor, uint32 transferMode);
  63:Generated_Source\PSoC4/PM_DMA_Enable.h **** static uint32 PM_DMA_Enable_GetTransferMode(int32 descriptor);
  64:Generated_Source\PSoC4/PM_DMA_Enable.h **** static void   PM_DMA_Enable_SetPreemptable(int32 descriptor, uint32 preemptable);
  65:Generated_Source\PSoC4/PM_DMA_Enable.h **** static uint32 PM_DMA_Enable_GetPreemptable(int32 descriptor);
  66:Generated_Source\PSoC4/PM_DMA_Enable.h **** static void   PM_DMA_Enable_SetPostCompletionActions(int32 descriptor, uint32 actions);
  67:Generated_Source\PSoC4/PM_DMA_Enable.h **** static uint32 PM_DMA_Enable_GetPostCompletionAction(int32 descriptor);
  68:Generated_Source\PSoC4/PM_DMA_Enable.h **** static cydma_callback_t PM_DMA_Enable_SetInterruptCallback(cydma_callback_t callback);
  69:Generated_Source\PSoC4/PM_DMA_Enable.h **** static cydma_callback_t PM_DMA_Enable_GetInterruptCallback(void);
  70:Generated_Source\PSoC4/PM_DMA_Enable.h **** 
  71:Generated_Source\PSoC4/PM_DMA_Enable.h **** 
  72:Generated_Source\PSoC4/PM_DMA_Enable.h **** /*******************************************************************************
  73:Generated_Source\PSoC4/PM_DMA_Enable.h **** * Function Name: PM_DMA_Enable_ChEnable
  74:Generated_Source\PSoC4/PM_DMA_Enable.h **** ********************************************************************************
  75:Generated_Source\PSoC4/PM_DMA_Enable.h **** *
  76:Generated_Source\PSoC4/PM_DMA_Enable.h **** * Summary:
  77:Generated_Source\PSoC4/PM_DMA_Enable.h **** *  Enables the DMA channel. It is not necessary to call PM_DMA_Enable_ChEnable()
  78:Generated_Source\PSoC4/PM_DMA_Enable.h **** *  because the PM_DMA_Enable_Start() API calls this function, which is the
  79:Generated_Source\PSoC4/PM_DMA_Enable.h **** *  preferred method to begin the component operation.
  80:Generated_Source\PSoC4/PM_DMA_Enable.h **** *
  81:Generated_Source\PSoC4/PM_DMA_Enable.h **** * Parameters:
  82:Generated_Source\PSoC4/PM_DMA_Enable.h **** *  None.
  83:Generated_Source\PSoC4/PM_DMA_Enable.h **** *                   
  84:Generated_Source\PSoC4/PM_DMA_Enable.h **** * Return:
  85:Generated_Source\PSoC4/PM_DMA_Enable.h **** *  None.
  86:Generated_Source\PSoC4/PM_DMA_Enable.h **** *
  87:Generated_Source\PSoC4/PM_DMA_Enable.h **** * Side effect:
  88:Generated_Source\PSoC4/PM_DMA_Enable.h **** *  If this function is called before PM_DMA_Enable_Start(), or PM_DMA_Enable_Init()
ARM GAS  C:\Users\alexport\AppData\Local\Temp\ccunthcd.s 			page 3


  89:Generated_Source\PSoC4/PM_DMA_Enable.h **** *  or PM_DMA_Enable_SetConfiguration(), and PM_DMA_Enable_SetSrcAddress()
  90:Generated_Source\PSoC4/PM_DMA_Enable.h **** *  and PM_DMA_Enable_SetDstAddress the operation of the DMA is 
  91:Generated_Source\PSoC4/PM_DMA_Enable.h **** *  undefined and could result in system data corruption. 
  92:Generated_Source\PSoC4/PM_DMA_Enable.h **** *
  93:Generated_Source\PSoC4/PM_DMA_Enable.h **** *******************************************************************************/
  94:Generated_Source\PSoC4/PM_DMA_Enable.h **** static CY_INLINE void PM_DMA_Enable_ChEnable(void)
  95:Generated_Source\PSoC4/PM_DMA_Enable.h **** {
  27              		.loc 1 95 0
  28              		.cfi_startproc
  29              		@ args = 0, pretend = 0, frame = 0
  30              		@ frame_needed = 1, uses_anonymous_args = 0
  31 0000 80B5     		push	{r7, lr}
  32              		.cfi_def_cfa_offset 8
  33              		.cfi_offset 7, -8
  34              		.cfi_offset 14, -4
  35 0002 00AF     		add	r7, sp, #0
  36              		.cfi_def_cfa_register 7
  96:Generated_Source\PSoC4/PM_DMA_Enable.h ****     CyDmaChEnable(PM_DMA_Enable_CHANNEL);
  37              		.loc 1 96 0
  38 0004 0420     		movs	r0, #4
  39 0006 FFF7FEFF 		bl	CyDmaChEnable
  97:Generated_Source\PSoC4/PM_DMA_Enable.h **** }
  40              		.loc 1 97 0
  41 000a C046     		nop
  42 000c BD46     		mov	sp, r7
  43              		@ sp needed
  44 000e 80BD     		pop	{r7, pc}
  45              		.cfi_endproc
  46              	.LFE0:
  47              		.size	PM_DMA_Enable_ChEnable, .-PM_DMA_Enable_ChEnable
  48              		.section	.text.PM_DMA_Enable_ValidateDescriptor,"ax",%progbits
  49              		.align	2
  50              		.code	16
  51              		.thumb_func
  52              		.type	PM_DMA_Enable_ValidateDescriptor, %function
  53              	PM_DMA_Enable_ValidateDescriptor:
  54              	.LFB8:
  98:Generated_Source\PSoC4/PM_DMA_Enable.h **** 
  99:Generated_Source\PSoC4/PM_DMA_Enable.h **** 
 100:Generated_Source\PSoC4/PM_DMA_Enable.h **** /*******************************************************************************
 101:Generated_Source\PSoC4/PM_DMA_Enable.h **** * Function Name: PM_DMA_Enable_ChDisable
 102:Generated_Source\PSoC4/PM_DMA_Enable.h **** ********************************************************************************
 103:Generated_Source\PSoC4/PM_DMA_Enable.h **** *
 104:Generated_Source\PSoC4/PM_DMA_Enable.h **** * Summary:
 105:Generated_Source\PSoC4/PM_DMA_Enable.h **** *  Disables the DMA channel.
 106:Generated_Source\PSoC4/PM_DMA_Enable.h **** *
 107:Generated_Source\PSoC4/PM_DMA_Enable.h **** * Parameters:
 108:Generated_Source\PSoC4/PM_DMA_Enable.h **** *  None.
 109:Generated_Source\PSoC4/PM_DMA_Enable.h **** *                   
 110:Generated_Source\PSoC4/PM_DMA_Enable.h **** * Return:
 111:Generated_Source\PSoC4/PM_DMA_Enable.h **** *  None.
 112:Generated_Source\PSoC4/PM_DMA_Enable.h **** *
 113:Generated_Source\PSoC4/PM_DMA_Enable.h **** * Side effect:
 114:Generated_Source\PSoC4/PM_DMA_Enable.h **** *  If this function is called during a DMA transfer the transfer is aborted. 
 115:Generated_Source\PSoC4/PM_DMA_Enable.h **** *
 116:Generated_Source\PSoC4/PM_DMA_Enable.h **** *******************************************************************************/
 117:Generated_Source\PSoC4/PM_DMA_Enable.h **** static CY_INLINE void PM_DMA_Enable_ChDisable(void)
ARM GAS  C:\Users\alexport\AppData\Local\Temp\ccunthcd.s 			page 4


 118:Generated_Source\PSoC4/PM_DMA_Enable.h **** {
 119:Generated_Source\PSoC4/PM_DMA_Enable.h ****     CyDmaChDisable(PM_DMA_Enable_CHANNEL);
 120:Generated_Source\PSoC4/PM_DMA_Enable.h **** }
 121:Generated_Source\PSoC4/PM_DMA_Enable.h **** 
 122:Generated_Source\PSoC4/PM_DMA_Enable.h **** 
 123:Generated_Source\PSoC4/PM_DMA_Enable.h **** /*******************************************************************************
 124:Generated_Source\PSoC4/PM_DMA_Enable.h **** * Function Name: PM_DMA_Enable_Trigger
 125:Generated_Source\PSoC4/PM_DMA_Enable.h **** ********************************************************************************
 126:Generated_Source\PSoC4/PM_DMA_Enable.h **** *
 127:Generated_Source\PSoC4/PM_DMA_Enable.h **** * Summary:
 128:Generated_Source\PSoC4/PM_DMA_Enable.h **** *  Triggers the DMA channel, this is useful only for software triggers. This is
 129:Generated_Source\PSoC4/PM_DMA_Enable.h **** *  not needed when hardware triggers are used.
 130:Generated_Source\PSoC4/PM_DMA_Enable.h **** *
 131:Generated_Source\PSoC4/PM_DMA_Enable.h **** * Parameters:
 132:Generated_Source\PSoC4/PM_DMA_Enable.h **** *  None.
 133:Generated_Source\PSoC4/PM_DMA_Enable.h **** *                   
 134:Generated_Source\PSoC4/PM_DMA_Enable.h **** * Return:
 135:Generated_Source\PSoC4/PM_DMA_Enable.h **** *  None. 
 136:Generated_Source\PSoC4/PM_DMA_Enable.h **** *
 137:Generated_Source\PSoC4/PM_DMA_Enable.h **** *******************************************************************************/
 138:Generated_Source\PSoC4/PM_DMA_Enable.h **** static CY_INLINE void PM_DMA_Enable_Trigger(void)
 139:Generated_Source\PSoC4/PM_DMA_Enable.h **** {
 140:Generated_Source\PSoC4/PM_DMA_Enable.h ****     CyDmaTrigger(PM_DMA_Enable_CHANNEL);
 141:Generated_Source\PSoC4/PM_DMA_Enable.h **** }
 142:Generated_Source\PSoC4/PM_DMA_Enable.h **** 
 143:Generated_Source\PSoC4/PM_DMA_Enable.h **** 
 144:Generated_Source\PSoC4/PM_DMA_Enable.h **** /*******************************************************************************
 145:Generated_Source\PSoC4/PM_DMA_Enable.h **** * Function Name: PM_DMA_Enable_SetPriority
 146:Generated_Source\PSoC4/PM_DMA_Enable.h **** ********************************************************************************
 147:Generated_Source\PSoC4/PM_DMA_Enable.h **** *
 148:Generated_Source\PSoC4/PM_DMA_Enable.h **** * Summary:
 149:Generated_Source\PSoC4/PM_DMA_Enable.h **** *  Sets the priority for the channel.
 150:Generated_Source\PSoC4/PM_DMA_Enable.h **** *
 151:Generated_Source\PSoC4/PM_DMA_Enable.h **** * Parameters:
 152:Generated_Source\PSoC4/PM_DMA_Enable.h **** *  priority: Priority for channel. Priority can be 0,1,2, or 3.
 153:Generated_Source\PSoC4/PM_DMA_Enable.h **** *            0 is the highest priority.
 154:Generated_Source\PSoC4/PM_DMA_Enable.h **** *                   
 155:Generated_Source\PSoC4/PM_DMA_Enable.h **** * Return:
 156:Generated_Source\PSoC4/PM_DMA_Enable.h **** *  None.
 157:Generated_Source\PSoC4/PM_DMA_Enable.h **** *
 158:Generated_Source\PSoC4/PM_DMA_Enable.h **** * Side effect:
 159:Generated_Source\PSoC4/PM_DMA_Enable.h **** *  This function should not be called while the channel is enabled.
 160:Generated_Source\PSoC4/PM_DMA_Enable.h **** *
 161:Generated_Source\PSoC4/PM_DMA_Enable.h **** *******************************************************************************/
 162:Generated_Source\PSoC4/PM_DMA_Enable.h **** static CY_INLINE void PM_DMA_Enable_SetPriority(int32 priority)
 163:Generated_Source\PSoC4/PM_DMA_Enable.h **** {
 164:Generated_Source\PSoC4/PM_DMA_Enable.h ****     CyDmaSetPriority(PM_DMA_Enable_CHANNEL, priority);
 165:Generated_Source\PSoC4/PM_DMA_Enable.h **** }
 166:Generated_Source\PSoC4/PM_DMA_Enable.h **** 
 167:Generated_Source\PSoC4/PM_DMA_Enable.h **** 
 168:Generated_Source\PSoC4/PM_DMA_Enable.h **** /*******************************************************************************
 169:Generated_Source\PSoC4/PM_DMA_Enable.h **** * Function Name: PM_DMA_Enable_GetPriority
 170:Generated_Source\PSoC4/PM_DMA_Enable.h **** ********************************************************************************
 171:Generated_Source\PSoC4/PM_DMA_Enable.h **** *
 172:Generated_Source\PSoC4/PM_DMA_Enable.h **** * Summary:
 173:Generated_Source\PSoC4/PM_DMA_Enable.h **** *  Gets the priority for the channel.
 174:Generated_Source\PSoC4/PM_DMA_Enable.h **** *
ARM GAS  C:\Users\alexport\AppData\Local\Temp\ccunthcd.s 			page 5


 175:Generated_Source\PSoC4/PM_DMA_Enable.h **** * Parameters:
 176:Generated_Source\PSoC4/PM_DMA_Enable.h **** *  None.
 177:Generated_Source\PSoC4/PM_DMA_Enable.h **** *                   
 178:Generated_Source\PSoC4/PM_DMA_Enable.h **** * Return:
 179:Generated_Source\PSoC4/PM_DMA_Enable.h **** *  Priority for channel. Priority can be 0,1,2, or 3. 0 is the highest priority.
 180:Generated_Source\PSoC4/PM_DMA_Enable.h **** *
 181:Generated_Source\PSoC4/PM_DMA_Enable.h **** *******************************************************************************/
 182:Generated_Source\PSoC4/PM_DMA_Enable.h **** static CY_INLINE int32 PM_DMA_Enable_GetPriority(void)
 183:Generated_Source\PSoC4/PM_DMA_Enable.h **** {
 184:Generated_Source\PSoC4/PM_DMA_Enable.h ****     return (CyDmaGetPriority(PM_DMA_Enable_CHANNEL));
 185:Generated_Source\PSoC4/PM_DMA_Enable.h **** }
 186:Generated_Source\PSoC4/PM_DMA_Enable.h **** 
 187:Generated_Source\PSoC4/PM_DMA_Enable.h **** 
 188:Generated_Source\PSoC4/PM_DMA_Enable.h **** /*******************************************************************************
 189:Generated_Source\PSoC4/PM_DMA_Enable.h **** * Function Name: PM_DMA_Enable_SetNextDescriptor
 190:Generated_Source\PSoC4/PM_DMA_Enable.h **** ********************************************************************************
 191:Generated_Source\PSoC4/PM_DMA_Enable.h **** *
 192:Generated_Source\PSoC4/PM_DMA_Enable.h **** * Summary:
 193:Generated_Source\PSoC4/PM_DMA_Enable.h **** *  Sets the descriptor that should be run the next time the channel is
 194:Generated_Source\PSoC4/PM_DMA_Enable.h **** *  triggered.
 195:Generated_Source\PSoC4/PM_DMA_Enable.h **** *
 196:Generated_Source\PSoC4/PM_DMA_Enable.h **** * Parameters:
 197:Generated_Source\PSoC4/PM_DMA_Enable.h **** *  descriptor: Next Descriptor to run (0 or 1).
 198:Generated_Source\PSoC4/PM_DMA_Enable.h **** *                   
 199:Generated_Source\PSoC4/PM_DMA_Enable.h **** * Side effect:
 200:Generated_Source\PSoC4/PM_DMA_Enable.h **** *  This function should not be called while the channel is enabled.
 201:Generated_Source\PSoC4/PM_DMA_Enable.h **** *
 202:Generated_Source\PSoC4/PM_DMA_Enable.h **** *******************************************************************************/
 203:Generated_Source\PSoC4/PM_DMA_Enable.h **** static CY_INLINE void PM_DMA_Enable_SetNextDescriptor(int32 descriptor)
 204:Generated_Source\PSoC4/PM_DMA_Enable.h **** {
 205:Generated_Source\PSoC4/PM_DMA_Enable.h ****     CyDmaSetNextDescriptor(PM_DMA_Enable_CHANNEL, descriptor);
 206:Generated_Source\PSoC4/PM_DMA_Enable.h **** }
 207:Generated_Source\PSoC4/PM_DMA_Enable.h **** 
 208:Generated_Source\PSoC4/PM_DMA_Enable.h **** 
 209:Generated_Source\PSoC4/PM_DMA_Enable.h **** /*******************************************************************************
 210:Generated_Source\PSoC4/PM_DMA_Enable.h **** * Function Name: PM_DMA_Enable_GetNextDescriptor
 211:Generated_Source\PSoC4/PM_DMA_Enable.h **** ********************************************************************************
 212:Generated_Source\PSoC4/PM_DMA_Enable.h **** *
 213:Generated_Source\PSoC4/PM_DMA_Enable.h **** * Summary:
 214:Generated_Source\PSoC4/PM_DMA_Enable.h **** *  Returns the next descriptor that should be run, as set by 
 215:Generated_Source\PSoC4/PM_DMA_Enable.h **** *  PM_DMA_Enable_SetNextDescriptor().
 216:Generated_Source\PSoC4/PM_DMA_Enable.h **** *
 217:Generated_Source\PSoC4/PM_DMA_Enable.h **** * Parameters:
 218:Generated_Source\PSoC4/PM_DMA_Enable.h **** *  None.
 219:Generated_Source\PSoC4/PM_DMA_Enable.h **** *                   
 220:Generated_Source\PSoC4/PM_DMA_Enable.h **** * Return:
 221:Generated_Source\PSoC4/PM_DMA_Enable.h **** *  Next Descriptor to run (0 or 1).
 222:Generated_Source\PSoC4/PM_DMA_Enable.h **** *
 223:Generated_Source\PSoC4/PM_DMA_Enable.h **** *******************************************************************************/
 224:Generated_Source\PSoC4/PM_DMA_Enable.h **** static CY_INLINE int32 PM_DMA_Enable_GetNextDescriptor(void)
 225:Generated_Source\PSoC4/PM_DMA_Enable.h **** {
 226:Generated_Source\PSoC4/PM_DMA_Enable.h ****     return (CyDmaGetNextDescriptor(PM_DMA_Enable_CHANNEL));
 227:Generated_Source\PSoC4/PM_DMA_Enable.h **** }
 228:Generated_Source\PSoC4/PM_DMA_Enable.h **** 
 229:Generated_Source\PSoC4/PM_DMA_Enable.h **** 
 230:Generated_Source\PSoC4/PM_DMA_Enable.h **** /*******************************************************************************
 231:Generated_Source\PSoC4/PM_DMA_Enable.h **** * Function Name: PM_DMA_Enable_SetConfiguration
ARM GAS  C:\Users\alexport\AppData\Local\Temp\ccunthcd.s 			page 6


 232:Generated_Source\PSoC4/PM_DMA_Enable.h **** ********************************************************************************
 233:Generated_Source\PSoC4/PM_DMA_Enable.h **** *
 234:Generated_Source\PSoC4/PM_DMA_Enable.h **** * Summary:
 235:Generated_Source\PSoC4/PM_DMA_Enable.h **** *  Sets configuration information for the specified descriptor.
 236:Generated_Source\PSoC4/PM_DMA_Enable.h **** *
 237:Generated_Source\PSoC4/PM_DMA_Enable.h **** * Parameters:
 238:Generated_Source\PSoC4/PM_DMA_Enable.h **** *  descriptor: Descriptor (0 or 1) modified by this function.
 239:Generated_Source\PSoC4/PM_DMA_Enable.h **** *  config: Pointer to a configuration structure. Refer to cydma_init_struct
 240:Generated_Source\PSoC4/PM_DMA_Enable.h **** *          structure definition in CyDMA_P4.h or the component datasheet.
 241:Generated_Source\PSoC4/PM_DMA_Enable.h **** *                   
 242:Generated_Source\PSoC4/PM_DMA_Enable.h **** * Return:
 243:Generated_Source\PSoC4/PM_DMA_Enable.h **** *  None.
 244:Generated_Source\PSoC4/PM_DMA_Enable.h **** *
 245:Generated_Source\PSoC4/PM_DMA_Enable.h **** * Side effect:
 246:Generated_Source\PSoC4/PM_DMA_Enable.h **** *  The status register associated with the specified descriptor is reset to
 247:Generated_Source\PSoC4/PM_DMA_Enable.h **** *  zero after this function call. This function also validates the descriptor.
 248:Generated_Source\PSoC4/PM_DMA_Enable.h **** *  This function should not be called while the descriptor is active.
 249:Generated_Source\PSoC4/PM_DMA_Enable.h **** *  This can be checked by calling CyDmaGetStatus().
 250:Generated_Source\PSoC4/PM_DMA_Enable.h **** *
 251:Generated_Source\PSoC4/PM_DMA_Enable.h **** *******************************************************************************/
 252:Generated_Source\PSoC4/PM_DMA_Enable.h **** static CY_INLINE void PM_DMA_Enable_SetConfiguration(int32 descriptor, const cydma_init_struct * co
 253:Generated_Source\PSoC4/PM_DMA_Enable.h **** {
 254:Generated_Source\PSoC4/PM_DMA_Enable.h ****     CyDmaSetConfiguration(PM_DMA_Enable_CHANNEL, descriptor, config);
 255:Generated_Source\PSoC4/PM_DMA_Enable.h **** }
 256:Generated_Source\PSoC4/PM_DMA_Enable.h **** 
 257:Generated_Source\PSoC4/PM_DMA_Enable.h **** 
 258:Generated_Source\PSoC4/PM_DMA_Enable.h **** /*******************************************************************************
 259:Generated_Source\PSoC4/PM_DMA_Enable.h **** * Function Name: PM_DMA_Enable_ValidateDescriptor
 260:Generated_Source\PSoC4/PM_DMA_Enable.h **** ********************************************************************************
 261:Generated_Source\PSoC4/PM_DMA_Enable.h **** *
 262:Generated_Source\PSoC4/PM_DMA_Enable.h **** * Summary:
 263:Generated_Source\PSoC4/PM_DMA_Enable.h **** *  Validates the specified descriptor after it has been invalidated.
 264:Generated_Source\PSoC4/PM_DMA_Enable.h **** *
 265:Generated_Source\PSoC4/PM_DMA_Enable.h **** * Parameters:
 266:Generated_Source\PSoC4/PM_DMA_Enable.h **** *  descriptor: Descriptor (0 or 1) modified by this function.
 267:Generated_Source\PSoC4/PM_DMA_Enable.h **** *                   
 268:Generated_Source\PSoC4/PM_DMA_Enable.h **** * Return:
 269:Generated_Source\PSoC4/PM_DMA_Enable.h **** *  None. 
 270:Generated_Source\PSoC4/PM_DMA_Enable.h **** *
 271:Generated_Source\PSoC4/PM_DMA_Enable.h **** * Side effect:
 272:Generated_Source\PSoC4/PM_DMA_Enable.h **** *  The status register associated with the specified descriptor is reset to
 273:Generated_Source\PSoC4/PM_DMA_Enable.h **** *  zero after this function call. This function should not be called while the
 274:Generated_Source\PSoC4/PM_DMA_Enable.h **** *  descriptor is active. This can be checked by calling CyDmaGetStatus().
 275:Generated_Source\PSoC4/PM_DMA_Enable.h **** *
 276:Generated_Source\PSoC4/PM_DMA_Enable.h **** *******************************************************************************/
 277:Generated_Source\PSoC4/PM_DMA_Enable.h **** static CY_INLINE void PM_DMA_Enable_ValidateDescriptor(int32 descriptor)
 278:Generated_Source\PSoC4/PM_DMA_Enable.h **** {
  55              		.loc 1 278 0
  56              		.cfi_startproc
  57              		@ args = 0, pretend = 0, frame = 8
  58              		@ frame_needed = 1, uses_anonymous_args = 0
  59 0000 80B5     		push	{r7, lr}
  60              		.cfi_def_cfa_offset 8
  61              		.cfi_offset 7, -8
  62              		.cfi_offset 14, -4
  63 0002 82B0     		sub	sp, sp, #8
  64              		.cfi_def_cfa_offset 16
ARM GAS  C:\Users\alexport\AppData\Local\Temp\ccunthcd.s 			page 7


  65 0004 00AF     		add	r7, sp, #0
  66              		.cfi_def_cfa_register 7
  67 0006 7860     		str	r0, [r7, #4]
 279:Generated_Source\PSoC4/PM_DMA_Enable.h ****     CyDmaValidateDescriptor(PM_DMA_Enable_CHANNEL, descriptor);
  68              		.loc 1 279 0
  69 0008 7B68     		ldr	r3, [r7, #4]
  70 000a 1900     		movs	r1, r3
  71 000c 0420     		movs	r0, #4
  72 000e FFF7FEFF 		bl	CyDmaValidateDescriptor
 280:Generated_Source\PSoC4/PM_DMA_Enable.h **** }
  73              		.loc 1 280 0
  74 0012 C046     		nop
  75 0014 BD46     		mov	sp, r7
  76 0016 02B0     		add	sp, sp, #8
  77              		@ sp needed
  78 0018 80BD     		pop	{r7, pc}
  79              		.cfi_endproc
  80              	.LFE8:
  81              		.size	PM_DMA_Enable_ValidateDescriptor, .-PM_DMA_Enable_ValidateDescriptor
  82 001a C046     		.section	.text.PM_DMA_Enable_SetSrcAddress,"ax",%progbits
  83              		.align	2
  84              		.code	16
  85              		.thumb_func
  86              		.type	PM_DMA_Enable_SetSrcAddress, %function
  87              	PM_DMA_Enable_SetSrcAddress:
  88              	.LFB10:
 281:Generated_Source\PSoC4/PM_DMA_Enable.h **** 
 282:Generated_Source\PSoC4/PM_DMA_Enable.h **** 
 283:Generated_Source\PSoC4/PM_DMA_Enable.h **** /*******************************************************************************
 284:Generated_Source\PSoC4/PM_DMA_Enable.h **** * Function Name: PM_DMA_Enable_GetDescriptorStatus
 285:Generated_Source\PSoC4/PM_DMA_Enable.h **** ********************************************************************************
 286:Generated_Source\PSoC4/PM_DMA_Enable.h **** *
 287:Generated_Source\PSoC4/PM_DMA_Enable.h **** * Summary:
 288:Generated_Source\PSoC4/PM_DMA_Enable.h **** *  Returns the status of the specified descriptor.
 289:Generated_Source\PSoC4/PM_DMA_Enable.h **** *
 290:Generated_Source\PSoC4/PM_DMA_Enable.h **** * Parameters:
 291:Generated_Source\PSoC4/PM_DMA_Enable.h **** *  descriptor: Descriptor (0 or 1) modified by this function.
 292:Generated_Source\PSoC4/PM_DMA_Enable.h **** *                   
 293:Generated_Source\PSoC4/PM_DMA_Enable.h **** * Return:
 294:Generated_Source\PSoC4/PM_DMA_Enable.h **** *  Returns the contents of the specified descriptors status register. Refer to 
 295:Generated_Source\PSoC4/PM_DMA_Enable.h **** *  descriptor status register bit definitions in CyDMA_P4.h or the API
 296:Generated_Source\PSoC4/PM_DMA_Enable.h **** *  description in the DMA channel datasheet for more information.
 297:Generated_Source\PSoC4/PM_DMA_Enable.h **** *
 298:Generated_Source\PSoC4/PM_DMA_Enable.h **** *******************************************************************************/
 299:Generated_Source\PSoC4/PM_DMA_Enable.h **** static CY_INLINE uint32 PM_DMA_Enable_GetDescriptorStatus(int32 descriptor)
 300:Generated_Source\PSoC4/PM_DMA_Enable.h **** {
 301:Generated_Source\PSoC4/PM_DMA_Enable.h ****     return (CyDmaGetDescriptorStatus(PM_DMA_Enable_CHANNEL, descriptor));
 302:Generated_Source\PSoC4/PM_DMA_Enable.h **** }
 303:Generated_Source\PSoC4/PM_DMA_Enable.h **** 
 304:Generated_Source\PSoC4/PM_DMA_Enable.h **** 
 305:Generated_Source\PSoC4/PM_DMA_Enable.h **** /*******************************************************************************
 306:Generated_Source\PSoC4/PM_DMA_Enable.h **** * Function Name: PM_DMA_Enable_SetSrcAddress
 307:Generated_Source\PSoC4/PM_DMA_Enable.h **** ********************************************************************************
 308:Generated_Source\PSoC4/PM_DMA_Enable.h **** *
 309:Generated_Source\PSoC4/PM_DMA_Enable.h **** * Summary:
 310:Generated_Source\PSoC4/PM_DMA_Enable.h **** *  Configures the source address for the specified descriptor.
 311:Generated_Source\PSoC4/PM_DMA_Enable.h **** *
ARM GAS  C:\Users\alexport\AppData\Local\Temp\ccunthcd.s 			page 8


 312:Generated_Source\PSoC4/PM_DMA_Enable.h **** * Parameters:
 313:Generated_Source\PSoC4/PM_DMA_Enable.h **** *  descriptor: Descriptor (0 or 1) modified by this function.
 314:Generated_Source\PSoC4/PM_DMA_Enable.h **** *  srcAddress: Address of DMA transfer source.
 315:Generated_Source\PSoC4/PM_DMA_Enable.h **** *                   
 316:Generated_Source\PSoC4/PM_DMA_Enable.h **** * Return:
 317:Generated_Source\PSoC4/PM_DMA_Enable.h **** *  None.
 318:Generated_Source\PSoC4/PM_DMA_Enable.h **** *
 319:Generated_Source\PSoC4/PM_DMA_Enable.h **** * Side effect:
 320:Generated_Source\PSoC4/PM_DMA_Enable.h **** *  This function should not be called when the specified descriptor is active
 321:Generated_Source\PSoC4/PM_DMA_Enable.h **** *  in the DMA transfer engine. This can be checked by calling CyDmaGetStatus(). 
 322:Generated_Source\PSoC4/PM_DMA_Enable.h **** *
 323:Generated_Source\PSoC4/PM_DMA_Enable.h **** *******************************************************************************/
 324:Generated_Source\PSoC4/PM_DMA_Enable.h **** static CY_INLINE void PM_DMA_Enable_SetSrcAddress(int32 descriptor, void * srcAddress)
 325:Generated_Source\PSoC4/PM_DMA_Enable.h **** {
  89              		.loc 1 325 0
  90              		.cfi_startproc
  91              		@ args = 0, pretend = 0, frame = 8
  92              		@ frame_needed = 1, uses_anonymous_args = 0
  93 0000 80B5     		push	{r7, lr}
  94              		.cfi_def_cfa_offset 8
  95              		.cfi_offset 7, -8
  96              		.cfi_offset 14, -4
  97 0002 82B0     		sub	sp, sp, #8
  98              		.cfi_def_cfa_offset 16
  99 0004 00AF     		add	r7, sp, #0
 100              		.cfi_def_cfa_register 7
 101 0006 7860     		str	r0, [r7, #4]
 102 0008 3960     		str	r1, [r7]
 326:Generated_Source\PSoC4/PM_DMA_Enable.h ****     CyDmaSetSrcAddress(PM_DMA_Enable_CHANNEL, descriptor, srcAddress);
 103              		.loc 1 326 0
 104 000a 3A68     		ldr	r2, [r7]
 105 000c 7B68     		ldr	r3, [r7, #4]
 106 000e 1900     		movs	r1, r3
 107 0010 0420     		movs	r0, #4
 108 0012 FFF7FEFF 		bl	CyDmaSetSrcAddress
 327:Generated_Source\PSoC4/PM_DMA_Enable.h **** }
 109              		.loc 1 327 0
 110 0016 C046     		nop
 111 0018 BD46     		mov	sp, r7
 112 001a 02B0     		add	sp, sp, #8
 113              		@ sp needed
 114 001c 80BD     		pop	{r7, pc}
 115              		.cfi_endproc
 116              	.LFE10:
 117              		.size	PM_DMA_Enable_SetSrcAddress, .-PM_DMA_Enable_SetSrcAddress
 118 001e C046     		.section	.text.PM_DMA_Enable_SetDstAddress,"ax",%progbits
 119              		.align	2
 120              		.code	16
 121              		.thumb_func
 122              		.type	PM_DMA_Enable_SetDstAddress, %function
 123              	PM_DMA_Enable_SetDstAddress:
 124              	.LFB12:
 328:Generated_Source\PSoC4/PM_DMA_Enable.h **** 
 329:Generated_Source\PSoC4/PM_DMA_Enable.h **** 
 330:Generated_Source\PSoC4/PM_DMA_Enable.h **** /*******************************************************************************
 331:Generated_Source\PSoC4/PM_DMA_Enable.h **** * Function Name: PM_DMA_Enable_GetSrcAddress
 332:Generated_Source\PSoC4/PM_DMA_Enable.h **** ********************************************************************************
ARM GAS  C:\Users\alexport\AppData\Local\Temp\ccunthcd.s 			page 9


 333:Generated_Source\PSoC4/PM_DMA_Enable.h **** *
 334:Generated_Source\PSoC4/PM_DMA_Enable.h **** * Summary:
 335:Generated_Source\PSoC4/PM_DMA_Enable.h **** *  Returns the source address for the specified descriptor, set by either 
 336:Generated_Source\PSoC4/PM_DMA_Enable.h **** *  PM_DMA_Enable_Start() or PM_DMA_Enable_SetSrcAddress().
 337:Generated_Source\PSoC4/PM_DMA_Enable.h **** *
 338:Generated_Source\PSoC4/PM_DMA_Enable.h **** * Parameters:
 339:Generated_Source\PSoC4/PM_DMA_Enable.h **** *  descriptor: Specifies descriptor (0 or 1) used by this function.
 340:Generated_Source\PSoC4/PM_DMA_Enable.h **** *                   
 341:Generated_Source\PSoC4/PM_DMA_Enable.h **** * Return:
 342:Generated_Source\PSoC4/PM_DMA_Enable.h **** *  Source address written to specified descriptor.
 343:Generated_Source\PSoC4/PM_DMA_Enable.h **** *
 344:Generated_Source\PSoC4/PM_DMA_Enable.h **** *******************************************************************************/
 345:Generated_Source\PSoC4/PM_DMA_Enable.h **** static CY_INLINE void * PM_DMA_Enable_GetSrcAddress(int32 descriptor)
 346:Generated_Source\PSoC4/PM_DMA_Enable.h **** {
 347:Generated_Source\PSoC4/PM_DMA_Enable.h ****     return (CyDmaGetSrcAddress(PM_DMA_Enable_CHANNEL, descriptor));
 348:Generated_Source\PSoC4/PM_DMA_Enable.h **** }
 349:Generated_Source\PSoC4/PM_DMA_Enable.h **** 
 350:Generated_Source\PSoC4/PM_DMA_Enable.h **** 
 351:Generated_Source\PSoC4/PM_DMA_Enable.h **** /*******************************************************************************
 352:Generated_Source\PSoC4/PM_DMA_Enable.h **** * Function Name: PM_DMA_Enable_SetDstAddress
 353:Generated_Source\PSoC4/PM_DMA_Enable.h **** ********************************************************************************
 354:Generated_Source\PSoC4/PM_DMA_Enable.h **** *
 355:Generated_Source\PSoC4/PM_DMA_Enable.h **** * Summary:
 356:Generated_Source\PSoC4/PM_DMA_Enable.h **** *  Configures the destination address for the specified descriptor.
 357:Generated_Source\PSoC4/PM_DMA_Enable.h **** *
 358:Generated_Source\PSoC4/PM_DMA_Enable.h **** * Parameters:
 359:Generated_Source\PSoC4/PM_DMA_Enable.h **** *  descriptor: Descriptor (0 or 1) modified by this function.
 360:Generated_Source\PSoC4/PM_DMA_Enable.h **** *  dstAddress: Address of DMA transfer destination.
 361:Generated_Source\PSoC4/PM_DMA_Enable.h **** *                   
 362:Generated_Source\PSoC4/PM_DMA_Enable.h **** * Return:
 363:Generated_Source\PSoC4/PM_DMA_Enable.h **** *  None.
 364:Generated_Source\PSoC4/PM_DMA_Enable.h **** *
 365:Generated_Source\PSoC4/PM_DMA_Enable.h **** * Side effect:
 366:Generated_Source\PSoC4/PM_DMA_Enable.h **** *  This function should not be called when the specified descriptor is active
 367:Generated_Source\PSoC4/PM_DMA_Enable.h **** *  in the DMA transfer engine. This can be checked by calling CyDmaGetStatus(). 
 368:Generated_Source\PSoC4/PM_DMA_Enable.h **** *
 369:Generated_Source\PSoC4/PM_DMA_Enable.h **** *******************************************************************************/
 370:Generated_Source\PSoC4/PM_DMA_Enable.h **** static CY_INLINE void PM_DMA_Enable_SetDstAddress(int32 descriptor, void * dstAddress)
 371:Generated_Source\PSoC4/PM_DMA_Enable.h **** {
 125              		.loc 1 371 0
 126              		.cfi_startproc
 127              		@ args = 0, pretend = 0, frame = 8
 128              		@ frame_needed = 1, uses_anonymous_args = 0
 129 0000 80B5     		push	{r7, lr}
 130              		.cfi_def_cfa_offset 8
 131              		.cfi_offset 7, -8
 132              		.cfi_offset 14, -4
 133 0002 82B0     		sub	sp, sp, #8
 134              		.cfi_def_cfa_offset 16
 135 0004 00AF     		add	r7, sp, #0
 136              		.cfi_def_cfa_register 7
 137 0006 7860     		str	r0, [r7, #4]
 138 0008 3960     		str	r1, [r7]
 372:Generated_Source\PSoC4/PM_DMA_Enable.h ****     CyDmaSetDstAddress(PM_DMA_Enable_CHANNEL, descriptor, dstAddress);
 139              		.loc 1 372 0
 140 000a 3A68     		ldr	r2, [r7]
 141 000c 7B68     		ldr	r3, [r7, #4]
ARM GAS  C:\Users\alexport\AppData\Local\Temp\ccunthcd.s 			page 10


 142 000e 1900     		movs	r1, r3
 143 0010 0420     		movs	r0, #4
 144 0012 FFF7FEFF 		bl	CyDmaSetDstAddress
 373:Generated_Source\PSoC4/PM_DMA_Enable.h **** }
 145              		.loc 1 373 0
 146 0016 C046     		nop
 147 0018 BD46     		mov	sp, r7
 148 001a 02B0     		add	sp, sp, #8
 149              		@ sp needed
 150 001c 80BD     		pop	{r7, pc}
 151              		.cfi_endproc
 152              	.LFE12:
 153              		.size	PM_DMA_Enable_SetDstAddress, .-PM_DMA_Enable_SetDstAddress
 154              		.global	PM_DMA_Enable_initVar
 155 001e C046     		.bss
 156              		.type	PM_DMA_Enable_initVar, %object
 157              		.size	PM_DMA_Enable_initVar, 1
 158              	PM_DMA_Enable_initVar:
 159 0000 00       		.space	1
 160              		.section	.text.PM_DMA_Enable_Start,"ax",%progbits
 161              		.align	2
 162              		.global	PM_DMA_Enable_Start
 163              		.code	16
 164              		.thumb_func
 165              		.type	PM_DMA_Enable_Start, %function
 166              	PM_DMA_Enable_Start:
 167              	.LFB32:
 168              		.file 2 "Generated_Source\\PSoC4\\PM_DMA_Enable.c"
   1:Generated_Source\PSoC4/PM_DMA_Enable.c **** /*******************************************************************************
   2:Generated_Source\PSoC4/PM_DMA_Enable.c **** * File Name: PM_DMA_Enable.h
   3:Generated_Source\PSoC4/PM_DMA_Enable.c **** * Version 1.0
   4:Generated_Source\PSoC4/PM_DMA_Enable.c **** *
   5:Generated_Source\PSoC4/PM_DMA_Enable.c **** * Description:
   6:Generated_Source\PSoC4/PM_DMA_Enable.c **** *  This file contains all of the channel DMA API functions.
   7:Generated_Source\PSoC4/PM_DMA_Enable.c **** *
   8:Generated_Source\PSoC4/PM_DMA_Enable.c **** ********************************************************************************
   9:Generated_Source\PSoC4/PM_DMA_Enable.c **** * Copyright 2015, Cypress Semiconductor Corporation. All rights reserved.
  10:Generated_Source\PSoC4/PM_DMA_Enable.c **** * You may use this file only in accordance with the license, terms, conditions,
  11:Generated_Source\PSoC4/PM_DMA_Enable.c **** * disclaimers, and limitations in the end user license agreement accompanying
  12:Generated_Source\PSoC4/PM_DMA_Enable.c **** * the software package with which this file was provided.
  13:Generated_Source\PSoC4/PM_DMA_Enable.c **** *******************************************************************************/
  14:Generated_Source\PSoC4/PM_DMA_Enable.c **** 
  15:Generated_Source\PSoC4/PM_DMA_Enable.c **** #include "PM_DMA_Enable.h"
  16:Generated_Source\PSoC4/PM_DMA_Enable.c **** 
  17:Generated_Source\PSoC4/PM_DMA_Enable.c **** uint8 PM_DMA_Enable_initVar = 0u;
  18:Generated_Source\PSoC4/PM_DMA_Enable.c **** 
  19:Generated_Source\PSoC4/PM_DMA_Enable.c **** 
  20:Generated_Source\PSoC4/PM_DMA_Enable.c **** /*******************************************************************************
  21:Generated_Source\PSoC4/PM_DMA_Enable.c **** * Function Name: PM_DMA_Enable_Start
  22:Generated_Source\PSoC4/PM_DMA_Enable.c **** ********************************************************************************
  23:Generated_Source\PSoC4/PM_DMA_Enable.c **** *
  24:Generated_Source\PSoC4/PM_DMA_Enable.c **** * Summary:
  25:Generated_Source\PSoC4/PM_DMA_Enable.c **** *  Calls Init() to configure the DMA channel based on the customizer settings if
  26:Generated_Source\PSoC4/PM_DMA_Enable.c **** *  the channel has not been initialized before.
  27:Generated_Source\PSoC4/PM_DMA_Enable.c **** *  Sets source and destination address, validates descriptor 0 and enables the
  28:Generated_Source\PSoC4/PM_DMA_Enable.c **** *  channel. After calling this function the DMA channel is active and waiting
  29:Generated_Source\PSoC4/PM_DMA_Enable.c **** *  for a trigger.
ARM GAS  C:\Users\alexport\AppData\Local\Temp\ccunthcd.s 			page 11


  30:Generated_Source\PSoC4/PM_DMA_Enable.c **** *
  31:Generated_Source\PSoC4/PM_DMA_Enable.c **** * Parameters:
  32:Generated_Source\PSoC4/PM_DMA_Enable.c **** *  srcAddress: Address of DMA transfer source for descriptor 0.
  33:Generated_Source\PSoC4/PM_DMA_Enable.c **** *  dstAddress: Address of DMA transfer destination for descriptor 0.
  34:Generated_Source\PSoC4/PM_DMA_Enable.c **** *                   
  35:Generated_Source\PSoC4/PM_DMA_Enable.c **** * Return:
  36:Generated_Source\PSoC4/PM_DMA_Enable.c **** *  None.
  37:Generated_Source\PSoC4/PM_DMA_Enable.c **** *
  38:Generated_Source\PSoC4/PM_DMA_Enable.c **** *******************************************************************************/
  39:Generated_Source\PSoC4/PM_DMA_Enable.c **** void PM_DMA_Enable_Start(void * srcAddress, void * dstAddress)
  40:Generated_Source\PSoC4/PM_DMA_Enable.c **** {
 169              		.loc 2 40 0
 170              		.cfi_startproc
 171              		@ args = 0, pretend = 0, frame = 8
 172              		@ frame_needed = 1, uses_anonymous_args = 0
 173 0000 80B5     		push	{r7, lr}
 174              		.cfi_def_cfa_offset 8
 175              		.cfi_offset 7, -8
 176              		.cfi_offset 14, -4
 177 0002 82B0     		sub	sp, sp, #8
 178              		.cfi_def_cfa_offset 16
 179 0004 00AF     		add	r7, sp, #0
 180              		.cfi_def_cfa_register 7
 181 0006 7860     		str	r0, [r7, #4]
 182 0008 3960     		str	r1, [r7]
  41:Generated_Source\PSoC4/PM_DMA_Enable.c ****     if(0u == PM_DMA_Enable_initVar)
 183              		.loc 2 41 0
 184 000a 0F4B     		ldr	r3, .L7
 185 000c 1B78     		ldrb	r3, [r3]
 186 000e 002B     		cmp	r3, #0
 187 0010 04D1     		bne	.L6
  42:Generated_Source\PSoC4/PM_DMA_Enable.c ****     {
  43:Generated_Source\PSoC4/PM_DMA_Enable.c ****         PM_DMA_Enable_Init();
 188              		.loc 2 43 0
 189 0012 FFF7FEFF 		bl	PM_DMA_Enable_Init
  44:Generated_Source\PSoC4/PM_DMA_Enable.c ****         PM_DMA_Enable_initVar = 1u;
 190              		.loc 2 44 0
 191 0016 0C4B     		ldr	r3, .L7
 192 0018 0122     		movs	r2, #1
 193 001a 1A70     		strb	r2, [r3]
 194              	.L6:
  45:Generated_Source\PSoC4/PM_DMA_Enable.c ****     }
  46:Generated_Source\PSoC4/PM_DMA_Enable.c ****     CyDmaEnable();
 195              		.loc 2 46 0
 196 001c FFF7FEFF 		bl	CyDmaEnable
  47:Generated_Source\PSoC4/PM_DMA_Enable.c ****     PM_DMA_Enable_SetSrcAddress(0, srcAddress);
 197              		.loc 2 47 0
 198 0020 7B68     		ldr	r3, [r7, #4]
 199 0022 1900     		movs	r1, r3
 200 0024 0020     		movs	r0, #0
 201 0026 FFF7FEFF 		bl	PM_DMA_Enable_SetSrcAddress
  48:Generated_Source\PSoC4/PM_DMA_Enable.c ****     PM_DMA_Enable_SetDstAddress(0, dstAddress);
 202              		.loc 2 48 0
 203 002a 3B68     		ldr	r3, [r7]
 204 002c 1900     		movs	r1, r3
 205 002e 0020     		movs	r0, #0
 206 0030 FFF7FEFF 		bl	PM_DMA_Enable_SetDstAddress
ARM GAS  C:\Users\alexport\AppData\Local\Temp\ccunthcd.s 			page 12


  49:Generated_Source\PSoC4/PM_DMA_Enable.c ****     PM_DMA_Enable_ValidateDescriptor(0);
 207              		.loc 2 49 0
 208 0034 0020     		movs	r0, #0
 209 0036 FFF7FEFF 		bl	PM_DMA_Enable_ValidateDescriptor
  50:Generated_Source\PSoC4/PM_DMA_Enable.c ****     PM_DMA_Enable_ChEnable();
 210              		.loc 2 50 0
 211 003a FFF7FEFF 		bl	PM_DMA_Enable_ChEnable
  51:Generated_Source\PSoC4/PM_DMA_Enable.c **** }
 212              		.loc 2 51 0
 213 003e C046     		nop
 214 0040 BD46     		mov	sp, r7
 215 0042 02B0     		add	sp, sp, #8
 216              		@ sp needed
 217 0044 80BD     		pop	{r7, pc}
 218              	.L8:
 219 0046 C046     		.align	2
 220              	.L7:
 221 0048 00000000 		.word	PM_DMA_Enable_initVar
 222              		.cfi_endproc
 223              	.LFE32:
 224              		.size	PM_DMA_Enable_Start, .-PM_DMA_Enable_Start
 225              		.section	.text.PM_DMA_Enable_Init,"ax",%progbits
 226              		.align	2
 227              		.global	PM_DMA_Enable_Init
 228              		.code	16
 229              		.thumb_func
 230              		.type	PM_DMA_Enable_Init, %function
 231              	PM_DMA_Enable_Init:
 232              	.LFB33:
  52:Generated_Source\PSoC4/PM_DMA_Enable.c **** 
  53:Generated_Source\PSoC4/PM_DMA_Enable.c **** 
  54:Generated_Source\PSoC4/PM_DMA_Enable.c **** /*******************************************************************************
  55:Generated_Source\PSoC4/PM_DMA_Enable.c **** * Function Name: PM_DMA_Enable_Init
  56:Generated_Source\PSoC4/PM_DMA_Enable.c **** ********************************************************************************
  57:Generated_Source\PSoC4/PM_DMA_Enable.c **** *
  58:Generated_Source\PSoC4/PM_DMA_Enable.c **** * Summary:
  59:Generated_Source\PSoC4/PM_DMA_Enable.c **** *  Initializes the DMA channel based on the parameters set in the component
  60:Generated_Source\PSoC4/PM_DMA_Enable.c **** *  customizer. It is not necessary to call PM_DMA_Enable_Init() because the
  61:Generated_Source\PSoC4/PM_DMA_Enable.c **** *  PM_DMA_Enable_Start() API calls this function, which is the preferred method
  62:Generated_Source\PSoC4/PM_DMA_Enable.c **** *  to begin component operation.
  63:Generated_Source\PSoC4/PM_DMA_Enable.c **** *
  64:Generated_Source\PSoC4/PM_DMA_Enable.c **** * Parameters:
  65:Generated_Source\PSoC4/PM_DMA_Enable.c **** *  None.
  66:Generated_Source\PSoC4/PM_DMA_Enable.c **** *                   
  67:Generated_Source\PSoC4/PM_DMA_Enable.c **** * Return:
  68:Generated_Source\PSoC4/PM_DMA_Enable.c **** *  None.
  69:Generated_Source\PSoC4/PM_DMA_Enable.c **** *
  70:Generated_Source\PSoC4/PM_DMA_Enable.c **** * Side effect:
  71:Generated_Source\PSoC4/PM_DMA_Enable.c **** *  The first descriptor is set to descriptor 0. This function should not be
  72:Generated_Source\PSoC4/PM_DMA_Enable.c **** *  called while the channel is enabled. All settings will be reset to their
  73:Generated_Source\PSoC4/PM_DMA_Enable.c **** *  initial values.
  74:Generated_Source\PSoC4/PM_DMA_Enable.c **** *
  75:Generated_Source\PSoC4/PM_DMA_Enable.c **** *******************************************************************************/
  76:Generated_Source\PSoC4/PM_DMA_Enable.c **** void PM_DMA_Enable_Init(void)
  77:Generated_Source\PSoC4/PM_DMA_Enable.c **** {
 233              		.loc 2 77 0
 234              		.cfi_startproc
ARM GAS  C:\Users\alexport\AppData\Local\Temp\ccunthcd.s 			page 13


 235              		@ args = 0, pretend = 0, frame = 0
 236              		@ frame_needed = 1, uses_anonymous_args = 0
 237 0000 80B5     		push	{r7, lr}
 238              		.cfi_def_cfa_offset 8
 239              		.cfi_offset 7, -8
 240              		.cfi_offset 14, -4
 241 0002 00AF     		add	r7, sp, #0
 242              		.cfi_def_cfa_register 7
  78:Generated_Source\PSoC4/PM_DMA_Enable.c ****     CYDMA_CH_CTL_BASE.ctl[PM_DMA_Enable_CHANNEL] = PM_DMA_Enable_CHANNEL_CFG;
 243              		.loc 2 78 0
 244 0004 074B     		ldr	r3, .L10
 245 0006 C022     		movs	r2, #192
 246 0008 9205     		lsls	r2, r2, #22
 247 000a 1A61     		str	r2, [r3, #16]
  79:Generated_Source\PSoC4/PM_DMA_Enable.c ****     CYDMA_DESCR_BASE.descriptor[PM_DMA_Enable_CHANNEL][0].ctl = PM_DMA_Enable_DESCR0_CFG;
 248              		.loc 2 79 0
 249 000c 0649     		ldr	r1, .L10+4
 250 000e 8822     		movs	r2, #136
 251 0010 8023     		movs	r3, #128
 252 0012 1B04     		lsls	r3, r3, #16
 253 0014 8B50     		str	r3, [r1, r2]
  80:Generated_Source\PSoC4/PM_DMA_Enable.c ****     CYDMA_DESCR_BASE.descriptor[PM_DMA_Enable_CHANNEL][1].ctl = PM_DMA_Enable_DESCR1_CFG;
 254              		.loc 2 80 0
 255 0016 044A     		ldr	r2, .L10+4
 256 0018 9823     		movs	r3, #152
 257 001a 0021     		movs	r1, #0
 258 001c D150     		str	r1, [r2, r3]
  81:Generated_Source\PSoC4/PM_DMA_Enable.c **** 
  82:Generated_Source\PSoC4/PM_DMA_Enable.c ****     /* If the Generate IRQ option is selected for descriptor 0 or 1, set the
  83:Generated_Source\PSoC4/PM_DMA_Enable.c ****     * channel bit field in the DMA interrupt mask register.
  84:Generated_Source\PSoC4/PM_DMA_Enable.c ****     */
  85:Generated_Source\PSoC4/PM_DMA_Enable.c ****     #if (0u != ((PM_DMA_Enable_DESCR0_CFG | PM_DMA_Enable_DESCR1_CFG) & CYDMA_GENERATE_IRQ))
  86:Generated_Source\PSoC4/PM_DMA_Enable.c ****         CYDMA_INTR_MASK_REG |= PM_DMA_Enable_CHANNEL_MASK;
  87:Generated_Source\PSoC4/PM_DMA_Enable.c ****     #endif /* (0u != ((PM_DMA_Enable_DESCR0_CFG | PM_DMA_Enable_DESCR1_CFG) & CYDMA_GENERATE_IRQ)) 
  88:Generated_Source\PSoC4/PM_DMA_Enable.c **** }
 259              		.loc 2 88 0
 260 001e C046     		nop
 261 0020 BD46     		mov	sp, r7
 262              		@ sp needed
 263 0022 80BD     		pop	{r7, pc}
 264              	.L11:
 265              		.align	2
 266              	.L10:
 267 0024 80101040 		.word	1074794624
 268 0028 00181040 		.word	1074796544
 269              		.cfi_endproc
 270              	.LFE33:
 271              		.size	PM_DMA_Enable_Init, .-PM_DMA_Enable_Init
 272              		.text
 273              	.Letext0:
 274              		.file 3 "Generated_Source\\PSoC4\\cytypes.h"
 275              		.file 4 "Generated_Source\\PSoC4\\CyDMA.h"