ARM GAS  C:\Users\alexport\AppData\Local\Temp\ccngwUZc.s 			page 1


   1              		.syntax unified
   2              		.cpu cortex-m0
   3              		.fpu softvfp
   4              		.eabi_attribute 20, 1
   5              		.eabi_attribute 21, 1
   6              		.eabi_attribute 23, 3
   7              		.eabi_attribute 24, 1
   8              		.eabi_attribute 25, 1
   9              		.eabi_attribute 26, 1
  10              		.eabi_attribute 30, 6
  11              		.eabi_attribute 34, 0
  12              		.eabi_attribute 18, 4
  13              		.thumb
  14              		.syntax unified
  15              		.file	"PM_uv_isr.c"
  16              		.text
  17              	.Ltext0:
  18              		.cfi_sections	.debug_frame
  19              		.section	.text.PM_uv_isr_Start,"ax",%progbits
  20              		.align	2
  21              		.global	PM_uv_isr_Start
  22              		.code	16
  23              		.thumb_func
  24              		.type	PM_uv_isr_Start, %function
  25              	PM_uv_isr_Start:
  26              	.LFB2:
  27              		.file 1 "Generated_Source\\PSoC4\\PM_uv_isr.c"
   1:Generated_Source\PSoC4/PM_uv_isr.c **** /*******************************************************************************
   2:Generated_Source\PSoC4/PM_uv_isr.c **** * File Name: PM_uv_isr.c  
   3:Generated_Source\PSoC4/PM_uv_isr.c **** * Version 1.70
   4:Generated_Source\PSoC4/PM_uv_isr.c **** *
   5:Generated_Source\PSoC4/PM_uv_isr.c **** *  Description:
   6:Generated_Source\PSoC4/PM_uv_isr.c **** *   API for controlling the state of an interrupt.
   7:Generated_Source\PSoC4/PM_uv_isr.c **** *
   8:Generated_Source\PSoC4/PM_uv_isr.c **** *
   9:Generated_Source\PSoC4/PM_uv_isr.c **** *  Note:
  10:Generated_Source\PSoC4/PM_uv_isr.c **** *
  11:Generated_Source\PSoC4/PM_uv_isr.c **** ********************************************************************************
  12:Generated_Source\PSoC4/PM_uv_isr.c **** * Copyright 2008-2015, Cypress Semiconductor Corporation.  All rights reserved.
  13:Generated_Source\PSoC4/PM_uv_isr.c **** * You may use this file only in accordance with the license, terms, conditions, 
  14:Generated_Source\PSoC4/PM_uv_isr.c **** * disclaimers, and limitations in the end user license agreement accompanying 
  15:Generated_Source\PSoC4/PM_uv_isr.c **** * the software package with which this file was provided.
  16:Generated_Source\PSoC4/PM_uv_isr.c **** *******************************************************************************/
  17:Generated_Source\PSoC4/PM_uv_isr.c **** 
  18:Generated_Source\PSoC4/PM_uv_isr.c **** 
  19:Generated_Source\PSoC4/PM_uv_isr.c **** #include <cydevice_trm.h>
  20:Generated_Source\PSoC4/PM_uv_isr.c **** #include <CyLib.h>
  21:Generated_Source\PSoC4/PM_uv_isr.c **** #include <PM_uv_isr.h>
  22:Generated_Source\PSoC4/PM_uv_isr.c **** #include "cyapicallbacks.h"
  23:Generated_Source\PSoC4/PM_uv_isr.c **** 
  24:Generated_Source\PSoC4/PM_uv_isr.c **** #if !defined(PM_uv_isr__REMOVED) /* Check for removal by optimization */
  25:Generated_Source\PSoC4/PM_uv_isr.c **** 
  26:Generated_Source\PSoC4/PM_uv_isr.c **** /*******************************************************************************
  27:Generated_Source\PSoC4/PM_uv_isr.c **** *  Place your includes, defines and code here 
  28:Generated_Source\PSoC4/PM_uv_isr.c **** ********************************************************************************/
  29:Generated_Source\PSoC4/PM_uv_isr.c **** /* `#START PM_uv_isr_intc` */
  30:Generated_Source\PSoC4/PM_uv_isr.c **** 
ARM GAS  C:\Users\alexport\AppData\Local\Temp\ccngwUZc.s 			page 2


  31:Generated_Source\PSoC4/PM_uv_isr.c **** /* `#END` */
  32:Generated_Source\PSoC4/PM_uv_isr.c **** 
  33:Generated_Source\PSoC4/PM_uv_isr.c **** extern cyisraddress CyRamVectors[CYINT_IRQ_BASE + CY_NUM_INTERRUPTS];
  34:Generated_Source\PSoC4/PM_uv_isr.c **** 
  35:Generated_Source\PSoC4/PM_uv_isr.c **** /* Declared in startup, used to set unused interrupts to. */
  36:Generated_Source\PSoC4/PM_uv_isr.c **** CY_ISR_PROTO(IntDefaultHandler);
  37:Generated_Source\PSoC4/PM_uv_isr.c **** 
  38:Generated_Source\PSoC4/PM_uv_isr.c **** 
  39:Generated_Source\PSoC4/PM_uv_isr.c **** /*******************************************************************************
  40:Generated_Source\PSoC4/PM_uv_isr.c **** * Function Name: PM_uv_isr_Start
  41:Generated_Source\PSoC4/PM_uv_isr.c **** ********************************************************************************
  42:Generated_Source\PSoC4/PM_uv_isr.c **** *
  43:Generated_Source\PSoC4/PM_uv_isr.c **** * Summary:
  44:Generated_Source\PSoC4/PM_uv_isr.c **** *  Set up the interrupt and enable it. This function disables the interrupt, 
  45:Generated_Source\PSoC4/PM_uv_isr.c **** *  sets the default interrupt vector, sets the priority from the value in the
  46:Generated_Source\PSoC4/PM_uv_isr.c **** *  Design Wide Resources Interrupt Editor, then enables the interrupt to the 
  47:Generated_Source\PSoC4/PM_uv_isr.c **** *  interrupt controller.
  48:Generated_Source\PSoC4/PM_uv_isr.c **** *
  49:Generated_Source\PSoC4/PM_uv_isr.c **** * Parameters:  
  50:Generated_Source\PSoC4/PM_uv_isr.c **** *   None
  51:Generated_Source\PSoC4/PM_uv_isr.c **** *
  52:Generated_Source\PSoC4/PM_uv_isr.c **** * Return:
  53:Generated_Source\PSoC4/PM_uv_isr.c **** *   None
  54:Generated_Source\PSoC4/PM_uv_isr.c **** *
  55:Generated_Source\PSoC4/PM_uv_isr.c **** *******************************************************************************/
  56:Generated_Source\PSoC4/PM_uv_isr.c **** void PM_uv_isr_Start(void)
  57:Generated_Source\PSoC4/PM_uv_isr.c **** {
  28              		.loc 1 57 0
  29              		.cfi_startproc
  30              		@ args = 0, pretend = 0, frame = 0
  31              		@ frame_needed = 1, uses_anonymous_args = 0
  32 0000 80B5     		push	{r7, lr}
  33              		.cfi_def_cfa_offset 8
  34              		.cfi_offset 7, -8
  35              		.cfi_offset 14, -4
  36 0002 00AF     		add	r7, sp, #0
  37              		.cfi_def_cfa_register 7
  58:Generated_Source\PSoC4/PM_uv_isr.c ****     /* For all we know the interrupt is active. */
  59:Generated_Source\PSoC4/PM_uv_isr.c ****     PM_uv_isr_Disable();
  38              		.loc 1 59 0
  39 0004 FFF7FEFF 		bl	PM_uv_isr_Disable
  60:Generated_Source\PSoC4/PM_uv_isr.c **** 
  61:Generated_Source\PSoC4/PM_uv_isr.c ****     /* Set the ISR to point to the PM_uv_isr Interrupt. */
  62:Generated_Source\PSoC4/PM_uv_isr.c ****     PM_uv_isr_SetVector(&PM_uv_isr_Interrupt);
  40              		.loc 1 62 0
  41 0008 054B     		ldr	r3, .L2
  42 000a 1800     		movs	r0, r3
  43 000c FFF7FEFF 		bl	PM_uv_isr_SetVector
  63:Generated_Source\PSoC4/PM_uv_isr.c **** 
  64:Generated_Source\PSoC4/PM_uv_isr.c ****     /* Set the priority. */
  65:Generated_Source\PSoC4/PM_uv_isr.c ****     PM_uv_isr_SetPriority((uint8)PM_uv_isr_INTC_PRIOR_NUMBER);
  44              		.loc 1 65 0
  45 0010 0320     		movs	r0, #3
  46 0012 FFF7FEFF 		bl	PM_uv_isr_SetPriority
  66:Generated_Source\PSoC4/PM_uv_isr.c **** 
  67:Generated_Source\PSoC4/PM_uv_isr.c ****     /* Enable it. */
  68:Generated_Source\PSoC4/PM_uv_isr.c ****     PM_uv_isr_Enable();
ARM GAS  C:\Users\alexport\AppData\Local\Temp\ccngwUZc.s 			page 3


  47              		.loc 1 68 0
  48 0016 FFF7FEFF 		bl	PM_uv_isr_Enable
  69:Generated_Source\PSoC4/PM_uv_isr.c **** }
  49              		.loc 1 69 0
  50 001a C046     		nop
  51 001c BD46     		mov	sp, r7
  52              		@ sp needed
  53 001e 80BD     		pop	{r7, pc}
  54              	.L3:
  55              		.align	2
  56              	.L2:
  57 0020 00000000 		.word	PM_uv_isr_Interrupt
  58              		.cfi_endproc
  59              	.LFE2:
  60              		.size	PM_uv_isr_Start, .-PM_uv_isr_Start
  61              		.section	.text.PM_uv_isr_StartEx,"ax",%progbits
  62              		.align	2
  63              		.global	PM_uv_isr_StartEx
  64              		.code	16
  65              		.thumb_func
  66              		.type	PM_uv_isr_StartEx, %function
  67              	PM_uv_isr_StartEx:
  68              	.LFB3:
  70:Generated_Source\PSoC4/PM_uv_isr.c **** 
  71:Generated_Source\PSoC4/PM_uv_isr.c **** 
  72:Generated_Source\PSoC4/PM_uv_isr.c **** /*******************************************************************************
  73:Generated_Source\PSoC4/PM_uv_isr.c **** * Function Name: PM_uv_isr_StartEx
  74:Generated_Source\PSoC4/PM_uv_isr.c **** ********************************************************************************
  75:Generated_Source\PSoC4/PM_uv_isr.c **** *
  76:Generated_Source\PSoC4/PM_uv_isr.c **** * Summary:
  77:Generated_Source\PSoC4/PM_uv_isr.c **** *  Sets up the interrupt and enables it. This function disables the interrupt,
  78:Generated_Source\PSoC4/PM_uv_isr.c **** *  sets the interrupt vector based on the address passed in, sets the priority 
  79:Generated_Source\PSoC4/PM_uv_isr.c **** *  from the value in the Design Wide Resources Interrupt Editor, then enables 
  80:Generated_Source\PSoC4/PM_uv_isr.c **** *  the interrupt to the interrupt controller.
  81:Generated_Source\PSoC4/PM_uv_isr.c **** *  
  82:Generated_Source\PSoC4/PM_uv_isr.c **** *  When defining ISR functions, the CY_ISR and CY_ISR_PROTO macros should be 
  83:Generated_Source\PSoC4/PM_uv_isr.c **** *  used to provide consistent definition across compilers:
  84:Generated_Source\PSoC4/PM_uv_isr.c **** *  
  85:Generated_Source\PSoC4/PM_uv_isr.c **** *  Function definition example:
  86:Generated_Source\PSoC4/PM_uv_isr.c **** *   CY_ISR(MyISR)
  87:Generated_Source\PSoC4/PM_uv_isr.c **** *   {
  88:Generated_Source\PSoC4/PM_uv_isr.c **** *   }
  89:Generated_Source\PSoC4/PM_uv_isr.c **** *   Function prototype example:
  90:Generated_Source\PSoC4/PM_uv_isr.c **** *   CY_ISR_PROTO(MyISR);
  91:Generated_Source\PSoC4/PM_uv_isr.c **** *
  92:Generated_Source\PSoC4/PM_uv_isr.c **** * Parameters:  
  93:Generated_Source\PSoC4/PM_uv_isr.c **** *   address: Address of the ISR to set in the interrupt vector table.
  94:Generated_Source\PSoC4/PM_uv_isr.c **** *
  95:Generated_Source\PSoC4/PM_uv_isr.c **** * Return:
  96:Generated_Source\PSoC4/PM_uv_isr.c **** *   None
  97:Generated_Source\PSoC4/PM_uv_isr.c **** *
  98:Generated_Source\PSoC4/PM_uv_isr.c **** *******************************************************************************/
  99:Generated_Source\PSoC4/PM_uv_isr.c **** void PM_uv_isr_StartEx(cyisraddress address)
 100:Generated_Source\PSoC4/PM_uv_isr.c **** {
  69              		.loc 1 100 0
  70              		.cfi_startproc
  71              		@ args = 0, pretend = 0, frame = 8
ARM GAS  C:\Users\alexport\AppData\Local\Temp\ccngwUZc.s 			page 4


  72              		@ frame_needed = 1, uses_anonymous_args = 0
  73 0000 80B5     		push	{r7, lr}
  74              		.cfi_def_cfa_offset 8
  75              		.cfi_offset 7, -8
  76              		.cfi_offset 14, -4
  77 0002 82B0     		sub	sp, sp, #8
  78              		.cfi_def_cfa_offset 16
  79 0004 00AF     		add	r7, sp, #0
  80              		.cfi_def_cfa_register 7
  81 0006 7860     		str	r0, [r7, #4]
 101:Generated_Source\PSoC4/PM_uv_isr.c ****     /* For all we know the interrupt is active. */
 102:Generated_Source\PSoC4/PM_uv_isr.c ****     PM_uv_isr_Disable();
  82              		.loc 1 102 0
  83 0008 FFF7FEFF 		bl	PM_uv_isr_Disable
 103:Generated_Source\PSoC4/PM_uv_isr.c **** 
 104:Generated_Source\PSoC4/PM_uv_isr.c ****     /* Set the ISR to point to the PM_uv_isr Interrupt. */
 105:Generated_Source\PSoC4/PM_uv_isr.c ****     PM_uv_isr_SetVector(address);
  84              		.loc 1 105 0
  85 000c 7B68     		ldr	r3, [r7, #4]
  86 000e 1800     		movs	r0, r3
  87 0010 FFF7FEFF 		bl	PM_uv_isr_SetVector
 106:Generated_Source\PSoC4/PM_uv_isr.c **** 
 107:Generated_Source\PSoC4/PM_uv_isr.c ****     /* Set the priority. */
 108:Generated_Source\PSoC4/PM_uv_isr.c ****     PM_uv_isr_SetPriority((uint8)PM_uv_isr_INTC_PRIOR_NUMBER);
  88              		.loc 1 108 0
  89 0014 0320     		movs	r0, #3
  90 0016 FFF7FEFF 		bl	PM_uv_isr_SetPriority
 109:Generated_Source\PSoC4/PM_uv_isr.c **** 
 110:Generated_Source\PSoC4/PM_uv_isr.c ****     /* Enable it. */
 111:Generated_Source\PSoC4/PM_uv_isr.c ****     PM_uv_isr_Enable();
  91              		.loc 1 111 0
  92 001a FFF7FEFF 		bl	PM_uv_isr_Enable
 112:Generated_Source\PSoC4/PM_uv_isr.c **** }
  93              		.loc 1 112 0
  94 001e C046     		nop
  95 0020 BD46     		mov	sp, r7
  96 0022 02B0     		add	sp, sp, #8
  97              		@ sp needed
  98 0024 80BD     		pop	{r7, pc}
  99              		.cfi_endproc
 100              	.LFE3:
 101              		.size	PM_uv_isr_StartEx, .-PM_uv_isr_StartEx
 102 0026 C046     		.section	.text.PM_uv_isr_Stop,"ax",%progbits
 103              		.align	2
 104              		.global	PM_uv_isr_Stop
 105              		.code	16
 106              		.thumb_func
 107              		.type	PM_uv_isr_Stop, %function
 108              	PM_uv_isr_Stop:
 109              	.LFB4:
 113:Generated_Source\PSoC4/PM_uv_isr.c **** 
 114:Generated_Source\PSoC4/PM_uv_isr.c **** 
 115:Generated_Source\PSoC4/PM_uv_isr.c **** /*******************************************************************************
 116:Generated_Source\PSoC4/PM_uv_isr.c **** * Function Name: PM_uv_isr_Stop
 117:Generated_Source\PSoC4/PM_uv_isr.c **** ********************************************************************************
 118:Generated_Source\PSoC4/PM_uv_isr.c **** *
 119:Generated_Source\PSoC4/PM_uv_isr.c **** * Summary:
ARM GAS  C:\Users\alexport\AppData\Local\Temp\ccngwUZc.s 			page 5


 120:Generated_Source\PSoC4/PM_uv_isr.c **** *   Disables and removes the interrupt.
 121:Generated_Source\PSoC4/PM_uv_isr.c **** *
 122:Generated_Source\PSoC4/PM_uv_isr.c **** * Parameters:  
 123:Generated_Source\PSoC4/PM_uv_isr.c **** *   None
 124:Generated_Source\PSoC4/PM_uv_isr.c **** *
 125:Generated_Source\PSoC4/PM_uv_isr.c **** * Return:
 126:Generated_Source\PSoC4/PM_uv_isr.c **** *   None
 127:Generated_Source\PSoC4/PM_uv_isr.c **** *
 128:Generated_Source\PSoC4/PM_uv_isr.c **** *******************************************************************************/
 129:Generated_Source\PSoC4/PM_uv_isr.c **** void PM_uv_isr_Stop(void)
 130:Generated_Source\PSoC4/PM_uv_isr.c **** {
 110              		.loc 1 130 0
 111              		.cfi_startproc
 112              		@ args = 0, pretend = 0, frame = 0
 113              		@ frame_needed = 1, uses_anonymous_args = 0
 114 0000 80B5     		push	{r7, lr}
 115              		.cfi_def_cfa_offset 8
 116              		.cfi_offset 7, -8
 117              		.cfi_offset 14, -4
 118 0002 00AF     		add	r7, sp, #0
 119              		.cfi_def_cfa_register 7
 131:Generated_Source\PSoC4/PM_uv_isr.c ****     /* Disable this interrupt. */
 132:Generated_Source\PSoC4/PM_uv_isr.c ****     PM_uv_isr_Disable();
 120              		.loc 1 132 0
 121 0004 FFF7FEFF 		bl	PM_uv_isr_Disable
 133:Generated_Source\PSoC4/PM_uv_isr.c **** 
 134:Generated_Source\PSoC4/PM_uv_isr.c ****     /* Set the ISR to point to the passive one. */
 135:Generated_Source\PSoC4/PM_uv_isr.c ****     PM_uv_isr_SetVector(&IntDefaultHandler);
 122              		.loc 1 135 0
 123 0008 034B     		ldr	r3, .L6
 124 000a 1800     		movs	r0, r3
 125 000c FFF7FEFF 		bl	PM_uv_isr_SetVector
 136:Generated_Source\PSoC4/PM_uv_isr.c **** }
 126              		.loc 1 136 0
 127 0010 C046     		nop
 128 0012 BD46     		mov	sp, r7
 129              		@ sp needed
 130 0014 80BD     		pop	{r7, pc}
 131              	.L7:
 132 0016 C046     		.align	2
 133              	.L6:
 134 0018 00000000 		.word	IntDefaultHandler
 135              		.cfi_endproc
 136              	.LFE4:
 137              		.size	PM_uv_isr_Stop, .-PM_uv_isr_Stop
 138              		.section	.text.PM_uv_isr_Interrupt,"ax",%progbits
 139              		.align	2
 140              		.global	PM_uv_isr_Interrupt
 141              		.code	16
 142              		.thumb_func
 143              		.type	PM_uv_isr_Interrupt, %function
 144              	PM_uv_isr_Interrupt:
 145              	.LFB5:
 137:Generated_Source\PSoC4/PM_uv_isr.c **** 
 138:Generated_Source\PSoC4/PM_uv_isr.c **** 
 139:Generated_Source\PSoC4/PM_uv_isr.c **** /*******************************************************************************
 140:Generated_Source\PSoC4/PM_uv_isr.c **** * Function Name: PM_uv_isr_Interrupt
ARM GAS  C:\Users\alexport\AppData\Local\Temp\ccngwUZc.s 			page 6


 141:Generated_Source\PSoC4/PM_uv_isr.c **** ********************************************************************************
 142:Generated_Source\PSoC4/PM_uv_isr.c **** *
 143:Generated_Source\PSoC4/PM_uv_isr.c **** * Summary:
 144:Generated_Source\PSoC4/PM_uv_isr.c **** *   The default Interrupt Service Routine for PM_uv_isr.
 145:Generated_Source\PSoC4/PM_uv_isr.c **** *
 146:Generated_Source\PSoC4/PM_uv_isr.c **** *   Add custom code between the START and END comments to keep the next version
 147:Generated_Source\PSoC4/PM_uv_isr.c **** *   of this file from over-writing your code.
 148:Generated_Source\PSoC4/PM_uv_isr.c **** *
 149:Generated_Source\PSoC4/PM_uv_isr.c **** *   Note You may use either the default ISR by using this API, or you may define
 150:Generated_Source\PSoC4/PM_uv_isr.c **** *   your own separate ISR through ISR_StartEx().
 151:Generated_Source\PSoC4/PM_uv_isr.c **** *
 152:Generated_Source\PSoC4/PM_uv_isr.c **** * Parameters:  
 153:Generated_Source\PSoC4/PM_uv_isr.c **** *   None
 154:Generated_Source\PSoC4/PM_uv_isr.c **** *
 155:Generated_Source\PSoC4/PM_uv_isr.c **** * Return:
 156:Generated_Source\PSoC4/PM_uv_isr.c **** *   None
 157:Generated_Source\PSoC4/PM_uv_isr.c **** *
 158:Generated_Source\PSoC4/PM_uv_isr.c **** *******************************************************************************/
 159:Generated_Source\PSoC4/PM_uv_isr.c **** CY_ISR(PM_uv_isr_Interrupt)
 160:Generated_Source\PSoC4/PM_uv_isr.c **** {
 146              		.loc 1 160 0
 147              		.cfi_startproc
 148              		@ args = 0, pretend = 0, frame = 0
 149              		@ frame_needed = 1, uses_anonymous_args = 0
 150 0000 80B5     		push	{r7, lr}
 151              		.cfi_def_cfa_offset 8
 152              		.cfi_offset 7, -8
 153              		.cfi_offset 14, -4
 154 0002 00AF     		add	r7, sp, #0
 155              		.cfi_def_cfa_register 7
 161:Generated_Source\PSoC4/PM_uv_isr.c ****     #ifdef PM_uv_isr_INTERRUPT_INTERRUPT_CALLBACK
 162:Generated_Source\PSoC4/PM_uv_isr.c ****         PM_uv_isr_Interrupt_InterruptCallback();
 163:Generated_Source\PSoC4/PM_uv_isr.c ****     #endif /* PM_uv_isr_INTERRUPT_INTERRUPT_CALLBACK */ 
 164:Generated_Source\PSoC4/PM_uv_isr.c **** 
 165:Generated_Source\PSoC4/PM_uv_isr.c ****     /*  Place your Interrupt code here. */
 166:Generated_Source\PSoC4/PM_uv_isr.c ****     /* `#START PM_uv_isr_Interrupt` */
 167:Generated_Source\PSoC4/PM_uv_isr.c **** 
 168:Generated_Source\PSoC4/PM_uv_isr.c ****     /* `#END` */
 169:Generated_Source\PSoC4/PM_uv_isr.c **** }
 156              		.loc 1 169 0
 157 0004 C046     		nop
 158 0006 BD46     		mov	sp, r7
 159              		@ sp needed
 160 0008 80BD     		pop	{r7, pc}
 161              		.cfi_endproc
 162              	.LFE5:
 163              		.size	PM_uv_isr_Interrupt, .-PM_uv_isr_Interrupt
 164              		.section	.text.PM_uv_isr_SetVector,"ax",%progbits
 165              		.align	2
 166              		.global	PM_uv_isr_SetVector
 167              		.code	16
 168              		.thumb_func
 169              		.type	PM_uv_isr_SetVector, %function
 170              	PM_uv_isr_SetVector:
 171              	.LFB6:
 170:Generated_Source\PSoC4/PM_uv_isr.c **** 
 171:Generated_Source\PSoC4/PM_uv_isr.c **** 
ARM GAS  C:\Users\alexport\AppData\Local\Temp\ccngwUZc.s 			page 7


 172:Generated_Source\PSoC4/PM_uv_isr.c **** /*******************************************************************************
 173:Generated_Source\PSoC4/PM_uv_isr.c **** * Function Name: PM_uv_isr_SetVector
 174:Generated_Source\PSoC4/PM_uv_isr.c **** ********************************************************************************
 175:Generated_Source\PSoC4/PM_uv_isr.c **** *
 176:Generated_Source\PSoC4/PM_uv_isr.c **** * Summary:
 177:Generated_Source\PSoC4/PM_uv_isr.c **** *   Change the ISR vector for the Interrupt. Note calling PM_uv_isr_Start
 178:Generated_Source\PSoC4/PM_uv_isr.c **** *   will override any effect this method would have had. To set the vector 
 179:Generated_Source\PSoC4/PM_uv_isr.c **** *   before the component has been started use PM_uv_isr_StartEx instead.
 180:Generated_Source\PSoC4/PM_uv_isr.c **** * 
 181:Generated_Source\PSoC4/PM_uv_isr.c **** *   When defining ISR functions, the CY_ISR and CY_ISR_PROTO macros should be 
 182:Generated_Source\PSoC4/PM_uv_isr.c **** *   used to provide consistent definition across compilers:
 183:Generated_Source\PSoC4/PM_uv_isr.c **** *
 184:Generated_Source\PSoC4/PM_uv_isr.c **** *   Function definition example:
 185:Generated_Source\PSoC4/PM_uv_isr.c **** *   CY_ISR(MyISR)
 186:Generated_Source\PSoC4/PM_uv_isr.c **** *   {
 187:Generated_Source\PSoC4/PM_uv_isr.c **** *   }
 188:Generated_Source\PSoC4/PM_uv_isr.c **** *
 189:Generated_Source\PSoC4/PM_uv_isr.c **** *   Function prototype example:
 190:Generated_Source\PSoC4/PM_uv_isr.c **** *     CY_ISR_PROTO(MyISR);
 191:Generated_Source\PSoC4/PM_uv_isr.c **** *
 192:Generated_Source\PSoC4/PM_uv_isr.c **** * Parameters:
 193:Generated_Source\PSoC4/PM_uv_isr.c **** *   address: Address of the ISR to set in the interrupt vector table.
 194:Generated_Source\PSoC4/PM_uv_isr.c **** *
 195:Generated_Source\PSoC4/PM_uv_isr.c **** * Return:
 196:Generated_Source\PSoC4/PM_uv_isr.c **** *   None
 197:Generated_Source\PSoC4/PM_uv_isr.c **** *
 198:Generated_Source\PSoC4/PM_uv_isr.c **** *******************************************************************************/
 199:Generated_Source\PSoC4/PM_uv_isr.c **** void PM_uv_isr_SetVector(cyisraddress address)
 200:Generated_Source\PSoC4/PM_uv_isr.c **** {
 172              		.loc 1 200 0
 173              		.cfi_startproc
 174              		@ args = 0, pretend = 0, frame = 8
 175              		@ frame_needed = 1, uses_anonymous_args = 0
 176 0000 80B5     		push	{r7, lr}
 177              		.cfi_def_cfa_offset 8
 178              		.cfi_offset 7, -8
 179              		.cfi_offset 14, -4
 180 0002 82B0     		sub	sp, sp, #8
 181              		.cfi_def_cfa_offset 16
 182 0004 00AF     		add	r7, sp, #0
 183              		.cfi_def_cfa_register 7
 184 0006 7860     		str	r0, [r7, #4]
 201:Generated_Source\PSoC4/PM_uv_isr.c ****     CyRamVectors[CYINT_IRQ_BASE + PM_uv_isr__INTC_NUMBER] = address;
 185              		.loc 1 201 0
 186 0008 034B     		ldr	r3, .L10
 187 000a 7A68     		ldr	r2, [r7, #4]
 188 000c DA64     		str	r2, [r3, #76]
 202:Generated_Source\PSoC4/PM_uv_isr.c **** }
 189              		.loc 1 202 0
 190 000e C046     		nop
 191 0010 BD46     		mov	sp, r7
 192 0012 02B0     		add	sp, sp, #8
 193              		@ sp needed
 194 0014 80BD     		pop	{r7, pc}
 195              	.L11:
 196 0016 C046     		.align	2
 197              	.L10:
ARM GAS  C:\Users\alexport\AppData\Local\Temp\ccngwUZc.s 			page 8


 198 0018 00000000 		.word	CyRamVectors
 199              		.cfi_endproc
 200              	.LFE6:
 201              		.size	PM_uv_isr_SetVector, .-PM_uv_isr_SetVector
 202              		.section	.text.PM_uv_isr_GetVector,"ax",%progbits
 203              		.align	2
 204              		.global	PM_uv_isr_GetVector
 205              		.code	16
 206              		.thumb_func
 207              		.type	PM_uv_isr_GetVector, %function
 208              	PM_uv_isr_GetVector:
 209              	.LFB7:
 203:Generated_Source\PSoC4/PM_uv_isr.c **** 
 204:Generated_Source\PSoC4/PM_uv_isr.c **** 
 205:Generated_Source\PSoC4/PM_uv_isr.c **** /*******************************************************************************
 206:Generated_Source\PSoC4/PM_uv_isr.c **** * Function Name: PM_uv_isr_GetVector
 207:Generated_Source\PSoC4/PM_uv_isr.c **** ********************************************************************************
 208:Generated_Source\PSoC4/PM_uv_isr.c **** *
 209:Generated_Source\PSoC4/PM_uv_isr.c **** * Summary:
 210:Generated_Source\PSoC4/PM_uv_isr.c **** *   Gets the "address" of the current ISR vector for the Interrupt.
 211:Generated_Source\PSoC4/PM_uv_isr.c **** *
 212:Generated_Source\PSoC4/PM_uv_isr.c **** * Parameters:
 213:Generated_Source\PSoC4/PM_uv_isr.c **** *   None
 214:Generated_Source\PSoC4/PM_uv_isr.c **** *
 215:Generated_Source\PSoC4/PM_uv_isr.c **** * Return:
 216:Generated_Source\PSoC4/PM_uv_isr.c **** *   Address of the ISR in the interrupt vector table.
 217:Generated_Source\PSoC4/PM_uv_isr.c **** *
 218:Generated_Source\PSoC4/PM_uv_isr.c **** *******************************************************************************/
 219:Generated_Source\PSoC4/PM_uv_isr.c **** cyisraddress PM_uv_isr_GetVector(void)
 220:Generated_Source\PSoC4/PM_uv_isr.c **** {
 210              		.loc 1 220 0
 211              		.cfi_startproc
 212              		@ args = 0, pretend = 0, frame = 0
 213              		@ frame_needed = 1, uses_anonymous_args = 0
 214 0000 80B5     		push	{r7, lr}
 215              		.cfi_def_cfa_offset 8
 216              		.cfi_offset 7, -8
 217              		.cfi_offset 14, -4
 218 0002 00AF     		add	r7, sp, #0
 219              		.cfi_def_cfa_register 7
 221:Generated_Source\PSoC4/PM_uv_isr.c ****     return CyRamVectors[CYINT_IRQ_BASE + PM_uv_isr__INTC_NUMBER];
 220              		.loc 1 221 0
 221 0004 024B     		ldr	r3, .L14
 222 0006 DB6C     		ldr	r3, [r3, #76]
 222:Generated_Source\PSoC4/PM_uv_isr.c **** }
 223              		.loc 1 222 0
 224 0008 1800     		movs	r0, r3
 225 000a BD46     		mov	sp, r7
 226              		@ sp needed
 227 000c 80BD     		pop	{r7, pc}
 228              	.L15:
 229 000e C046     		.align	2
 230              	.L14:
 231 0010 00000000 		.word	CyRamVectors
 232              		.cfi_endproc
 233              	.LFE7:
 234              		.size	PM_uv_isr_GetVector, .-PM_uv_isr_GetVector
ARM GAS  C:\Users\alexport\AppData\Local\Temp\ccngwUZc.s 			page 9


 235              		.section	.text.PM_uv_isr_SetPriority,"ax",%progbits
 236              		.align	2
 237              		.global	PM_uv_isr_SetPriority
 238              		.code	16
 239              		.thumb_func
 240              		.type	PM_uv_isr_SetPriority, %function
 241              	PM_uv_isr_SetPriority:
 242              	.LFB8:
 223:Generated_Source\PSoC4/PM_uv_isr.c **** 
 224:Generated_Source\PSoC4/PM_uv_isr.c **** 
 225:Generated_Source\PSoC4/PM_uv_isr.c **** /*******************************************************************************
 226:Generated_Source\PSoC4/PM_uv_isr.c **** * Function Name: PM_uv_isr_SetPriority
 227:Generated_Source\PSoC4/PM_uv_isr.c **** ********************************************************************************
 228:Generated_Source\PSoC4/PM_uv_isr.c **** *
 229:Generated_Source\PSoC4/PM_uv_isr.c **** * Summary:
 230:Generated_Source\PSoC4/PM_uv_isr.c **** *   Sets the Priority of the Interrupt. 
 231:Generated_Source\PSoC4/PM_uv_isr.c **** *
 232:Generated_Source\PSoC4/PM_uv_isr.c **** *   Note calling PM_uv_isr_Start or PM_uv_isr_StartEx will 
 233:Generated_Source\PSoC4/PM_uv_isr.c **** *   override any effect this API would have had. This API should only be called
 234:Generated_Source\PSoC4/PM_uv_isr.c **** *   after PM_uv_isr_Start or PM_uv_isr_StartEx has been called. 
 235:Generated_Source\PSoC4/PM_uv_isr.c **** *   To set the initial priority for the component, use the Design-Wide Resources
 236:Generated_Source\PSoC4/PM_uv_isr.c **** *   Interrupt Editor.
 237:Generated_Source\PSoC4/PM_uv_isr.c **** *
 238:Generated_Source\PSoC4/PM_uv_isr.c **** *   Note This API has no effect on Non-maskable interrupt NMI).
 239:Generated_Source\PSoC4/PM_uv_isr.c **** *
 240:Generated_Source\PSoC4/PM_uv_isr.c **** * Parameters:
 241:Generated_Source\PSoC4/PM_uv_isr.c **** *   priority: Priority of the interrupt, 0 being the highest priority
 242:Generated_Source\PSoC4/PM_uv_isr.c **** *             PSoC 3 and PSoC 5LP: Priority is from 0 to 7.
 243:Generated_Source\PSoC4/PM_uv_isr.c **** *             PSoC 4: Priority is from 0 to 3.
 244:Generated_Source\PSoC4/PM_uv_isr.c **** *
 245:Generated_Source\PSoC4/PM_uv_isr.c **** * Return:
 246:Generated_Source\PSoC4/PM_uv_isr.c **** *   None
 247:Generated_Source\PSoC4/PM_uv_isr.c **** *
 248:Generated_Source\PSoC4/PM_uv_isr.c **** *******************************************************************************/
 249:Generated_Source\PSoC4/PM_uv_isr.c **** void PM_uv_isr_SetPriority(uint8 priority)
 250:Generated_Source\PSoC4/PM_uv_isr.c **** {
 243              		.loc 1 250 0
 244              		.cfi_startproc
 245              		@ args = 0, pretend = 0, frame = 16
 246              		@ frame_needed = 1, uses_anonymous_args = 0
 247 0000 90B5     		push	{r4, r7, lr}
 248              		.cfi_def_cfa_offset 12
 249              		.cfi_offset 4, -12
 250              		.cfi_offset 7, -8
 251              		.cfi_offset 14, -4
 252 0002 85B0     		sub	sp, sp, #20
 253              		.cfi_def_cfa_offset 32
 254 0004 00AF     		add	r7, sp, #0
 255              		.cfi_def_cfa_register 7
 256 0006 0200     		movs	r2, r0
 257 0008 FB1D     		adds	r3, r7, #7
 258 000a 1A70     		strb	r2, [r3]
 251:Generated_Source\PSoC4/PM_uv_isr.c **** 	uint8 interruptState;
 252:Generated_Source\PSoC4/PM_uv_isr.c ****     uint32 priorityOffset = ((PM_uv_isr__INTC_NUMBER % 4u) * 8u) + 6u;
 259              		.loc 1 252 0
 260 000c 1E23     		movs	r3, #30
 261 000e FB60     		str	r3, [r7, #12]
ARM GAS  C:\Users\alexport\AppData\Local\Temp\ccngwUZc.s 			page 10


 253:Generated_Source\PSoC4/PM_uv_isr.c ****     
 254:Generated_Source\PSoC4/PM_uv_isr.c **** 	interruptState = CyEnterCriticalSection();
 262              		.loc 1 254 0
 263 0010 0B23     		movs	r3, #11
 264 0012 FC18     		adds	r4, r7, r3
 265 0014 FFF7FEFF 		bl	CyEnterCriticalSection
 266 0018 0300     		movs	r3, r0
 267 001a 2370     		strb	r3, [r4]
 255:Generated_Source\PSoC4/PM_uv_isr.c ****     *PM_uv_isr_INTC_PRIOR = (*PM_uv_isr_INTC_PRIOR & (uint32)(~PM_uv_isr__INTC_PRIOR_MASK)) |
 268              		.loc 1 255 0
 269 001c 0A4B     		ldr	r3, .L17
 270 001e 0A4A     		ldr	r2, .L17
 271 0020 1268     		ldr	r2, [r2]
 272 0022 9200     		lsls	r2, r2, #2
 273 0024 9108     		lsrs	r1, r2, #2
 256:Generated_Source\PSoC4/PM_uv_isr.c ****                                     ((uint32)priority << priorityOffset);
 274              		.loc 1 256 0
 275 0026 FA1D     		adds	r2, r7, #7
 276 0028 1078     		ldrb	r0, [r2]
 277 002a FA68     		ldr	r2, [r7, #12]
 278 002c 9040     		lsls	r0, r0, r2
 279 002e 0200     		movs	r2, r0
 255:Generated_Source\PSoC4/PM_uv_isr.c ****     *PM_uv_isr_INTC_PRIOR = (*PM_uv_isr_INTC_PRIOR & (uint32)(~PM_uv_isr__INTC_PRIOR_MASK)) |
 280              		.loc 1 255 0
 281 0030 0A43     		orrs	r2, r1
 282 0032 1A60     		str	r2, [r3]
 257:Generated_Source\PSoC4/PM_uv_isr.c **** 	CyExitCriticalSection(interruptState);
 283              		.loc 1 257 0
 284 0034 0B23     		movs	r3, #11
 285 0036 FB18     		adds	r3, r7, r3
 286 0038 1B78     		ldrb	r3, [r3]
 287 003a 1800     		movs	r0, r3
 288 003c FFF7FEFF 		bl	CyExitCriticalSection
 258:Generated_Source\PSoC4/PM_uv_isr.c **** }
 289              		.loc 1 258 0
 290 0040 C046     		nop
 291 0042 BD46     		mov	sp, r7
 292 0044 05B0     		add	sp, sp, #20
 293              		@ sp needed
 294 0046 90BD     		pop	{r4, r7, pc}
 295              	.L18:
 296              		.align	2
 297              	.L17:
 298 0048 00E400E0 		.word	-536812544
 299              		.cfi_endproc
 300              	.LFE8:
 301              		.size	PM_uv_isr_SetPriority, .-PM_uv_isr_SetPriority
 302              		.section	.text.PM_uv_isr_GetPriority,"ax",%progbits
 303              		.align	2
 304              		.global	PM_uv_isr_GetPriority
 305              		.code	16
 306              		.thumb_func
 307              		.type	PM_uv_isr_GetPriority, %function
 308              	PM_uv_isr_GetPriority:
 309              	.LFB9:
 259:Generated_Source\PSoC4/PM_uv_isr.c **** 
 260:Generated_Source\PSoC4/PM_uv_isr.c **** 
ARM GAS  C:\Users\alexport\AppData\Local\Temp\ccngwUZc.s 			page 11


 261:Generated_Source\PSoC4/PM_uv_isr.c **** /*******************************************************************************
 262:Generated_Source\PSoC4/PM_uv_isr.c **** * Function Name: PM_uv_isr_GetPriority
 263:Generated_Source\PSoC4/PM_uv_isr.c **** ********************************************************************************
 264:Generated_Source\PSoC4/PM_uv_isr.c **** *
 265:Generated_Source\PSoC4/PM_uv_isr.c **** * Summary:
 266:Generated_Source\PSoC4/PM_uv_isr.c **** *   Gets the Priority of the Interrupt.
 267:Generated_Source\PSoC4/PM_uv_isr.c **** *
 268:Generated_Source\PSoC4/PM_uv_isr.c **** * Parameters:
 269:Generated_Source\PSoC4/PM_uv_isr.c **** *   None
 270:Generated_Source\PSoC4/PM_uv_isr.c **** *
 271:Generated_Source\PSoC4/PM_uv_isr.c **** * Return:
 272:Generated_Source\PSoC4/PM_uv_isr.c **** *   Priority of the interrupt, 0 being the highest priority
 273:Generated_Source\PSoC4/PM_uv_isr.c **** *    PSoC 3 and PSoC 5LP: Priority is from 0 to 7.
 274:Generated_Source\PSoC4/PM_uv_isr.c **** *    PSoC 4: Priority is from 0 to 3.
 275:Generated_Source\PSoC4/PM_uv_isr.c **** *
 276:Generated_Source\PSoC4/PM_uv_isr.c **** *******************************************************************************/
 277:Generated_Source\PSoC4/PM_uv_isr.c **** uint8 PM_uv_isr_GetPriority(void)
 278:Generated_Source\PSoC4/PM_uv_isr.c **** {
 310              		.loc 1 278 0
 311              		.cfi_startproc
 312              		@ args = 0, pretend = 0, frame = 8
 313              		@ frame_needed = 1, uses_anonymous_args = 0
 314 0000 80B5     		push	{r7, lr}
 315              		.cfi_def_cfa_offset 8
 316              		.cfi_offset 7, -8
 317              		.cfi_offset 14, -4
 318 0002 82B0     		sub	sp, sp, #8
 319              		.cfi_def_cfa_offset 16
 320 0004 00AF     		add	r7, sp, #0
 321              		.cfi_def_cfa_register 7
 279:Generated_Source\PSoC4/PM_uv_isr.c ****     uint32 priority;
 280:Generated_Source\PSoC4/PM_uv_isr.c **** 	uint32 priorityOffset = ((PM_uv_isr__INTC_NUMBER % 4u) * 8u) + 6u;
 322              		.loc 1 280 0
 323 0006 1E23     		movs	r3, #30
 324 0008 7B60     		str	r3, [r7, #4]
 281:Generated_Source\PSoC4/PM_uv_isr.c **** 
 282:Generated_Source\PSoC4/PM_uv_isr.c ****     priority = (*PM_uv_isr_INTC_PRIOR & PM_uv_isr__INTC_PRIOR_MASK) >> priorityOffset;
 325              		.loc 1 282 0
 326 000a 074B     		ldr	r3, .L21
 327 000c 1B68     		ldr	r3, [r3]
 328 000e 9B0F     		lsrs	r3, r3, #30
 329 0010 9A07     		lsls	r2, r3, #30
 330 0012 7B68     		ldr	r3, [r7, #4]
 331 0014 DA40     		lsrs	r2, r2, r3
 332 0016 1300     		movs	r3, r2
 333 0018 3B60     		str	r3, [r7]
 283:Generated_Source\PSoC4/PM_uv_isr.c **** 
 284:Generated_Source\PSoC4/PM_uv_isr.c ****     return (uint8)priority;
 334              		.loc 1 284 0
 335 001a 3B68     		ldr	r3, [r7]
 336 001c DBB2     		uxtb	r3, r3
 285:Generated_Source\PSoC4/PM_uv_isr.c **** }
 337              		.loc 1 285 0
 338 001e 1800     		movs	r0, r3
 339 0020 BD46     		mov	sp, r7
 340 0022 02B0     		add	sp, sp, #8
 341              		@ sp needed
ARM GAS  C:\Users\alexport\AppData\Local\Temp\ccngwUZc.s 			page 12


 342 0024 80BD     		pop	{r7, pc}
 343              	.L22:
 344 0026 C046     		.align	2
 345              	.L21:
 346 0028 00E400E0 		.word	-536812544
 347              		.cfi_endproc
 348              	.LFE9:
 349              		.size	PM_uv_isr_GetPriority, .-PM_uv_isr_GetPriority
 350              		.section	.text.PM_uv_isr_Enable,"ax",%progbits
 351              		.align	2
 352              		.global	PM_uv_isr_Enable
 353              		.code	16
 354              		.thumb_func
 355              		.type	PM_uv_isr_Enable, %function
 356              	PM_uv_isr_Enable:
 357              	.LFB10:
 286:Generated_Source\PSoC4/PM_uv_isr.c **** 
 287:Generated_Source\PSoC4/PM_uv_isr.c **** 
 288:Generated_Source\PSoC4/PM_uv_isr.c **** /*******************************************************************************
 289:Generated_Source\PSoC4/PM_uv_isr.c **** * Function Name: PM_uv_isr_Enable
 290:Generated_Source\PSoC4/PM_uv_isr.c **** ********************************************************************************
 291:Generated_Source\PSoC4/PM_uv_isr.c **** *
 292:Generated_Source\PSoC4/PM_uv_isr.c **** * Summary:
 293:Generated_Source\PSoC4/PM_uv_isr.c **** *   Enables the interrupt to the interrupt controller. Do not call this function
 294:Generated_Source\PSoC4/PM_uv_isr.c **** *   unless ISR_Start() has been called or the functionality of the ISR_Start() 
 295:Generated_Source\PSoC4/PM_uv_isr.c **** *   function, which sets the vector and the priority, has been called.
 296:Generated_Source\PSoC4/PM_uv_isr.c **** *
 297:Generated_Source\PSoC4/PM_uv_isr.c **** * Parameters:
 298:Generated_Source\PSoC4/PM_uv_isr.c **** *   None
 299:Generated_Source\PSoC4/PM_uv_isr.c **** *
 300:Generated_Source\PSoC4/PM_uv_isr.c **** * Return:
 301:Generated_Source\PSoC4/PM_uv_isr.c **** *   None
 302:Generated_Source\PSoC4/PM_uv_isr.c **** *
 303:Generated_Source\PSoC4/PM_uv_isr.c **** *******************************************************************************/
 304:Generated_Source\PSoC4/PM_uv_isr.c **** void PM_uv_isr_Enable(void)
 305:Generated_Source\PSoC4/PM_uv_isr.c **** {
 358              		.loc 1 305 0
 359              		.cfi_startproc
 360              		@ args = 0, pretend = 0, frame = 0
 361              		@ frame_needed = 1, uses_anonymous_args = 0
 362 0000 80B5     		push	{r7, lr}
 363              		.cfi_def_cfa_offset 8
 364              		.cfi_offset 7, -8
 365              		.cfi_offset 14, -4
 366 0002 00AF     		add	r7, sp, #0
 367              		.cfi_def_cfa_register 7
 306:Generated_Source\PSoC4/PM_uv_isr.c ****     /* Enable the general interrupt. */
 307:Generated_Source\PSoC4/PM_uv_isr.c ****     *PM_uv_isr_INTC_SET_EN = PM_uv_isr__INTC_MASK;
 368              		.loc 1 307 0
 369 0004 024B     		ldr	r3, .L24
 370 0006 0822     		movs	r2, #8
 371 0008 1A60     		str	r2, [r3]
 308:Generated_Source\PSoC4/PM_uv_isr.c **** }
 372              		.loc 1 308 0
 373 000a C046     		nop
 374 000c BD46     		mov	sp, r7
 375              		@ sp needed
ARM GAS  C:\Users\alexport\AppData\Local\Temp\ccngwUZc.s 			page 13


 376 000e 80BD     		pop	{r7, pc}
 377              	.L25:
 378              		.align	2
 379              	.L24:
 380 0010 00E100E0 		.word	-536813312
 381              		.cfi_endproc
 382              	.LFE10:
 383              		.size	PM_uv_isr_Enable, .-PM_uv_isr_Enable
 384              		.section	.text.PM_uv_isr_GetState,"ax",%progbits
 385              		.align	2
 386              		.global	PM_uv_isr_GetState
 387              		.code	16
 388              		.thumb_func
 389              		.type	PM_uv_isr_GetState, %function
 390              	PM_uv_isr_GetState:
 391              	.LFB11:
 309:Generated_Source\PSoC4/PM_uv_isr.c **** 
 310:Generated_Source\PSoC4/PM_uv_isr.c **** 
 311:Generated_Source\PSoC4/PM_uv_isr.c **** /*******************************************************************************
 312:Generated_Source\PSoC4/PM_uv_isr.c **** * Function Name: PM_uv_isr_GetState
 313:Generated_Source\PSoC4/PM_uv_isr.c **** ********************************************************************************
 314:Generated_Source\PSoC4/PM_uv_isr.c **** *
 315:Generated_Source\PSoC4/PM_uv_isr.c **** * Summary:
 316:Generated_Source\PSoC4/PM_uv_isr.c **** *   Gets the state (enabled, disabled) of the Interrupt.
 317:Generated_Source\PSoC4/PM_uv_isr.c **** *
 318:Generated_Source\PSoC4/PM_uv_isr.c **** * Parameters:
 319:Generated_Source\PSoC4/PM_uv_isr.c **** *   None
 320:Generated_Source\PSoC4/PM_uv_isr.c **** *
 321:Generated_Source\PSoC4/PM_uv_isr.c **** * Return:
 322:Generated_Source\PSoC4/PM_uv_isr.c **** *   1 if enabled, 0 if disabled.
 323:Generated_Source\PSoC4/PM_uv_isr.c **** *
 324:Generated_Source\PSoC4/PM_uv_isr.c **** *******************************************************************************/
 325:Generated_Source\PSoC4/PM_uv_isr.c **** uint8 PM_uv_isr_GetState(void)
 326:Generated_Source\PSoC4/PM_uv_isr.c **** {
 392              		.loc 1 326 0
 393              		.cfi_startproc
 394              		@ args = 0, pretend = 0, frame = 0
 395              		@ frame_needed = 1, uses_anonymous_args = 0
 396 0000 80B5     		push	{r7, lr}
 397              		.cfi_def_cfa_offset 8
 398              		.cfi_offset 7, -8
 399              		.cfi_offset 14, -4
 400 0002 00AF     		add	r7, sp, #0
 401              		.cfi_def_cfa_register 7
 327:Generated_Source\PSoC4/PM_uv_isr.c ****     /* Get the state of the general interrupt. */
 328:Generated_Source\PSoC4/PM_uv_isr.c ****     return ((*PM_uv_isr_INTC_SET_EN & (uint32)PM_uv_isr__INTC_MASK) != 0u) ? 1u:0u;
 402              		.loc 1 328 0
 403 0004 054B     		ldr	r3, .L30
 404 0006 1B68     		ldr	r3, [r3]
 405 0008 0822     		movs	r2, #8
 406 000a 1340     		ands	r3, r2
 407 000c 01D0     		beq	.L27
 408              		.loc 1 328 0 is_stmt 0 discriminator 1
 409 000e 0123     		movs	r3, #1
 410 0010 00E0     		b	.L28
 411              	.L27:
 412              		.loc 1 328 0 discriminator 2
ARM GAS  C:\Users\alexport\AppData\Local\Temp\ccngwUZc.s 			page 14


 413 0012 0023     		movs	r3, #0
 414              	.L28:
 329:Generated_Source\PSoC4/PM_uv_isr.c **** }
 415              		.loc 1 329 0 is_stmt 1 discriminator 4
 416 0014 1800     		movs	r0, r3
 417 0016 BD46     		mov	sp, r7
 418              		@ sp needed
 419 0018 80BD     		pop	{r7, pc}
 420              	.L31:
 421 001a C046     		.align	2
 422              	.L30:
 423 001c 00E100E0 		.word	-536813312
 424              		.cfi_endproc
 425              	.LFE11:
 426              		.size	PM_uv_isr_GetState, .-PM_uv_isr_GetState
 427              		.section	.text.PM_uv_isr_Disable,"ax",%progbits
 428              		.align	2
 429              		.global	PM_uv_isr_Disable
 430              		.code	16
 431              		.thumb_func
 432              		.type	PM_uv_isr_Disable, %function
 433              	PM_uv_isr_Disable:
 434              	.LFB12:
 330:Generated_Source\PSoC4/PM_uv_isr.c **** 
 331:Generated_Source\PSoC4/PM_uv_isr.c **** 
 332:Generated_Source\PSoC4/PM_uv_isr.c **** /*******************************************************************************
 333:Generated_Source\PSoC4/PM_uv_isr.c **** * Function Name: PM_uv_isr_Disable
 334:Generated_Source\PSoC4/PM_uv_isr.c **** ********************************************************************************
 335:Generated_Source\PSoC4/PM_uv_isr.c **** *
 336:Generated_Source\PSoC4/PM_uv_isr.c **** * Summary:
 337:Generated_Source\PSoC4/PM_uv_isr.c **** *   Disables the Interrupt in the interrupt controller.
 338:Generated_Source\PSoC4/PM_uv_isr.c **** *
 339:Generated_Source\PSoC4/PM_uv_isr.c **** * Parameters:
 340:Generated_Source\PSoC4/PM_uv_isr.c **** *   None
 341:Generated_Source\PSoC4/PM_uv_isr.c **** *
 342:Generated_Source\PSoC4/PM_uv_isr.c **** * Return:
 343:Generated_Source\PSoC4/PM_uv_isr.c **** *   None
 344:Generated_Source\PSoC4/PM_uv_isr.c **** *
 345:Generated_Source\PSoC4/PM_uv_isr.c **** *******************************************************************************/
 346:Generated_Source\PSoC4/PM_uv_isr.c **** void PM_uv_isr_Disable(void)
 347:Generated_Source\PSoC4/PM_uv_isr.c **** {
 435              		.loc 1 347 0
 436              		.cfi_startproc
 437              		@ args = 0, pretend = 0, frame = 0
 438              		@ frame_needed = 1, uses_anonymous_args = 0
 439 0000 80B5     		push	{r7, lr}
 440              		.cfi_def_cfa_offset 8
 441              		.cfi_offset 7, -8
 442              		.cfi_offset 14, -4
 443 0002 00AF     		add	r7, sp, #0
 444              		.cfi_def_cfa_register 7
 348:Generated_Source\PSoC4/PM_uv_isr.c ****     /* Disable the general interrupt. */
 349:Generated_Source\PSoC4/PM_uv_isr.c ****     *PM_uv_isr_INTC_CLR_EN = PM_uv_isr__INTC_MASK;
 445              		.loc 1 349 0
 446 0004 024B     		ldr	r3, .L33
 447 0006 0822     		movs	r2, #8
 448 0008 1A60     		str	r2, [r3]
ARM GAS  C:\Users\alexport\AppData\Local\Temp\ccngwUZc.s 			page 15


 350:Generated_Source\PSoC4/PM_uv_isr.c **** }
 449              		.loc 1 350 0
 450 000a C046     		nop
 451 000c BD46     		mov	sp, r7
 452              		@ sp needed
 453 000e 80BD     		pop	{r7, pc}
 454              	.L34:
 455              		.align	2
 456              	.L33:
 457 0010 80E100E0 		.word	-536813184
 458              		.cfi_endproc
 459              	.LFE12:
 460              		.size	PM_uv_isr_Disable, .-PM_uv_isr_Disable
 461              		.section	.text.PM_uv_isr_SetPending,"ax",%progbits
 462              		.align	2
 463              		.global	PM_uv_isr_SetPending
 464              		.code	16
 465              		.thumb_func
 466              		.type	PM_uv_isr_SetPending, %function
 467              	PM_uv_isr_SetPending:
 468              	.LFB13:
 351:Generated_Source\PSoC4/PM_uv_isr.c **** 
 352:Generated_Source\PSoC4/PM_uv_isr.c **** 
 353:Generated_Source\PSoC4/PM_uv_isr.c **** /*******************************************************************************
 354:Generated_Source\PSoC4/PM_uv_isr.c **** * Function Name: PM_uv_isr_SetPending
 355:Generated_Source\PSoC4/PM_uv_isr.c **** ********************************************************************************
 356:Generated_Source\PSoC4/PM_uv_isr.c **** *
 357:Generated_Source\PSoC4/PM_uv_isr.c **** * Summary:
 358:Generated_Source\PSoC4/PM_uv_isr.c **** *   Causes the Interrupt to enter the pending state, a software method of
 359:Generated_Source\PSoC4/PM_uv_isr.c **** *   generating the interrupt.
 360:Generated_Source\PSoC4/PM_uv_isr.c **** *
 361:Generated_Source\PSoC4/PM_uv_isr.c **** * Parameters:
 362:Generated_Source\PSoC4/PM_uv_isr.c **** *   None
 363:Generated_Source\PSoC4/PM_uv_isr.c **** *
 364:Generated_Source\PSoC4/PM_uv_isr.c **** * Return:
 365:Generated_Source\PSoC4/PM_uv_isr.c **** *   None
 366:Generated_Source\PSoC4/PM_uv_isr.c **** *
 367:Generated_Source\PSoC4/PM_uv_isr.c **** * Side Effects:
 368:Generated_Source\PSoC4/PM_uv_isr.c **** *   If interrupts are enabled and the interrupt is set up properly, the ISR is
 369:Generated_Source\PSoC4/PM_uv_isr.c **** *   entered (depending on the priority of this interrupt and other pending 
 370:Generated_Source\PSoC4/PM_uv_isr.c **** *   interrupts).
 371:Generated_Source\PSoC4/PM_uv_isr.c **** *
 372:Generated_Source\PSoC4/PM_uv_isr.c **** *******************************************************************************/
 373:Generated_Source\PSoC4/PM_uv_isr.c **** void PM_uv_isr_SetPending(void)
 374:Generated_Source\PSoC4/PM_uv_isr.c **** {
 469              		.loc 1 374 0
 470              		.cfi_startproc
 471              		@ args = 0, pretend = 0, frame = 0
 472              		@ frame_needed = 1, uses_anonymous_args = 0
 473 0000 80B5     		push	{r7, lr}
 474              		.cfi_def_cfa_offset 8
 475              		.cfi_offset 7, -8
 476              		.cfi_offset 14, -4
 477 0002 00AF     		add	r7, sp, #0
 478              		.cfi_def_cfa_register 7
 375:Generated_Source\PSoC4/PM_uv_isr.c ****     *PM_uv_isr_INTC_SET_PD = PM_uv_isr__INTC_MASK;
 479              		.loc 1 375 0
ARM GAS  C:\Users\alexport\AppData\Local\Temp\ccngwUZc.s 			page 16


 480 0004 024B     		ldr	r3, .L36
 481 0006 0822     		movs	r2, #8
 482 0008 1A60     		str	r2, [r3]
 376:Generated_Source\PSoC4/PM_uv_isr.c **** }
 483              		.loc 1 376 0
 484 000a C046     		nop
 485 000c BD46     		mov	sp, r7
 486              		@ sp needed
 487 000e 80BD     		pop	{r7, pc}
 488              	.L37:
 489              		.align	2
 490              	.L36:
 491 0010 00E200E0 		.word	-536813056
 492              		.cfi_endproc
 493              	.LFE13:
 494              		.size	PM_uv_isr_SetPending, .-PM_uv_isr_SetPending
 495              		.section	.text.PM_uv_isr_ClearPending,"ax",%progbits
 496              		.align	2
 497              		.global	PM_uv_isr_ClearPending
 498              		.code	16
 499              		.thumb_func
 500              		.type	PM_uv_isr_ClearPending, %function
 501              	PM_uv_isr_ClearPending:
 502              	.LFB14:
 377:Generated_Source\PSoC4/PM_uv_isr.c **** 
 378:Generated_Source\PSoC4/PM_uv_isr.c **** 
 379:Generated_Source\PSoC4/PM_uv_isr.c **** /*******************************************************************************
 380:Generated_Source\PSoC4/PM_uv_isr.c **** * Function Name: PM_uv_isr_ClearPending
 381:Generated_Source\PSoC4/PM_uv_isr.c **** ********************************************************************************
 382:Generated_Source\PSoC4/PM_uv_isr.c **** *
 383:Generated_Source\PSoC4/PM_uv_isr.c **** * Summary:
 384:Generated_Source\PSoC4/PM_uv_isr.c **** *   Clears a pending interrupt in the interrupt controller.
 385:Generated_Source\PSoC4/PM_uv_isr.c **** *
 386:Generated_Source\PSoC4/PM_uv_isr.c **** *   Note Some interrupt sources are clear-on-read and require the block 
 387:Generated_Source\PSoC4/PM_uv_isr.c **** *   interrupt/status register to be read/cleared with the appropriate block API 
 388:Generated_Source\PSoC4/PM_uv_isr.c **** *   (GPIO, UART, and so on). Otherwise the ISR will continue to remain in 
 389:Generated_Source\PSoC4/PM_uv_isr.c **** *   pending state even though the interrupt itself is cleared using this API.
 390:Generated_Source\PSoC4/PM_uv_isr.c **** *
 391:Generated_Source\PSoC4/PM_uv_isr.c **** * Parameters:
 392:Generated_Source\PSoC4/PM_uv_isr.c **** *   None
 393:Generated_Source\PSoC4/PM_uv_isr.c **** *
 394:Generated_Source\PSoC4/PM_uv_isr.c **** * Return:
 395:Generated_Source\PSoC4/PM_uv_isr.c **** *   None
 396:Generated_Source\PSoC4/PM_uv_isr.c **** *
 397:Generated_Source\PSoC4/PM_uv_isr.c **** *******************************************************************************/
 398:Generated_Source\PSoC4/PM_uv_isr.c **** void PM_uv_isr_ClearPending(void)
 399:Generated_Source\PSoC4/PM_uv_isr.c **** {
 503              		.loc 1 399 0
 504              		.cfi_startproc
 505              		@ args = 0, pretend = 0, frame = 0
 506              		@ frame_needed = 1, uses_anonymous_args = 0
 507 0000 80B5     		push	{r7, lr}
 508              		.cfi_def_cfa_offset 8
 509              		.cfi_offset 7, -8
 510              		.cfi_offset 14, -4
 511 0002 00AF     		add	r7, sp, #0
 512              		.cfi_def_cfa_register 7
ARM GAS  C:\Users\alexport\AppData\Local\Temp\ccngwUZc.s 			page 17


 400:Generated_Source\PSoC4/PM_uv_isr.c ****     *PM_uv_isr_INTC_CLR_PD = PM_uv_isr__INTC_MASK;
 513              		.loc 1 400 0
 514 0004 024B     		ldr	r3, .L39
 515 0006 0822     		movs	r2, #8
 516 0008 1A60     		str	r2, [r3]
 401:Generated_Source\PSoC4/PM_uv_isr.c **** }
 517              		.loc 1 401 0
 518 000a C046     		nop
 519 000c BD46     		mov	sp, r7
 520              		@ sp needed
 521 000e 80BD     		pop	{r7, pc}
 522              	.L40:
 523              		.align	2
 524              	.L39:
 525 0010 80E200E0 		.word	-536812928
 526              		.cfi_endproc
 527              	.LFE14:
 528              		.size	PM_uv_isr_ClearPending, .-PM_uv_isr_ClearPending
 529              		.text
 530              	.Letext0:
 531              		.file 2 "Generated_Source\\PSoC4/cytypes.h"