ARM GAS  C:\Users\alexport\AppData\Local\Temp\ccNRKq6z.s 			page 1


   1              		.syntax unified
   2              		.cpu cortex-m0
   3              		.fpu softvfp
   4              		.eabi_attribute 20, 1
   5              		.eabi_attribute 21, 1
   6              		.eabi_attribute 23, 3
   7              		.eabi_attribute 24, 1
   8              		.eabi_attribute 25, 1
   9              		.eabi_attribute 26, 1
  10              		.eabi_attribute 30, 6
  11              		.eabi_attribute 34, 0
  12              		.eabi_attribute 18, 4
  13              		.thumb
  14              		.syntax unified
  15              		.file	"relay.c"
  16              		.text
  17              	.Ltext0:
  18              		.cfi_sections	.debug_frame
  19              		.comm	relay,12,4
  20              		.section	.text.TCA9534_SetRelay,"ax",%progbits
  21              		.align	2
  22              		.global	TCA9534_SetRelay
  23              		.code	16
  24              		.thumb_func
  25              		.type	TCA9534_SetRelay, %function
  26              	TCA9534_SetRelay:
  27              	.LFB35:
  28              		.file 1 "relay.c"
   1:relay.c       **** /* ========================================
   2:relay.c       ****  *
   3:relay.c       ****  * Copyright YOUR COMPANY, THE YEAR
   4:relay.c       ****  * All Rights Reserved
   5:relay.c       ****  * UNPUBLISHED, LICENSED SOFTWARE.
   6:relay.c       ****  *
   7:relay.c       ****  * CONFIDENTIAL AND PROPRIETARY INFORMATION
   8:relay.c       ****  * WHICH IS THE PROPERTY OF your company.
   9:relay.c       ****  *
  10:relay.c       ****  * ========================================
  11:relay.c       **** */
  12:relay.c       **** #include "relay.h"
  13:relay.c       **** 
  14:relay.c       **** S_Rly relay[4];
  15:relay.c       **** 
  16:relay.c       **** 
  17:relay.c       **** void TCA9534_SetRelay(uint8_t relayNum, uint8_t state) {
  29              		.loc 1 17 0
  30              		.cfi_startproc
  31              		@ args = 0, pretend = 0, frame = 16
  32              		@ frame_needed = 1, uses_anonymous_args = 0
  33 0000 90B5     		push	{r4, r7, lr}
  34              		.cfi_def_cfa_offset 12
  35              		.cfi_offset 4, -12
  36              		.cfi_offset 7, -8
  37              		.cfi_offset 14, -4
  38 0002 85B0     		sub	sp, sp, #20
  39              		.cfi_def_cfa_offset 32
  40 0004 00AF     		add	r7, sp, #0
ARM GAS  C:\Users\alexport\AppData\Local\Temp\ccNRKq6z.s 			page 2


  41              		.cfi_def_cfa_register 7
  42 0006 0200     		movs	r2, r0
  43 0008 FB1D     		adds	r3, r7, #7
  44 000a 1A70     		strb	r2, [r3]
  45 000c BB1D     		adds	r3, r7, #6
  46 000e 0A1C     		adds	r2, r1, #0
  47 0010 1A70     		strb	r2, [r3]
  18:relay.c       ****     if (relayNum > 3) return;
  48              		.loc 1 18 0
  49 0012 FB1D     		adds	r3, r7, #7
  50 0014 1B78     		ldrb	r3, [r3]
  51 0016 032B     		cmp	r3, #3
  52 0018 35D8     		bhi	.L6
  19:relay.c       **** 
  20:relay.c       ****     uint8_t current = i2c_Read_8(I2C_RELAY_SLAVE_ADDR, TCA9534_OUTPUT_REG);
  53              		.loc 1 20 0
  54 001a 0F23     		movs	r3, #15
  55 001c FC18     		adds	r4, r7, r3
  56 001e 0121     		movs	r1, #1
  57 0020 2020     		movs	r0, #32
  58 0022 FFF7FEFF 		bl	i2c_Read_8
  59 0026 0300     		movs	r3, r0
  60 0028 2370     		strb	r3, [r4]
  21:relay.c       ****     if (state)
  61              		.loc 1 21 0
  62 002a BB1D     		adds	r3, r7, #6
  63 002c 1B78     		ldrb	r3, [r3]
  64 002e 002B     		cmp	r3, #0
  65 0030 0FD0     		beq	.L4
  22:relay.c       ****         current |= (1 << relayNum);   // Set bit to turn ON
  66              		.loc 1 22 0
  67 0032 FB1D     		adds	r3, r7, #7
  68 0034 1B78     		ldrb	r3, [r3]
  69 0036 0122     		movs	r2, #1
  70 0038 9A40     		lsls	r2, r2, r3
  71 003a 1300     		movs	r3, r2
  72 003c 5AB2     		sxtb	r2, r3
  73 003e 0F23     		movs	r3, #15
  74 0040 FB18     		adds	r3, r7, r3
  75 0042 1B78     		ldrb	r3, [r3]
  76 0044 5BB2     		sxtb	r3, r3
  77 0046 1343     		orrs	r3, r2
  78 0048 5AB2     		sxtb	r2, r3
  79 004a 0F23     		movs	r3, #15
  80 004c FB18     		adds	r3, r7, r3
  81 004e 1A70     		strb	r2, [r3]
  82 0050 10E0     		b	.L5
  83              	.L4:
  23:relay.c       ****     else
  24:relay.c       ****         current &= ~(1 << relayNum);  // Clear bit to turn OFF
  84              		.loc 1 24 0
  85 0052 FB1D     		adds	r3, r7, #7
  86 0054 1B78     		ldrb	r3, [r3]
  87 0056 0122     		movs	r2, #1
  88 0058 9A40     		lsls	r2, r2, r3
  89 005a 1300     		movs	r3, r2
  90 005c 5BB2     		sxtb	r3, r3
ARM GAS  C:\Users\alexport\AppData\Local\Temp\ccNRKq6z.s 			page 3


  91 005e DB43     		mvns	r3, r3
  92 0060 5BB2     		sxtb	r3, r3
  93 0062 0F22     		movs	r2, #15
  94 0064 BA18     		adds	r2, r7, r2
  95 0066 1278     		ldrb	r2, [r2]
  96 0068 52B2     		sxtb	r2, r2
  97 006a 1340     		ands	r3, r2
  98 006c 5AB2     		sxtb	r2, r3
  99 006e 0F23     		movs	r3, #15
 100 0070 FB18     		adds	r3, r7, r3
 101 0072 1A70     		strb	r2, [r3]
 102              	.L5:
  25:relay.c       **** 
  26:relay.c       ****     i2c_write_8(I2C_RELAY_SLAVE_ADDR, TCA9534_OUTPUT_REG, current);
 103              		.loc 1 26 0
 104 0074 0F23     		movs	r3, #15
 105 0076 FB18     		adds	r3, r7, r3
 106 0078 1B78     		ldrb	r3, [r3]
 107 007a 1A00     		movs	r2, r3
 108 007c 0121     		movs	r1, #1
 109 007e 2020     		movs	r0, #32
 110 0080 FFF7FEFF 		bl	i2c_write_8
 111 0084 00E0     		b	.L1
 112              	.L6:
  18:relay.c       **** 
 113              		.loc 1 18 0
 114 0086 C046     		nop
 115              	.L1:
  27:relay.c       **** }
 116              		.loc 1 27 0
 117 0088 BD46     		mov	sp, r7
 118 008a 05B0     		add	sp, sp, #20
 119              		@ sp needed
 120 008c 90BD     		pop	{r4, r7, pc}
 121              		.cfi_endproc
 122              	.LFE35:
 123              		.size	TCA9534_SetRelay, .-TCA9534_SetRelay
 124 008e C046     		.section	.text.TCA9534_Init,"ax",%progbits
 125              		.align	2
 126              		.global	TCA9534_Init
 127              		.code	16
 128              		.thumb_func
 129              		.type	TCA9534_Init, %function
 130              	TCA9534_Init:
 131              	.LFB36:
  28:relay.c       **** 
  29:relay.c       **** 
  30:relay.c       **** void  TCA9534_Init(uint8_t configMask) {
 132              		.loc 1 30 0
 133              		.cfi_startproc
 134              		@ args = 0, pretend = 0, frame = 16
 135              		@ frame_needed = 1, uses_anonymous_args = 0
 136 0000 80B5     		push	{r7, lr}
 137              		.cfi_def_cfa_offset 8
 138              		.cfi_offset 7, -8
 139              		.cfi_offset 14, -4
 140 0002 84B0     		sub	sp, sp, #16
ARM GAS  C:\Users\alexport\AppData\Local\Temp\ccNRKq6z.s 			page 4


 141              		.cfi_def_cfa_offset 24
 142 0004 00AF     		add	r7, sp, #0
 143              		.cfi_def_cfa_register 7
 144 0006 0200     		movs	r2, r0
 145 0008 FB1D     		adds	r3, r7, #7
 146 000a 1A70     		strb	r2, [r3]
  31:relay.c       ****     uint8 buf[2] = {TCA9534_CONFIG_REG, configMask};
 147              		.loc 1 31 0
 148 000c 0C23     		movs	r3, #12
 149 000e FB18     		adds	r3, r7, r3
 150 0010 0322     		movs	r2, #3
 151 0012 1A70     		strb	r2, [r3]
 152 0014 0C23     		movs	r3, #12
 153 0016 FB18     		adds	r3, r7, r3
 154 0018 FA1D     		adds	r2, r7, #7
 155 001a 1278     		ldrb	r2, [r2]
 156 001c 5A70     		strb	r2, [r3, #1]
  32:relay.c       ****     I2C_I2CMasterWriteBuf(I2C_RELAY_SLAVE_ADDR, buf, 2, I2C_I2C_MODE_COMPLETE_XFER);
 157              		.loc 1 32 0
 158 001e 0C23     		movs	r3, #12
 159 0020 F918     		adds	r1, r7, r3
 160 0022 0023     		movs	r3, #0
 161 0024 0222     		movs	r2, #2
 162 0026 2020     		movs	r0, #32
 163 0028 FFF7FEFF 		bl	I2C_I2CMasterWriteBuf
  33:relay.c       ****     while(I2C_I2CMasterStatus() & I2C_I2C_MSTAT_XFER_INP);
 164              		.loc 1 33 0
 165 002c C046     		nop
 166              	.L8:
 167              		.loc 1 33 0 is_stmt 0 discriminator 1
 168 002e FFF7FEFF 		bl	I2C_I2CMasterStatus
 169 0032 0200     		movs	r2, r0
 170 0034 0423     		movs	r3, #4
 171 0036 1340     		ands	r3, r2
 172 0038 F9D1     		bne	.L8
  34:relay.c       **** }
 173              		.loc 1 34 0 is_stmt 1
 174 003a C046     		nop
 175 003c BD46     		mov	sp, r7
 176 003e 04B0     		add	sp, sp, #16
 177              		@ sp needed
 178 0040 80BD     		pop	{r7, pc}
 179              		.cfi_endproc
 180              	.LFE36:
 181              		.size	TCA9534_Init, .-TCA9534_Init
 182 0042 C046     		.section	.text.TCA9534_SetAllRelays,"ax",%progbits
 183              		.align	2
 184              		.global	TCA9534_SetAllRelays
 185              		.code	16
 186              		.thumb_func
 187              		.type	TCA9534_SetAllRelays, %function
 188              	TCA9534_SetAllRelays:
 189              	.LFB37:
  35:relay.c       **** 
  36:relay.c       **** void TCA9534_SetAllRelays(uint8_t relayMask) {
 190              		.loc 1 36 0
 191              		.cfi_startproc
ARM GAS  C:\Users\alexport\AppData\Local\Temp\ccNRKq6z.s 			page 5


 192              		@ args = 0, pretend = 0, frame = 16
 193              		@ frame_needed = 1, uses_anonymous_args = 0
 194 0000 90B5     		push	{r4, r7, lr}
 195              		.cfi_def_cfa_offset 12
 196              		.cfi_offset 4, -12
 197              		.cfi_offset 7, -8
 198              		.cfi_offset 14, -4
 199 0002 85B0     		sub	sp, sp, #20
 200              		.cfi_def_cfa_offset 32
 201 0004 00AF     		add	r7, sp, #0
 202              		.cfi_def_cfa_register 7
 203 0006 0200     		movs	r2, r0
 204 0008 FB1D     		adds	r3, r7, #7
 205 000a 1A70     		strb	r2, [r3]
  37:relay.c       ****     uint8_t current = i2c_Read_8(I2C_RELAY_SLAVE_ADDR, TCA9534_OUTPUT_REG);
 206              		.loc 1 37 0
 207 000c 0F23     		movs	r3, #15
 208 000e FC18     		adds	r4, r7, r3
 209 0010 0121     		movs	r1, #1
 210 0012 2020     		movs	r0, #32
 211 0014 FFF7FEFF 		bl	i2c_Read_8
 212 0018 0300     		movs	r3, r0
 213 001a 2370     		strb	r3, [r4]
  38:relay.c       ****     current &= 0xF0;
 214              		.loc 1 38 0
 215 001c 0F23     		movs	r3, #15
 216 001e FB18     		adds	r3, r7, r3
 217 0020 0F22     		movs	r2, #15
 218 0022 BA18     		adds	r2, r7, r2
 219 0024 1278     		ldrb	r2, [r2]
 220 0026 0F21     		movs	r1, #15
 221 0028 8A43     		bics	r2, r1
 222 002a 1A70     		strb	r2, [r3]
  39:relay.c       ****     current |= (relayMask & 0x0F);
 223              		.loc 1 39 0
 224 002c FB1D     		adds	r3, r7, #7
 225 002e 1B78     		ldrb	r3, [r3]
 226 0030 5BB2     		sxtb	r3, r3
 227 0032 0F22     		movs	r2, #15
 228 0034 1340     		ands	r3, r2
 229 0036 5AB2     		sxtb	r2, r3
 230 0038 0F23     		movs	r3, #15
 231 003a FB18     		adds	r3, r7, r3
 232 003c 1B78     		ldrb	r3, [r3]
 233 003e 5BB2     		sxtb	r3, r3
 234 0040 1343     		orrs	r3, r2
 235 0042 5AB2     		sxtb	r2, r3
 236 0044 0F23     		movs	r3, #15
 237 0046 FB18     		adds	r3, r7, r3
 238 0048 1A70     		strb	r2, [r3]
  40:relay.c       ****     i2c_write_8(I2C_RELAY_SLAVE_ADDR, TCA9534_OUTPUT_REG, current);
 239              		.loc 1 40 0
 240 004a 0F23     		movs	r3, #15
 241 004c FB18     		adds	r3, r7, r3
 242 004e 1B78     		ldrb	r3, [r3]
 243 0050 1A00     		movs	r2, r3
 244 0052 0121     		movs	r1, #1
ARM GAS  C:\Users\alexport\AppData\Local\Temp\ccNRKq6z.s 			page 6


 245 0054 2020     		movs	r0, #32
 246 0056 FFF7FEFF 		bl	i2c_write_8
  41:relay.c       **** }
 247              		.loc 1 41 0
 248 005a C046     		nop
 249 005c BD46     		mov	sp, r7
 250 005e 05B0     		add	sp, sp, #20
 251              		@ sp needed
 252 0060 90BD     		pop	{r4, r7, pc}
 253              		.cfi_endproc
 254              	.LFE37:
 255              		.size	TCA9534_SetAllRelays, .-TCA9534_SetAllRelays
 256 0062 C046     		.section	.text.TCA9534_WriteReg,"ax",%progbits
 257              		.align	2
 258              		.global	TCA9534_WriteReg
 259              		.code	16
 260              		.thumb_func
 261              		.type	TCA9534_WriteReg, %function
 262              	TCA9534_WriteReg:
 263              	.LFB38:
  42:relay.c       **** 
  43:relay.c       **** 
  44:relay.c       **** void TCA9534_WriteReg(uint8 value) {
 264              		.loc 1 44 0
 265              		.cfi_startproc
 266              		@ args = 0, pretend = 0, frame = 16
 267              		@ frame_needed = 1, uses_anonymous_args = 0
 268 0000 80B5     		push	{r7, lr}
 269              		.cfi_def_cfa_offset 8
 270              		.cfi_offset 7, -8
 271              		.cfi_offset 14, -4
 272 0002 84B0     		sub	sp, sp, #16
 273              		.cfi_def_cfa_offset 24
 274 0004 00AF     		add	r7, sp, #0
 275              		.cfi_def_cfa_register 7
 276 0006 0200     		movs	r2, r0
 277 0008 FB1D     		adds	r3, r7, #7
 278 000a 1A70     		strb	r2, [r3]
  45:relay.c       ****     uint8 buf[2] = {TCA9534_OUTPUT_REG, value};
 279              		.loc 1 45 0
 280 000c 0C23     		movs	r3, #12
 281 000e FB18     		adds	r3, r7, r3
 282 0010 0122     		movs	r2, #1
 283 0012 1A70     		strb	r2, [r3]
 284 0014 0C23     		movs	r3, #12
 285 0016 FB18     		adds	r3, r7, r3
 286 0018 FA1D     		adds	r2, r7, #7
 287 001a 1278     		ldrb	r2, [r2]
 288 001c 5A70     		strb	r2, [r3, #1]
  46:relay.c       ****     I2C_I2CMasterWriteBuf(I2C_RELAY_SLAVE_ADDR, buf, 2, I2C_I2C_MODE_COMPLETE_XFER);
 289              		.loc 1 46 0
 290 001e 0C23     		movs	r3, #12
 291 0020 F918     		adds	r1, r7, r3
 292 0022 0023     		movs	r3, #0
 293 0024 0222     		movs	r2, #2
 294 0026 2020     		movs	r0, #32
 295 0028 FFF7FEFF 		bl	I2C_I2CMasterWriteBuf
ARM GAS  C:\Users\alexport\AppData\Local\Temp\ccNRKq6z.s 			page 7


  47:relay.c       ****     while(I2C_I2CMasterStatus() & I2C_I2C_MSTAT_XFER_INP);
 296              		.loc 1 47 0
 297 002c C046     		nop
 298              	.L11:
 299              		.loc 1 47 0 is_stmt 0 discriminator 1
 300 002e FFF7FEFF 		bl	I2C_I2CMasterStatus
 301 0032 0200     		movs	r2, r0
 302 0034 0423     		movs	r3, #4
 303 0036 1340     		ands	r3, r2
 304 0038 F9D1     		bne	.L11
  48:relay.c       **** }
 305              		.loc 1 48 0 is_stmt 1
 306 003a C046     		nop
 307 003c BD46     		mov	sp, r7
 308 003e 04B0     		add	sp, sp, #16
 309              		@ sp needed
 310 0040 80BD     		pop	{r7, pc}
 311              		.cfi_endproc
 312              	.LFE38:
 313              		.size	TCA9534_WriteReg, .-TCA9534_WriteReg
 314 0042 C046     		.section	.text.TCA9534_GetStatus,"ax",%progbits
 315              		.align	2
 316              		.global	TCA9534_GetStatus
 317              		.code	16
 318              		.thumb_func
 319              		.type	TCA9534_GetStatus, %function
 320              	TCA9534_GetStatus:
 321              	.LFB39:
  49:relay.c       **** 
  50:relay.c       **** 
  51:relay.c       **** uint8_t TCA9534_GetStatus(){
 322              		.loc 1 51 0
 323              		.cfi_startproc
 324              		@ args = 0, pretend = 0, frame = 0
 325              		@ frame_needed = 1, uses_anonymous_args = 0
 326 0000 80B5     		push	{r7, lr}
 327              		.cfi_def_cfa_offset 8
 328              		.cfi_offset 7, -8
 329              		.cfi_offset 14, -4
 330 0002 00AF     		add	r7, sp, #0
 331              		.cfi_def_cfa_register 7
  52:relay.c       ****     
  53:relay.c       ****     if(I2C_I2C_MSTR_NO_ERROR!= i2c_status(I2C_RELAY_SLAVE_ADDR))
 332              		.loc 1 53 0
 333 0004 2020     		movs	r0, #32
 334 0006 FFF7FEFF 		bl	i2c_status
 335 000a 031E     		subs	r3, r0, #0
 336 000c 01D0     		beq	.L13
  54:relay.c       ****         return 0;
 337              		.loc 1 54 0
 338 000e 0023     		movs	r3, #0
 339 0010 00E0     		b	.L14
 340              	.L13:
  55:relay.c       ****     else 
  56:relay.c       ****         return 1;   
 341              		.loc 1 56 0
 342 0012 0123     		movs	r3, #1
ARM GAS  C:\Users\alexport\AppData\Local\Temp\ccNRKq6z.s 			page 8


 343              	.L14:
  57:relay.c       ****     
  58:relay.c       **** }
 344              		.loc 1 58 0
 345 0014 1800     		movs	r0, r3
 346 0016 BD46     		mov	sp, r7
 347              		@ sp needed
 348 0018 80BD     		pop	{r7, pc}
 349              		.cfi_endproc
 350              	.LFE39:
 351              		.size	TCA9534_GetStatus, .-TCA9534_GetStatus
 352 001a C046     		.section	.text.TCA9534_GetReg,"ax",%progbits
 353              		.align	2
 354              		.global	TCA9534_GetReg
 355              		.code	16
 356              		.thumb_func
 357              		.type	TCA9534_GetReg, %function
 358              	TCA9534_GetReg:
 359              	.LFB40:
  59:relay.c       **** 
  60:relay.c       **** 
  61:relay.c       **** uint8_t TCA9534_GetReg() {
 360              		.loc 1 61 0
 361              		.cfi_startproc
 362              		@ args = 0, pretend = 0, frame = 8
 363              		@ frame_needed = 1, uses_anonymous_args = 0
 364 0000 80B5     		push	{r7, lr}
 365              		.cfi_def_cfa_offset 8
 366              		.cfi_offset 7, -8
 367              		.cfi_offset 14, -4
 368 0002 82B0     		sub	sp, sp, #8
 369              		.cfi_def_cfa_offset 16
 370 0004 00AF     		add	r7, sp, #0
 371              		.cfi_def_cfa_register 7
  62:relay.c       ****     
  63:relay.c       ****     uint8_t reg =TCA9534_OUTPUT_REG;
 372              		.loc 1 63 0
 373 0006 FB1C     		adds	r3, r7, #3
 374 0008 0122     		movs	r2, #1
 375 000a 1A70     		strb	r2, [r3]
  64:relay.c       ****     uint8_t data;
  65:relay.c       ****     uint32_t status;
  66:relay.c       ****     
  67:relay.c       ****     
  68:relay.c       ****     
  69:relay.c       ****     // Send memory address
  70:relay.c       ****     status = I2C_I2CMasterWriteBuf(I2C_RELAY_SLAVE_ADDR, &reg, 1, I2C_I2C_MODE_COMPLETE_XFER);
 376              		.loc 1 70 0
 377 000c F91C     		adds	r1, r7, #3
 378 000e 0023     		movs	r3, #0
 379 0010 0122     		movs	r2, #1
 380 0012 2020     		movs	r0, #32
 381 0014 FFF7FEFF 		bl	I2C_I2CMasterWriteBuf
 382 0018 0300     		movs	r3, r0
 383 001a 7B60     		str	r3, [r7, #4]
  71:relay.c       ****     while (I2C_I2CMasterStatus() & I2C_I2C_MSTAT_XFER_INP);
 384              		.loc 1 71 0
ARM GAS  C:\Users\alexport\AppData\Local\Temp\ccNRKq6z.s 			page 9


 385 001c C046     		nop
 386              	.L16:
 387              		.loc 1 71 0 is_stmt 0 discriminator 1
 388 001e FFF7FEFF 		bl	I2C_I2CMasterStatus
 389 0022 0200     		movs	r2, r0
 390 0024 0423     		movs	r3, #4
 391 0026 1340     		ands	r3, r2
 392 0028 F9D1     		bne	.L16
  72:relay.c       **** 
  73:relay.c       ****     // Read data
  74:relay.c       ****     I2C_I2CMasterReadBuf(I2C_RELAY_SLAVE_ADDR, &data, 1, I2C_I2C_MODE_COMPLETE_XFER);
 393              		.loc 1 74 0 is_stmt 1
 394 002a B91C     		adds	r1, r7, #2
 395 002c 0023     		movs	r3, #0
 396 002e 0122     		movs	r2, #1
 397 0030 2020     		movs	r0, #32
 398 0032 FFF7FEFF 		bl	I2C_I2CMasterReadBuf
  75:relay.c       ****     while (I2C_I2CMasterStatus() & I2C_I2C_MSTAT_XFER_INP);
 399              		.loc 1 75 0
 400 0036 C046     		nop
 401              	.L17:
 402              		.loc 1 75 0 is_stmt 0 discriminator 1
 403 0038 FFF7FEFF 		bl	I2C_I2CMasterStatus
 404 003c 0200     		movs	r2, r0
 405 003e 0423     		movs	r3, #4
 406 0040 1340     		ands	r3, r2
 407 0042 F9D1     		bne	.L17
  76:relay.c       ****     return data;
 408              		.loc 1 76 0 is_stmt 1
 409 0044 BB1C     		adds	r3, r7, #2
 410 0046 1B78     		ldrb	r3, [r3]
  77:relay.c       **** }
 411              		.loc 1 77 0
 412 0048 1800     		movs	r0, r3
 413 004a BD46     		mov	sp, r7
 414 004c 02B0     		add	sp, sp, #8
 415              		@ sp needed
 416 004e 80BD     		pop	{r7, pc}
 417              		.cfi_endproc
 418              	.LFE40:
 419              		.size	TCA9534_GetReg, .-TCA9534_GetReg
 420              		.section	.text.GetRelayState,"ax",%progbits
 421              		.align	2
 422              		.global	GetRelayState
 423              		.code	16
 424              		.thumb_func
 425              		.type	GetRelayState, %function
 426              	GetRelayState:
 427              	.LFB41:
  78:relay.c       **** 
  79:relay.c       **** 
  80:relay.c       **** uint8_t GetRelayState(){
 428              		.loc 1 80 0
 429              		.cfi_startproc
 430              		@ args = 0, pretend = 0, frame = 8
 431              		@ frame_needed = 1, uses_anonymous_args = 0
 432 0000 90B5     		push	{r4, r7, lr}
ARM GAS  C:\Users\alexport\AppData\Local\Temp\ccNRKq6z.s 			page 10


 433              		.cfi_def_cfa_offset 12
 434              		.cfi_offset 4, -12
 435              		.cfi_offset 7, -8
 436              		.cfi_offset 14, -4
 437 0002 83B0     		sub	sp, sp, #12
 438              		.cfi_def_cfa_offset 24
 439 0004 00AF     		add	r7, sp, #0
 440              		.cfi_def_cfa_register 7
  81:relay.c       ****     uint8_t  reg = TCA9534_GetReg();
 441              		.loc 1 81 0
 442 0006 FC1D     		adds	r4, r7, #7
 443 0008 FFF7FEFF 		bl	TCA9534_GetReg
 444 000c 0300     		movs	r3, r0
 445 000e 2370     		strb	r3, [r4]
  82:relay.c       ****     
  83:relay.c       ****     uint8_t faultbit = (reg>>3)&0x1; 
 446              		.loc 1 83 0
 447 0010 FB1D     		adds	r3, r7, #7
 448 0012 1B78     		ldrb	r3, [r3]
 449 0014 DB08     		lsrs	r3, r3, #3
 450 0016 DAB2     		uxtb	r2, r3
 451 0018 BB1D     		adds	r3, r7, #6
 452 001a 0121     		movs	r1, #1
 453 001c 0A40     		ands	r2, r1
 454 001e 1A70     		strb	r2, [r3]
  84:relay.c       ****     uint8_t alarm3bit =(reg>>2)&0x1;
 455              		.loc 1 84 0
 456 0020 FB1D     		adds	r3, r7, #7
 457 0022 1B78     		ldrb	r3, [r3]
 458 0024 9B08     		lsrs	r3, r3, #2
 459 0026 DAB2     		uxtb	r2, r3
 460 0028 7B1D     		adds	r3, r7, #5
 461 002a 0121     		movs	r1, #1
 462 002c 0A40     		ands	r2, r1
 463 002e 1A70     		strb	r2, [r3]
  85:relay.c       ****     uint8_t alarm2bit =(reg>>1)&0x1;
 464              		.loc 1 85 0
 465 0030 FB1D     		adds	r3, r7, #7
 466 0032 1B78     		ldrb	r3, [r3]
 467 0034 5B08     		lsrs	r3, r3, #1
 468 0036 DAB2     		uxtb	r2, r3
 469 0038 3B1D     		adds	r3, r7, #4
 470 003a 0121     		movs	r1, #1
 471 003c 0A40     		ands	r2, r1
 472 003e 1A70     		strb	r2, [r3]
  86:relay.c       ****     uint8_t alarm1bit =reg&0x1;
 473              		.loc 1 86 0
 474 0040 FB1C     		adds	r3, r7, #3
 475 0042 FA1D     		adds	r2, r7, #7
 476 0044 1278     		ldrb	r2, [r2]
 477 0046 0121     		movs	r1, #1
 478 0048 0A40     		ands	r2, r1
 479 004a 1A70     		strb	r2, [r3]
  87:relay.c       ****     if( (alarm3bit && !relay[2].energ)|| (!alarm3bit && relay[2].energ))
 480              		.loc 1 87 0
 481 004c 7B1D     		adds	r3, r7, #5
 482 004e 1B78     		ldrb	r3, [r3]
ARM GAS  C:\Users\alexport\AppData\Local\Temp\ccNRKq6z.s 			page 11


 483 0050 002B     		cmp	r3, #0
 484 0052 03D0     		beq	.L20
 485              		.loc 1 87 0 is_stmt 0 discriminator 1
 486 0054 244B     		ldr	r3, .L33
 487 0056 9B79     		ldrb	r3, [r3, #6]
 488 0058 002B     		cmp	r3, #0
 489 005a 07D0     		beq	.L21
 490              	.L20:
 491              		.loc 1 87 0 discriminator 3
 492 005c 7B1D     		adds	r3, r7, #5
 493 005e 1B78     		ldrb	r3, [r3]
 494 0060 002B     		cmp	r3, #0
 495 0062 05D1     		bne	.L22
 496              		.loc 1 87 0 discriminator 4
 497 0064 204B     		ldr	r3, .L33
 498 0066 9B79     		ldrb	r3, [r3, #6]
 499 0068 002B     		cmp	r3, #0
 500 006a 01D0     		beq	.L22
 501              	.L21:
  88:relay.c       ****         return 3;
 502              		.loc 1 88 0 is_stmt 1
 503 006c 0323     		movs	r3, #3
 504 006e 36E0     		b	.L23
 505              	.L22:
  89:relay.c       ****     if( (alarm2bit && !relay[1].energ)|| (!alarm2bit && relay[1].energ))
 506              		.loc 1 89 0
 507 0070 3B1D     		adds	r3, r7, #4
 508 0072 1B78     		ldrb	r3, [r3]
 509 0074 002B     		cmp	r3, #0
 510 0076 03D0     		beq	.L24
 511              		.loc 1 89 0 is_stmt 0 discriminator 1
 512 0078 1B4B     		ldr	r3, .L33
 513 007a DB78     		ldrb	r3, [r3, #3]
 514 007c 002B     		cmp	r3, #0
 515 007e 07D0     		beq	.L25
 516              	.L24:
 517              		.loc 1 89 0 discriminator 3
 518 0080 3B1D     		adds	r3, r7, #4
 519 0082 1B78     		ldrb	r3, [r3]
 520 0084 002B     		cmp	r3, #0
 521 0086 05D1     		bne	.L26
 522              		.loc 1 89 0 discriminator 4
 523 0088 174B     		ldr	r3, .L33
 524 008a DB78     		ldrb	r3, [r3, #3]
 525 008c 002B     		cmp	r3, #0
 526 008e 01D0     		beq	.L26
 527              	.L25:
  90:relay.c       ****         return 2;
 528              		.loc 1 90 0 is_stmt 1
 529 0090 0223     		movs	r3, #2
 530 0092 24E0     		b	.L23
 531              	.L26:
  91:relay.c       ****     if( (alarm1bit && !relay[0].energ)|| (!alarm1bit && relay[0].energ))
 532              		.loc 1 91 0
 533 0094 FB1C     		adds	r3, r7, #3
 534 0096 1B78     		ldrb	r3, [r3]
 535 0098 002B     		cmp	r3, #0
ARM GAS  C:\Users\alexport\AppData\Local\Temp\ccNRKq6z.s 			page 12


 536 009a 03D0     		beq	.L27
 537              		.loc 1 91 0 is_stmt 0 discriminator 1
 538 009c 124B     		ldr	r3, .L33
 539 009e 1B78     		ldrb	r3, [r3]
 540 00a0 002B     		cmp	r3, #0
 541 00a2 07D0     		beq	.L28
 542              	.L27:
 543              		.loc 1 91 0 discriminator 3
 544 00a4 FB1C     		adds	r3, r7, #3
 545 00a6 1B78     		ldrb	r3, [r3]
 546 00a8 002B     		cmp	r3, #0
 547 00aa 05D1     		bne	.L29
 548              		.loc 1 91 0 discriminator 4
 549 00ac 0E4B     		ldr	r3, .L33
 550 00ae 1B78     		ldrb	r3, [r3]
 551 00b0 002B     		cmp	r3, #0
 552 00b2 01D0     		beq	.L29
 553              	.L28:
  92:relay.c       ****         return 1;
 554              		.loc 1 92 0 is_stmt 1
 555 00b4 0123     		movs	r3, #1
 556 00b6 12E0     		b	.L23
 557              	.L29:
  93:relay.c       ****     if( (faultbit && !relay[3].energ)|| (!faultbit && relay[3].energ))
 558              		.loc 1 93 0
 559 00b8 BB1D     		adds	r3, r7, #6
 560 00ba 1B78     		ldrb	r3, [r3]
 561 00bc 002B     		cmp	r3, #0
 562 00be 03D0     		beq	.L30
 563              		.loc 1 93 0 is_stmt 0 discriminator 1
 564 00c0 094B     		ldr	r3, .L33
 565 00c2 5B7A     		ldrb	r3, [r3, #9]
 566 00c4 002B     		cmp	r3, #0
 567 00c6 07D0     		beq	.L31
 568              	.L30:
 569              		.loc 1 93 0 discriminator 3
 570 00c8 BB1D     		adds	r3, r7, #6
 571 00ca 1B78     		ldrb	r3, [r3]
 572 00cc 002B     		cmp	r3, #0
 573 00ce 05D1     		bne	.L32
 574              		.loc 1 93 0 discriminator 4
 575 00d0 054B     		ldr	r3, .L33
 576 00d2 5B7A     		ldrb	r3, [r3, #9]
 577 00d4 002B     		cmp	r3, #0
 578 00d6 01D0     		beq	.L32
 579              	.L31:
  94:relay.c       ****         return 4;
 580              		.loc 1 94 0 is_stmt 1
 581 00d8 0423     		movs	r3, #4
 582 00da 00E0     		b	.L23
 583              	.L32:
  95:relay.c       ****     else
  96:relay.c       ****         return 0;
 584              		.loc 1 96 0
 585 00dc 0023     		movs	r3, #0
 586              	.L23:
  97:relay.c       **** }
ARM GAS  C:\Users\alexport\AppData\Local\Temp\ccNRKq6z.s 			page 13


 587              		.loc 1 97 0
 588 00de 1800     		movs	r0, r3
 589 00e0 BD46     		mov	sp, r7
 590 00e2 03B0     		add	sp, sp, #12
 591              		@ sp needed
 592 00e4 90BD     		pop	{r4, r7, pc}
 593              	.L34:
 594 00e6 C046     		.align	2
 595              	.L33:
 596 00e8 00000000 		.word	relay
 597              		.cfi_endproc
 598              	.LFE41:
 599              		.size	GetRelayState, .-GetRelayState
 600              		.section	.text.GetRelayMask,"ax",%progbits
 601              		.align	2
 602              		.global	GetRelayMask
 603              		.code	16
 604              		.thumb_func
 605              		.type	GetRelayMask, %function
 606              	GetRelayMask:
 607              	.LFB42:
  98:relay.c       **** 
  99:relay.c       **** uint8_t GetRelayMask(){
 608              		.loc 1 99 0
 609              		.cfi_startproc
 610              		@ args = 0, pretend = 0, frame = 8
 611              		@ frame_needed = 1, uses_anonymous_args = 0
 612 0000 90B5     		push	{r4, r7, lr}
 613              		.cfi_def_cfa_offset 12
 614              		.cfi_offset 4, -12
 615              		.cfi_offset 7, -8
 616              		.cfi_offset 14, -4
 617 0002 83B0     		sub	sp, sp, #12
 618              		.cfi_def_cfa_offset 24
 619 0004 00AF     		add	r7, sp, #0
 620              		.cfi_def_cfa_register 7
 100:relay.c       ****     uint8_t  reg= TCA9534_GetReg();
 621              		.loc 1 100 0
 622 0006 FC1D     		adds	r4, r7, #7
 623 0008 FFF7FEFF 		bl	TCA9534_GetReg
 624 000c 0300     		movs	r3, r0
 625 000e 2370     		strb	r3, [r4]
 101:relay.c       ****     return reg;
 626              		.loc 1 101 0
 627 0010 FB1D     		adds	r3, r7, #7
 628 0012 1B78     		ldrb	r3, [r3]
 102:relay.c       **** }
 629              		.loc 1 102 0
 630 0014 1800     		movs	r0, r3
 631 0016 BD46     		mov	sp, r7
 632 0018 03B0     		add	sp, sp, #12
 633              		@ sp needed
 634 001a 90BD     		pop	{r4, r7, pc}
 635              		.cfi_endproc
 636              	.LFE42:
 637              		.size	GetRelayMask, .-GetRelayMask
 638              		.text
ARM GAS  C:\Users\alexport\AppData\Local\Temp\ccNRKq6z.s 			page 14


 639              	.Letext0:
 640              		.file 2 "c:\\program files (x86)\\cypress\\psoc creator\\4.4\\psoc creator\\import\\gnu\\arm\\5.4.
 641              		.file 3 "c:\\program files (x86)\\cypress\\psoc creator\\4.4\\psoc creator\\import\\gnu\\arm\\5.4.
 642              		.file 4 "Generated_Source\\PSoC4/cytypes.h"
 643              		.file 5 "Generated_Source\\PSoC4/blue_Stack.h"
 644              		.file 6 "Generated_Source\\PSoC4/blue_dis.h"
 645              		.file 7 "relay.h"