ARM GAS  C:\Users\alexport\AppData\Local\Temp\ccDJmAqX.s 			page 1


   1              		.syntax unified
   2              		.cpu cortex-m0
   3              		.fpu softvfp
   4              		.eabi_attribute 20, 1
   5              		.eabi_attribute 21, 1
   6              		.eabi_attribute 23, 3
   7              		.eabi_attribute 24, 1
   8              		.eabi_attribute 25, 1
   9              		.eabi_attribute 26, 1
  10              		.eabi_attribute 30, 6
  11              		.eabi_attribute 34, 0
  12              		.eabi_attribute 18, 4
  13              		.thumb
  14              		.syntax unified
  15              		.file	"RS232UART.c"
  16              		.text
  17              	.Ltext0:
  18              		.cfi_sections	.debug_frame
  19              		.global	RS232UART_initVar
  20              		.bss
  21              		.type	RS232UART_initVar, %object
  22              		.size	RS232UART_initVar, 1
  23              	RS232UART_initVar:
  24 0000 00       		.space	1
  25              		.global	RS232UART_errorStatus
  26              		.type	RS232UART_errorStatus, %object
  27              		.size	RS232UART_errorStatus, 1
  28              	RS232UART_errorStatus:
  29 0001 00       		.space	1
  30              		.comm	RS232UART_rxBuffer,8,4
  31              		.global	RS232UART_rxBufferRead
  32              		.type	RS232UART_rxBufferRead, %object
  33              		.size	RS232UART_rxBufferRead, 1
  34              	RS232UART_rxBufferRead:
  35 0002 00       		.space	1
  36              		.global	RS232UART_rxBufferWrite
  37              		.type	RS232UART_rxBufferWrite, %object
  38              		.size	RS232UART_rxBufferWrite, 1
  39              	RS232UART_rxBufferWrite:
  40 0003 00       		.space	1
  41              		.global	RS232UART_rxBufferLoopDetect
  42              		.type	RS232UART_rxBufferLoopDetect, %object
  43              		.size	RS232UART_rxBufferLoopDetect, 1
  44              	RS232UART_rxBufferLoopDetect:
  45 0004 00       		.space	1
  46              		.global	RS232UART_rxBufferOverflow
  47              		.type	RS232UART_rxBufferOverflow, %object
  48              		.size	RS232UART_rxBufferOverflow, 1
  49              	RS232UART_rxBufferOverflow:
  50 0005 00       		.space	1
  51              		.section	.text.RS232UART_Start,"ax",%progbits
  52              		.align	2
  53              		.global	RS232UART_Start
  54              		.code	16
  55              		.thumb_func
  56              		.type	RS232UART_Start, %function
  57              	RS232UART_Start:
ARM GAS  C:\Users\alexport\AppData\Local\Temp\ccDJmAqX.s 			page 2


  58              	.LFB2:
  59              		.file 1 "Generated_Source\\PSoC4\\RS232UART.c"
   1:Generated_Source\PSoC4/RS232UART.c **** /*******************************************************************************
   2:Generated_Source\PSoC4/RS232UART.c **** * File Name: RS232UART.c
   3:Generated_Source\PSoC4/RS232UART.c **** * Version 2.50
   4:Generated_Source\PSoC4/RS232UART.c **** *
   5:Generated_Source\PSoC4/RS232UART.c **** * Description:
   6:Generated_Source\PSoC4/RS232UART.c **** *  This file provides all API functionality of the UART component
   7:Generated_Source\PSoC4/RS232UART.c **** *
   8:Generated_Source\PSoC4/RS232UART.c **** * Note:
   9:Generated_Source\PSoC4/RS232UART.c **** *
  10:Generated_Source\PSoC4/RS232UART.c **** ********************************************************************************
  11:Generated_Source\PSoC4/RS232UART.c **** * Copyright 2008-2015, Cypress Semiconductor Corporation.  All rights reserved.
  12:Generated_Source\PSoC4/RS232UART.c **** * You may use this file only in accordance with the license, terms, conditions,
  13:Generated_Source\PSoC4/RS232UART.c **** * disclaimers, and limitations in the end user license agreement accompanying
  14:Generated_Source\PSoC4/RS232UART.c **** * the software package with which this file was provided.
  15:Generated_Source\PSoC4/RS232UART.c **** *******************************************************************************/
  16:Generated_Source\PSoC4/RS232UART.c **** 
  17:Generated_Source\PSoC4/RS232UART.c **** #include "RS232UART.h"
  18:Generated_Source\PSoC4/RS232UART.c **** #if (RS232UART_INTERNAL_CLOCK_USED)
  19:Generated_Source\PSoC4/RS232UART.c ****     #include "RS232UART_IntClock.h"
  20:Generated_Source\PSoC4/RS232UART.c **** #endif /* End RS232UART_INTERNAL_CLOCK_USED */
  21:Generated_Source\PSoC4/RS232UART.c **** 
  22:Generated_Source\PSoC4/RS232UART.c **** 
  23:Generated_Source\PSoC4/RS232UART.c **** /***************************************
  24:Generated_Source\PSoC4/RS232UART.c **** * Global data allocation
  25:Generated_Source\PSoC4/RS232UART.c **** ***************************************/
  26:Generated_Source\PSoC4/RS232UART.c **** 
  27:Generated_Source\PSoC4/RS232UART.c **** uint8 RS232UART_initVar = 0u;
  28:Generated_Source\PSoC4/RS232UART.c **** 
  29:Generated_Source\PSoC4/RS232UART.c **** #if (RS232UART_TX_INTERRUPT_ENABLED && RS232UART_TX_ENABLED)
  30:Generated_Source\PSoC4/RS232UART.c ****     volatile uint8 RS232UART_txBuffer[RS232UART_TX_BUFFER_SIZE];
  31:Generated_Source\PSoC4/RS232UART.c ****     volatile uint8 RS232UART_txBufferRead = 0u;
  32:Generated_Source\PSoC4/RS232UART.c ****     uint8 RS232UART_txBufferWrite = 0u;
  33:Generated_Source\PSoC4/RS232UART.c **** #endif /* (RS232UART_TX_INTERRUPT_ENABLED && RS232UART_TX_ENABLED) */
  34:Generated_Source\PSoC4/RS232UART.c **** 
  35:Generated_Source\PSoC4/RS232UART.c **** #if (RS232UART_RX_INTERRUPT_ENABLED && (RS232UART_RX_ENABLED || RS232UART_HD_ENABLED))
  36:Generated_Source\PSoC4/RS232UART.c ****     uint8 RS232UART_errorStatus = 0u;
  37:Generated_Source\PSoC4/RS232UART.c ****     volatile uint8 RS232UART_rxBuffer[RS232UART_RX_BUFFER_SIZE];
  38:Generated_Source\PSoC4/RS232UART.c ****     volatile uint8 RS232UART_rxBufferRead  = 0u;
  39:Generated_Source\PSoC4/RS232UART.c ****     volatile uint8 RS232UART_rxBufferWrite = 0u;
  40:Generated_Source\PSoC4/RS232UART.c ****     volatile uint8 RS232UART_rxBufferLoopDetect = 0u;
  41:Generated_Source\PSoC4/RS232UART.c ****     volatile uint8 RS232UART_rxBufferOverflow   = 0u;
  42:Generated_Source\PSoC4/RS232UART.c ****     #if (RS232UART_RXHW_ADDRESS_ENABLED)
  43:Generated_Source\PSoC4/RS232UART.c ****         volatile uint8 RS232UART_rxAddressMode = RS232UART_RX_ADDRESS_MODE;
  44:Generated_Source\PSoC4/RS232UART.c ****         volatile uint8 RS232UART_rxAddressDetected = 0u;
  45:Generated_Source\PSoC4/RS232UART.c ****     #endif /* (RS232UART_RXHW_ADDRESS_ENABLED) */
  46:Generated_Source\PSoC4/RS232UART.c **** #endif /* (RS232UART_RX_INTERRUPT_ENABLED && (RS232UART_RX_ENABLED || RS232UART_HD_ENABLED)) */
  47:Generated_Source\PSoC4/RS232UART.c **** 
  48:Generated_Source\PSoC4/RS232UART.c **** 
  49:Generated_Source\PSoC4/RS232UART.c **** /*******************************************************************************
  50:Generated_Source\PSoC4/RS232UART.c **** * Function Name: RS232UART_Start
  51:Generated_Source\PSoC4/RS232UART.c **** ********************************************************************************
  52:Generated_Source\PSoC4/RS232UART.c **** *
  53:Generated_Source\PSoC4/RS232UART.c **** * Summary:
  54:Generated_Source\PSoC4/RS232UART.c **** *  This is the preferred method to begin component operation.
  55:Generated_Source\PSoC4/RS232UART.c **** *  RS232UART_Start() sets the initVar variable, calls the
ARM GAS  C:\Users\alexport\AppData\Local\Temp\ccDJmAqX.s 			page 3


  56:Generated_Source\PSoC4/RS232UART.c **** *  RS232UART_Init() function, and then calls the
  57:Generated_Source\PSoC4/RS232UART.c **** *  RS232UART_Enable() function.
  58:Generated_Source\PSoC4/RS232UART.c **** *
  59:Generated_Source\PSoC4/RS232UART.c **** * Parameters:
  60:Generated_Source\PSoC4/RS232UART.c **** *  None.
  61:Generated_Source\PSoC4/RS232UART.c **** *
  62:Generated_Source\PSoC4/RS232UART.c **** * Return:
  63:Generated_Source\PSoC4/RS232UART.c **** *  None.
  64:Generated_Source\PSoC4/RS232UART.c **** *
  65:Generated_Source\PSoC4/RS232UART.c **** * Global variables:
  66:Generated_Source\PSoC4/RS232UART.c **** *  The RS232UART_intiVar variable is used to indicate initial
  67:Generated_Source\PSoC4/RS232UART.c **** *  configuration of this component. The variable is initialized to zero (0u)
  68:Generated_Source\PSoC4/RS232UART.c **** *  and set to one (1u) the first time RS232UART_Start() is called. This
  69:Generated_Source\PSoC4/RS232UART.c **** *  allows for component initialization without re-initialization in all
  70:Generated_Source\PSoC4/RS232UART.c **** *  subsequent calls to the RS232UART_Start() routine.
  71:Generated_Source\PSoC4/RS232UART.c **** *
  72:Generated_Source\PSoC4/RS232UART.c **** * Reentrant:
  73:Generated_Source\PSoC4/RS232UART.c **** *  No.
  74:Generated_Source\PSoC4/RS232UART.c **** *
  75:Generated_Source\PSoC4/RS232UART.c **** *******************************************************************************/
  76:Generated_Source\PSoC4/RS232UART.c **** void RS232UART_Start(void) 
  77:Generated_Source\PSoC4/RS232UART.c **** {
  60              		.loc 1 77 0
  61              		.cfi_startproc
  62              		@ args = 0, pretend = 0, frame = 0
  63              		@ frame_needed = 1, uses_anonymous_args = 0
  64 0000 80B5     		push	{r7, lr}
  65              		.cfi_def_cfa_offset 8
  66              		.cfi_offset 7, -8
  67              		.cfi_offset 14, -4
  68 0002 00AF     		add	r7, sp, #0
  69              		.cfi_def_cfa_register 7
  78:Generated_Source\PSoC4/RS232UART.c ****     /* If not initialized then initialize all required hardware and software */
  79:Generated_Source\PSoC4/RS232UART.c ****     if(RS232UART_initVar == 0u)
  70              		.loc 1 79 0
  71 0004 064B     		ldr	r3, .L3
  72 0006 1B78     		ldrb	r3, [r3]
  73 0008 002B     		cmp	r3, #0
  74 000a 04D1     		bne	.L2
  80:Generated_Source\PSoC4/RS232UART.c ****     {
  81:Generated_Source\PSoC4/RS232UART.c ****         RS232UART_Init();
  75              		.loc 1 81 0
  76 000c FFF7FEFF 		bl	RS232UART_Init
  82:Generated_Source\PSoC4/RS232UART.c ****         RS232UART_initVar = 1u;
  77              		.loc 1 82 0
  78 0010 034B     		ldr	r3, .L3
  79 0012 0122     		movs	r2, #1
  80 0014 1A70     		strb	r2, [r3]
  81              	.L2:
  83:Generated_Source\PSoC4/RS232UART.c ****     }
  84:Generated_Source\PSoC4/RS232UART.c **** 
  85:Generated_Source\PSoC4/RS232UART.c ****     RS232UART_Enable();
  82              		.loc 1 85 0
  83 0016 FFF7FEFF 		bl	RS232UART_Enable
  86:Generated_Source\PSoC4/RS232UART.c **** }
  84              		.loc 1 86 0
  85 001a C046     		nop
ARM GAS  C:\Users\alexport\AppData\Local\Temp\ccDJmAqX.s 			page 4


  86 001c BD46     		mov	sp, r7
  87              		@ sp needed
  88 001e 80BD     		pop	{r7, pc}
  89              	.L4:
  90              		.align	2
  91              	.L3:
  92 0020 00000000 		.word	RS232UART_initVar
  93              		.cfi_endproc
  94              	.LFE2:
  95              		.size	RS232UART_Start, .-RS232UART_Start
  96              		.section	.text.RS232UART_Init,"ax",%progbits
  97              		.align	2
  98              		.global	RS232UART_Init
  99              		.code	16
 100              		.thumb_func
 101              		.type	RS232UART_Init, %function
 102              	RS232UART_Init:
 103              	.LFB3:
  87:Generated_Source\PSoC4/RS232UART.c **** 
  88:Generated_Source\PSoC4/RS232UART.c **** 
  89:Generated_Source\PSoC4/RS232UART.c **** /*******************************************************************************
  90:Generated_Source\PSoC4/RS232UART.c **** * Function Name: RS232UART_Init
  91:Generated_Source\PSoC4/RS232UART.c **** ********************************************************************************
  92:Generated_Source\PSoC4/RS232UART.c **** *
  93:Generated_Source\PSoC4/RS232UART.c **** * Summary:
  94:Generated_Source\PSoC4/RS232UART.c **** *  Initializes or restores the component according to the customizer Configure
  95:Generated_Source\PSoC4/RS232UART.c **** *  dialog settings. It is not necessary to call RS232UART_Init() because
  96:Generated_Source\PSoC4/RS232UART.c **** *  the RS232UART_Start() API calls this function and is the preferred
  97:Generated_Source\PSoC4/RS232UART.c **** *  method to begin component operation.
  98:Generated_Source\PSoC4/RS232UART.c **** *
  99:Generated_Source\PSoC4/RS232UART.c **** * Parameters:
 100:Generated_Source\PSoC4/RS232UART.c **** *  None.
 101:Generated_Source\PSoC4/RS232UART.c **** *
 102:Generated_Source\PSoC4/RS232UART.c **** * Return:
 103:Generated_Source\PSoC4/RS232UART.c **** *  None.
 104:Generated_Source\PSoC4/RS232UART.c **** *
 105:Generated_Source\PSoC4/RS232UART.c **** *******************************************************************************/
 106:Generated_Source\PSoC4/RS232UART.c **** void RS232UART_Init(void) 
 107:Generated_Source\PSoC4/RS232UART.c **** {
 104              		.loc 1 107 0
 105              		.cfi_startproc
 106              		@ args = 0, pretend = 0, frame = 0
 107              		@ frame_needed = 1, uses_anonymous_args = 0
 108 0000 80B5     		push	{r7, lr}
 109              		.cfi_def_cfa_offset 8
 110              		.cfi_offset 7, -8
 111              		.cfi_offset 14, -4
 112 0002 00AF     		add	r7, sp, #0
 113              		.cfi_def_cfa_register 7
 108:Generated_Source\PSoC4/RS232UART.c ****     #if(RS232UART_RX_ENABLED || RS232UART_HD_ENABLED)
 109:Generated_Source\PSoC4/RS232UART.c **** 
 110:Generated_Source\PSoC4/RS232UART.c ****         #if (RS232UART_RX_INTERRUPT_ENABLED)
 111:Generated_Source\PSoC4/RS232UART.c ****             /* Set RX interrupt vector and priority */
 112:Generated_Source\PSoC4/RS232UART.c ****             (void) CyIntSetVector(RS232UART_RX_VECT_NUM, &RS232UART_RXISR);
 114              		.loc 1 112 0
 115 0004 0E4B     		ldr	r3, .L6
 116 0006 1900     		movs	r1, r3
ARM GAS  C:\Users\alexport\AppData\Local\Temp\ccDJmAqX.s 			page 5


 117 0008 0120     		movs	r0, #1
 118 000a FFF7FEFF 		bl	CyIntSetVector
 113:Generated_Source\PSoC4/RS232UART.c ****             CyIntSetPriority(RS232UART_RX_VECT_NUM, RS232UART_RX_PRIOR_NUM);
 119              		.loc 1 113 0
 120 000e 0321     		movs	r1, #3
 121 0010 0120     		movs	r0, #1
 122 0012 FFF7FEFF 		bl	CyIntSetPriority
 114:Generated_Source\PSoC4/RS232UART.c ****             RS232UART_errorStatus = 0u;
 123              		.loc 1 114 0
 124 0016 0B4B     		ldr	r3, .L6+4
 125 0018 0022     		movs	r2, #0
 126 001a 1A70     		strb	r2, [r3]
 115:Generated_Source\PSoC4/RS232UART.c ****         #endif /* (RS232UART_RX_INTERRUPT_ENABLED) */
 116:Generated_Source\PSoC4/RS232UART.c **** 
 117:Generated_Source\PSoC4/RS232UART.c ****         #if (RS232UART_RXHW_ADDRESS_ENABLED)
 118:Generated_Source\PSoC4/RS232UART.c ****             RS232UART_SetRxAddressMode(RS232UART_RX_ADDRESS_MODE);
 119:Generated_Source\PSoC4/RS232UART.c ****             RS232UART_SetRxAddress1(RS232UART_RX_HW_ADDRESS1);
 120:Generated_Source\PSoC4/RS232UART.c ****             RS232UART_SetRxAddress2(RS232UART_RX_HW_ADDRESS2);
 121:Generated_Source\PSoC4/RS232UART.c ****         #endif /* End RS232UART_RXHW_ADDRESS_ENABLED */
 122:Generated_Source\PSoC4/RS232UART.c **** 
 123:Generated_Source\PSoC4/RS232UART.c ****         /* Init Count7 period */
 124:Generated_Source\PSoC4/RS232UART.c ****         RS232UART_RXBITCTR_PERIOD_REG = RS232UART_RXBITCTR_INIT;
 127              		.loc 1 124 0
 128 001c 0A4B     		ldr	r3, .L6+8
 129 001e 7222     		movs	r2, #114
 130 0020 1A70     		strb	r2, [r3]
 125:Generated_Source\PSoC4/RS232UART.c ****         /* Configure the Initial RX interrupt mask */
 126:Generated_Source\PSoC4/RS232UART.c ****         RS232UART_RXSTATUS_MASK_REG  = RS232UART_INIT_RX_INTERRUPTS_MASK;
 131              		.loc 1 126 0
 132 0022 0A4B     		ldr	r3, .L6+12
 133 0024 2022     		movs	r2, #32
 134 0026 1A70     		strb	r2, [r3]
 127:Generated_Source\PSoC4/RS232UART.c ****     #endif /* End RS232UART_RX_ENABLED || RS232UART_HD_ENABLED*/
 128:Generated_Source\PSoC4/RS232UART.c **** 
 129:Generated_Source\PSoC4/RS232UART.c ****     #if(RS232UART_TX_ENABLED)
 130:Generated_Source\PSoC4/RS232UART.c ****         #if (RS232UART_TX_INTERRUPT_ENABLED)
 131:Generated_Source\PSoC4/RS232UART.c ****             /* Set TX interrupt vector and priority */
 132:Generated_Source\PSoC4/RS232UART.c ****             (void) CyIntSetVector(RS232UART_TX_VECT_NUM, &RS232UART_TXISR);
 133:Generated_Source\PSoC4/RS232UART.c ****             CyIntSetPriority(RS232UART_TX_VECT_NUM, RS232UART_TX_PRIOR_NUM);
 134:Generated_Source\PSoC4/RS232UART.c ****         #endif /* (RS232UART_TX_INTERRUPT_ENABLED) */
 135:Generated_Source\PSoC4/RS232UART.c **** 
 136:Generated_Source\PSoC4/RS232UART.c ****         /* Write Counter Value for TX Bit Clk Generator*/
 137:Generated_Source\PSoC4/RS232UART.c ****         #if (RS232UART_TXCLKGEN_DP)
 138:Generated_Source\PSoC4/RS232UART.c ****             RS232UART_TXBITCLKGEN_CTR_REG = RS232UART_BIT_CENTER;
 135              		.loc 1 138 0
 136 0028 094B     		ldr	r3, .L6+16
 137 002a 0622     		movs	r2, #6
 138 002c 1A70     		strb	r2, [r3]
 139:Generated_Source\PSoC4/RS232UART.c ****             RS232UART_TXBITCLKTX_COMPLETE_REG = ((RS232UART_NUMBER_OF_DATA_BITS +
 139              		.loc 1 139 0
 140 002e 094B     		ldr	r3, .L6+20
 141 0030 4722     		movs	r2, #71
 142 0032 1A70     		strb	r2, [r3]
 140:Generated_Source\PSoC4/RS232UART.c ****                         RS232UART_NUMBER_OF_START_BIT) * RS232UART_OVER_SAMPLE_COUNT) - 1u;
 141:Generated_Source\PSoC4/RS232UART.c ****         #else
 142:Generated_Source\PSoC4/RS232UART.c ****             RS232UART_TXBITCTR_PERIOD_REG = ((RS232UART_NUMBER_OF_DATA_BITS +
 143:Generated_Source\PSoC4/RS232UART.c ****                         RS232UART_NUMBER_OF_START_BIT) * RS232UART_OVER_SAMPLE_8) - 1u;
ARM GAS  C:\Users\alexport\AppData\Local\Temp\ccDJmAqX.s 			page 6


 144:Generated_Source\PSoC4/RS232UART.c ****         #endif /* End RS232UART_TXCLKGEN_DP */
 145:Generated_Source\PSoC4/RS232UART.c **** 
 146:Generated_Source\PSoC4/RS232UART.c ****         /* Configure the Initial TX interrupt mask */
 147:Generated_Source\PSoC4/RS232UART.c ****         #if (RS232UART_TX_INTERRUPT_ENABLED)
 148:Generated_Source\PSoC4/RS232UART.c ****             RS232UART_TXSTATUS_MASK_REG = RS232UART_TX_STS_FIFO_EMPTY;
 149:Generated_Source\PSoC4/RS232UART.c ****         #else
 150:Generated_Source\PSoC4/RS232UART.c ****             RS232UART_TXSTATUS_MASK_REG = RS232UART_INIT_TX_INTERRUPTS_MASK;
 143              		.loc 1 150 0
 144 0034 084B     		ldr	r3, .L6+24
 145 0036 0022     		movs	r2, #0
 146 0038 1A70     		strb	r2, [r3]
 151:Generated_Source\PSoC4/RS232UART.c ****         #endif /*End RS232UART_TX_INTERRUPT_ENABLED*/
 152:Generated_Source\PSoC4/RS232UART.c **** 
 153:Generated_Source\PSoC4/RS232UART.c ****     #endif /* End RS232UART_TX_ENABLED */
 154:Generated_Source\PSoC4/RS232UART.c **** 
 155:Generated_Source\PSoC4/RS232UART.c ****     #if(RS232UART_PARITY_TYPE_SW)  /* Write Parity to Control Register */
 156:Generated_Source\PSoC4/RS232UART.c ****         RS232UART_WriteControlRegister( \
 157:Generated_Source\PSoC4/RS232UART.c ****             (RS232UART_ReadControlRegister() & (uint8)~RS232UART_CTRL_PARITY_TYPE_MASK) | \
 158:Generated_Source\PSoC4/RS232UART.c ****             (uint8)(RS232UART_PARITY_TYPE << RS232UART_CTRL_PARITY_TYPE0_SHIFT) );
 159:Generated_Source\PSoC4/RS232UART.c ****     #endif /* End RS232UART_PARITY_TYPE_SW */
 160:Generated_Source\PSoC4/RS232UART.c **** }
 147              		.loc 1 160 0
 148 003a C046     		nop
 149 003c BD46     		mov	sp, r7
 150              		@ sp needed
 151 003e 80BD     		pop	{r7, pc}
 152              	.L7:
 153              		.align	2
 154              	.L6:
 155 0040 00000000 		.word	RS232UART_RXISR
 156 0044 00000000 		.word	RS232UART_errorStatus
 157 0048 83000F40 		.word	1074724995
 158 004c 82000F40 		.word	1074724994
 159 0050 21000F40 		.word	1074724897
 160 0054 31000F40 		.word	1074724913
 161 0058 80000F40 		.word	1074724992
 162              		.cfi_endproc
 163              	.LFE3:
 164              		.size	RS232UART_Init, .-RS232UART_Init
 165              		.section	.text.RS232UART_Enable,"ax",%progbits
 166              		.align	2
 167              		.global	RS232UART_Enable
 168              		.code	16
 169              		.thumb_func
 170              		.type	RS232UART_Enable, %function
 171              	RS232UART_Enable:
 172              	.LFB4:
 161:Generated_Source\PSoC4/RS232UART.c **** 
 162:Generated_Source\PSoC4/RS232UART.c **** 
 163:Generated_Source\PSoC4/RS232UART.c **** /*******************************************************************************
 164:Generated_Source\PSoC4/RS232UART.c **** * Function Name: RS232UART_Enable
 165:Generated_Source\PSoC4/RS232UART.c **** ********************************************************************************
 166:Generated_Source\PSoC4/RS232UART.c **** *
 167:Generated_Source\PSoC4/RS232UART.c **** * Summary:
 168:Generated_Source\PSoC4/RS232UART.c **** *  Activates the hardware and begins component operation. It is not necessary
 169:Generated_Source\PSoC4/RS232UART.c **** *  to call RS232UART_Enable() because the RS232UART_Start() API
 170:Generated_Source\PSoC4/RS232UART.c **** *  calls this function, which is the preferred method to begin component
ARM GAS  C:\Users\alexport\AppData\Local\Temp\ccDJmAqX.s 			page 7


 171:Generated_Source\PSoC4/RS232UART.c **** *  operation.
 172:Generated_Source\PSoC4/RS232UART.c **** 
 173:Generated_Source\PSoC4/RS232UART.c **** * Parameters:
 174:Generated_Source\PSoC4/RS232UART.c **** *  None.
 175:Generated_Source\PSoC4/RS232UART.c **** *
 176:Generated_Source\PSoC4/RS232UART.c **** * Return:
 177:Generated_Source\PSoC4/RS232UART.c **** *  None.
 178:Generated_Source\PSoC4/RS232UART.c **** *
 179:Generated_Source\PSoC4/RS232UART.c **** * Global Variables:
 180:Generated_Source\PSoC4/RS232UART.c **** *  RS232UART_rxAddressDetected - set to initial state (0).
 181:Generated_Source\PSoC4/RS232UART.c **** *
 182:Generated_Source\PSoC4/RS232UART.c **** *******************************************************************************/
 183:Generated_Source\PSoC4/RS232UART.c **** void RS232UART_Enable(void) 
 184:Generated_Source\PSoC4/RS232UART.c **** {
 173              		.loc 1 184 0
 174              		.cfi_startproc
 175              		@ args = 0, pretend = 0, frame = 8
 176              		@ frame_needed = 1, uses_anonymous_args = 0
 177 0000 90B5     		push	{r4, r7, lr}
 178              		.cfi_def_cfa_offset 12
 179              		.cfi_offset 4, -12
 180              		.cfi_offset 7, -8
 181              		.cfi_offset 14, -4
 182 0002 83B0     		sub	sp, sp, #12
 183              		.cfi_def_cfa_offset 24
 184 0004 00AF     		add	r7, sp, #0
 185              		.cfi_def_cfa_register 7
 185:Generated_Source\PSoC4/RS232UART.c ****     uint8 enableInterrupts;
 186:Generated_Source\PSoC4/RS232UART.c ****     enableInterrupts = CyEnterCriticalSection();
 186              		.loc 1 186 0
 187 0006 FC1D     		adds	r4, r7, #7
 188 0008 FFF7FEFF 		bl	CyEnterCriticalSection
 189 000c 0300     		movs	r3, r0
 190 000e 2370     		strb	r3, [r4]
 187:Generated_Source\PSoC4/RS232UART.c **** 
 188:Generated_Source\PSoC4/RS232UART.c ****     #if (RS232UART_RX_ENABLED || RS232UART_HD_ENABLED)
 189:Generated_Source\PSoC4/RS232UART.c ****         /* RX Counter (Count7) Enable */
 190:Generated_Source\PSoC4/RS232UART.c ****         RS232UART_RXBITCTR_CONTROL_REG |= RS232UART_CNTR_ENABLE;
 191              		.loc 1 190 0
 192 0010 134A     		ldr	r2, .L9
 193 0012 134B     		ldr	r3, .L9
 194 0014 1B78     		ldrb	r3, [r3]
 195 0016 DBB2     		uxtb	r3, r3
 196 0018 2021     		movs	r1, #32
 197 001a 0B43     		orrs	r3, r1
 198 001c DBB2     		uxtb	r3, r3
 199 001e 1370     		strb	r3, [r2]
 191:Generated_Source\PSoC4/RS232UART.c **** 
 192:Generated_Source\PSoC4/RS232UART.c ****         /* Enable the RX Interrupt */
 193:Generated_Source\PSoC4/RS232UART.c ****         RS232UART_RXSTATUS_ACTL_REG  |= RS232UART_INT_ENABLE;
 200              		.loc 1 193 0
 201 0020 104A     		ldr	r2, .L9+4
 202 0022 104B     		ldr	r3, .L9+4
 203 0024 1B78     		ldrb	r3, [r3]
 204 0026 DBB2     		uxtb	r3, r3
 205 0028 1021     		movs	r1, #16
 206 002a 0B43     		orrs	r3, r1
ARM GAS  C:\Users\alexport\AppData\Local\Temp\ccDJmAqX.s 			page 8


 207 002c DBB2     		uxtb	r3, r3
 208 002e 1370     		strb	r3, [r2]
 194:Generated_Source\PSoC4/RS232UART.c **** 
 195:Generated_Source\PSoC4/RS232UART.c ****         #if (RS232UART_RX_INTERRUPT_ENABLED)
 196:Generated_Source\PSoC4/RS232UART.c ****             RS232UART_EnableRxInt();
 209              		.loc 1 196 0
 210 0030 0120     		movs	r0, #1
 211 0032 FFF7FEFF 		bl	CyIntEnable
 197:Generated_Source\PSoC4/RS232UART.c **** 
 198:Generated_Source\PSoC4/RS232UART.c ****             #if (RS232UART_RXHW_ADDRESS_ENABLED)
 199:Generated_Source\PSoC4/RS232UART.c ****                 RS232UART_rxAddressDetected = 0u;
 200:Generated_Source\PSoC4/RS232UART.c ****             #endif /* (RS232UART_RXHW_ADDRESS_ENABLED) */
 201:Generated_Source\PSoC4/RS232UART.c ****         #endif /* (RS232UART_RX_INTERRUPT_ENABLED) */
 202:Generated_Source\PSoC4/RS232UART.c ****     #endif /* (RS232UART_RX_ENABLED || RS232UART_HD_ENABLED) */
 203:Generated_Source\PSoC4/RS232UART.c **** 
 204:Generated_Source\PSoC4/RS232UART.c ****     #if(RS232UART_TX_ENABLED)
 205:Generated_Source\PSoC4/RS232UART.c ****         /* TX Counter (DP/Count7) Enable */
 206:Generated_Source\PSoC4/RS232UART.c ****         #if(!RS232UART_TXCLKGEN_DP)
 207:Generated_Source\PSoC4/RS232UART.c ****             RS232UART_TXBITCTR_CONTROL_REG |= RS232UART_CNTR_ENABLE;
 208:Generated_Source\PSoC4/RS232UART.c ****         #endif /* End RS232UART_TXCLKGEN_DP */
 209:Generated_Source\PSoC4/RS232UART.c **** 
 210:Generated_Source\PSoC4/RS232UART.c ****         /* Enable the TX Interrupt */
 211:Generated_Source\PSoC4/RS232UART.c ****         RS232UART_TXSTATUS_ACTL_REG |= RS232UART_INT_ENABLE;
 212              		.loc 1 211 0
 213 0036 0C4A     		ldr	r2, .L9+8
 214 0038 0B4B     		ldr	r3, .L9+8
 215 003a 1B78     		ldrb	r3, [r3]
 216 003c DBB2     		uxtb	r3, r3
 217 003e 1021     		movs	r1, #16
 218 0040 0B43     		orrs	r3, r1
 219 0042 DBB2     		uxtb	r3, r3
 220 0044 1370     		strb	r3, [r2]
 212:Generated_Source\PSoC4/RS232UART.c ****         #if (RS232UART_TX_INTERRUPT_ENABLED)
 213:Generated_Source\PSoC4/RS232UART.c ****             RS232UART_ClearPendingTxInt(); /* Clear history of TX_NOT_EMPTY */
 214:Generated_Source\PSoC4/RS232UART.c ****             RS232UART_EnableTxInt();
 215:Generated_Source\PSoC4/RS232UART.c ****         #endif /* (RS232UART_TX_INTERRUPT_ENABLED) */
 216:Generated_Source\PSoC4/RS232UART.c ****      #endif /* (RS232UART_TX_INTERRUPT_ENABLED) */
 217:Generated_Source\PSoC4/RS232UART.c **** 
 218:Generated_Source\PSoC4/RS232UART.c ****     #if (RS232UART_INTERNAL_CLOCK_USED)
 219:Generated_Source\PSoC4/RS232UART.c ****         RS232UART_IntClock_Start();  /* Enable the clock */
 221              		.loc 1 219 0
 222 0046 FF20     		movs	r0, #255
 223 0048 FFF7FEFF 		bl	RS232UART_IntClock_StartEx
 220:Generated_Source\PSoC4/RS232UART.c ****     #endif /* (RS232UART_INTERNAL_CLOCK_USED) */
 221:Generated_Source\PSoC4/RS232UART.c **** 
 222:Generated_Source\PSoC4/RS232UART.c ****     CyExitCriticalSection(enableInterrupts);
 224              		.loc 1 222 0
 225 004c FB1D     		adds	r3, r7, #7
 226 004e 1B78     		ldrb	r3, [r3]
 227 0050 1800     		movs	r0, r3
 228 0052 FFF7FEFF 		bl	CyExitCriticalSection
 223:Generated_Source\PSoC4/RS232UART.c **** }
 229              		.loc 1 223 0
 230 0056 C046     		nop
 231 0058 BD46     		mov	sp, r7
 232 005a 03B0     		add	sp, sp, #12
 233              		@ sp needed
ARM GAS  C:\Users\alexport\AppData\Local\Temp\ccDJmAqX.s 			page 9


 234 005c 90BD     		pop	{r4, r7, pc}
 235              	.L10:
 236 005e C046     		.align	2
 237              	.L9:
 238 0060 93000F40 		.word	1074725011
 239 0064 92000F40 		.word	1074725010
 240 0068 90000F40 		.word	1074725008
 241              		.cfi_endproc
 242              	.LFE4:
 243              		.size	RS232UART_Enable, .-RS232UART_Enable
 244              		.section	.text.RS232UART_Stop,"ax",%progbits
 245              		.align	2
 246              		.global	RS232UART_Stop
 247              		.code	16
 248              		.thumb_func
 249              		.type	RS232UART_Stop, %function
 250              	RS232UART_Stop:
 251              	.LFB5:
 224:Generated_Source\PSoC4/RS232UART.c **** 
 225:Generated_Source\PSoC4/RS232UART.c **** 
 226:Generated_Source\PSoC4/RS232UART.c **** /*******************************************************************************
 227:Generated_Source\PSoC4/RS232UART.c **** * Function Name: RS232UART_Stop
 228:Generated_Source\PSoC4/RS232UART.c **** ********************************************************************************
 229:Generated_Source\PSoC4/RS232UART.c **** *
 230:Generated_Source\PSoC4/RS232UART.c **** * Summary:
 231:Generated_Source\PSoC4/RS232UART.c **** *  Disables the UART operation.
 232:Generated_Source\PSoC4/RS232UART.c **** *
 233:Generated_Source\PSoC4/RS232UART.c **** * Parameters:
 234:Generated_Source\PSoC4/RS232UART.c **** *  None.
 235:Generated_Source\PSoC4/RS232UART.c **** *
 236:Generated_Source\PSoC4/RS232UART.c **** * Return:
 237:Generated_Source\PSoC4/RS232UART.c **** *  None.
 238:Generated_Source\PSoC4/RS232UART.c **** *
 239:Generated_Source\PSoC4/RS232UART.c **** *******************************************************************************/
 240:Generated_Source\PSoC4/RS232UART.c **** void RS232UART_Stop(void) 
 241:Generated_Source\PSoC4/RS232UART.c **** {
 252              		.loc 1 241 0
 253              		.cfi_startproc
 254              		@ args = 0, pretend = 0, frame = 8
 255              		@ frame_needed = 1, uses_anonymous_args = 0
 256 0000 90B5     		push	{r4, r7, lr}
 257              		.cfi_def_cfa_offset 12
 258              		.cfi_offset 4, -12
 259              		.cfi_offset 7, -8
 260              		.cfi_offset 14, -4
 261 0002 83B0     		sub	sp, sp, #12
 262              		.cfi_def_cfa_offset 24
 263 0004 00AF     		add	r7, sp, #0
 264              		.cfi_def_cfa_register 7
 242:Generated_Source\PSoC4/RS232UART.c ****     uint8 enableInterrupts;
 243:Generated_Source\PSoC4/RS232UART.c ****     enableInterrupts = CyEnterCriticalSection();
 265              		.loc 1 243 0
 266 0006 FC1D     		adds	r4, r7, #7
 267 0008 FFF7FEFF 		bl	CyEnterCriticalSection
 268 000c 0300     		movs	r3, r0
 269 000e 2370     		strb	r3, [r4]
 244:Generated_Source\PSoC4/RS232UART.c **** 
ARM GAS  C:\Users\alexport\AppData\Local\Temp\ccDJmAqX.s 			page 10


 245:Generated_Source\PSoC4/RS232UART.c ****     /* Write Bit Counter Disable */
 246:Generated_Source\PSoC4/RS232UART.c ****     #if (RS232UART_RX_ENABLED || RS232UART_HD_ENABLED)
 247:Generated_Source\PSoC4/RS232UART.c ****         RS232UART_RXBITCTR_CONTROL_REG &= (uint8) ~RS232UART_CNTR_ENABLE;
 270              		.loc 1 247 0
 271 0010 124A     		ldr	r2, .L12
 272 0012 124B     		ldr	r3, .L12
 273 0014 1B78     		ldrb	r3, [r3]
 274 0016 DBB2     		uxtb	r3, r3
 275 0018 2021     		movs	r1, #32
 276 001a 8B43     		bics	r3, r1
 277 001c DBB2     		uxtb	r3, r3
 278 001e 1370     		strb	r3, [r2]
 248:Generated_Source\PSoC4/RS232UART.c ****     #endif /* (RS232UART_RX_ENABLED || RS232UART_HD_ENABLED) */
 249:Generated_Source\PSoC4/RS232UART.c **** 
 250:Generated_Source\PSoC4/RS232UART.c ****     #if (RS232UART_TX_ENABLED)
 251:Generated_Source\PSoC4/RS232UART.c ****         #if(!RS232UART_TXCLKGEN_DP)
 252:Generated_Source\PSoC4/RS232UART.c ****             RS232UART_TXBITCTR_CONTROL_REG &= (uint8) ~RS232UART_CNTR_ENABLE;
 253:Generated_Source\PSoC4/RS232UART.c ****         #endif /* (!RS232UART_TXCLKGEN_DP) */
 254:Generated_Source\PSoC4/RS232UART.c ****     #endif /* (RS232UART_TX_ENABLED) */
 255:Generated_Source\PSoC4/RS232UART.c **** 
 256:Generated_Source\PSoC4/RS232UART.c ****     #if (RS232UART_INTERNAL_CLOCK_USED)
 257:Generated_Source\PSoC4/RS232UART.c ****         RS232UART_IntClock_Stop();   /* Disable the clock */
 279              		.loc 1 257 0
 280 0020 FFF7FEFF 		bl	RS232UART_IntClock_Stop
 258:Generated_Source\PSoC4/RS232UART.c ****     #endif /* (RS232UART_INTERNAL_CLOCK_USED) */
 259:Generated_Source\PSoC4/RS232UART.c **** 
 260:Generated_Source\PSoC4/RS232UART.c ****     /* Disable internal interrupt component */
 261:Generated_Source\PSoC4/RS232UART.c ****     #if (RS232UART_RX_ENABLED || RS232UART_HD_ENABLED)
 262:Generated_Source\PSoC4/RS232UART.c ****         RS232UART_RXSTATUS_ACTL_REG  &= (uint8) ~RS232UART_INT_ENABLE;
 281              		.loc 1 262 0
 282 0024 0E4A     		ldr	r2, .L12+4
 283 0026 0E4B     		ldr	r3, .L12+4
 284 0028 1B78     		ldrb	r3, [r3]
 285 002a DBB2     		uxtb	r3, r3
 286 002c 1021     		movs	r1, #16
 287 002e 8B43     		bics	r3, r1
 288 0030 DBB2     		uxtb	r3, r3
 289 0032 1370     		strb	r3, [r2]
 263:Generated_Source\PSoC4/RS232UART.c **** 
 264:Generated_Source\PSoC4/RS232UART.c ****         #if (RS232UART_RX_INTERRUPT_ENABLED)
 265:Generated_Source\PSoC4/RS232UART.c ****             RS232UART_DisableRxInt();
 290              		.loc 1 265 0
 291 0034 0120     		movs	r0, #1
 292 0036 FFF7FEFF 		bl	CyIntDisable
 266:Generated_Source\PSoC4/RS232UART.c ****         #endif /* (RS232UART_RX_INTERRUPT_ENABLED) */
 267:Generated_Source\PSoC4/RS232UART.c ****     #endif /* (RS232UART_RX_ENABLED || RS232UART_HD_ENABLED) */
 268:Generated_Source\PSoC4/RS232UART.c **** 
 269:Generated_Source\PSoC4/RS232UART.c ****     #if (RS232UART_TX_ENABLED)
 270:Generated_Source\PSoC4/RS232UART.c ****         RS232UART_TXSTATUS_ACTL_REG &= (uint8) ~RS232UART_INT_ENABLE;
 293              		.loc 1 270 0
 294 003a 0A4A     		ldr	r2, .L12+8
 295 003c 094B     		ldr	r3, .L12+8
 296 003e 1B78     		ldrb	r3, [r3]
 297 0040 DBB2     		uxtb	r3, r3
 298 0042 1021     		movs	r1, #16
 299 0044 8B43     		bics	r3, r1
 300 0046 DBB2     		uxtb	r3, r3
ARM GAS  C:\Users\alexport\AppData\Local\Temp\ccDJmAqX.s 			page 11


 301 0048 1370     		strb	r3, [r2]
 271:Generated_Source\PSoC4/RS232UART.c **** 
 272:Generated_Source\PSoC4/RS232UART.c ****         #if (RS232UART_TX_INTERRUPT_ENABLED)
 273:Generated_Source\PSoC4/RS232UART.c ****             RS232UART_DisableTxInt();
 274:Generated_Source\PSoC4/RS232UART.c ****         #endif /* (RS232UART_TX_INTERRUPT_ENABLED) */
 275:Generated_Source\PSoC4/RS232UART.c ****     #endif /* (RS232UART_TX_ENABLED) */
 276:Generated_Source\PSoC4/RS232UART.c **** 
 277:Generated_Source\PSoC4/RS232UART.c ****     CyExitCriticalSection(enableInterrupts);
 302              		.loc 1 277 0
 303 004a FB1D     		adds	r3, r7, #7
 304 004c 1B78     		ldrb	r3, [r3]
 305 004e 1800     		movs	r0, r3
 306 0050 FFF7FEFF 		bl	CyExitCriticalSection
 278:Generated_Source\PSoC4/RS232UART.c **** }
 307              		.loc 1 278 0
 308 0054 C046     		nop
 309 0056 BD46     		mov	sp, r7
 310 0058 03B0     		add	sp, sp, #12
 311              		@ sp needed
 312 005a 90BD     		pop	{r4, r7, pc}
 313              	.L13:
 314              		.align	2
 315              	.L12:
 316 005c 93000F40 		.word	1074725011
 317 0060 92000F40 		.word	1074725010
 318 0064 90000F40 		.word	1074725008
 319              		.cfi_endproc
 320              	.LFE5:
 321              		.size	RS232UART_Stop, .-RS232UART_Stop
 322              		.section	.text.RS232UART_ReadControlRegister,"ax",%progbits
 323              		.align	2
 324              		.global	RS232UART_ReadControlRegister
 325              		.code	16
 326              		.thumb_func
 327              		.type	RS232UART_ReadControlRegister, %function
 328              	RS232UART_ReadControlRegister:
 329              	.LFB6:
 279:Generated_Source\PSoC4/RS232UART.c **** 
 280:Generated_Source\PSoC4/RS232UART.c **** 
 281:Generated_Source\PSoC4/RS232UART.c **** /*******************************************************************************
 282:Generated_Source\PSoC4/RS232UART.c **** * Function Name: RS232UART_ReadControlRegister
 283:Generated_Source\PSoC4/RS232UART.c **** ********************************************************************************
 284:Generated_Source\PSoC4/RS232UART.c **** *
 285:Generated_Source\PSoC4/RS232UART.c **** * Summary:
 286:Generated_Source\PSoC4/RS232UART.c **** *  Returns the current value of the control register.
 287:Generated_Source\PSoC4/RS232UART.c **** *
 288:Generated_Source\PSoC4/RS232UART.c **** * Parameters:
 289:Generated_Source\PSoC4/RS232UART.c **** *  None.
 290:Generated_Source\PSoC4/RS232UART.c **** *
 291:Generated_Source\PSoC4/RS232UART.c **** * Return:
 292:Generated_Source\PSoC4/RS232UART.c **** *  Contents of the control register.
 293:Generated_Source\PSoC4/RS232UART.c **** *
 294:Generated_Source\PSoC4/RS232UART.c **** *******************************************************************************/
 295:Generated_Source\PSoC4/RS232UART.c **** uint8 RS232UART_ReadControlRegister(void) 
 296:Generated_Source\PSoC4/RS232UART.c **** {
 330              		.loc 1 296 0
 331              		.cfi_startproc
ARM GAS  C:\Users\alexport\AppData\Local\Temp\ccDJmAqX.s 			page 12


 332              		@ args = 0, pretend = 0, frame = 0
 333              		@ frame_needed = 1, uses_anonymous_args = 0
 334 0000 80B5     		push	{r7, lr}
 335              		.cfi_def_cfa_offset 8
 336              		.cfi_offset 7, -8
 337              		.cfi_offset 14, -4
 338 0002 00AF     		add	r7, sp, #0
 339              		.cfi_def_cfa_register 7
 297:Generated_Source\PSoC4/RS232UART.c ****     #if (RS232UART_CONTROL_REG_REMOVED)
 298:Generated_Source\PSoC4/RS232UART.c ****         return(0u);
 340              		.loc 1 298 0
 341 0004 0023     		movs	r3, #0
 299:Generated_Source\PSoC4/RS232UART.c ****     #else
 300:Generated_Source\PSoC4/RS232UART.c ****         return(RS232UART_CONTROL_REG);
 301:Generated_Source\PSoC4/RS232UART.c ****     #endif /* (RS232UART_CONTROL_REG_REMOVED) */
 302:Generated_Source\PSoC4/RS232UART.c **** }
 342              		.loc 1 302 0
 343 0006 1800     		movs	r0, r3
 344 0008 BD46     		mov	sp, r7
 345              		@ sp needed
 346 000a 80BD     		pop	{r7, pc}
 347              		.cfi_endproc
 348              	.LFE6:
 349              		.size	RS232UART_ReadControlRegister, .-RS232UART_ReadControlRegister
 350              		.section	.text.RS232UART_WriteControlRegister,"ax",%progbits
 351              		.align	2
 352              		.global	RS232UART_WriteControlRegister
 353              		.code	16
 354              		.thumb_func
 355              		.type	RS232UART_WriteControlRegister, %function
 356              	RS232UART_WriteControlRegister:
 357              	.LFB7:
 303:Generated_Source\PSoC4/RS232UART.c **** 
 304:Generated_Source\PSoC4/RS232UART.c **** 
 305:Generated_Source\PSoC4/RS232UART.c **** /*******************************************************************************
 306:Generated_Source\PSoC4/RS232UART.c **** * Function Name: RS232UART_WriteControlRegister
 307:Generated_Source\PSoC4/RS232UART.c **** ********************************************************************************
 308:Generated_Source\PSoC4/RS232UART.c **** *
 309:Generated_Source\PSoC4/RS232UART.c **** * Summary:
 310:Generated_Source\PSoC4/RS232UART.c **** *  Writes an 8-bit value into the control register
 311:Generated_Source\PSoC4/RS232UART.c **** *
 312:Generated_Source\PSoC4/RS232UART.c **** * Parameters:
 313:Generated_Source\PSoC4/RS232UART.c **** *  control:  control register value
 314:Generated_Source\PSoC4/RS232UART.c **** *
 315:Generated_Source\PSoC4/RS232UART.c **** * Return:
 316:Generated_Source\PSoC4/RS232UART.c **** *  None.
 317:Generated_Source\PSoC4/RS232UART.c **** *
 318:Generated_Source\PSoC4/RS232UART.c **** *******************************************************************************/
 319:Generated_Source\PSoC4/RS232UART.c **** void  RS232UART_WriteControlRegister(uint8 control) 
 320:Generated_Source\PSoC4/RS232UART.c **** {
 358              		.loc 1 320 0
 359              		.cfi_startproc
 360              		@ args = 0, pretend = 0, frame = 8
 361              		@ frame_needed = 1, uses_anonymous_args = 0
 362 0000 80B5     		push	{r7, lr}
 363              		.cfi_def_cfa_offset 8
 364              		.cfi_offset 7, -8
ARM GAS  C:\Users\alexport\AppData\Local\Temp\ccDJmAqX.s 			page 13


 365              		.cfi_offset 14, -4
 366 0002 82B0     		sub	sp, sp, #8
 367              		.cfi_def_cfa_offset 16
 368 0004 00AF     		add	r7, sp, #0
 369              		.cfi_def_cfa_register 7
 370 0006 0200     		movs	r2, r0
 371 0008 FB1D     		adds	r3, r7, #7
 372 000a 1A70     		strb	r2, [r3]
 321:Generated_Source\PSoC4/RS232UART.c ****     #if (RS232UART_CONTROL_REG_REMOVED)
 322:Generated_Source\PSoC4/RS232UART.c ****         if(0u != control)
 323:Generated_Source\PSoC4/RS232UART.c ****         {
 324:Generated_Source\PSoC4/RS232UART.c ****             /* Suppress compiler warning */
 325:Generated_Source\PSoC4/RS232UART.c ****         }
 326:Generated_Source\PSoC4/RS232UART.c ****     #else
 327:Generated_Source\PSoC4/RS232UART.c ****        RS232UART_CONTROL_REG = control;
 328:Generated_Source\PSoC4/RS232UART.c ****     #endif /* (RS232UART_CONTROL_REG_REMOVED) */
 329:Generated_Source\PSoC4/RS232UART.c **** }
 373              		.loc 1 329 0
 374 000c C046     		nop
 375 000e BD46     		mov	sp, r7
 376 0010 02B0     		add	sp, sp, #8
 377              		@ sp needed
 378 0012 80BD     		pop	{r7, pc}
 379              		.cfi_endproc
 380              	.LFE7:
 381              		.size	RS232UART_WriteControlRegister, .-RS232UART_WriteControlRegister
 382              		.section	.text.RS232UART_SetRxInterruptMode,"ax",%progbits
 383              		.align	2
 384              		.global	RS232UART_SetRxInterruptMode
 385              		.code	16
 386              		.thumb_func
 387              		.type	RS232UART_SetRxInterruptMode, %function
 388              	RS232UART_SetRxInterruptMode:
 389              	.LFB8:
 330:Generated_Source\PSoC4/RS232UART.c **** 
 331:Generated_Source\PSoC4/RS232UART.c **** 
 332:Generated_Source\PSoC4/RS232UART.c **** #if(RS232UART_RX_ENABLED || RS232UART_HD_ENABLED)
 333:Generated_Source\PSoC4/RS232UART.c ****     /*******************************************************************************
 334:Generated_Source\PSoC4/RS232UART.c ****     * Function Name: RS232UART_SetRxInterruptMode
 335:Generated_Source\PSoC4/RS232UART.c ****     ********************************************************************************
 336:Generated_Source\PSoC4/RS232UART.c ****     *
 337:Generated_Source\PSoC4/RS232UART.c ****     * Summary:
 338:Generated_Source\PSoC4/RS232UART.c ****     *  Configures the RX interrupt sources enabled.
 339:Generated_Source\PSoC4/RS232UART.c ****     *
 340:Generated_Source\PSoC4/RS232UART.c ****     * Parameters:
 341:Generated_Source\PSoC4/RS232UART.c ****     *  IntSrc:  Bit field containing the RX interrupts to enable. Based on the 
 342:Generated_Source\PSoC4/RS232UART.c ****     *  bit-field arrangement of the status register. This value must be a 
 343:Generated_Source\PSoC4/RS232UART.c ****     *  combination of status register bit-masks shown below:
 344:Generated_Source\PSoC4/RS232UART.c ****     *      RS232UART_RX_STS_FIFO_NOTEMPTY    Interrupt on byte received.
 345:Generated_Source\PSoC4/RS232UART.c ****     *      RS232UART_RX_STS_PAR_ERROR        Interrupt on parity error.
 346:Generated_Source\PSoC4/RS232UART.c ****     *      RS232UART_RX_STS_STOP_ERROR       Interrupt on stop error.
 347:Generated_Source\PSoC4/RS232UART.c ****     *      RS232UART_RX_STS_BREAK            Interrupt on break.
 348:Generated_Source\PSoC4/RS232UART.c ****     *      RS232UART_RX_STS_OVERRUN          Interrupt on overrun error.
 349:Generated_Source\PSoC4/RS232UART.c ****     *      RS232UART_RX_STS_ADDR_MATCH       Interrupt on address match.
 350:Generated_Source\PSoC4/RS232UART.c ****     *      RS232UART_RX_STS_MRKSPC           Interrupt on address detect.
 351:Generated_Source\PSoC4/RS232UART.c ****     *
 352:Generated_Source\PSoC4/RS232UART.c ****     * Return:
ARM GAS  C:\Users\alexport\AppData\Local\Temp\ccDJmAqX.s 			page 14


 353:Generated_Source\PSoC4/RS232UART.c ****     *  None.
 354:Generated_Source\PSoC4/RS232UART.c ****     *
 355:Generated_Source\PSoC4/RS232UART.c ****     * Theory:
 356:Generated_Source\PSoC4/RS232UART.c ****     *  Enables the output of specific status bits to the interrupt controller
 357:Generated_Source\PSoC4/RS232UART.c ****     *
 358:Generated_Source\PSoC4/RS232UART.c ****     *******************************************************************************/
 359:Generated_Source\PSoC4/RS232UART.c ****     void RS232UART_SetRxInterruptMode(uint8 intSrc) 
 360:Generated_Source\PSoC4/RS232UART.c ****     {
 390              		.loc 1 360 0
 391              		.cfi_startproc
 392              		@ args = 0, pretend = 0, frame = 8
 393              		@ frame_needed = 1, uses_anonymous_args = 0
 394 0000 80B5     		push	{r7, lr}
 395              		.cfi_def_cfa_offset 8
 396              		.cfi_offset 7, -8
 397              		.cfi_offset 14, -4
 398 0002 82B0     		sub	sp, sp, #8
 399              		.cfi_def_cfa_offset 16
 400 0004 00AF     		add	r7, sp, #0
 401              		.cfi_def_cfa_register 7
 402 0006 0200     		movs	r2, r0
 403 0008 FB1D     		adds	r3, r7, #7
 404 000a 1A70     		strb	r2, [r3]
 361:Generated_Source\PSoC4/RS232UART.c ****         RS232UART_RXSTATUS_MASK_REG  = intSrc;
 405              		.loc 1 361 0
 406 000c 034A     		ldr	r2, .L18
 407 000e FB1D     		adds	r3, r7, #7
 408 0010 1B78     		ldrb	r3, [r3]
 409 0012 1370     		strb	r3, [r2]
 362:Generated_Source\PSoC4/RS232UART.c ****     }
 410              		.loc 1 362 0
 411 0014 C046     		nop
 412 0016 BD46     		mov	sp, r7
 413 0018 02B0     		add	sp, sp, #8
 414              		@ sp needed
 415 001a 80BD     		pop	{r7, pc}
 416              	.L19:
 417              		.align	2
 418              	.L18:
 419 001c 82000F40 		.word	1074724994
 420              		.cfi_endproc
 421              	.LFE8:
 422              		.size	RS232UART_SetRxInterruptMode, .-RS232UART_SetRxInterruptMode
 423              		.section	.text.RS232UART_ReadRxData,"ax",%progbits
 424              		.align	2
 425              		.global	RS232UART_ReadRxData
 426              		.code	16
 427              		.thumb_func
 428              		.type	RS232UART_ReadRxData, %function
 429              	RS232UART_ReadRxData:
 430              	.LFB9:
 363:Generated_Source\PSoC4/RS232UART.c **** 
 364:Generated_Source\PSoC4/RS232UART.c **** 
 365:Generated_Source\PSoC4/RS232UART.c ****     /*******************************************************************************
 366:Generated_Source\PSoC4/RS232UART.c ****     * Function Name: RS232UART_ReadRxData
 367:Generated_Source\PSoC4/RS232UART.c ****     ********************************************************************************
 368:Generated_Source\PSoC4/RS232UART.c ****     *
ARM GAS  C:\Users\alexport\AppData\Local\Temp\ccDJmAqX.s 			page 15


 369:Generated_Source\PSoC4/RS232UART.c ****     * Summary:
 370:Generated_Source\PSoC4/RS232UART.c ****     *  Returns the next byte of received data. This function returns data without
 371:Generated_Source\PSoC4/RS232UART.c ****     *  checking the status. You must check the status separately.
 372:Generated_Source\PSoC4/RS232UART.c ****     *
 373:Generated_Source\PSoC4/RS232UART.c ****     * Parameters:
 374:Generated_Source\PSoC4/RS232UART.c ****     *  None.
 375:Generated_Source\PSoC4/RS232UART.c ****     *
 376:Generated_Source\PSoC4/RS232UART.c ****     * Return:
 377:Generated_Source\PSoC4/RS232UART.c ****     *  Received data from RX register
 378:Generated_Source\PSoC4/RS232UART.c ****     *
 379:Generated_Source\PSoC4/RS232UART.c ****     * Global Variables:
 380:Generated_Source\PSoC4/RS232UART.c ****     *  RS232UART_rxBuffer - RAM buffer pointer for save received data.
 381:Generated_Source\PSoC4/RS232UART.c ****     *  RS232UART_rxBufferWrite - cyclic index for write to rxBuffer,
 382:Generated_Source\PSoC4/RS232UART.c ****     *     checked to identify new data.
 383:Generated_Source\PSoC4/RS232UART.c ****     *  RS232UART_rxBufferRead - cyclic index for read from rxBuffer,
 384:Generated_Source\PSoC4/RS232UART.c ****     *     incremented after each byte has been read from buffer.
 385:Generated_Source\PSoC4/RS232UART.c ****     *  RS232UART_rxBufferLoopDetect - cleared if loop condition was detected
 386:Generated_Source\PSoC4/RS232UART.c ****     *     in RX ISR.
 387:Generated_Source\PSoC4/RS232UART.c ****     *
 388:Generated_Source\PSoC4/RS232UART.c ****     * Reentrant:
 389:Generated_Source\PSoC4/RS232UART.c ****     *  No.
 390:Generated_Source\PSoC4/RS232UART.c ****     *
 391:Generated_Source\PSoC4/RS232UART.c ****     *******************************************************************************/
 392:Generated_Source\PSoC4/RS232UART.c ****     uint8 RS232UART_ReadRxData(void) 
 393:Generated_Source\PSoC4/RS232UART.c ****     {
 431              		.loc 1 393 0
 432              		.cfi_startproc
 433              		@ args = 0, pretend = 0, frame = 8
 434              		@ frame_needed = 1, uses_anonymous_args = 0
 435 0000 80B5     		push	{r7, lr}
 436              		.cfi_def_cfa_offset 8
 437              		.cfi_offset 7, -8
 438              		.cfi_offset 14, -4
 439 0002 82B0     		sub	sp, sp, #8
 440              		.cfi_def_cfa_offset 16
 441 0004 00AF     		add	r7, sp, #0
 442              		.cfi_def_cfa_register 7
 394:Generated_Source\PSoC4/RS232UART.c ****         uint8 rxData;
 395:Generated_Source\PSoC4/RS232UART.c **** 
 396:Generated_Source\PSoC4/RS232UART.c ****     #if (RS232UART_RX_INTERRUPT_ENABLED)
 397:Generated_Source\PSoC4/RS232UART.c **** 
 398:Generated_Source\PSoC4/RS232UART.c ****         uint8 locRxBufferRead;
 399:Generated_Source\PSoC4/RS232UART.c ****         uint8 locRxBufferWrite;
 400:Generated_Source\PSoC4/RS232UART.c **** 
 401:Generated_Source\PSoC4/RS232UART.c ****         /* Protect variables that could change on interrupt */
 402:Generated_Source\PSoC4/RS232UART.c ****         RS232UART_DisableRxInt();
 443              		.loc 1 402 0
 444 0006 0120     		movs	r0, #1
 445 0008 FFF7FEFF 		bl	CyIntDisable
 403:Generated_Source\PSoC4/RS232UART.c **** 
 404:Generated_Source\PSoC4/RS232UART.c ****         locRxBufferRead  = RS232UART_rxBufferRead;
 446              		.loc 1 404 0
 447 000c BB1D     		adds	r3, r7, #6
 448 000e 1F4A     		ldr	r2, .L27
 449 0010 1278     		ldrb	r2, [r2]
 450 0012 1A70     		strb	r2, [r3]
 405:Generated_Source\PSoC4/RS232UART.c ****         locRxBufferWrite = RS232UART_rxBufferWrite;
ARM GAS  C:\Users\alexport\AppData\Local\Temp\ccDJmAqX.s 			page 16


 451              		.loc 1 405 0
 452 0014 7B1D     		adds	r3, r7, #5
 453 0016 1E4A     		ldr	r2, .L27+4
 454 0018 1278     		ldrb	r2, [r2]
 455 001a 1A70     		strb	r2, [r3]
 406:Generated_Source\PSoC4/RS232UART.c **** 
 407:Generated_Source\PSoC4/RS232UART.c ****         if( (RS232UART_rxBufferLoopDetect != 0u) || (locRxBufferRead != locRxBufferWrite) )
 456              		.loc 1 407 0
 457 001c 1D4B     		ldr	r3, .L27+8
 458 001e 1B78     		ldrb	r3, [r3]
 459 0020 DBB2     		uxtb	r3, r3
 460 0022 002B     		cmp	r3, #0
 461 0024 05D1     		bne	.L21
 462              		.loc 1 407 0 is_stmt 0 discriminator 1
 463 0026 BA1D     		adds	r2, r7, #6
 464 0028 7B1D     		adds	r3, r7, #5
 465 002a 1278     		ldrb	r2, [r2]
 466 002c 1B78     		ldrb	r3, [r3]
 467 002e 9A42     		cmp	r2, r3
 468 0030 1ED0     		beq	.L22
 469              	.L21:
 408:Generated_Source\PSoC4/RS232UART.c ****         {
 409:Generated_Source\PSoC4/RS232UART.c ****             rxData = RS232UART_rxBuffer[locRxBufferRead];
 470              		.loc 1 409 0 is_stmt 1
 471 0032 BB1D     		adds	r3, r7, #6
 472 0034 1A78     		ldrb	r2, [r3]
 473 0036 FB1D     		adds	r3, r7, #7
 474 0038 1749     		ldr	r1, .L27+12
 475 003a 8A5C     		ldrb	r2, [r1, r2]
 476 003c 1A70     		strb	r2, [r3]
 410:Generated_Source\PSoC4/RS232UART.c ****             locRxBufferRead++;
 477              		.loc 1 410 0
 478 003e BB1D     		adds	r3, r7, #6
 479 0040 1A78     		ldrb	r2, [r3]
 480 0042 BB1D     		adds	r3, r7, #6
 481 0044 0132     		adds	r2, r2, #1
 482 0046 1A70     		strb	r2, [r3]
 411:Generated_Source\PSoC4/RS232UART.c **** 
 412:Generated_Source\PSoC4/RS232UART.c ****             if(locRxBufferRead >= RS232UART_RX_BUFFER_SIZE)
 483              		.loc 1 412 0
 484 0048 BB1D     		adds	r3, r7, #6
 485 004a 1B78     		ldrb	r3, [r3]
 486 004c 072B     		cmp	r3, #7
 487 004e 02D9     		bls	.L23
 413:Generated_Source\PSoC4/RS232UART.c ****             {
 414:Generated_Source\PSoC4/RS232UART.c ****                 locRxBufferRead = 0u;
 488              		.loc 1 414 0
 489 0050 BB1D     		adds	r3, r7, #6
 490 0052 0022     		movs	r2, #0
 491 0054 1A70     		strb	r2, [r3]
 492              	.L23:
 415:Generated_Source\PSoC4/RS232UART.c ****             }
 416:Generated_Source\PSoC4/RS232UART.c ****             /* Update the real pointer */
 417:Generated_Source\PSoC4/RS232UART.c ****             RS232UART_rxBufferRead = locRxBufferRead;
 493              		.loc 1 417 0
 494 0056 0D4B     		ldr	r3, .L27
 495 0058 BA1D     		adds	r2, r7, #6
ARM GAS  C:\Users\alexport\AppData\Local\Temp\ccDJmAqX.s 			page 17


 496 005a 1278     		ldrb	r2, [r2]
 497 005c 1A70     		strb	r2, [r3]
 418:Generated_Source\PSoC4/RS232UART.c **** 
 419:Generated_Source\PSoC4/RS232UART.c ****             if(RS232UART_rxBufferLoopDetect != 0u)
 498              		.loc 1 419 0
 499 005e 0D4B     		ldr	r3, .L27+8
 500 0060 1B78     		ldrb	r3, [r3]
 501 0062 DBB2     		uxtb	r3, r3
 502 0064 002B     		cmp	r3, #0
 503 0066 07D0     		beq	.L25
 420:Generated_Source\PSoC4/RS232UART.c ****             {
 421:Generated_Source\PSoC4/RS232UART.c ****                 RS232UART_rxBufferLoopDetect = 0u;
 504              		.loc 1 421 0
 505 0068 0A4B     		ldr	r3, .L27+8
 506 006a 0022     		movs	r2, #0
 507 006c 1A70     		strb	r2, [r3]
 419:Generated_Source\PSoC4/RS232UART.c ****             {
 508              		.loc 1 419 0
 509 006e 03E0     		b	.L25
 510              	.L22:
 422:Generated_Source\PSoC4/RS232UART.c ****                 #if ((RS232UART_RX_INTERRUPT_ENABLED) && (RS232UART_FLOW_CONTROL != 0u))
 423:Generated_Source\PSoC4/RS232UART.c ****                     /* When Hardware Flow Control selected - return RX mask */
 424:Generated_Source\PSoC4/RS232UART.c ****                     #if( RS232UART_HD_ENABLED )
 425:Generated_Source\PSoC4/RS232UART.c ****                         if((RS232UART_CONTROL_REG & RS232UART_CTRL_HD_SEND) == 0u)
 426:Generated_Source\PSoC4/RS232UART.c ****                         {   /* In Half duplex mode return RX mask only in RX
 427:Generated_Source\PSoC4/RS232UART.c ****                             *  configuration set, otherwise
 428:Generated_Source\PSoC4/RS232UART.c ****                             *  mask will be returned in LoadRxConfig() API.
 429:Generated_Source\PSoC4/RS232UART.c ****                             */
 430:Generated_Source\PSoC4/RS232UART.c ****                             RS232UART_RXSTATUS_MASK_REG  |= RS232UART_RX_STS_FIFO_NOTEMPTY;
 431:Generated_Source\PSoC4/RS232UART.c ****                         }
 432:Generated_Source\PSoC4/RS232UART.c ****                     #else
 433:Generated_Source\PSoC4/RS232UART.c ****                         RS232UART_RXSTATUS_MASK_REG  |= RS232UART_RX_STS_FIFO_NOTEMPTY;
 434:Generated_Source\PSoC4/RS232UART.c ****                     #endif /* end RS232UART_HD_ENABLED */
 435:Generated_Source\PSoC4/RS232UART.c ****                 #endif /* ((RS232UART_RX_INTERRUPT_ENABLED) && (RS232UART_FLOW_CONTROL != 0u)) */
 436:Generated_Source\PSoC4/RS232UART.c ****             }
 437:Generated_Source\PSoC4/RS232UART.c ****         }
 438:Generated_Source\PSoC4/RS232UART.c ****         else
 439:Generated_Source\PSoC4/RS232UART.c ****         {   /* Needs to check status for RX_STS_FIFO_NOTEMPTY bit */
 440:Generated_Source\PSoC4/RS232UART.c ****             rxData = RS232UART_RXDATA_REG;
 511              		.loc 1 440 0
 512 0070 0A4A     		ldr	r2, .L27+16
 513 0072 FB1D     		adds	r3, r7, #7
 514 0074 1278     		ldrb	r2, [r2]
 515 0076 1A70     		strb	r2, [r3]
 516              	.L25:
 441:Generated_Source\PSoC4/RS232UART.c ****         }
 442:Generated_Source\PSoC4/RS232UART.c **** 
 443:Generated_Source\PSoC4/RS232UART.c ****         RS232UART_EnableRxInt();
 517              		.loc 1 443 0
 518 0078 0120     		movs	r0, #1
 519 007a FFF7FEFF 		bl	CyIntEnable
 444:Generated_Source\PSoC4/RS232UART.c **** 
 445:Generated_Source\PSoC4/RS232UART.c ****     #else
 446:Generated_Source\PSoC4/RS232UART.c **** 
 447:Generated_Source\PSoC4/RS232UART.c ****         /* Needs to check status for RX_STS_FIFO_NOTEMPTY bit */
 448:Generated_Source\PSoC4/RS232UART.c ****         rxData = RS232UART_RXDATA_REG;
 449:Generated_Source\PSoC4/RS232UART.c **** 
ARM GAS  C:\Users\alexport\AppData\Local\Temp\ccDJmAqX.s 			page 18


 450:Generated_Source\PSoC4/RS232UART.c ****     #endif /* (RS232UART_RX_INTERRUPT_ENABLED) */
 451:Generated_Source\PSoC4/RS232UART.c **** 
 452:Generated_Source\PSoC4/RS232UART.c ****         return(rxData);
 520              		.loc 1 452 0
 521 007e FB1D     		adds	r3, r7, #7
 522 0080 1B78     		ldrb	r3, [r3]
 453:Generated_Source\PSoC4/RS232UART.c ****     }
 523              		.loc 1 453 0
 524 0082 1800     		movs	r0, r3
 525 0084 BD46     		mov	sp, r7
 526 0086 02B0     		add	sp, sp, #8
 527              		@ sp needed
 528 0088 80BD     		pop	{r7, pc}
 529              	.L28:
 530 008a C046     		.align	2
 531              	.L27:
 532 008c 00000000 		.word	RS232UART_rxBufferRead
 533 0090 00000000 		.word	RS232UART_rxBufferWrite
 534 0094 00000000 		.word	RS232UART_rxBufferLoopDetect
 535 0098 00000000 		.word	RS232UART_rxBuffer
 536 009c 43000F40 		.word	1074724931
 537              		.cfi_endproc
 538              	.LFE9:
 539              		.size	RS232UART_ReadRxData, .-RS232UART_ReadRxData
 540              		.section	.text.RS232UART_ReadRxStatus,"ax",%progbits
 541              		.align	2
 542              		.global	RS232UART_ReadRxStatus
 543              		.code	16
 544              		.thumb_func
 545              		.type	RS232UART_ReadRxStatus, %function
 546              	RS232UART_ReadRxStatus:
 547              	.LFB10:
 454:Generated_Source\PSoC4/RS232UART.c **** 
 455:Generated_Source\PSoC4/RS232UART.c **** 
 456:Generated_Source\PSoC4/RS232UART.c ****     /*******************************************************************************
 457:Generated_Source\PSoC4/RS232UART.c ****     * Function Name: RS232UART_ReadRxStatus
 458:Generated_Source\PSoC4/RS232UART.c ****     ********************************************************************************
 459:Generated_Source\PSoC4/RS232UART.c ****     *
 460:Generated_Source\PSoC4/RS232UART.c ****     * Summary:
 461:Generated_Source\PSoC4/RS232UART.c ****     *  Returns the current state of the receiver status register and the software
 462:Generated_Source\PSoC4/RS232UART.c ****     *  buffer overflow status.
 463:Generated_Source\PSoC4/RS232UART.c ****     *
 464:Generated_Source\PSoC4/RS232UART.c ****     * Parameters:
 465:Generated_Source\PSoC4/RS232UART.c ****     *  None.
 466:Generated_Source\PSoC4/RS232UART.c ****     *
 467:Generated_Source\PSoC4/RS232UART.c ****     * Return:
 468:Generated_Source\PSoC4/RS232UART.c ****     *  Current state of the status register.
 469:Generated_Source\PSoC4/RS232UART.c ****     *
 470:Generated_Source\PSoC4/RS232UART.c ****     * Side Effect:
 471:Generated_Source\PSoC4/RS232UART.c ****     *  All status register bits are clear-on-read except
 472:Generated_Source\PSoC4/RS232UART.c ****     *  RS232UART_RX_STS_FIFO_NOTEMPTY.
 473:Generated_Source\PSoC4/RS232UART.c ****     *  RS232UART_RX_STS_FIFO_NOTEMPTY clears immediately after RX data
 474:Generated_Source\PSoC4/RS232UART.c ****     *  register read.
 475:Generated_Source\PSoC4/RS232UART.c ****     *
 476:Generated_Source\PSoC4/RS232UART.c ****     * Global Variables:
 477:Generated_Source\PSoC4/RS232UART.c ****     *  RS232UART_rxBufferOverflow - used to indicate overload condition.
 478:Generated_Source\PSoC4/RS232UART.c ****     *   It set to one in RX interrupt when there isn't free space in
ARM GAS  C:\Users\alexport\AppData\Local\Temp\ccDJmAqX.s 			page 19


 479:Generated_Source\PSoC4/RS232UART.c ****     *   RS232UART_rxBufferRead to write new data. This condition returned
 480:Generated_Source\PSoC4/RS232UART.c ****     *   and cleared to zero by this API as an
 481:Generated_Source\PSoC4/RS232UART.c ****     *   RS232UART_RX_STS_SOFT_BUFF_OVER bit along with RX Status register
 482:Generated_Source\PSoC4/RS232UART.c ****     *   bits.
 483:Generated_Source\PSoC4/RS232UART.c ****     *
 484:Generated_Source\PSoC4/RS232UART.c ****     *******************************************************************************/
 485:Generated_Source\PSoC4/RS232UART.c ****     uint8 RS232UART_ReadRxStatus(void) 
 486:Generated_Source\PSoC4/RS232UART.c ****     {
 548              		.loc 1 486 0
 549              		.cfi_startproc
 550              		@ args = 0, pretend = 0, frame = 8
 551              		@ frame_needed = 1, uses_anonymous_args = 0
 552 0000 80B5     		push	{r7, lr}
 553              		.cfi_def_cfa_offset 8
 554              		.cfi_offset 7, -8
 555              		.cfi_offset 14, -4
 556 0002 82B0     		sub	sp, sp, #8
 557              		.cfi_def_cfa_offset 16
 558 0004 00AF     		add	r7, sp, #0
 559              		.cfi_def_cfa_register 7
 487:Generated_Source\PSoC4/RS232UART.c ****         uint8 status;
 488:Generated_Source\PSoC4/RS232UART.c **** 
 489:Generated_Source\PSoC4/RS232UART.c ****         status = RS232UART_RXSTATUS_REG & RS232UART_RX_HW_MASK;
 560              		.loc 1 489 0
 561 0006 0E4B     		ldr	r3, .L32
 562 0008 1B78     		ldrb	r3, [r3]
 563 000a DAB2     		uxtb	r2, r3
 564 000c FB1D     		adds	r3, r7, #7
 565 000e 7F21     		movs	r1, #127
 566 0010 0A40     		ands	r2, r1
 567 0012 1A70     		strb	r2, [r3]
 490:Generated_Source\PSoC4/RS232UART.c **** 
 491:Generated_Source\PSoC4/RS232UART.c ****     #if (RS232UART_RX_INTERRUPT_ENABLED)
 492:Generated_Source\PSoC4/RS232UART.c ****         if(RS232UART_rxBufferOverflow != 0u)
 568              		.loc 1 492 0
 569 0014 0B4B     		ldr	r3, .L32+4
 570 0016 1B78     		ldrb	r3, [r3]
 571 0018 DBB2     		uxtb	r3, r3
 572 001a 002B     		cmp	r3, #0
 573 001c 09D0     		beq	.L30
 493:Generated_Source\PSoC4/RS232UART.c ****         {
 494:Generated_Source\PSoC4/RS232UART.c ****             status |= RS232UART_RX_STS_SOFT_BUFF_OVER;
 574              		.loc 1 494 0
 575 001e FB1D     		adds	r3, r7, #7
 576 0020 FA1D     		adds	r2, r7, #7
 577 0022 1278     		ldrb	r2, [r2]
 578 0024 8021     		movs	r1, #128
 579 0026 4942     		rsbs	r1, r1, #0
 580 0028 0A43     		orrs	r2, r1
 581 002a 1A70     		strb	r2, [r3]
 495:Generated_Source\PSoC4/RS232UART.c ****             RS232UART_rxBufferOverflow = 0u;
 582              		.loc 1 495 0
 583 002c 054B     		ldr	r3, .L32+4
 584 002e 0022     		movs	r2, #0
 585 0030 1A70     		strb	r2, [r3]
 586              	.L30:
 496:Generated_Source\PSoC4/RS232UART.c ****         }
ARM GAS  C:\Users\alexport\AppData\Local\Temp\ccDJmAqX.s 			page 20


 497:Generated_Source\PSoC4/RS232UART.c ****     #endif /* (RS232UART_RX_INTERRUPT_ENABLED) */
 498:Generated_Source\PSoC4/RS232UART.c **** 
 499:Generated_Source\PSoC4/RS232UART.c ****         return(status);
 587              		.loc 1 499 0
 588 0032 FB1D     		adds	r3, r7, #7
 589 0034 1B78     		ldrb	r3, [r3]
 500:Generated_Source\PSoC4/RS232UART.c ****     }
 590              		.loc 1 500 0
 591 0036 1800     		movs	r0, r3
 592 0038 BD46     		mov	sp, r7
 593 003a 02B0     		add	sp, sp, #8
 594              		@ sp needed
 595 003c 80BD     		pop	{r7, pc}
 596              	.L33:
 597 003e C046     		.align	2
 598              	.L32:
 599 0040 62000F40 		.word	1074724962
 600 0044 00000000 		.word	RS232UART_rxBufferOverflow
 601              		.cfi_endproc
 602              	.LFE10:
 603              		.size	RS232UART_ReadRxStatus, .-RS232UART_ReadRxStatus
 604              		.section	.text.RS232UART_GetChar,"ax",%progbits
 605              		.align	2
 606              		.global	RS232UART_GetChar
 607              		.code	16
 608              		.thumb_func
 609              		.type	RS232UART_GetChar, %function
 610              	RS232UART_GetChar:
 611              	.LFB11:
 501:Generated_Source\PSoC4/RS232UART.c **** 
 502:Generated_Source\PSoC4/RS232UART.c **** 
 503:Generated_Source\PSoC4/RS232UART.c ****     /*******************************************************************************
 504:Generated_Source\PSoC4/RS232UART.c ****     * Function Name: RS232UART_GetChar
 505:Generated_Source\PSoC4/RS232UART.c ****     ********************************************************************************
 506:Generated_Source\PSoC4/RS232UART.c ****     *
 507:Generated_Source\PSoC4/RS232UART.c ****     * Summary:
 508:Generated_Source\PSoC4/RS232UART.c ****     *  Returns the last received byte of data. RS232UART_GetChar() is
 509:Generated_Source\PSoC4/RS232UART.c ****     *  designed for ASCII characters and returns a uint8 where 1 to 255 are values
 510:Generated_Source\PSoC4/RS232UART.c ****     *  for valid characters and 0 indicates an error occurred or no data is present.
 511:Generated_Source\PSoC4/RS232UART.c ****     *
 512:Generated_Source\PSoC4/RS232UART.c ****     * Parameters:
 513:Generated_Source\PSoC4/RS232UART.c ****     *  None.
 514:Generated_Source\PSoC4/RS232UART.c ****     *
 515:Generated_Source\PSoC4/RS232UART.c ****     * Return:
 516:Generated_Source\PSoC4/RS232UART.c ****     *  Character read from UART RX buffer. ASCII characters from 1 to 255 are valid.
 517:Generated_Source\PSoC4/RS232UART.c ****     *  A returned zero signifies an error condition or no data available.
 518:Generated_Source\PSoC4/RS232UART.c ****     *
 519:Generated_Source\PSoC4/RS232UART.c ****     * Global Variables:
 520:Generated_Source\PSoC4/RS232UART.c ****     *  RS232UART_rxBuffer - RAM buffer pointer for save received data.
 521:Generated_Source\PSoC4/RS232UART.c ****     *  RS232UART_rxBufferWrite - cyclic index for write to rxBuffer,
 522:Generated_Source\PSoC4/RS232UART.c ****     *     checked to identify new data.
 523:Generated_Source\PSoC4/RS232UART.c ****     *  RS232UART_rxBufferRead - cyclic index for read from rxBuffer,
 524:Generated_Source\PSoC4/RS232UART.c ****     *     incremented after each byte has been read from buffer.
 525:Generated_Source\PSoC4/RS232UART.c ****     *  RS232UART_rxBufferLoopDetect - cleared if loop condition was detected
 526:Generated_Source\PSoC4/RS232UART.c ****     *     in RX ISR.
 527:Generated_Source\PSoC4/RS232UART.c ****     *
 528:Generated_Source\PSoC4/RS232UART.c ****     * Reentrant:
ARM GAS  C:\Users\alexport\AppData\Local\Temp\ccDJmAqX.s 			page 21


 529:Generated_Source\PSoC4/RS232UART.c ****     *  No.
 530:Generated_Source\PSoC4/RS232UART.c ****     *
 531:Generated_Source\PSoC4/RS232UART.c ****     *******************************************************************************/
 532:Generated_Source\PSoC4/RS232UART.c ****     uint8 RS232UART_GetChar(void) 
 533:Generated_Source\PSoC4/RS232UART.c ****     {
 612              		.loc 1 533 0
 613              		.cfi_startproc
 614              		@ args = 0, pretend = 0, frame = 8
 615              		@ frame_needed = 1, uses_anonymous_args = 0
 616 0000 80B5     		push	{r7, lr}
 617              		.cfi_def_cfa_offset 8
 618              		.cfi_offset 7, -8
 619              		.cfi_offset 14, -4
 620 0002 82B0     		sub	sp, sp, #8
 621              		.cfi_def_cfa_offset 16
 622 0004 00AF     		add	r7, sp, #0
 623              		.cfi_def_cfa_register 7
 534:Generated_Source\PSoC4/RS232UART.c ****         uint8 rxData = 0u;
 624              		.loc 1 534 0
 625 0006 FB1D     		adds	r3, r7, #7
 626 0008 0022     		movs	r2, #0
 627 000a 1A70     		strb	r2, [r3]
 535:Generated_Source\PSoC4/RS232UART.c ****         uint8 rxStatus;
 536:Generated_Source\PSoC4/RS232UART.c **** 
 537:Generated_Source\PSoC4/RS232UART.c ****     #if (RS232UART_RX_INTERRUPT_ENABLED)
 538:Generated_Source\PSoC4/RS232UART.c ****         uint8 locRxBufferRead;
 539:Generated_Source\PSoC4/RS232UART.c ****         uint8 locRxBufferWrite;
 540:Generated_Source\PSoC4/RS232UART.c **** 
 541:Generated_Source\PSoC4/RS232UART.c ****         /* Protect variables that could change on interrupt */
 542:Generated_Source\PSoC4/RS232UART.c ****         RS232UART_DisableRxInt();
 628              		.loc 1 542 0
 629 000c 0120     		movs	r0, #1
 630 000e FFF7FEFF 		bl	CyIntDisable
 543:Generated_Source\PSoC4/RS232UART.c **** 
 544:Generated_Source\PSoC4/RS232UART.c ****         locRxBufferRead  = RS232UART_rxBufferRead;
 631              		.loc 1 544 0
 632 0012 BB1D     		adds	r3, r7, #6
 633 0014 274A     		ldr	r2, .L41
 634 0016 1278     		ldrb	r2, [r2]
 635 0018 1A70     		strb	r2, [r3]
 545:Generated_Source\PSoC4/RS232UART.c ****         locRxBufferWrite = RS232UART_rxBufferWrite;
 636              		.loc 1 545 0
 637 001a 7B1D     		adds	r3, r7, #5
 638 001c 264A     		ldr	r2, .L41+4
 639 001e 1278     		ldrb	r2, [r2]
 640 0020 1A70     		strb	r2, [r3]
 546:Generated_Source\PSoC4/RS232UART.c **** 
 547:Generated_Source\PSoC4/RS232UART.c ****         if( (RS232UART_rxBufferLoopDetect != 0u) || (locRxBufferRead != locRxBufferWrite) )
 641              		.loc 1 547 0
 642 0022 264B     		ldr	r3, .L41+8
 643 0024 1B78     		ldrb	r3, [r3]
 644 0026 DBB2     		uxtb	r3, r3
 645 0028 002B     		cmp	r3, #0
 646 002a 05D1     		bne	.L35
 647              		.loc 1 547 0 is_stmt 0 discriminator 1
 648 002c BA1D     		adds	r2, r7, #6
 649 002e 7B1D     		adds	r3, r7, #5
ARM GAS  C:\Users\alexport\AppData\Local\Temp\ccDJmAqX.s 			page 22


 650 0030 1278     		ldrb	r2, [r2]
 651 0032 1B78     		ldrb	r3, [r3]
 652 0034 9A42     		cmp	r2, r3
 653 0036 1ED0     		beq	.L36
 654              	.L35:
 548:Generated_Source\PSoC4/RS232UART.c ****         {
 549:Generated_Source\PSoC4/RS232UART.c ****             rxData = RS232UART_rxBuffer[locRxBufferRead];
 655              		.loc 1 549 0 is_stmt 1
 656 0038 BB1D     		adds	r3, r7, #6
 657 003a 1A78     		ldrb	r2, [r3]
 658 003c FB1D     		adds	r3, r7, #7
 659 003e 2049     		ldr	r1, .L41+12
 660 0040 8A5C     		ldrb	r2, [r1, r2]
 661 0042 1A70     		strb	r2, [r3]
 550:Generated_Source\PSoC4/RS232UART.c ****             locRxBufferRead++;
 662              		.loc 1 550 0
 663 0044 BB1D     		adds	r3, r7, #6
 664 0046 1A78     		ldrb	r2, [r3]
 665 0048 BB1D     		adds	r3, r7, #6
 666 004a 0132     		adds	r2, r2, #1
 667 004c 1A70     		strb	r2, [r3]
 551:Generated_Source\PSoC4/RS232UART.c ****             if(locRxBufferRead >= RS232UART_RX_BUFFER_SIZE)
 668              		.loc 1 551 0
 669 004e BB1D     		adds	r3, r7, #6
 670 0050 1B78     		ldrb	r3, [r3]
 671 0052 072B     		cmp	r3, #7
 672 0054 02D9     		bls	.L37
 552:Generated_Source\PSoC4/RS232UART.c ****             {
 553:Generated_Source\PSoC4/RS232UART.c ****                 locRxBufferRead = 0u;
 673              		.loc 1 553 0
 674 0056 BB1D     		adds	r3, r7, #6
 675 0058 0022     		movs	r2, #0
 676 005a 1A70     		strb	r2, [r3]
 677              	.L37:
 554:Generated_Source\PSoC4/RS232UART.c ****             }
 555:Generated_Source\PSoC4/RS232UART.c ****             /* Update the real pointer */
 556:Generated_Source\PSoC4/RS232UART.c ****             RS232UART_rxBufferRead = locRxBufferRead;
 678              		.loc 1 556 0
 679 005c 154B     		ldr	r3, .L41
 680 005e BA1D     		adds	r2, r7, #6
 681 0060 1278     		ldrb	r2, [r2]
 682 0062 1A70     		strb	r2, [r3]
 557:Generated_Source\PSoC4/RS232UART.c **** 
 558:Generated_Source\PSoC4/RS232UART.c ****             if(RS232UART_rxBufferLoopDetect != 0u)
 683              		.loc 1 558 0
 684 0064 154B     		ldr	r3, .L41+8
 685 0066 1B78     		ldrb	r3, [r3]
 686 0068 DBB2     		uxtb	r3, r3
 687 006a 002B     		cmp	r3, #0
 688 006c 18D0     		beq	.L39
 559:Generated_Source\PSoC4/RS232UART.c ****             {
 560:Generated_Source\PSoC4/RS232UART.c ****                 RS232UART_rxBufferLoopDetect = 0u;
 689              		.loc 1 560 0
 690 006e 134B     		ldr	r3, .L41+8
 691 0070 0022     		movs	r2, #0
 692 0072 1A70     		strb	r2, [r3]
 558:Generated_Source\PSoC4/RS232UART.c ****             {
ARM GAS  C:\Users\alexport\AppData\Local\Temp\ccDJmAqX.s 			page 23


 693              		.loc 1 558 0
 694 0074 14E0     		b	.L39
 695              	.L36:
 561:Generated_Source\PSoC4/RS232UART.c ****                 #if( (RS232UART_RX_INTERRUPT_ENABLED) && (RS232UART_FLOW_CONTROL != 0u) )
 562:Generated_Source\PSoC4/RS232UART.c ****                     /* When Hardware Flow Control selected - return RX mask */
 563:Generated_Source\PSoC4/RS232UART.c ****                     #if( RS232UART_HD_ENABLED )
 564:Generated_Source\PSoC4/RS232UART.c ****                         if((RS232UART_CONTROL_REG & RS232UART_CTRL_HD_SEND) == 0u)
 565:Generated_Source\PSoC4/RS232UART.c ****                         {   /* In Half duplex mode return RX mask only if
 566:Generated_Source\PSoC4/RS232UART.c ****                             *  RX configuration set, otherwise
 567:Generated_Source\PSoC4/RS232UART.c ****                             *  mask will be returned in LoadRxConfig() API.
 568:Generated_Source\PSoC4/RS232UART.c ****                             */
 569:Generated_Source\PSoC4/RS232UART.c ****                             RS232UART_RXSTATUS_MASK_REG |= RS232UART_RX_STS_FIFO_NOTEMPTY;
 570:Generated_Source\PSoC4/RS232UART.c ****                         }
 571:Generated_Source\PSoC4/RS232UART.c ****                     #else
 572:Generated_Source\PSoC4/RS232UART.c ****                         RS232UART_RXSTATUS_MASK_REG |= RS232UART_RX_STS_FIFO_NOTEMPTY;
 573:Generated_Source\PSoC4/RS232UART.c ****                     #endif /* end RS232UART_HD_ENABLED */
 574:Generated_Source\PSoC4/RS232UART.c ****                 #endif /* RS232UART_RX_INTERRUPT_ENABLED and Hardware flow control*/
 575:Generated_Source\PSoC4/RS232UART.c ****             }
 576:Generated_Source\PSoC4/RS232UART.c **** 
 577:Generated_Source\PSoC4/RS232UART.c ****         }
 578:Generated_Source\PSoC4/RS232UART.c ****         else
 579:Generated_Source\PSoC4/RS232UART.c ****         {   rxStatus = RS232UART_RXSTATUS_REG;
 696              		.loc 1 579 0
 697 0076 134A     		ldr	r2, .L41+16
 698 0078 3B1D     		adds	r3, r7, #4
 699 007a 1278     		ldrb	r2, [r2]
 700 007c 1A70     		strb	r2, [r3]
 580:Generated_Source\PSoC4/RS232UART.c ****             if((rxStatus & RS232UART_RX_STS_FIFO_NOTEMPTY) != 0u)
 701              		.loc 1 580 0
 702 007e 3B1D     		adds	r3, r7, #4
 703 0080 1B78     		ldrb	r3, [r3]
 704 0082 2022     		movs	r2, #32
 705 0084 1340     		ands	r3, r2
 706 0086 0BD0     		beq	.L39
 581:Generated_Source\PSoC4/RS232UART.c ****             {   /* Read received data from FIFO */
 582:Generated_Source\PSoC4/RS232UART.c ****                 rxData = RS232UART_RXDATA_REG;
 707              		.loc 1 582 0
 708 0088 0F4A     		ldr	r2, .L41+20
 709 008a FB1D     		adds	r3, r7, #7
 710 008c 1278     		ldrb	r2, [r2]
 711 008e 1A70     		strb	r2, [r3]
 583:Generated_Source\PSoC4/RS232UART.c ****                 /*Check status on error*/
 584:Generated_Source\PSoC4/RS232UART.c ****                 if((rxStatus & (RS232UART_RX_STS_BREAK | RS232UART_RX_STS_PAR_ERROR |
 585:Generated_Source\PSoC4/RS232UART.c ****                                 RS232UART_RX_STS_STOP_ERROR | RS232UART_RX_STS_OVERRUN)) != 0u)
 712              		.loc 1 585 0
 713 0090 3B1D     		adds	r3, r7, #4
 714 0092 1B78     		ldrb	r3, [r3]
 715 0094 1E22     		movs	r2, #30
 716 0096 1340     		ands	r3, r2
 584:Generated_Source\PSoC4/RS232UART.c ****                                 RS232UART_RX_STS_STOP_ERROR | RS232UART_RX_STS_OVERRUN)) != 0u)
 717              		.loc 1 584 0
 718 0098 02D0     		beq	.L39
 586:Generated_Source\PSoC4/RS232UART.c ****                 {
 587:Generated_Source\PSoC4/RS232UART.c ****                     rxData = 0u;
 719              		.loc 1 587 0
 720 009a FB1D     		adds	r3, r7, #7
 721 009c 0022     		movs	r2, #0
ARM GAS  C:\Users\alexport\AppData\Local\Temp\ccDJmAqX.s 			page 24


 722 009e 1A70     		strb	r2, [r3]
 723              	.L39:
 588:Generated_Source\PSoC4/RS232UART.c ****                 }
 589:Generated_Source\PSoC4/RS232UART.c ****             }
 590:Generated_Source\PSoC4/RS232UART.c ****         }
 591:Generated_Source\PSoC4/RS232UART.c **** 
 592:Generated_Source\PSoC4/RS232UART.c ****         RS232UART_EnableRxInt();
 724              		.loc 1 592 0
 725 00a0 0120     		movs	r0, #1
 726 00a2 FFF7FEFF 		bl	CyIntEnable
 593:Generated_Source\PSoC4/RS232UART.c **** 
 594:Generated_Source\PSoC4/RS232UART.c ****     #else
 595:Generated_Source\PSoC4/RS232UART.c **** 
 596:Generated_Source\PSoC4/RS232UART.c ****         rxStatus =RS232UART_RXSTATUS_REG;
 597:Generated_Source\PSoC4/RS232UART.c ****         if((rxStatus & RS232UART_RX_STS_FIFO_NOTEMPTY) != 0u)
 598:Generated_Source\PSoC4/RS232UART.c ****         {
 599:Generated_Source\PSoC4/RS232UART.c ****             /* Read received data from FIFO */
 600:Generated_Source\PSoC4/RS232UART.c ****             rxData = RS232UART_RXDATA_REG;
 601:Generated_Source\PSoC4/RS232UART.c **** 
 602:Generated_Source\PSoC4/RS232UART.c ****             /*Check status on error*/
 603:Generated_Source\PSoC4/RS232UART.c ****             if((rxStatus & (RS232UART_RX_STS_BREAK | RS232UART_RX_STS_PAR_ERROR |
 604:Generated_Source\PSoC4/RS232UART.c ****                             RS232UART_RX_STS_STOP_ERROR | RS232UART_RX_STS_OVERRUN)) != 0u)
 605:Generated_Source\PSoC4/RS232UART.c ****             {
 606:Generated_Source\PSoC4/RS232UART.c ****                 rxData = 0u;
 607:Generated_Source\PSoC4/RS232UART.c ****             }
 608:Generated_Source\PSoC4/RS232UART.c ****         }
 609:Generated_Source\PSoC4/RS232UART.c ****     #endif /* (RS232UART_RX_INTERRUPT_ENABLED) */
 610:Generated_Source\PSoC4/RS232UART.c **** 
 611:Generated_Source\PSoC4/RS232UART.c ****         return(rxData);
 727              		.loc 1 611 0
 728 00a6 FB1D     		adds	r3, r7, #7
 729 00a8 1B78     		ldrb	r3, [r3]
 612:Generated_Source\PSoC4/RS232UART.c ****     }
 730              		.loc 1 612 0
 731 00aa 1800     		movs	r0, r3
 732 00ac BD46     		mov	sp, r7
 733 00ae 02B0     		add	sp, sp, #8
 734              		@ sp needed
 735 00b0 80BD     		pop	{r7, pc}
 736              	.L42:
 737 00b2 C046     		.align	2
 738              	.L41:
 739 00b4 00000000 		.word	RS232UART_rxBufferRead
 740 00b8 00000000 		.word	RS232UART_rxBufferWrite
 741 00bc 00000000 		.word	RS232UART_rxBufferLoopDetect
 742 00c0 00000000 		.word	RS232UART_rxBuffer
 743 00c4 62000F40 		.word	1074724962
 744 00c8 43000F40 		.word	1074724931
 745              		.cfi_endproc
 746              	.LFE11:
 747              		.size	RS232UART_GetChar, .-RS232UART_GetChar
 748              		.section	.text.RS232UART_GetByte,"ax",%progbits
 749              		.align	2
 750              		.global	RS232UART_GetByte
 751              		.code	16
 752              		.thumb_func
 753              		.type	RS232UART_GetByte, %function
ARM GAS  C:\Users\alexport\AppData\Local\Temp\ccDJmAqX.s 			page 25


 754              	RS232UART_GetByte:
 755              	.LFB12:
 613:Generated_Source\PSoC4/RS232UART.c **** 
 614:Generated_Source\PSoC4/RS232UART.c **** 
 615:Generated_Source\PSoC4/RS232UART.c ****     /*******************************************************************************
 616:Generated_Source\PSoC4/RS232UART.c ****     * Function Name: RS232UART_GetByte
 617:Generated_Source\PSoC4/RS232UART.c ****     ********************************************************************************
 618:Generated_Source\PSoC4/RS232UART.c ****     *
 619:Generated_Source\PSoC4/RS232UART.c ****     * Summary:
 620:Generated_Source\PSoC4/RS232UART.c ****     *  Reads UART RX buffer immediately, returns received character and error
 621:Generated_Source\PSoC4/RS232UART.c ****     *  condition.
 622:Generated_Source\PSoC4/RS232UART.c ****     *
 623:Generated_Source\PSoC4/RS232UART.c ****     * Parameters:
 624:Generated_Source\PSoC4/RS232UART.c ****     *  None.
 625:Generated_Source\PSoC4/RS232UART.c ****     *
 626:Generated_Source\PSoC4/RS232UART.c ****     * Return:
 627:Generated_Source\PSoC4/RS232UART.c ****     *  MSB contains status and LSB contains UART RX data. If the MSB is nonzero,
 628:Generated_Source\PSoC4/RS232UART.c ****     *  an error has occurred.
 629:Generated_Source\PSoC4/RS232UART.c ****     *
 630:Generated_Source\PSoC4/RS232UART.c ****     * Reentrant:
 631:Generated_Source\PSoC4/RS232UART.c ****     *  No.
 632:Generated_Source\PSoC4/RS232UART.c ****     *
 633:Generated_Source\PSoC4/RS232UART.c ****     *******************************************************************************/
 634:Generated_Source\PSoC4/RS232UART.c ****     uint16 RS232UART_GetByte(void) 
 635:Generated_Source\PSoC4/RS232UART.c ****     {
 756              		.loc 1 635 0
 757              		.cfi_startproc
 758              		@ args = 0, pretend = 0, frame = 8
 759              		@ frame_needed = 1, uses_anonymous_args = 0
 760 0000 90B5     		push	{r4, r7, lr}
 761              		.cfi_def_cfa_offset 12
 762              		.cfi_offset 4, -12
 763              		.cfi_offset 7, -8
 764              		.cfi_offset 14, -4
 765 0002 83B0     		sub	sp, sp, #12
 766              		.cfi_def_cfa_offset 24
 767 0004 00AF     		add	r7, sp, #0
 768              		.cfi_def_cfa_register 7
 636:Generated_Source\PSoC4/RS232UART.c ****         
 637:Generated_Source\PSoC4/RS232UART.c ****     #if (RS232UART_RX_INTERRUPT_ENABLED)
 638:Generated_Source\PSoC4/RS232UART.c ****         uint16 locErrorStatus;
 639:Generated_Source\PSoC4/RS232UART.c ****         /* Protect variables that could change on interrupt */
 640:Generated_Source\PSoC4/RS232UART.c ****         RS232UART_DisableRxInt();
 769              		.loc 1 640 0
 770 0006 0120     		movs	r0, #1
 771 0008 FFF7FEFF 		bl	CyIntDisable
 641:Generated_Source\PSoC4/RS232UART.c ****         locErrorStatus = (uint16)RS232UART_errorStatus;
 772              		.loc 1 641 0
 773 000c 0B4B     		ldr	r3, .L45
 774 000e 1A78     		ldrb	r2, [r3]
 775 0010 BB1D     		adds	r3, r7, #6
 776 0012 1A80     		strh	r2, [r3]
 642:Generated_Source\PSoC4/RS232UART.c ****         RS232UART_errorStatus = 0u;
 777              		.loc 1 642 0
 778 0014 094B     		ldr	r3, .L45
 779 0016 0022     		movs	r2, #0
 780 0018 1A70     		strb	r2, [r3]
ARM GAS  C:\Users\alexport\AppData\Local\Temp\ccDJmAqX.s 			page 26


 643:Generated_Source\PSoC4/RS232UART.c ****         RS232UART_EnableRxInt();
 781              		.loc 1 643 0
 782 001a 0120     		movs	r0, #1
 783 001c FFF7FEFF 		bl	CyIntEnable
 644:Generated_Source\PSoC4/RS232UART.c ****         return ( (uint16)(locErrorStatus << 8u) | RS232UART_ReadRxData() );
 784              		.loc 1 644 0
 785 0020 BB1D     		adds	r3, r7, #6
 786 0022 1B88     		ldrh	r3, [r3]
 787 0024 1B02     		lsls	r3, r3, #8
 788 0026 9CB2     		uxth	r4, r3
 789 0028 FFF7FEFF 		bl	RS232UART_ReadRxData
 790 002c 0300     		movs	r3, r0
 791 002e 9BB2     		uxth	r3, r3
 792 0030 2343     		orrs	r3, r4
 793 0032 9BB2     		uxth	r3, r3
 645:Generated_Source\PSoC4/RS232UART.c ****     #else
 646:Generated_Source\PSoC4/RS232UART.c ****         return ( ((uint16)RS232UART_ReadRxStatus() << 8u) | RS232UART_ReadRxData() );
 647:Generated_Source\PSoC4/RS232UART.c ****     #endif /* RS232UART_RX_INTERRUPT_ENABLED */
 648:Generated_Source\PSoC4/RS232UART.c ****         
 649:Generated_Source\PSoC4/RS232UART.c ****     }
 794              		.loc 1 649 0
 795 0034 1800     		movs	r0, r3
 796 0036 BD46     		mov	sp, r7
 797 0038 03B0     		add	sp, sp, #12
 798              		@ sp needed
 799 003a 90BD     		pop	{r4, r7, pc}
 800              	.L46:
 801              		.align	2
 802              	.L45:
 803 003c 00000000 		.word	RS232UART_errorStatus
 804              		.cfi_endproc
 805              	.LFE12:
 806              		.size	RS232UART_GetByte, .-RS232UART_GetByte
 807              		.section	.text.RS232UART_GetRxBufferSize,"ax",%progbits
 808              		.align	2
 809              		.global	RS232UART_GetRxBufferSize
 810              		.code	16
 811              		.thumb_func
 812              		.type	RS232UART_GetRxBufferSize, %function
 813              	RS232UART_GetRxBufferSize:
 814              	.LFB13:
 650:Generated_Source\PSoC4/RS232UART.c **** 
 651:Generated_Source\PSoC4/RS232UART.c **** 
 652:Generated_Source\PSoC4/RS232UART.c ****     /*******************************************************************************
 653:Generated_Source\PSoC4/RS232UART.c ****     * Function Name: RS232UART_GetRxBufferSize
 654:Generated_Source\PSoC4/RS232UART.c ****     ********************************************************************************
 655:Generated_Source\PSoC4/RS232UART.c ****     *
 656:Generated_Source\PSoC4/RS232UART.c ****     * Summary:
 657:Generated_Source\PSoC4/RS232UART.c ****     *  Returns the number of received bytes available in the RX buffer.
 658:Generated_Source\PSoC4/RS232UART.c ****     *  * RX software buffer is disabled (RX Buffer Size parameter is equal to 4): 
 659:Generated_Source\PSoC4/RS232UART.c ****     *    returns 0 for empty RX FIFO or 1 for not empty RX FIFO.
 660:Generated_Source\PSoC4/RS232UART.c ****     *  * RX software buffer is enabled: returns the number of bytes available in 
 661:Generated_Source\PSoC4/RS232UART.c ****     *    the RX software buffer. Bytes available in the RX FIFO do not take to 
 662:Generated_Source\PSoC4/RS232UART.c ****     *    account.
 663:Generated_Source\PSoC4/RS232UART.c ****     *
 664:Generated_Source\PSoC4/RS232UART.c ****     * Parameters:
 665:Generated_Source\PSoC4/RS232UART.c ****     *  None.
ARM GAS  C:\Users\alexport\AppData\Local\Temp\ccDJmAqX.s 			page 27


 666:Generated_Source\PSoC4/RS232UART.c ****     *
 667:Generated_Source\PSoC4/RS232UART.c ****     * Return:
 668:Generated_Source\PSoC4/RS232UART.c ****     *  uint8: Number of bytes in the RX buffer. 
 669:Generated_Source\PSoC4/RS232UART.c ****     *    Return value type depends on RX Buffer Size parameter.
 670:Generated_Source\PSoC4/RS232UART.c ****     *
 671:Generated_Source\PSoC4/RS232UART.c ****     * Global Variables:
 672:Generated_Source\PSoC4/RS232UART.c ****     *  RS232UART_rxBufferWrite - used to calculate left bytes.
 673:Generated_Source\PSoC4/RS232UART.c ****     *  RS232UART_rxBufferRead - used to calculate left bytes.
 674:Generated_Source\PSoC4/RS232UART.c ****     *  RS232UART_rxBufferLoopDetect - checked to decide left bytes amount.
 675:Generated_Source\PSoC4/RS232UART.c ****     *
 676:Generated_Source\PSoC4/RS232UART.c ****     * Reentrant:
 677:Generated_Source\PSoC4/RS232UART.c ****     *  No.
 678:Generated_Source\PSoC4/RS232UART.c ****     *
 679:Generated_Source\PSoC4/RS232UART.c ****     * Theory:
 680:Generated_Source\PSoC4/RS232UART.c ****     *  Allows the user to find out how full the RX Buffer is.
 681:Generated_Source\PSoC4/RS232UART.c ****     *
 682:Generated_Source\PSoC4/RS232UART.c ****     *******************************************************************************/
 683:Generated_Source\PSoC4/RS232UART.c ****     uint8 RS232UART_GetRxBufferSize(void)
 684:Generated_Source\PSoC4/RS232UART.c ****                                                             
 685:Generated_Source\PSoC4/RS232UART.c ****     {
 815              		.loc 1 685 0
 816              		.cfi_startproc
 817              		@ args = 0, pretend = 0, frame = 8
 818              		@ frame_needed = 1, uses_anonymous_args = 0
 819 0000 80B5     		push	{r7, lr}
 820              		.cfi_def_cfa_offset 8
 821              		.cfi_offset 7, -8
 822              		.cfi_offset 14, -4
 823 0002 82B0     		sub	sp, sp, #8
 824              		.cfi_def_cfa_offset 16
 825 0004 00AF     		add	r7, sp, #0
 826              		.cfi_def_cfa_register 7
 686:Generated_Source\PSoC4/RS232UART.c ****         uint8 size;
 687:Generated_Source\PSoC4/RS232UART.c **** 
 688:Generated_Source\PSoC4/RS232UART.c ****     #if (RS232UART_RX_INTERRUPT_ENABLED)
 689:Generated_Source\PSoC4/RS232UART.c **** 
 690:Generated_Source\PSoC4/RS232UART.c ****         /* Protect variables that could change on interrupt */
 691:Generated_Source\PSoC4/RS232UART.c ****         RS232UART_DisableRxInt();
 827              		.loc 1 691 0
 828 0006 0120     		movs	r0, #1
 829 0008 FFF7FEFF 		bl	CyIntDisable
 692:Generated_Source\PSoC4/RS232UART.c **** 
 693:Generated_Source\PSoC4/RS232UART.c ****         if(RS232UART_rxBufferRead == RS232UART_rxBufferWrite)
 830              		.loc 1 693 0
 831 000c 1D4B     		ldr	r3, .L54
 832 000e 1B78     		ldrb	r3, [r3]
 833 0010 DAB2     		uxtb	r2, r3
 834 0012 1D4B     		ldr	r3, .L54+4
 835 0014 1B78     		ldrb	r3, [r3]
 836 0016 DBB2     		uxtb	r3, r3
 837 0018 9A42     		cmp	r2, r3
 838 001a 0CD1     		bne	.L48
 694:Generated_Source\PSoC4/RS232UART.c ****         {
 695:Generated_Source\PSoC4/RS232UART.c ****             if(RS232UART_rxBufferLoopDetect != 0u)
 839              		.loc 1 695 0
 840 001c 1B4B     		ldr	r3, .L54+8
 841 001e 1B78     		ldrb	r3, [r3]
ARM GAS  C:\Users\alexport\AppData\Local\Temp\ccDJmAqX.s 			page 28


 842 0020 DBB2     		uxtb	r3, r3
 843 0022 002B     		cmp	r3, #0
 844 0024 03D0     		beq	.L49
 696:Generated_Source\PSoC4/RS232UART.c ****             {
 697:Generated_Source\PSoC4/RS232UART.c ****                 size = RS232UART_RX_BUFFER_SIZE;
 845              		.loc 1 697 0
 846 0026 FB1D     		adds	r3, r7, #7
 847 0028 0822     		movs	r2, #8
 848 002a 1A70     		strb	r2, [r3]
 849 002c 20E0     		b	.L51
 850              	.L49:
 698:Generated_Source\PSoC4/RS232UART.c ****             }
 699:Generated_Source\PSoC4/RS232UART.c ****             else
 700:Generated_Source\PSoC4/RS232UART.c ****             {
 701:Generated_Source\PSoC4/RS232UART.c ****                 size = 0u;
 851              		.loc 1 701 0
 852 002e FB1D     		adds	r3, r7, #7
 853 0030 0022     		movs	r2, #0
 854 0032 1A70     		strb	r2, [r3]
 855 0034 1CE0     		b	.L51
 856              	.L48:
 702:Generated_Source\PSoC4/RS232UART.c ****             }
 703:Generated_Source\PSoC4/RS232UART.c ****         }
 704:Generated_Source\PSoC4/RS232UART.c ****         else if(RS232UART_rxBufferRead < RS232UART_rxBufferWrite)
 857              		.loc 1 704 0
 858 0036 134B     		ldr	r3, .L54
 859 0038 1B78     		ldrb	r3, [r3]
 860 003a DAB2     		uxtb	r2, r3
 861 003c 124B     		ldr	r3, .L54+4
 862 003e 1B78     		ldrb	r3, [r3]
 863 0040 DBB2     		uxtb	r3, r3
 864 0042 9A42     		cmp	r2, r3
 865 0044 09D2     		bcs	.L52
 705:Generated_Source\PSoC4/RS232UART.c ****         {
 706:Generated_Source\PSoC4/RS232UART.c ****             size = (RS232UART_rxBufferWrite - RS232UART_rxBufferRead);
 866              		.loc 1 706 0
 867 0046 104B     		ldr	r3, .L54+4
 868 0048 1B78     		ldrb	r3, [r3]
 869 004a D9B2     		uxtb	r1, r3
 870 004c 0D4B     		ldr	r3, .L54
 871 004e 1B78     		ldrb	r3, [r3]
 872 0050 DAB2     		uxtb	r2, r3
 873 0052 FB1D     		adds	r3, r7, #7
 874 0054 8A1A     		subs	r2, r1, r2
 875 0056 1A70     		strb	r2, [r3]
 876 0058 0AE0     		b	.L51
 877              	.L52:
 707:Generated_Source\PSoC4/RS232UART.c ****         }
 708:Generated_Source\PSoC4/RS232UART.c ****         else
 709:Generated_Source\PSoC4/RS232UART.c ****         {
 710:Generated_Source\PSoC4/RS232UART.c ****             size = (RS232UART_RX_BUFFER_SIZE - RS232UART_rxBufferRead) + RS232UART_rxBufferWrite;
 878              		.loc 1 710 0
 879 005a 0B4B     		ldr	r3, .L54+4
 880 005c 1B78     		ldrb	r3, [r3]
 881 005e DAB2     		uxtb	r2, r3
 882 0060 084B     		ldr	r3, .L54
 883 0062 1B78     		ldrb	r3, [r3]
ARM GAS  C:\Users\alexport\AppData\Local\Temp\ccDJmAqX.s 			page 29


 884 0064 DBB2     		uxtb	r3, r3
 885 0066 D31A     		subs	r3, r2, r3
 886 0068 DAB2     		uxtb	r2, r3
 887 006a FB1D     		adds	r3, r7, #7
 888 006c 0832     		adds	r2, r2, #8
 889 006e 1A70     		strb	r2, [r3]
 890              	.L51:
 711:Generated_Source\PSoC4/RS232UART.c ****         }
 712:Generated_Source\PSoC4/RS232UART.c **** 
 713:Generated_Source\PSoC4/RS232UART.c ****         RS232UART_EnableRxInt();
 891              		.loc 1 713 0
 892 0070 0120     		movs	r0, #1
 893 0072 FFF7FEFF 		bl	CyIntEnable
 714:Generated_Source\PSoC4/RS232UART.c **** 
 715:Generated_Source\PSoC4/RS232UART.c ****     #else
 716:Generated_Source\PSoC4/RS232UART.c **** 
 717:Generated_Source\PSoC4/RS232UART.c ****         /* We can only know if there is data in the fifo. */
 718:Generated_Source\PSoC4/RS232UART.c ****         size = ((RS232UART_RXSTATUS_REG & RS232UART_RX_STS_FIFO_NOTEMPTY) != 0u) ? 1u : 0u;
 719:Generated_Source\PSoC4/RS232UART.c **** 
 720:Generated_Source\PSoC4/RS232UART.c ****     #endif /* (RS232UART_RX_INTERRUPT_ENABLED) */
 721:Generated_Source\PSoC4/RS232UART.c **** 
 722:Generated_Source\PSoC4/RS232UART.c ****         return(size);
 894              		.loc 1 722 0
 895 0076 FB1D     		adds	r3, r7, #7
 896 0078 1B78     		ldrb	r3, [r3]
 723:Generated_Source\PSoC4/RS232UART.c ****     }
 897              		.loc 1 723 0
 898 007a 1800     		movs	r0, r3
 899 007c BD46     		mov	sp, r7
 900 007e 02B0     		add	sp, sp, #8
 901              		@ sp needed
 902 0080 80BD     		pop	{r7, pc}
 903              	.L55:
 904 0082 C046     		.align	2
 905              	.L54:
 906 0084 00000000 		.word	RS232UART_rxBufferRead
 907 0088 00000000 		.word	RS232UART_rxBufferWrite
 908 008c 00000000 		.word	RS232UART_rxBufferLoopDetect
 909              		.cfi_endproc
 910              	.LFE13:
 911              		.size	RS232UART_GetRxBufferSize, .-RS232UART_GetRxBufferSize
 912              		.section	.text.RS232UART_ClearRxBuffer,"ax",%progbits
 913              		.align	2
 914              		.global	RS232UART_ClearRxBuffer
 915              		.code	16
 916              		.thumb_func
 917              		.type	RS232UART_ClearRxBuffer, %function
 918              	RS232UART_ClearRxBuffer:
 919              	.LFB14:
 724:Generated_Source\PSoC4/RS232UART.c **** 
 725:Generated_Source\PSoC4/RS232UART.c **** 
 726:Generated_Source\PSoC4/RS232UART.c ****     /*******************************************************************************
 727:Generated_Source\PSoC4/RS232UART.c ****     * Function Name: RS232UART_ClearRxBuffer
 728:Generated_Source\PSoC4/RS232UART.c ****     ********************************************************************************
 729:Generated_Source\PSoC4/RS232UART.c ****     *
 730:Generated_Source\PSoC4/RS232UART.c ****     * Summary:
 731:Generated_Source\PSoC4/RS232UART.c ****     *  Clears the receiver memory buffer and hardware RX FIFO of all received data.
ARM GAS  C:\Users\alexport\AppData\Local\Temp\ccDJmAqX.s 			page 30


 732:Generated_Source\PSoC4/RS232UART.c ****     *
 733:Generated_Source\PSoC4/RS232UART.c ****     * Parameters:
 734:Generated_Source\PSoC4/RS232UART.c ****     *  None.
 735:Generated_Source\PSoC4/RS232UART.c ****     *
 736:Generated_Source\PSoC4/RS232UART.c ****     * Return:
 737:Generated_Source\PSoC4/RS232UART.c ****     *  None.
 738:Generated_Source\PSoC4/RS232UART.c ****     *
 739:Generated_Source\PSoC4/RS232UART.c ****     * Global Variables:
 740:Generated_Source\PSoC4/RS232UART.c ****     *  RS232UART_rxBufferWrite - cleared to zero.
 741:Generated_Source\PSoC4/RS232UART.c ****     *  RS232UART_rxBufferRead - cleared to zero.
 742:Generated_Source\PSoC4/RS232UART.c ****     *  RS232UART_rxBufferLoopDetect - cleared to zero.
 743:Generated_Source\PSoC4/RS232UART.c ****     *  RS232UART_rxBufferOverflow - cleared to zero.
 744:Generated_Source\PSoC4/RS232UART.c ****     *
 745:Generated_Source\PSoC4/RS232UART.c ****     * Reentrant:
 746:Generated_Source\PSoC4/RS232UART.c ****     *  No.
 747:Generated_Source\PSoC4/RS232UART.c ****     *
 748:Generated_Source\PSoC4/RS232UART.c ****     * Theory:
 749:Generated_Source\PSoC4/RS232UART.c ****     *  Setting the pointers to zero makes the system believe there is no data to
 750:Generated_Source\PSoC4/RS232UART.c ****     *  read and writing will resume at address 0 overwriting any data that may
 751:Generated_Source\PSoC4/RS232UART.c ****     *  have remained in the RAM.
 752:Generated_Source\PSoC4/RS232UART.c ****     *
 753:Generated_Source\PSoC4/RS232UART.c ****     * Side Effects:
 754:Generated_Source\PSoC4/RS232UART.c ****     *  Any received data not read from the RAM or FIFO buffer will be lost.
 755:Generated_Source\PSoC4/RS232UART.c ****     *
 756:Generated_Source\PSoC4/RS232UART.c ****     *******************************************************************************/
 757:Generated_Source\PSoC4/RS232UART.c ****     void RS232UART_ClearRxBuffer(void) 
 758:Generated_Source\PSoC4/RS232UART.c ****     {
 920              		.loc 1 758 0
 921              		.cfi_startproc
 922              		@ args = 0, pretend = 0, frame = 8
 923              		@ frame_needed = 1, uses_anonymous_args = 0
 924 0000 90B5     		push	{r4, r7, lr}
 925              		.cfi_def_cfa_offset 12
 926              		.cfi_offset 4, -12
 927              		.cfi_offset 7, -8
 928              		.cfi_offset 14, -4
 929 0002 83B0     		sub	sp, sp, #12
 930              		.cfi_def_cfa_offset 24
 931 0004 00AF     		add	r7, sp, #0
 932              		.cfi_def_cfa_register 7
 759:Generated_Source\PSoC4/RS232UART.c ****         uint8 enableInterrupts;
 760:Generated_Source\PSoC4/RS232UART.c **** 
 761:Generated_Source\PSoC4/RS232UART.c ****         /* Clear the HW FIFO */
 762:Generated_Source\PSoC4/RS232UART.c ****         enableInterrupts = CyEnterCriticalSection();
 933              		.loc 1 762 0
 934 0006 FC1D     		adds	r4, r7, #7
 935 0008 FFF7FEFF 		bl	CyEnterCriticalSection
 936 000c 0300     		movs	r3, r0
 937 000e 2370     		strb	r3, [r4]
 763:Generated_Source\PSoC4/RS232UART.c ****         RS232UART_RXDATA_AUX_CTL_REG |= (uint8)  RS232UART_RX_FIFO_CLR;
 938              		.loc 1 763 0
 939 0010 154A     		ldr	r2, .L57
 940 0012 154B     		ldr	r3, .L57
 941 0014 1B78     		ldrb	r3, [r3]
 942 0016 DBB2     		uxtb	r3, r3
 943 0018 0121     		movs	r1, #1
 944 001a 0B43     		orrs	r3, r1
ARM GAS  C:\Users\alexport\AppData\Local\Temp\ccDJmAqX.s 			page 31


 945 001c DBB2     		uxtb	r3, r3
 946 001e 1370     		strb	r3, [r2]
 764:Generated_Source\PSoC4/RS232UART.c ****         RS232UART_RXDATA_AUX_CTL_REG &= (uint8) ~RS232UART_RX_FIFO_CLR;
 947              		.loc 1 764 0
 948 0020 114A     		ldr	r2, .L57
 949 0022 114B     		ldr	r3, .L57
 950 0024 1B78     		ldrb	r3, [r3]
 951 0026 DBB2     		uxtb	r3, r3
 952 0028 0121     		movs	r1, #1
 953 002a 8B43     		bics	r3, r1
 954 002c DBB2     		uxtb	r3, r3
 955 002e 1370     		strb	r3, [r2]
 765:Generated_Source\PSoC4/RS232UART.c ****         CyExitCriticalSection(enableInterrupts);
 956              		.loc 1 765 0
 957 0030 FB1D     		adds	r3, r7, #7
 958 0032 1B78     		ldrb	r3, [r3]
 959 0034 1800     		movs	r0, r3
 960 0036 FFF7FEFF 		bl	CyExitCriticalSection
 766:Generated_Source\PSoC4/RS232UART.c **** 
 767:Generated_Source\PSoC4/RS232UART.c ****     #if (RS232UART_RX_INTERRUPT_ENABLED)
 768:Generated_Source\PSoC4/RS232UART.c **** 
 769:Generated_Source\PSoC4/RS232UART.c ****         /* Protect variables that could change on interrupt. */
 770:Generated_Source\PSoC4/RS232UART.c ****         RS232UART_DisableRxInt();
 961              		.loc 1 770 0
 962 003a 0120     		movs	r0, #1
 963 003c FFF7FEFF 		bl	CyIntDisable
 771:Generated_Source\PSoC4/RS232UART.c **** 
 772:Generated_Source\PSoC4/RS232UART.c ****         RS232UART_rxBufferRead = 0u;
 964              		.loc 1 772 0
 965 0040 0A4B     		ldr	r3, .L57+4
 966 0042 0022     		movs	r2, #0
 967 0044 1A70     		strb	r2, [r3]
 773:Generated_Source\PSoC4/RS232UART.c ****         RS232UART_rxBufferWrite = 0u;
 968              		.loc 1 773 0
 969 0046 0A4B     		ldr	r3, .L57+8
 970 0048 0022     		movs	r2, #0
 971 004a 1A70     		strb	r2, [r3]
 774:Generated_Source\PSoC4/RS232UART.c ****         RS232UART_rxBufferLoopDetect = 0u;
 972              		.loc 1 774 0
 973 004c 094B     		ldr	r3, .L57+12
 974 004e 0022     		movs	r2, #0
 975 0050 1A70     		strb	r2, [r3]
 775:Generated_Source\PSoC4/RS232UART.c ****         RS232UART_rxBufferOverflow = 0u;
 976              		.loc 1 775 0
 977 0052 094B     		ldr	r3, .L57+16
 978 0054 0022     		movs	r2, #0
 979 0056 1A70     		strb	r2, [r3]
 776:Generated_Source\PSoC4/RS232UART.c **** 
 777:Generated_Source\PSoC4/RS232UART.c ****         RS232UART_EnableRxInt();
 980              		.loc 1 777 0
 981 0058 0120     		movs	r0, #1
 982 005a FFF7FEFF 		bl	CyIntEnable
 778:Generated_Source\PSoC4/RS232UART.c **** 
 779:Generated_Source\PSoC4/RS232UART.c ****     #endif /* (RS232UART_RX_INTERRUPT_ENABLED) */
 780:Generated_Source\PSoC4/RS232UART.c **** 
 781:Generated_Source\PSoC4/RS232UART.c ****     }
 983              		.loc 1 781 0
ARM GAS  C:\Users\alexport\AppData\Local\Temp\ccDJmAqX.s 			page 32


 984 005e C046     		nop
 985 0060 BD46     		mov	sp, r7
 986 0062 03B0     		add	sp, sp, #12
 987              		@ sp needed
 988 0064 90BD     		pop	{r4, r7, pc}
 989              	.L58:
 990 0066 C046     		.align	2
 991              	.L57:
 992 0068 93000F40 		.word	1074725011
 993 006c 00000000 		.word	RS232UART_rxBufferRead
 994 0070 00000000 		.word	RS232UART_rxBufferWrite
 995 0074 00000000 		.word	RS232UART_rxBufferLoopDetect
 996 0078 00000000 		.word	RS232UART_rxBufferOverflow
 997              		.cfi_endproc
 998              	.LFE14:
 999              		.size	RS232UART_ClearRxBuffer, .-RS232UART_ClearRxBuffer
 1000              		.section	.text.RS232UART_SetRxAddressMode,"ax",%progbits
 1001              		.align	2
 1002              		.global	RS232UART_SetRxAddressMode
 1003              		.code	16
 1004              		.thumb_func
 1005              		.type	RS232UART_SetRxAddressMode, %function
 1006              	RS232UART_SetRxAddressMode:
 1007              	.LFB15:
 782:Generated_Source\PSoC4/RS232UART.c **** 
 783:Generated_Source\PSoC4/RS232UART.c **** 
 784:Generated_Source\PSoC4/RS232UART.c ****     /*******************************************************************************
 785:Generated_Source\PSoC4/RS232UART.c ****     * Function Name: RS232UART_SetRxAddressMode
 786:Generated_Source\PSoC4/RS232UART.c ****     ********************************************************************************
 787:Generated_Source\PSoC4/RS232UART.c ****     *
 788:Generated_Source\PSoC4/RS232UART.c ****     * Summary:
 789:Generated_Source\PSoC4/RS232UART.c ****     *  Sets the software controlled Addressing mode used by the RX portion of the
 790:Generated_Source\PSoC4/RS232UART.c ****     *  UART.
 791:Generated_Source\PSoC4/RS232UART.c ****     *
 792:Generated_Source\PSoC4/RS232UART.c ****     * Parameters:
 793:Generated_Source\PSoC4/RS232UART.c ****     *  addressMode: Enumerated value indicating the mode of RX addressing
 794:Generated_Source\PSoC4/RS232UART.c ****     *  RS232UART__B_UART__AM_SW_BYTE_BYTE -  Software Byte-by-Byte address
 795:Generated_Source\PSoC4/RS232UART.c ****     *                                               detection
 796:Generated_Source\PSoC4/RS232UART.c ****     *  RS232UART__B_UART__AM_SW_DETECT_TO_BUFFER - Software Detect to Buffer
 797:Generated_Source\PSoC4/RS232UART.c ****     *                                               address detection
 798:Generated_Source\PSoC4/RS232UART.c ****     *  RS232UART__B_UART__AM_HW_BYTE_BY_BYTE - Hardware Byte-by-Byte address
 799:Generated_Source\PSoC4/RS232UART.c ****     *                                               detection
 800:Generated_Source\PSoC4/RS232UART.c ****     *  RS232UART__B_UART__AM_HW_DETECT_TO_BUFFER - Hardware Detect to Buffer
 801:Generated_Source\PSoC4/RS232UART.c ****     *                                               address detection
 802:Generated_Source\PSoC4/RS232UART.c ****     *  RS232UART__B_UART__AM_NONE - No address detection
 803:Generated_Source\PSoC4/RS232UART.c ****     *
 804:Generated_Source\PSoC4/RS232UART.c ****     * Return:
 805:Generated_Source\PSoC4/RS232UART.c ****     *  None.
 806:Generated_Source\PSoC4/RS232UART.c ****     *
 807:Generated_Source\PSoC4/RS232UART.c ****     * Global Variables:
 808:Generated_Source\PSoC4/RS232UART.c ****     *  RS232UART_rxAddressMode - the parameter stored in this variable for
 809:Generated_Source\PSoC4/RS232UART.c ****     *   the farther usage in RX ISR.
 810:Generated_Source\PSoC4/RS232UART.c ****     *  RS232UART_rxAddressDetected - set to initial state (0).
 811:Generated_Source\PSoC4/RS232UART.c ****     *
 812:Generated_Source\PSoC4/RS232UART.c ****     *******************************************************************************/
 813:Generated_Source\PSoC4/RS232UART.c ****     void RS232UART_SetRxAddressMode(uint8 addressMode)
 814:Generated_Source\PSoC4/RS232UART.c ****                                                         
ARM GAS  C:\Users\alexport\AppData\Local\Temp\ccDJmAqX.s 			page 33


 815:Generated_Source\PSoC4/RS232UART.c ****     {
 1008              		.loc 1 815 0
 1009              		.cfi_startproc
 1010              		@ args = 0, pretend = 0, frame = 8
 1011              		@ frame_needed = 1, uses_anonymous_args = 0
 1012 0000 80B5     		push	{r7, lr}
 1013              		.cfi_def_cfa_offset 8
 1014              		.cfi_offset 7, -8
 1015              		.cfi_offset 14, -4
 1016 0002 82B0     		sub	sp, sp, #8
 1017              		.cfi_def_cfa_offset 16
 1018 0004 00AF     		add	r7, sp, #0
 1019              		.cfi_def_cfa_register 7
 1020 0006 0200     		movs	r2, r0
 1021 0008 FB1D     		adds	r3, r7, #7
 1022 000a 1A70     		strb	r2, [r3]
 816:Generated_Source\PSoC4/RS232UART.c ****         #if(RS232UART_RXHW_ADDRESS_ENABLED)
 817:Generated_Source\PSoC4/RS232UART.c ****             #if(RS232UART_CONTROL_REG_REMOVED)
 818:Generated_Source\PSoC4/RS232UART.c ****                 if(0u != addressMode)
 819:Generated_Source\PSoC4/RS232UART.c ****                 {
 820:Generated_Source\PSoC4/RS232UART.c ****                     /* Suppress compiler warning */
 821:Generated_Source\PSoC4/RS232UART.c ****                 }
 822:Generated_Source\PSoC4/RS232UART.c ****             #else /* RS232UART_CONTROL_REG_REMOVED */
 823:Generated_Source\PSoC4/RS232UART.c ****                 uint8 tmpCtrl;
 824:Generated_Source\PSoC4/RS232UART.c ****                 tmpCtrl = RS232UART_CONTROL_REG & (uint8)~RS232UART_CTRL_RXADDR_MODE_MASK;
 825:Generated_Source\PSoC4/RS232UART.c ****                 tmpCtrl |= (uint8)(addressMode << RS232UART_CTRL_RXADDR_MODE0_SHIFT);
 826:Generated_Source\PSoC4/RS232UART.c ****                 RS232UART_CONTROL_REG = tmpCtrl;
 827:Generated_Source\PSoC4/RS232UART.c **** 
 828:Generated_Source\PSoC4/RS232UART.c ****                 #if(RS232UART_RX_INTERRUPT_ENABLED && \
 829:Generated_Source\PSoC4/RS232UART.c ****                    (RS232UART_RXBUFFERSIZE > RS232UART_FIFO_LENGTH) )
 830:Generated_Source\PSoC4/RS232UART.c ****                     RS232UART_rxAddressMode = addressMode;
 831:Generated_Source\PSoC4/RS232UART.c ****                     RS232UART_rxAddressDetected = 0u;
 832:Generated_Source\PSoC4/RS232UART.c ****                 #endif /* End RS232UART_RXBUFFERSIZE > RS232UART_FIFO_LENGTH*/
 833:Generated_Source\PSoC4/RS232UART.c ****             #endif /* End RS232UART_CONTROL_REG_REMOVED */
 834:Generated_Source\PSoC4/RS232UART.c ****         #else /* RS232UART_RXHW_ADDRESS_ENABLED */
 835:Generated_Source\PSoC4/RS232UART.c ****             if(0u != addressMode)
 836:Generated_Source\PSoC4/RS232UART.c ****             {
 837:Generated_Source\PSoC4/RS232UART.c ****                 /* Suppress compiler warning */
 838:Generated_Source\PSoC4/RS232UART.c ****             }
 839:Generated_Source\PSoC4/RS232UART.c ****         #endif /* End RS232UART_RXHW_ADDRESS_ENABLED */
 840:Generated_Source\PSoC4/RS232UART.c ****     }
 1023              		.loc 1 840 0
 1024 000c C046     		nop
 1025 000e BD46     		mov	sp, r7
 1026 0010 02B0     		add	sp, sp, #8
 1027              		@ sp needed
 1028 0012 80BD     		pop	{r7, pc}
 1029              		.cfi_endproc
 1030              	.LFE15:
 1031              		.size	RS232UART_SetRxAddressMode, .-RS232UART_SetRxAddressMode
 1032              		.section	.text.RS232UART_SetRxAddress1,"ax",%progbits
 1033              		.align	2
 1034              		.global	RS232UART_SetRxAddress1
 1035              		.code	16
 1036              		.thumb_func
 1037              		.type	RS232UART_SetRxAddress1, %function
 1038              	RS232UART_SetRxAddress1:
ARM GAS  C:\Users\alexport\AppData\Local\Temp\ccDJmAqX.s 			page 34


 1039              	.LFB16:
 841:Generated_Source\PSoC4/RS232UART.c **** 
 842:Generated_Source\PSoC4/RS232UART.c **** 
 843:Generated_Source\PSoC4/RS232UART.c ****     /*******************************************************************************
 844:Generated_Source\PSoC4/RS232UART.c ****     * Function Name: RS232UART_SetRxAddress1
 845:Generated_Source\PSoC4/RS232UART.c ****     ********************************************************************************
 846:Generated_Source\PSoC4/RS232UART.c ****     *
 847:Generated_Source\PSoC4/RS232UART.c ****     * Summary:
 848:Generated_Source\PSoC4/RS232UART.c ****     *  Sets the first of two hardware-detectable receiver addresses.
 849:Generated_Source\PSoC4/RS232UART.c ****     *
 850:Generated_Source\PSoC4/RS232UART.c ****     * Parameters:
 851:Generated_Source\PSoC4/RS232UART.c ****     *  address: Address #1 for hardware address detection.
 852:Generated_Source\PSoC4/RS232UART.c ****     *
 853:Generated_Source\PSoC4/RS232UART.c ****     * Return:
 854:Generated_Source\PSoC4/RS232UART.c ****     *  None.
 855:Generated_Source\PSoC4/RS232UART.c ****     *
 856:Generated_Source\PSoC4/RS232UART.c ****     *******************************************************************************/
 857:Generated_Source\PSoC4/RS232UART.c ****     void RS232UART_SetRxAddress1(uint8 address) 
 858:Generated_Source\PSoC4/RS232UART.c ****     {
 1040              		.loc 1 858 0
 1041              		.cfi_startproc
 1042              		@ args = 0, pretend = 0, frame = 8
 1043              		@ frame_needed = 1, uses_anonymous_args = 0
 1044 0000 80B5     		push	{r7, lr}
 1045              		.cfi_def_cfa_offset 8
 1046              		.cfi_offset 7, -8
 1047              		.cfi_offset 14, -4
 1048 0002 82B0     		sub	sp, sp, #8
 1049              		.cfi_def_cfa_offset 16
 1050 0004 00AF     		add	r7, sp, #0
 1051              		.cfi_def_cfa_register 7
 1052 0006 0200     		movs	r2, r0
 1053 0008 FB1D     		adds	r3, r7, #7
 1054 000a 1A70     		strb	r2, [r3]
 859:Generated_Source\PSoC4/RS232UART.c ****         RS232UART_RXADDRESS1_REG = address;
 1055              		.loc 1 859 0
 1056 000c 034A     		ldr	r2, .L61
 1057 000e FB1D     		adds	r3, r7, #7
 1058 0010 1B78     		ldrb	r3, [r3]
 1059 0012 1370     		strb	r3, [r2]
 860:Generated_Source\PSoC4/RS232UART.c ****     }
 1060              		.loc 1 860 0
 1061 0014 C046     		nop
 1062 0016 BD46     		mov	sp, r7
 1063 0018 02B0     		add	sp, sp, #8
 1064              		@ sp needed
 1065 001a 80BD     		pop	{r7, pc}
 1066              	.L62:
 1067              		.align	2
 1068              	.L61:
 1069 001c 23000F40 		.word	1074724899
 1070              		.cfi_endproc
 1071              	.LFE16:
 1072              		.size	RS232UART_SetRxAddress1, .-RS232UART_SetRxAddress1
 1073              		.section	.text.RS232UART_SetRxAddress2,"ax",%progbits
 1074              		.align	2
 1075              		.global	RS232UART_SetRxAddress2
ARM GAS  C:\Users\alexport\AppData\Local\Temp\ccDJmAqX.s 			page 35


 1076              		.code	16
 1077              		.thumb_func
 1078              		.type	RS232UART_SetRxAddress2, %function
 1079              	RS232UART_SetRxAddress2:
 1080              	.LFB17:
 861:Generated_Source\PSoC4/RS232UART.c **** 
 862:Generated_Source\PSoC4/RS232UART.c **** 
 863:Generated_Source\PSoC4/RS232UART.c ****     /*******************************************************************************
 864:Generated_Source\PSoC4/RS232UART.c ****     * Function Name: RS232UART_SetRxAddress2
 865:Generated_Source\PSoC4/RS232UART.c ****     ********************************************************************************
 866:Generated_Source\PSoC4/RS232UART.c ****     *
 867:Generated_Source\PSoC4/RS232UART.c ****     * Summary:
 868:Generated_Source\PSoC4/RS232UART.c ****     *  Sets the second of two hardware-detectable receiver addresses.
 869:Generated_Source\PSoC4/RS232UART.c ****     *
 870:Generated_Source\PSoC4/RS232UART.c ****     * Parameters:
 871:Generated_Source\PSoC4/RS232UART.c ****     *  address: Address #2 for hardware address detection.
 872:Generated_Source\PSoC4/RS232UART.c ****     *
 873:Generated_Source\PSoC4/RS232UART.c ****     * Return:
 874:Generated_Source\PSoC4/RS232UART.c ****     *  None.
 875:Generated_Source\PSoC4/RS232UART.c ****     *
 876:Generated_Source\PSoC4/RS232UART.c ****     *******************************************************************************/
 877:Generated_Source\PSoC4/RS232UART.c ****     void RS232UART_SetRxAddress2(uint8 address) 
 878:Generated_Source\PSoC4/RS232UART.c ****     {
 1081              		.loc 1 878 0
 1082              		.cfi_startproc
 1083              		@ args = 0, pretend = 0, frame = 8
 1084              		@ frame_needed = 1, uses_anonymous_args = 0
 1085 0000 80B5     		push	{r7, lr}
 1086              		.cfi_def_cfa_offset 8
 1087              		.cfi_offset 7, -8
 1088              		.cfi_offset 14, -4
 1089 0002 82B0     		sub	sp, sp, #8
 1090              		.cfi_def_cfa_offset 16
 1091 0004 00AF     		add	r7, sp, #0
 1092              		.cfi_def_cfa_register 7
 1093 0006 0200     		movs	r2, r0
 1094 0008 FB1D     		adds	r3, r7, #7
 1095 000a 1A70     		strb	r2, [r3]
 879:Generated_Source\PSoC4/RS232UART.c ****         RS232UART_RXADDRESS2_REG = address;
 1096              		.loc 1 879 0
 1097 000c 034A     		ldr	r2, .L64
 1098 000e FB1D     		adds	r3, r7, #7
 1099 0010 1B78     		ldrb	r3, [r3]
 1100 0012 1370     		strb	r3, [r2]
 880:Generated_Source\PSoC4/RS232UART.c ****     }
 1101              		.loc 1 880 0
 1102 0014 C046     		nop
 1103 0016 BD46     		mov	sp, r7
 1104 0018 02B0     		add	sp, sp, #8
 1105              		@ sp needed
 1106 001a 80BD     		pop	{r7, pc}
 1107              	.L65:
 1108              		.align	2
 1109              	.L64:
 1110 001c 33000F40 		.word	1074724915
 1111              		.cfi_endproc
 1112              	.LFE17:
ARM GAS  C:\Users\alexport\AppData\Local\Temp\ccDJmAqX.s 			page 36


 1113              		.size	RS232UART_SetRxAddress2, .-RS232UART_SetRxAddress2
 1114              		.section	.text.RS232UART_SetTxInterruptMode,"ax",%progbits
 1115              		.align	2
 1116              		.global	RS232UART_SetTxInterruptMode
 1117              		.code	16
 1118              		.thumb_func
 1119              		.type	RS232UART_SetTxInterruptMode, %function
 1120              	RS232UART_SetTxInterruptMode:
 1121              	.LFB18:
 881:Generated_Source\PSoC4/RS232UART.c **** 
 882:Generated_Source\PSoC4/RS232UART.c **** #endif  /* RS232UART_RX_ENABLED || RS232UART_HD_ENABLED*/
 883:Generated_Source\PSoC4/RS232UART.c **** 
 884:Generated_Source\PSoC4/RS232UART.c **** 
 885:Generated_Source\PSoC4/RS232UART.c **** #if( (RS232UART_TX_ENABLED) || (RS232UART_HD_ENABLED) )
 886:Generated_Source\PSoC4/RS232UART.c ****     /*******************************************************************************
 887:Generated_Source\PSoC4/RS232UART.c ****     * Function Name: RS232UART_SetTxInterruptMode
 888:Generated_Source\PSoC4/RS232UART.c ****     ********************************************************************************
 889:Generated_Source\PSoC4/RS232UART.c ****     *
 890:Generated_Source\PSoC4/RS232UART.c ****     * Summary:
 891:Generated_Source\PSoC4/RS232UART.c ****     *  Configures the TX interrupt sources to be enabled, but does not enable the
 892:Generated_Source\PSoC4/RS232UART.c ****     *  interrupt.
 893:Generated_Source\PSoC4/RS232UART.c ****     *
 894:Generated_Source\PSoC4/RS232UART.c ****     * Parameters:
 895:Generated_Source\PSoC4/RS232UART.c ****     *  intSrc: Bit field containing the TX interrupt sources to enable
 896:Generated_Source\PSoC4/RS232UART.c ****     *   RS232UART_TX_STS_COMPLETE        Interrupt on TX byte complete
 897:Generated_Source\PSoC4/RS232UART.c ****     *   RS232UART_TX_STS_FIFO_EMPTY      Interrupt when TX FIFO is empty
 898:Generated_Source\PSoC4/RS232UART.c ****     *   RS232UART_TX_STS_FIFO_FULL       Interrupt when TX FIFO is full
 899:Generated_Source\PSoC4/RS232UART.c ****     *   RS232UART_TX_STS_FIFO_NOT_FULL   Interrupt when TX FIFO is not full
 900:Generated_Source\PSoC4/RS232UART.c ****     *
 901:Generated_Source\PSoC4/RS232UART.c ****     * Return:
 902:Generated_Source\PSoC4/RS232UART.c ****     *  None.
 903:Generated_Source\PSoC4/RS232UART.c ****     *
 904:Generated_Source\PSoC4/RS232UART.c ****     * Theory:
 905:Generated_Source\PSoC4/RS232UART.c ****     *  Enables the output of specific status bits to the interrupt controller
 906:Generated_Source\PSoC4/RS232UART.c ****     *
 907:Generated_Source\PSoC4/RS232UART.c ****     *******************************************************************************/
 908:Generated_Source\PSoC4/RS232UART.c ****     void RS232UART_SetTxInterruptMode(uint8 intSrc) 
 909:Generated_Source\PSoC4/RS232UART.c ****     {
 1122              		.loc 1 909 0
 1123              		.cfi_startproc
 1124              		@ args = 0, pretend = 0, frame = 8
 1125              		@ frame_needed = 1, uses_anonymous_args = 0
 1126 0000 80B5     		push	{r7, lr}
 1127              		.cfi_def_cfa_offset 8
 1128              		.cfi_offset 7, -8
 1129              		.cfi_offset 14, -4
 1130 0002 82B0     		sub	sp, sp, #8
 1131              		.cfi_def_cfa_offset 16
 1132 0004 00AF     		add	r7, sp, #0
 1133              		.cfi_def_cfa_register 7
 1134 0006 0200     		movs	r2, r0
 1135 0008 FB1D     		adds	r3, r7, #7
 1136 000a 1A70     		strb	r2, [r3]
 910:Generated_Source\PSoC4/RS232UART.c ****         RS232UART_TXSTATUS_MASK_REG = intSrc;
 1137              		.loc 1 910 0
 1138 000c 034A     		ldr	r2, .L67
 1139 000e FB1D     		adds	r3, r7, #7
ARM GAS  C:\Users\alexport\AppData\Local\Temp\ccDJmAqX.s 			page 37


 1140 0010 1B78     		ldrb	r3, [r3]
 1141 0012 1370     		strb	r3, [r2]
 911:Generated_Source\PSoC4/RS232UART.c ****     }
 1142              		.loc 1 911 0
 1143 0014 C046     		nop
 1144 0016 BD46     		mov	sp, r7
 1145 0018 02B0     		add	sp, sp, #8
 1146              		@ sp needed
 1147 001a 80BD     		pop	{r7, pc}
 1148              	.L68:
 1149              		.align	2
 1150              	.L67:
 1151 001c 80000F40 		.word	1074724992
 1152              		.cfi_endproc
 1153              	.LFE18:
 1154              		.size	RS232UART_SetTxInterruptMode, .-RS232UART_SetTxInterruptMode
 1155              		.section	.text.RS232UART_WriteTxData,"ax",%progbits
 1156              		.align	2
 1157              		.global	RS232UART_WriteTxData
 1158              		.code	16
 1159              		.thumb_func
 1160              		.type	RS232UART_WriteTxData, %function
 1161              	RS232UART_WriteTxData:
 1162              	.LFB19:
 912:Generated_Source\PSoC4/RS232UART.c **** 
 913:Generated_Source\PSoC4/RS232UART.c **** 
 914:Generated_Source\PSoC4/RS232UART.c ****     /*******************************************************************************
 915:Generated_Source\PSoC4/RS232UART.c ****     * Function Name: RS232UART_WriteTxData
 916:Generated_Source\PSoC4/RS232UART.c ****     ********************************************************************************
 917:Generated_Source\PSoC4/RS232UART.c ****     *
 918:Generated_Source\PSoC4/RS232UART.c ****     * Summary:
 919:Generated_Source\PSoC4/RS232UART.c ****     *  Places a byte of data into the transmit buffer to be sent when the bus is
 920:Generated_Source\PSoC4/RS232UART.c ****     *  available without checking the TX status register. You must check status
 921:Generated_Source\PSoC4/RS232UART.c ****     *  separately.
 922:Generated_Source\PSoC4/RS232UART.c ****     *
 923:Generated_Source\PSoC4/RS232UART.c ****     * Parameters:
 924:Generated_Source\PSoC4/RS232UART.c ****     *  txDataByte: data byte
 925:Generated_Source\PSoC4/RS232UART.c ****     *
 926:Generated_Source\PSoC4/RS232UART.c ****     * Return:
 927:Generated_Source\PSoC4/RS232UART.c ****     * None.
 928:Generated_Source\PSoC4/RS232UART.c ****     *
 929:Generated_Source\PSoC4/RS232UART.c ****     * Global Variables:
 930:Generated_Source\PSoC4/RS232UART.c ****     *  RS232UART_txBuffer - RAM buffer pointer for save data for transmission
 931:Generated_Source\PSoC4/RS232UART.c ****     *  RS232UART_txBufferWrite - cyclic index for write to txBuffer,
 932:Generated_Source\PSoC4/RS232UART.c ****     *    incremented after each byte saved to buffer.
 933:Generated_Source\PSoC4/RS232UART.c ****     *  RS232UART_txBufferRead - cyclic index for read from txBuffer,
 934:Generated_Source\PSoC4/RS232UART.c ****     *    checked to identify the condition to write to FIFO directly or to TX buffer
 935:Generated_Source\PSoC4/RS232UART.c ****     *  RS232UART_initVar - checked to identify that the component has been
 936:Generated_Source\PSoC4/RS232UART.c ****     *    initialized.
 937:Generated_Source\PSoC4/RS232UART.c ****     *
 938:Generated_Source\PSoC4/RS232UART.c ****     * Reentrant:
 939:Generated_Source\PSoC4/RS232UART.c ****     *  No.
 940:Generated_Source\PSoC4/RS232UART.c ****     *
 941:Generated_Source\PSoC4/RS232UART.c ****     *******************************************************************************/
 942:Generated_Source\PSoC4/RS232UART.c ****     void RS232UART_WriteTxData(uint8 txDataByte) 
 943:Generated_Source\PSoC4/RS232UART.c ****     {
 1163              		.loc 1 943 0
ARM GAS  C:\Users\alexport\AppData\Local\Temp\ccDJmAqX.s 			page 38


 1164              		.cfi_startproc
 1165              		@ args = 0, pretend = 0, frame = 8
 1166              		@ frame_needed = 1, uses_anonymous_args = 0
 1167 0000 80B5     		push	{r7, lr}
 1168              		.cfi_def_cfa_offset 8
 1169              		.cfi_offset 7, -8
 1170              		.cfi_offset 14, -4
 1171 0002 82B0     		sub	sp, sp, #8
 1172              		.cfi_def_cfa_offset 16
 1173 0004 00AF     		add	r7, sp, #0
 1174              		.cfi_def_cfa_register 7
 1175 0006 0200     		movs	r2, r0
 1176 0008 FB1D     		adds	r3, r7, #7
 1177 000a 1A70     		strb	r2, [r3]
 944:Generated_Source\PSoC4/RS232UART.c ****         /* If not Initialized then skip this function*/
 945:Generated_Source\PSoC4/RS232UART.c ****         if(RS232UART_initVar != 0u)
 1178              		.loc 1 945 0
 1179 000c 054B     		ldr	r3, .L72
 1180 000e 1B78     		ldrb	r3, [r3]
 1181 0010 002B     		cmp	r3, #0
 1182 0012 03D0     		beq	.L71
 946:Generated_Source\PSoC4/RS232UART.c ****         {
 947:Generated_Source\PSoC4/RS232UART.c ****         #if (RS232UART_TX_INTERRUPT_ENABLED)
 948:Generated_Source\PSoC4/RS232UART.c **** 
 949:Generated_Source\PSoC4/RS232UART.c ****             /* Protect variables that could change on interrupt. */
 950:Generated_Source\PSoC4/RS232UART.c ****             RS232UART_DisableTxInt();
 951:Generated_Source\PSoC4/RS232UART.c **** 
 952:Generated_Source\PSoC4/RS232UART.c ****             if( (RS232UART_txBufferRead == RS232UART_txBufferWrite) &&
 953:Generated_Source\PSoC4/RS232UART.c ****                 ((RS232UART_TXSTATUS_REG & RS232UART_TX_STS_FIFO_FULL) == 0u) )
 954:Generated_Source\PSoC4/RS232UART.c ****             {
 955:Generated_Source\PSoC4/RS232UART.c ****                 /* Add directly to the FIFO. */
 956:Generated_Source\PSoC4/RS232UART.c ****                 RS232UART_TXDATA_REG = txDataByte;
 957:Generated_Source\PSoC4/RS232UART.c ****             }
 958:Generated_Source\PSoC4/RS232UART.c ****             else
 959:Generated_Source\PSoC4/RS232UART.c ****             {
 960:Generated_Source\PSoC4/RS232UART.c ****                 if(RS232UART_txBufferWrite >= RS232UART_TX_BUFFER_SIZE)
 961:Generated_Source\PSoC4/RS232UART.c ****                 {
 962:Generated_Source\PSoC4/RS232UART.c ****                     RS232UART_txBufferWrite = 0u;
 963:Generated_Source\PSoC4/RS232UART.c ****                 }
 964:Generated_Source\PSoC4/RS232UART.c **** 
 965:Generated_Source\PSoC4/RS232UART.c ****                 RS232UART_txBuffer[RS232UART_txBufferWrite] = txDataByte;
 966:Generated_Source\PSoC4/RS232UART.c **** 
 967:Generated_Source\PSoC4/RS232UART.c ****                 /* Add to the software buffer. */
 968:Generated_Source\PSoC4/RS232UART.c ****                 RS232UART_txBufferWrite++;
 969:Generated_Source\PSoC4/RS232UART.c ****             }
 970:Generated_Source\PSoC4/RS232UART.c **** 
 971:Generated_Source\PSoC4/RS232UART.c ****             RS232UART_EnableTxInt();
 972:Generated_Source\PSoC4/RS232UART.c **** 
 973:Generated_Source\PSoC4/RS232UART.c ****         #else
 974:Generated_Source\PSoC4/RS232UART.c **** 
 975:Generated_Source\PSoC4/RS232UART.c ****             /* Add directly to the FIFO. */
 976:Generated_Source\PSoC4/RS232UART.c ****             RS232UART_TXDATA_REG = txDataByte;
 1183              		.loc 1 976 0
 1184 0014 044A     		ldr	r2, .L72+4
 1185 0016 FB1D     		adds	r3, r7, #7
 1186 0018 1B78     		ldrb	r3, [r3]
 1187 001a 1370     		strb	r3, [r2]
ARM GAS  C:\Users\alexport\AppData\Local\Temp\ccDJmAqX.s 			page 39


 1188              	.L71:
 977:Generated_Source\PSoC4/RS232UART.c **** 
 978:Generated_Source\PSoC4/RS232UART.c ****         #endif /*(RS232UART_TX_INTERRUPT_ENABLED) */
 979:Generated_Source\PSoC4/RS232UART.c ****         }
 980:Generated_Source\PSoC4/RS232UART.c ****     }
 1189              		.loc 1 980 0
 1190 001c C046     		nop
 1191 001e BD46     		mov	sp, r7
 1192 0020 02B0     		add	sp, sp, #8
 1193              		@ sp needed
 1194 0022 80BD     		pop	{r7, pc}
 1195              	.L73:
 1196              		.align	2
 1197              	.L72:
 1198 0024 00000000 		.word	RS232UART_initVar
 1199 0028 40000F40 		.word	1074724928
 1200              		.cfi_endproc
 1201              	.LFE19:
 1202              		.size	RS232UART_WriteTxData, .-RS232UART_WriteTxData
 1203              		.section	.text.RS232UART_ReadTxStatus,"ax",%progbits
 1204              		.align	2
 1205              		.global	RS232UART_ReadTxStatus
 1206              		.code	16
 1207              		.thumb_func
 1208              		.type	RS232UART_ReadTxStatus, %function
 1209              	RS232UART_ReadTxStatus:
 1210              	.LFB20:
 981:Generated_Source\PSoC4/RS232UART.c **** 
 982:Generated_Source\PSoC4/RS232UART.c **** 
 983:Generated_Source\PSoC4/RS232UART.c ****     /*******************************************************************************
 984:Generated_Source\PSoC4/RS232UART.c ****     * Function Name: RS232UART_ReadTxStatus
 985:Generated_Source\PSoC4/RS232UART.c ****     ********************************************************************************
 986:Generated_Source\PSoC4/RS232UART.c ****     *
 987:Generated_Source\PSoC4/RS232UART.c ****     * Summary:
 988:Generated_Source\PSoC4/RS232UART.c ****     *  Reads the status register for the TX portion of the UART.
 989:Generated_Source\PSoC4/RS232UART.c ****     *
 990:Generated_Source\PSoC4/RS232UART.c ****     * Parameters:
 991:Generated_Source\PSoC4/RS232UART.c ****     *  None.
 992:Generated_Source\PSoC4/RS232UART.c ****     *
 993:Generated_Source\PSoC4/RS232UART.c ****     * Return:
 994:Generated_Source\PSoC4/RS232UART.c ****     *  Contents of the status register
 995:Generated_Source\PSoC4/RS232UART.c ****     *
 996:Generated_Source\PSoC4/RS232UART.c ****     * Theory:
 997:Generated_Source\PSoC4/RS232UART.c ****     *  This function reads the TX status register, which is cleared on read.
 998:Generated_Source\PSoC4/RS232UART.c ****     *  It is up to the user to handle all bits in this return value accordingly,
 999:Generated_Source\PSoC4/RS232UART.c ****     *  even if the bit was not enabled as an interrupt source the event happened
1000:Generated_Source\PSoC4/RS232UART.c ****     *  and must be handled accordingly.
1001:Generated_Source\PSoC4/RS232UART.c ****     *
1002:Generated_Source\PSoC4/RS232UART.c ****     *******************************************************************************/
1003:Generated_Source\PSoC4/RS232UART.c ****     uint8 RS232UART_ReadTxStatus(void) 
1004:Generated_Source\PSoC4/RS232UART.c ****     {
 1211              		.loc 1 1004 0
 1212              		.cfi_startproc
 1213              		@ args = 0, pretend = 0, frame = 0
 1214              		@ frame_needed = 1, uses_anonymous_args = 0
 1215 0000 80B5     		push	{r7, lr}
 1216              		.cfi_def_cfa_offset 8
ARM GAS  C:\Users\alexport\AppData\Local\Temp\ccDJmAqX.s 			page 40


 1217              		.cfi_offset 7, -8
 1218              		.cfi_offset 14, -4
 1219 0002 00AF     		add	r7, sp, #0
 1220              		.cfi_def_cfa_register 7
1005:Generated_Source\PSoC4/RS232UART.c ****         return(RS232UART_TXSTATUS_REG);
 1221              		.loc 1 1005 0
 1222 0004 024B     		ldr	r3, .L76
 1223 0006 1B78     		ldrb	r3, [r3]
 1224 0008 DBB2     		uxtb	r3, r3
1006:Generated_Source\PSoC4/RS232UART.c ****     }
 1225              		.loc 1 1006 0
 1226 000a 1800     		movs	r0, r3
 1227 000c BD46     		mov	sp, r7
 1228              		@ sp needed
 1229 000e 80BD     		pop	{r7, pc}
 1230              	.L77:
 1231              		.align	2
 1232              	.L76:
 1233 0010 60000F40 		.word	1074724960
 1234              		.cfi_endproc
 1235              	.LFE20:
 1236              		.size	RS232UART_ReadTxStatus, .-RS232UART_ReadTxStatus
 1237              		.section	.text.RS232UART_PutChar,"ax",%progbits
 1238              		.align	2
 1239              		.global	RS232UART_PutChar
 1240              		.code	16
 1241              		.thumb_func
 1242              		.type	RS232UART_PutChar, %function
 1243              	RS232UART_PutChar:
 1244              	.LFB21:
1007:Generated_Source\PSoC4/RS232UART.c **** 
1008:Generated_Source\PSoC4/RS232UART.c **** 
1009:Generated_Source\PSoC4/RS232UART.c ****     /*******************************************************************************
1010:Generated_Source\PSoC4/RS232UART.c ****     * Function Name: RS232UART_PutChar
1011:Generated_Source\PSoC4/RS232UART.c ****     ********************************************************************************
1012:Generated_Source\PSoC4/RS232UART.c ****     *
1013:Generated_Source\PSoC4/RS232UART.c ****     * Summary:
1014:Generated_Source\PSoC4/RS232UART.c ****     *  Puts a byte of data into the transmit buffer to be sent when the bus is
1015:Generated_Source\PSoC4/RS232UART.c ****     *  available. This is a blocking API that waits until the TX buffer has room to
1016:Generated_Source\PSoC4/RS232UART.c ****     *  hold the data.
1017:Generated_Source\PSoC4/RS232UART.c ****     *
1018:Generated_Source\PSoC4/RS232UART.c ****     * Parameters:
1019:Generated_Source\PSoC4/RS232UART.c ****     *  txDataByte: Byte containing the data to transmit
1020:Generated_Source\PSoC4/RS232UART.c ****     *
1021:Generated_Source\PSoC4/RS232UART.c ****     * Return:
1022:Generated_Source\PSoC4/RS232UART.c ****     *  None.
1023:Generated_Source\PSoC4/RS232UART.c ****     *
1024:Generated_Source\PSoC4/RS232UART.c ****     * Global Variables:
1025:Generated_Source\PSoC4/RS232UART.c ****     *  RS232UART_txBuffer - RAM buffer pointer for save data for transmission
1026:Generated_Source\PSoC4/RS232UART.c ****     *  RS232UART_txBufferWrite - cyclic index for write to txBuffer,
1027:Generated_Source\PSoC4/RS232UART.c ****     *     checked to identify free space in txBuffer and incremented after each byte
1028:Generated_Source\PSoC4/RS232UART.c ****     *     saved to buffer.
1029:Generated_Source\PSoC4/RS232UART.c ****     *  RS232UART_txBufferRead - cyclic index for read from txBuffer,
1030:Generated_Source\PSoC4/RS232UART.c ****     *     checked to identify free space in txBuffer.
1031:Generated_Source\PSoC4/RS232UART.c ****     *  RS232UART_initVar - checked to identify that the component has been
1032:Generated_Source\PSoC4/RS232UART.c ****     *     initialized.
1033:Generated_Source\PSoC4/RS232UART.c ****     *
ARM GAS  C:\Users\alexport\AppData\Local\Temp\ccDJmAqX.s 			page 41


1034:Generated_Source\PSoC4/RS232UART.c ****     * Reentrant:
1035:Generated_Source\PSoC4/RS232UART.c ****     *  No.
1036:Generated_Source\PSoC4/RS232UART.c ****     *
1037:Generated_Source\PSoC4/RS232UART.c ****     * Theory:
1038:Generated_Source\PSoC4/RS232UART.c ****     *  Allows the user to transmit any byte of data in a single transfer
1039:Generated_Source\PSoC4/RS232UART.c ****     *
1040:Generated_Source\PSoC4/RS232UART.c ****     *******************************************************************************/
1041:Generated_Source\PSoC4/RS232UART.c ****     void RS232UART_PutChar(uint8 txDataByte) 
1042:Generated_Source\PSoC4/RS232UART.c ****     {
 1245              		.loc 1 1042 0
 1246              		.cfi_startproc
 1247              		@ args = 0, pretend = 0, frame = 8
 1248              		@ frame_needed = 1, uses_anonymous_args = 0
 1249 0000 80B5     		push	{r7, lr}
 1250              		.cfi_def_cfa_offset 8
 1251              		.cfi_offset 7, -8
 1252              		.cfi_offset 14, -4
 1253 0002 82B0     		sub	sp, sp, #8
 1254              		.cfi_def_cfa_offset 16
 1255 0004 00AF     		add	r7, sp, #0
 1256              		.cfi_def_cfa_register 7
 1257 0006 0200     		movs	r2, r0
 1258 0008 FB1D     		adds	r3, r7, #7
 1259 000a 1A70     		strb	r2, [r3]
1043:Generated_Source\PSoC4/RS232UART.c ****     #if (RS232UART_TX_INTERRUPT_ENABLED)
1044:Generated_Source\PSoC4/RS232UART.c ****         /* The temporary output pointer is used since it takes two instructions
1045:Generated_Source\PSoC4/RS232UART.c ****         *  to increment with a wrap, and we can't risk doing that with the real
1046:Generated_Source\PSoC4/RS232UART.c ****         *  pointer and getting an interrupt in between instructions.
1047:Generated_Source\PSoC4/RS232UART.c ****         */
1048:Generated_Source\PSoC4/RS232UART.c ****         uint8 locTxBufferWrite;
1049:Generated_Source\PSoC4/RS232UART.c ****         uint8 locTxBufferRead;
1050:Generated_Source\PSoC4/RS232UART.c **** 
1051:Generated_Source\PSoC4/RS232UART.c ****         do
1052:Generated_Source\PSoC4/RS232UART.c ****         { /* Block if software buffer is full, so we don't overwrite. */
1053:Generated_Source\PSoC4/RS232UART.c **** 
1054:Generated_Source\PSoC4/RS232UART.c ****         #if ((RS232UART_TX_BUFFER_SIZE > RS232UART_MAX_BYTE_VALUE) && (CY_PSOC3))
1055:Generated_Source\PSoC4/RS232UART.c ****             /* Disable TX interrupt to protect variables from modification */
1056:Generated_Source\PSoC4/RS232UART.c ****             RS232UART_DisableTxInt();
1057:Generated_Source\PSoC4/RS232UART.c ****         #endif /* (RS232UART_TX_BUFFER_SIZE > RS232UART_MAX_BYTE_VALUE) && (CY_PSOC3) */
1058:Generated_Source\PSoC4/RS232UART.c **** 
1059:Generated_Source\PSoC4/RS232UART.c ****             locTxBufferWrite = RS232UART_txBufferWrite;
1060:Generated_Source\PSoC4/RS232UART.c ****             locTxBufferRead  = RS232UART_txBufferRead;
1061:Generated_Source\PSoC4/RS232UART.c **** 
1062:Generated_Source\PSoC4/RS232UART.c ****         #if ((RS232UART_TX_BUFFER_SIZE > RS232UART_MAX_BYTE_VALUE) && (CY_PSOC3))
1063:Generated_Source\PSoC4/RS232UART.c ****             /* Enable interrupt to continue transmission */
1064:Generated_Source\PSoC4/RS232UART.c ****             RS232UART_EnableTxInt();
1065:Generated_Source\PSoC4/RS232UART.c ****         #endif /* (RS232UART_TX_BUFFER_SIZE > RS232UART_MAX_BYTE_VALUE) && (CY_PSOC3) */
1066:Generated_Source\PSoC4/RS232UART.c ****         }
1067:Generated_Source\PSoC4/RS232UART.c ****         while( (locTxBufferWrite < locTxBufferRead) ? (locTxBufferWrite == (locTxBufferRead - 1u)) 
1068:Generated_Source\PSoC4/RS232UART.c ****                                 ((locTxBufferWrite - locTxBufferRead) ==
1069:Generated_Source\PSoC4/RS232UART.c ****                                 (uint8)(RS232UART_TX_BUFFER_SIZE - 1u)) );
1070:Generated_Source\PSoC4/RS232UART.c **** 
1071:Generated_Source\PSoC4/RS232UART.c ****         if( (locTxBufferRead == locTxBufferWrite) &&
1072:Generated_Source\PSoC4/RS232UART.c ****             ((RS232UART_TXSTATUS_REG & RS232UART_TX_STS_FIFO_FULL) == 0u) )
1073:Generated_Source\PSoC4/RS232UART.c ****         {
1074:Generated_Source\PSoC4/RS232UART.c ****             /* Add directly to the FIFO */
1075:Generated_Source\PSoC4/RS232UART.c ****             RS232UART_TXDATA_REG = txDataByte;
ARM GAS  C:\Users\alexport\AppData\Local\Temp\ccDJmAqX.s 			page 42


1076:Generated_Source\PSoC4/RS232UART.c ****         }
1077:Generated_Source\PSoC4/RS232UART.c ****         else
1078:Generated_Source\PSoC4/RS232UART.c ****         {
1079:Generated_Source\PSoC4/RS232UART.c ****             if(locTxBufferWrite >= RS232UART_TX_BUFFER_SIZE)
1080:Generated_Source\PSoC4/RS232UART.c ****             {
1081:Generated_Source\PSoC4/RS232UART.c ****                 locTxBufferWrite = 0u;
1082:Generated_Source\PSoC4/RS232UART.c ****             }
1083:Generated_Source\PSoC4/RS232UART.c ****             /* Add to the software buffer. */
1084:Generated_Source\PSoC4/RS232UART.c ****             RS232UART_txBuffer[locTxBufferWrite] = txDataByte;
1085:Generated_Source\PSoC4/RS232UART.c ****             locTxBufferWrite++;
1086:Generated_Source\PSoC4/RS232UART.c **** 
1087:Generated_Source\PSoC4/RS232UART.c ****             /* Finally, update the real output pointer */
1088:Generated_Source\PSoC4/RS232UART.c ****         #if ((RS232UART_TX_BUFFER_SIZE > RS232UART_MAX_BYTE_VALUE) && (CY_PSOC3))
1089:Generated_Source\PSoC4/RS232UART.c ****             RS232UART_DisableTxInt();
1090:Generated_Source\PSoC4/RS232UART.c ****         #endif /* (RS232UART_TX_BUFFER_SIZE > RS232UART_MAX_BYTE_VALUE) && (CY_PSOC3) */
1091:Generated_Source\PSoC4/RS232UART.c **** 
1092:Generated_Source\PSoC4/RS232UART.c ****             RS232UART_txBufferWrite = locTxBufferWrite;
1093:Generated_Source\PSoC4/RS232UART.c **** 
1094:Generated_Source\PSoC4/RS232UART.c ****         #if ((RS232UART_TX_BUFFER_SIZE > RS232UART_MAX_BYTE_VALUE) && (CY_PSOC3))
1095:Generated_Source\PSoC4/RS232UART.c ****             RS232UART_EnableTxInt();
1096:Generated_Source\PSoC4/RS232UART.c ****         #endif /* (RS232UART_TX_BUFFER_SIZE > RS232UART_MAX_BYTE_VALUE) && (CY_PSOC3) */
1097:Generated_Source\PSoC4/RS232UART.c **** 
1098:Generated_Source\PSoC4/RS232UART.c ****             if(0u != (RS232UART_TXSTATUS_REG & RS232UART_TX_STS_FIFO_EMPTY))
1099:Generated_Source\PSoC4/RS232UART.c ****             {
1100:Generated_Source\PSoC4/RS232UART.c ****                 /* Trigger TX interrupt to send software buffer */
1101:Generated_Source\PSoC4/RS232UART.c ****                 RS232UART_SetPendingTxInt();
1102:Generated_Source\PSoC4/RS232UART.c ****             }
1103:Generated_Source\PSoC4/RS232UART.c ****         }
1104:Generated_Source\PSoC4/RS232UART.c **** 
1105:Generated_Source\PSoC4/RS232UART.c ****     #else
1106:Generated_Source\PSoC4/RS232UART.c **** 
1107:Generated_Source\PSoC4/RS232UART.c ****         while((RS232UART_TXSTATUS_REG & RS232UART_TX_STS_FIFO_FULL) != 0u)
 1260              		.loc 1 1107 0
 1261 000c C046     		nop
 1262              	.L79:
 1263              		.loc 1 1107 0 is_stmt 0 discriminator 1
 1264 000e 074B     		ldr	r3, .L80
 1265 0010 1B78     		ldrb	r3, [r3]
 1266 0012 DBB2     		uxtb	r3, r3
 1267 0014 1A00     		movs	r2, r3
 1268 0016 0423     		movs	r3, #4
 1269 0018 1340     		ands	r3, r2
 1270 001a F8D1     		bne	.L79
1108:Generated_Source\PSoC4/RS232UART.c ****         {
1109:Generated_Source\PSoC4/RS232UART.c ****             /* Wait for room in the FIFO */
1110:Generated_Source\PSoC4/RS232UART.c ****         }
1111:Generated_Source\PSoC4/RS232UART.c **** 
1112:Generated_Source\PSoC4/RS232UART.c ****         /* Add directly to the FIFO */
1113:Generated_Source\PSoC4/RS232UART.c ****         RS232UART_TXDATA_REG = txDataByte;
 1271              		.loc 1 1113 0 is_stmt 1
 1272 001c 044A     		ldr	r2, .L80+4
 1273 001e FB1D     		adds	r3, r7, #7
 1274 0020 1B78     		ldrb	r3, [r3]
 1275 0022 1370     		strb	r3, [r2]
1114:Generated_Source\PSoC4/RS232UART.c **** 
1115:Generated_Source\PSoC4/RS232UART.c ****     #endif /* RS232UART_TX_INTERRUPT_ENABLED */
1116:Generated_Source\PSoC4/RS232UART.c ****     }
ARM GAS  C:\Users\alexport\AppData\Local\Temp\ccDJmAqX.s 			page 43


 1276              		.loc 1 1116 0
 1277 0024 C046     		nop
 1278 0026 BD46     		mov	sp, r7
 1279 0028 02B0     		add	sp, sp, #8
 1280              		@ sp needed
 1281 002a 80BD     		pop	{r7, pc}
 1282              	.L81:
 1283              		.align	2
 1284              	.L80:
 1285 002c 60000F40 		.word	1074724960
 1286 0030 40000F40 		.word	1074724928
 1287              		.cfi_endproc
 1288              	.LFE21:
 1289              		.size	RS232UART_PutChar, .-RS232UART_PutChar
 1290              		.section	.text.RS232UART_PutString,"ax",%progbits
 1291              		.align	2
 1292              		.global	RS232UART_PutString
 1293              		.code	16
 1294              		.thumb_func
 1295              		.type	RS232UART_PutString, %function
 1296              	RS232UART_PutString:
 1297              	.LFB22:
1117:Generated_Source\PSoC4/RS232UART.c **** 
1118:Generated_Source\PSoC4/RS232UART.c **** 
1119:Generated_Source\PSoC4/RS232UART.c ****     /*******************************************************************************
1120:Generated_Source\PSoC4/RS232UART.c ****     * Function Name: RS232UART_PutString
1121:Generated_Source\PSoC4/RS232UART.c ****     ********************************************************************************
1122:Generated_Source\PSoC4/RS232UART.c ****     *
1123:Generated_Source\PSoC4/RS232UART.c ****     * Summary:
1124:Generated_Source\PSoC4/RS232UART.c ****     *  Sends a NULL terminated string to the TX buffer for transmission.
1125:Generated_Source\PSoC4/RS232UART.c ****     *
1126:Generated_Source\PSoC4/RS232UART.c ****     * Parameters:
1127:Generated_Source\PSoC4/RS232UART.c ****     *  string[]: Pointer to the null terminated string array residing in RAM or ROM
1128:Generated_Source\PSoC4/RS232UART.c ****     *
1129:Generated_Source\PSoC4/RS232UART.c ****     * Return:
1130:Generated_Source\PSoC4/RS232UART.c ****     *  None.
1131:Generated_Source\PSoC4/RS232UART.c ****     *
1132:Generated_Source\PSoC4/RS232UART.c ****     * Global Variables:
1133:Generated_Source\PSoC4/RS232UART.c ****     *  RS232UART_initVar - checked to identify that the component has been
1134:Generated_Source\PSoC4/RS232UART.c ****     *     initialized.
1135:Generated_Source\PSoC4/RS232UART.c ****     *
1136:Generated_Source\PSoC4/RS232UART.c ****     * Reentrant:
1137:Generated_Source\PSoC4/RS232UART.c ****     *  No.
1138:Generated_Source\PSoC4/RS232UART.c ****     *
1139:Generated_Source\PSoC4/RS232UART.c ****     * Theory:
1140:Generated_Source\PSoC4/RS232UART.c ****     *  If there is not enough memory in the TX buffer for the entire string, this
1141:Generated_Source\PSoC4/RS232UART.c ****     *  function blocks until the last character of the string is loaded into the
1142:Generated_Source\PSoC4/RS232UART.c ****     *  TX buffer.
1143:Generated_Source\PSoC4/RS232UART.c ****     *
1144:Generated_Source\PSoC4/RS232UART.c ****     *******************************************************************************/
1145:Generated_Source\PSoC4/RS232UART.c ****     void RS232UART_PutString(const char8 string[]) 
1146:Generated_Source\PSoC4/RS232UART.c ****     {
 1298              		.loc 1 1146 0
 1299              		.cfi_startproc
 1300              		@ args = 0, pretend = 0, frame = 16
 1301              		@ frame_needed = 1, uses_anonymous_args = 0
 1302 0000 80B5     		push	{r7, lr}
ARM GAS  C:\Users\alexport\AppData\Local\Temp\ccDJmAqX.s 			page 44


 1303              		.cfi_def_cfa_offset 8
 1304              		.cfi_offset 7, -8
 1305              		.cfi_offset 14, -4
 1306 0002 84B0     		sub	sp, sp, #16
 1307              		.cfi_def_cfa_offset 24
 1308 0004 00AF     		add	r7, sp, #0
 1309              		.cfi_def_cfa_register 7
 1310 0006 7860     		str	r0, [r7, #4]
1147:Generated_Source\PSoC4/RS232UART.c ****         uint16 bufIndex = 0u;
 1311              		.loc 1 1147 0
 1312 0008 0E23     		movs	r3, #14
 1313 000a FB18     		adds	r3, r7, r3
 1314 000c 0022     		movs	r2, #0
 1315 000e 1A80     		strh	r2, [r3]
1148:Generated_Source\PSoC4/RS232UART.c **** 
1149:Generated_Source\PSoC4/RS232UART.c ****         /* If not Initialized then skip this function */
1150:Generated_Source\PSoC4/RS232UART.c ****         if(RS232UART_initVar != 0u)
 1316              		.loc 1 1150 0
 1317 0010 104B     		ldr	r3, .L87
 1318 0012 1B78     		ldrb	r3, [r3]
 1319 0014 002B     		cmp	r3, #0
 1320 0016 18D0     		beq	.L86
1151:Generated_Source\PSoC4/RS232UART.c ****         {
1152:Generated_Source\PSoC4/RS232UART.c ****             /* This is a blocking function, it will not exit until all data is sent */
1153:Generated_Source\PSoC4/RS232UART.c ****             while(string[bufIndex] != (char8) 0)
 1321              		.loc 1 1153 0
 1322 0018 0FE0     		b	.L84
 1323              	.L85:
1154:Generated_Source\PSoC4/RS232UART.c ****             {
1155:Generated_Source\PSoC4/RS232UART.c ****                 RS232UART_PutChar((uint8)string[bufIndex]);
 1324              		.loc 1 1155 0
 1325 001a 0E23     		movs	r3, #14
 1326 001c FB18     		adds	r3, r7, r3
 1327 001e 1B88     		ldrh	r3, [r3]
 1328 0020 7A68     		ldr	r2, [r7, #4]
 1329 0022 D318     		adds	r3, r2, r3
 1330 0024 1B78     		ldrb	r3, [r3]
 1331 0026 1800     		movs	r0, r3
 1332 0028 FFF7FEFF 		bl	RS232UART_PutChar
1156:Generated_Source\PSoC4/RS232UART.c ****                 bufIndex++;
 1333              		.loc 1 1156 0
 1334 002c 0E23     		movs	r3, #14
 1335 002e FB18     		adds	r3, r7, r3
 1336 0030 1A88     		ldrh	r2, [r3]
 1337 0032 0E23     		movs	r3, #14
 1338 0034 FB18     		adds	r3, r7, r3
 1339 0036 0132     		adds	r2, r2, #1
 1340 0038 1A80     		strh	r2, [r3]
 1341              	.L84:
1153:Generated_Source\PSoC4/RS232UART.c ****             {
 1342              		.loc 1 1153 0
 1343 003a 0E23     		movs	r3, #14
 1344 003c FB18     		adds	r3, r7, r3
 1345 003e 1B88     		ldrh	r3, [r3]
 1346 0040 7A68     		ldr	r2, [r7, #4]
 1347 0042 D318     		adds	r3, r2, r3
 1348 0044 1B78     		ldrb	r3, [r3]
ARM GAS  C:\Users\alexport\AppData\Local\Temp\ccDJmAqX.s 			page 45


 1349 0046 002B     		cmp	r3, #0
 1350 0048 E7D1     		bne	.L85
 1351              	.L86:
1157:Generated_Source\PSoC4/RS232UART.c ****             }
1158:Generated_Source\PSoC4/RS232UART.c ****         }
1159:Generated_Source\PSoC4/RS232UART.c ****     }
 1352              		.loc 1 1159 0
 1353 004a C046     		nop
 1354 004c BD46     		mov	sp, r7
 1355 004e 04B0     		add	sp, sp, #16
 1356              		@ sp needed
 1357 0050 80BD     		pop	{r7, pc}
 1358              	.L88:
 1359 0052 C046     		.align	2
 1360              	.L87:
 1361 0054 00000000 		.word	RS232UART_initVar
 1362              		.cfi_endproc
 1363              	.LFE22:
 1364              		.size	RS232UART_PutString, .-RS232UART_PutString
 1365              		.section	.text.RS232UART_PutArray,"ax",%progbits
 1366              		.align	2
 1367              		.global	RS232UART_PutArray
 1368              		.code	16
 1369              		.thumb_func
 1370              		.type	RS232UART_PutArray, %function
 1371              	RS232UART_PutArray:
 1372              	.LFB23:
1160:Generated_Source\PSoC4/RS232UART.c **** 
1161:Generated_Source\PSoC4/RS232UART.c **** 
1162:Generated_Source\PSoC4/RS232UART.c ****     /*******************************************************************************
1163:Generated_Source\PSoC4/RS232UART.c ****     * Function Name: RS232UART_PutArray
1164:Generated_Source\PSoC4/RS232UART.c ****     ********************************************************************************
1165:Generated_Source\PSoC4/RS232UART.c ****     *
1166:Generated_Source\PSoC4/RS232UART.c ****     * Summary:
1167:Generated_Source\PSoC4/RS232UART.c ****     *  Places N bytes of data from a memory array into the TX buffer for
1168:Generated_Source\PSoC4/RS232UART.c ****     *  transmission.
1169:Generated_Source\PSoC4/RS232UART.c ****     *
1170:Generated_Source\PSoC4/RS232UART.c ****     * Parameters:
1171:Generated_Source\PSoC4/RS232UART.c ****     *  string[]: Address of the memory array residing in RAM or ROM.
1172:Generated_Source\PSoC4/RS232UART.c ****     *  byteCount: Number of bytes to be transmitted. The type depends on TX Buffer
1173:Generated_Source\PSoC4/RS232UART.c ****     *             Size parameter.
1174:Generated_Source\PSoC4/RS232UART.c ****     *
1175:Generated_Source\PSoC4/RS232UART.c ****     * Return:
1176:Generated_Source\PSoC4/RS232UART.c ****     *  None.
1177:Generated_Source\PSoC4/RS232UART.c ****     *
1178:Generated_Source\PSoC4/RS232UART.c ****     * Global Variables:
1179:Generated_Source\PSoC4/RS232UART.c ****     *  RS232UART_initVar - checked to identify that the component has been
1180:Generated_Source\PSoC4/RS232UART.c ****     *     initialized.
1181:Generated_Source\PSoC4/RS232UART.c ****     *
1182:Generated_Source\PSoC4/RS232UART.c ****     * Reentrant:
1183:Generated_Source\PSoC4/RS232UART.c ****     *  No.
1184:Generated_Source\PSoC4/RS232UART.c ****     *
1185:Generated_Source\PSoC4/RS232UART.c ****     * Theory:
1186:Generated_Source\PSoC4/RS232UART.c ****     *  If there is not enough memory in the TX buffer for the entire string, this
1187:Generated_Source\PSoC4/RS232UART.c ****     *  function blocks until the last character of the string is loaded into the
1188:Generated_Source\PSoC4/RS232UART.c ****     *  TX buffer.
1189:Generated_Source\PSoC4/RS232UART.c ****     *
ARM GAS  C:\Users\alexport\AppData\Local\Temp\ccDJmAqX.s 			page 46


1190:Generated_Source\PSoC4/RS232UART.c ****     *******************************************************************************/
1191:Generated_Source\PSoC4/RS232UART.c ****     void RS232UART_PutArray(const uint8 string[], uint8 byteCount)
1192:Generated_Source\PSoC4/RS232UART.c ****                                                                     
1193:Generated_Source\PSoC4/RS232UART.c ****     {
 1373              		.loc 1 1193 0
 1374              		.cfi_startproc
 1375              		@ args = 0, pretend = 0, frame = 16
 1376              		@ frame_needed = 1, uses_anonymous_args = 0
 1377 0000 80B5     		push	{r7, lr}
 1378              		.cfi_def_cfa_offset 8
 1379              		.cfi_offset 7, -8
 1380              		.cfi_offset 14, -4
 1381 0002 84B0     		sub	sp, sp, #16
 1382              		.cfi_def_cfa_offset 24
 1383 0004 00AF     		add	r7, sp, #0
 1384              		.cfi_def_cfa_register 7
 1385 0006 7860     		str	r0, [r7, #4]
 1386 0008 0A00     		movs	r2, r1
 1387 000a FB1C     		adds	r3, r7, #3
 1388 000c 1A70     		strb	r2, [r3]
1194:Generated_Source\PSoC4/RS232UART.c ****         uint8 bufIndex = 0u;
 1389              		.loc 1 1194 0
 1390 000e 0F23     		movs	r3, #15
 1391 0010 FB18     		adds	r3, r7, r3
 1392 0012 0022     		movs	r2, #0
 1393 0014 1A70     		strb	r2, [r3]
1195:Generated_Source\PSoC4/RS232UART.c **** 
1196:Generated_Source\PSoC4/RS232UART.c ****         /* If not Initialized then skip this function */
1197:Generated_Source\PSoC4/RS232UART.c ****         if(RS232UART_initVar != 0u)
 1394              		.loc 1 1197 0
 1395 0016 104B     		ldr	r3, .L94
 1396 0018 1B78     		ldrb	r3, [r3]
 1397 001a 002B     		cmp	r3, #0
 1398 001c 17D0     		beq	.L93
1198:Generated_Source\PSoC4/RS232UART.c ****         {
1199:Generated_Source\PSoC4/RS232UART.c ****             while(bufIndex < byteCount)
 1399              		.loc 1 1199 0
 1400 001e 0FE0     		b	.L91
 1401              	.L92:
1200:Generated_Source\PSoC4/RS232UART.c ****             {
1201:Generated_Source\PSoC4/RS232UART.c ****                 RS232UART_PutChar(string[bufIndex]);
 1402              		.loc 1 1201 0
 1403 0020 0F23     		movs	r3, #15
 1404 0022 FB18     		adds	r3, r7, r3
 1405 0024 1B78     		ldrb	r3, [r3]
 1406 0026 7A68     		ldr	r2, [r7, #4]
 1407 0028 D318     		adds	r3, r2, r3
 1408 002a 1B78     		ldrb	r3, [r3]
 1409 002c 1800     		movs	r0, r3
 1410 002e FFF7FEFF 		bl	RS232UART_PutChar
1202:Generated_Source\PSoC4/RS232UART.c ****                 bufIndex++;
 1411              		.loc 1 1202 0
 1412 0032 0F23     		movs	r3, #15
 1413 0034 FB18     		adds	r3, r7, r3
 1414 0036 1A78     		ldrb	r2, [r3]
 1415 0038 0F23     		movs	r3, #15
 1416 003a FB18     		adds	r3, r7, r3
ARM GAS  C:\Users\alexport\AppData\Local\Temp\ccDJmAqX.s 			page 47


 1417 003c 0132     		adds	r2, r2, #1
 1418 003e 1A70     		strb	r2, [r3]
 1419              	.L91:
1199:Generated_Source\PSoC4/RS232UART.c ****             {
 1420              		.loc 1 1199 0
 1421 0040 0F23     		movs	r3, #15
 1422 0042 FA18     		adds	r2, r7, r3
 1423 0044 FB1C     		adds	r3, r7, #3
 1424 0046 1278     		ldrb	r2, [r2]
 1425 0048 1B78     		ldrb	r3, [r3]
 1426 004a 9A42     		cmp	r2, r3
 1427 004c E8D3     		bcc	.L92
 1428              	.L93:
1203:Generated_Source\PSoC4/RS232UART.c ****             }
1204:Generated_Source\PSoC4/RS232UART.c ****         }
1205:Generated_Source\PSoC4/RS232UART.c ****     }
 1429              		.loc 1 1205 0
 1430 004e C046     		nop
 1431 0050 BD46     		mov	sp, r7
 1432 0052 04B0     		add	sp, sp, #16
 1433              		@ sp needed
 1434 0054 80BD     		pop	{r7, pc}
 1435              	.L95:
 1436 0056 C046     		.align	2
 1437              	.L94:
 1438 0058 00000000 		.word	RS232UART_initVar
 1439              		.cfi_endproc
 1440              	.LFE23:
 1441              		.size	RS232UART_PutArray, .-RS232UART_PutArray
 1442              		.section	.text.RS232UART_PutCRLF,"ax",%progbits
 1443              		.align	2
 1444              		.global	RS232UART_PutCRLF
 1445              		.code	16
 1446              		.thumb_func
 1447              		.type	RS232UART_PutCRLF, %function
 1448              	RS232UART_PutCRLF:
 1449              	.LFB24:
1206:Generated_Source\PSoC4/RS232UART.c **** 
1207:Generated_Source\PSoC4/RS232UART.c **** 
1208:Generated_Source\PSoC4/RS232UART.c ****     /*******************************************************************************
1209:Generated_Source\PSoC4/RS232UART.c ****     * Function Name: RS232UART_PutCRLF
1210:Generated_Source\PSoC4/RS232UART.c ****     ********************************************************************************
1211:Generated_Source\PSoC4/RS232UART.c ****     *
1212:Generated_Source\PSoC4/RS232UART.c ****     * Summary:
1213:Generated_Source\PSoC4/RS232UART.c ****     *  Writes a byte of data followed by a carriage return (0x0D) and line feed
1214:Generated_Source\PSoC4/RS232UART.c ****     *  (0x0A) to the transmit buffer.
1215:Generated_Source\PSoC4/RS232UART.c ****     *
1216:Generated_Source\PSoC4/RS232UART.c ****     * Parameters:
1217:Generated_Source\PSoC4/RS232UART.c ****     *  txDataByte: Data byte to transmit before the carriage return and line feed.
1218:Generated_Source\PSoC4/RS232UART.c ****     *
1219:Generated_Source\PSoC4/RS232UART.c ****     * Return:
1220:Generated_Source\PSoC4/RS232UART.c ****     *  None.
1221:Generated_Source\PSoC4/RS232UART.c ****     *
1222:Generated_Source\PSoC4/RS232UART.c ****     * Global Variables:
1223:Generated_Source\PSoC4/RS232UART.c ****     *  RS232UART_initVar - checked to identify that the component has been
1224:Generated_Source\PSoC4/RS232UART.c ****     *     initialized.
1225:Generated_Source\PSoC4/RS232UART.c ****     *
ARM GAS  C:\Users\alexport\AppData\Local\Temp\ccDJmAqX.s 			page 48


1226:Generated_Source\PSoC4/RS232UART.c ****     * Reentrant:
1227:Generated_Source\PSoC4/RS232UART.c ****     *  No.
1228:Generated_Source\PSoC4/RS232UART.c ****     *
1229:Generated_Source\PSoC4/RS232UART.c ****     *******************************************************************************/
1230:Generated_Source\PSoC4/RS232UART.c ****     void RS232UART_PutCRLF(uint8 txDataByte) 
1231:Generated_Source\PSoC4/RS232UART.c ****     {
 1450              		.loc 1 1231 0
 1451              		.cfi_startproc
 1452              		@ args = 0, pretend = 0, frame = 8
 1453              		@ frame_needed = 1, uses_anonymous_args = 0
 1454 0000 80B5     		push	{r7, lr}
 1455              		.cfi_def_cfa_offset 8
 1456              		.cfi_offset 7, -8
 1457              		.cfi_offset 14, -4
 1458 0002 82B0     		sub	sp, sp, #8
 1459              		.cfi_def_cfa_offset 16
 1460 0004 00AF     		add	r7, sp, #0
 1461              		.cfi_def_cfa_register 7
 1462 0006 0200     		movs	r2, r0
 1463 0008 FB1D     		adds	r3, r7, #7
 1464 000a 1A70     		strb	r2, [r3]
1232:Generated_Source\PSoC4/RS232UART.c ****         /* If not Initialized then skip this function */
1233:Generated_Source\PSoC4/RS232UART.c ****         if(RS232UART_initVar != 0u)
 1465              		.loc 1 1233 0
 1466 000c 094B     		ldr	r3, .L99
 1467 000e 1B78     		ldrb	r3, [r3]
 1468 0010 002B     		cmp	r3, #0
 1469 0012 0AD0     		beq	.L98
1234:Generated_Source\PSoC4/RS232UART.c ****         {
1235:Generated_Source\PSoC4/RS232UART.c ****             RS232UART_PutChar(txDataByte);
 1470              		.loc 1 1235 0
 1471 0014 FB1D     		adds	r3, r7, #7
 1472 0016 1B78     		ldrb	r3, [r3]
 1473 0018 1800     		movs	r0, r3
 1474 001a FFF7FEFF 		bl	RS232UART_PutChar
1236:Generated_Source\PSoC4/RS232UART.c ****             RS232UART_PutChar(0x0Du);
 1475              		.loc 1 1236 0
 1476 001e 0D20     		movs	r0, #13
 1477 0020 FFF7FEFF 		bl	RS232UART_PutChar
1237:Generated_Source\PSoC4/RS232UART.c ****             RS232UART_PutChar(0x0Au);
 1478              		.loc 1 1237 0
 1479 0024 0A20     		movs	r0, #10
 1480 0026 FFF7FEFF 		bl	RS232UART_PutChar
 1481              	.L98:
1238:Generated_Source\PSoC4/RS232UART.c ****         }
1239:Generated_Source\PSoC4/RS232UART.c ****     }
 1482              		.loc 1 1239 0
 1483 002a C046     		nop
 1484 002c BD46     		mov	sp, r7
 1485 002e 02B0     		add	sp, sp, #8
 1486              		@ sp needed
 1487 0030 80BD     		pop	{r7, pc}
 1488              	.L100:
 1489 0032 C046     		.align	2
 1490              	.L99:
 1491 0034 00000000 		.word	RS232UART_initVar
 1492              		.cfi_endproc
ARM GAS  C:\Users\alexport\AppData\Local\Temp\ccDJmAqX.s 			page 49


 1493              	.LFE24:
 1494              		.size	RS232UART_PutCRLF, .-RS232UART_PutCRLF
 1495              		.section	.text.RS232UART_GetTxBufferSize,"ax",%progbits
 1496              		.align	2
 1497              		.global	RS232UART_GetTxBufferSize
 1498              		.code	16
 1499              		.thumb_func
 1500              		.type	RS232UART_GetTxBufferSize, %function
 1501              	RS232UART_GetTxBufferSize:
 1502              	.LFB25:
1240:Generated_Source\PSoC4/RS232UART.c **** 
1241:Generated_Source\PSoC4/RS232UART.c **** 
1242:Generated_Source\PSoC4/RS232UART.c ****     /*******************************************************************************
1243:Generated_Source\PSoC4/RS232UART.c ****     * Function Name: RS232UART_GetTxBufferSize
1244:Generated_Source\PSoC4/RS232UART.c ****     ********************************************************************************
1245:Generated_Source\PSoC4/RS232UART.c ****     *
1246:Generated_Source\PSoC4/RS232UART.c ****     * Summary:
1247:Generated_Source\PSoC4/RS232UART.c ****     *  Returns the number of bytes in the TX buffer which are waiting to be 
1248:Generated_Source\PSoC4/RS232UART.c ****     *  transmitted.
1249:Generated_Source\PSoC4/RS232UART.c ****     *  * TX software buffer is disabled (TX Buffer Size parameter is equal to 4): 
1250:Generated_Source\PSoC4/RS232UART.c ****     *    returns 0 for empty TX FIFO, 1 for not full TX FIFO or 4 for full TX FIFO.
1251:Generated_Source\PSoC4/RS232UART.c ****     *  * TX software buffer is enabled: returns the number of bytes in the TX 
1252:Generated_Source\PSoC4/RS232UART.c ****     *    software buffer which are waiting to be transmitted. Bytes available in the
1253:Generated_Source\PSoC4/RS232UART.c ****     *    TX FIFO do not count.
1254:Generated_Source\PSoC4/RS232UART.c ****     *
1255:Generated_Source\PSoC4/RS232UART.c ****     * Parameters:
1256:Generated_Source\PSoC4/RS232UART.c ****     *  None.
1257:Generated_Source\PSoC4/RS232UART.c ****     *
1258:Generated_Source\PSoC4/RS232UART.c ****     * Return:
1259:Generated_Source\PSoC4/RS232UART.c ****     *  Number of bytes used in the TX buffer. Return value type depends on the TX 
1260:Generated_Source\PSoC4/RS232UART.c ****     *  Buffer Size parameter.
1261:Generated_Source\PSoC4/RS232UART.c ****     *
1262:Generated_Source\PSoC4/RS232UART.c ****     * Global Variables:
1263:Generated_Source\PSoC4/RS232UART.c ****     *  RS232UART_txBufferWrite - used to calculate left space.
1264:Generated_Source\PSoC4/RS232UART.c ****     *  RS232UART_txBufferRead - used to calculate left space.
1265:Generated_Source\PSoC4/RS232UART.c ****     *
1266:Generated_Source\PSoC4/RS232UART.c ****     * Reentrant:
1267:Generated_Source\PSoC4/RS232UART.c ****     *  No.
1268:Generated_Source\PSoC4/RS232UART.c ****     *
1269:Generated_Source\PSoC4/RS232UART.c ****     * Theory:
1270:Generated_Source\PSoC4/RS232UART.c ****     *  Allows the user to find out how full the TX Buffer is.
1271:Generated_Source\PSoC4/RS232UART.c ****     *
1272:Generated_Source\PSoC4/RS232UART.c ****     *******************************************************************************/
1273:Generated_Source\PSoC4/RS232UART.c ****     uint8 RS232UART_GetTxBufferSize(void)
1274:Generated_Source\PSoC4/RS232UART.c ****                                                             
1275:Generated_Source\PSoC4/RS232UART.c ****     {
 1503              		.loc 1 1275 0
 1504              		.cfi_startproc
 1505              		@ args = 0, pretend = 0, frame = 8
 1506              		@ frame_needed = 1, uses_anonymous_args = 0
 1507 0000 80B5     		push	{r7, lr}
 1508              		.cfi_def_cfa_offset 8
 1509              		.cfi_offset 7, -8
 1510              		.cfi_offset 14, -4
 1511 0002 82B0     		sub	sp, sp, #8
 1512              		.cfi_def_cfa_offset 16
 1513 0004 00AF     		add	r7, sp, #0
ARM GAS  C:\Users\alexport\AppData\Local\Temp\ccDJmAqX.s 			page 50


 1514              		.cfi_def_cfa_register 7
1276:Generated_Source\PSoC4/RS232UART.c ****         uint8 size;
1277:Generated_Source\PSoC4/RS232UART.c **** 
1278:Generated_Source\PSoC4/RS232UART.c ****     #if (RS232UART_TX_INTERRUPT_ENABLED)
1279:Generated_Source\PSoC4/RS232UART.c **** 
1280:Generated_Source\PSoC4/RS232UART.c ****         /* Protect variables that could change on interrupt. */
1281:Generated_Source\PSoC4/RS232UART.c ****         RS232UART_DisableTxInt();
1282:Generated_Source\PSoC4/RS232UART.c **** 
1283:Generated_Source\PSoC4/RS232UART.c ****         if(RS232UART_txBufferRead == RS232UART_txBufferWrite)
1284:Generated_Source\PSoC4/RS232UART.c ****         {
1285:Generated_Source\PSoC4/RS232UART.c ****             size = 0u;
1286:Generated_Source\PSoC4/RS232UART.c ****         }
1287:Generated_Source\PSoC4/RS232UART.c ****         else if(RS232UART_txBufferRead < RS232UART_txBufferWrite)
1288:Generated_Source\PSoC4/RS232UART.c ****         {
1289:Generated_Source\PSoC4/RS232UART.c ****             size = (RS232UART_txBufferWrite - RS232UART_txBufferRead);
1290:Generated_Source\PSoC4/RS232UART.c ****         }
1291:Generated_Source\PSoC4/RS232UART.c ****         else
1292:Generated_Source\PSoC4/RS232UART.c ****         {
1293:Generated_Source\PSoC4/RS232UART.c ****             size = (RS232UART_TX_BUFFER_SIZE - RS232UART_txBufferRead) +
1294:Generated_Source\PSoC4/RS232UART.c ****                     RS232UART_txBufferWrite;
1295:Generated_Source\PSoC4/RS232UART.c ****         }
1296:Generated_Source\PSoC4/RS232UART.c **** 
1297:Generated_Source\PSoC4/RS232UART.c ****         RS232UART_EnableTxInt();
1298:Generated_Source\PSoC4/RS232UART.c **** 
1299:Generated_Source\PSoC4/RS232UART.c ****     #else
1300:Generated_Source\PSoC4/RS232UART.c **** 
1301:Generated_Source\PSoC4/RS232UART.c ****         size = RS232UART_TXSTATUS_REG;
 1515              		.loc 1 1301 0
 1516 0006 0F4A     		ldr	r2, .L106
 1517 0008 FB1D     		adds	r3, r7, #7
 1518 000a 1278     		ldrb	r2, [r2]
 1519 000c 1A70     		strb	r2, [r3]
1302:Generated_Source\PSoC4/RS232UART.c **** 
1303:Generated_Source\PSoC4/RS232UART.c ****         /* Is the fifo is full. */
1304:Generated_Source\PSoC4/RS232UART.c ****         if((size & RS232UART_TX_STS_FIFO_FULL) != 0u)
 1520              		.loc 1 1304 0
 1521 000e FB1D     		adds	r3, r7, #7
 1522 0010 1B78     		ldrb	r3, [r3]
 1523 0012 0422     		movs	r2, #4
 1524 0014 1340     		ands	r3, r2
 1525 0016 03D0     		beq	.L102
1305:Generated_Source\PSoC4/RS232UART.c ****         {
1306:Generated_Source\PSoC4/RS232UART.c ****             size = RS232UART_FIFO_LENGTH;
 1526              		.loc 1 1306 0
 1527 0018 FB1D     		adds	r3, r7, #7
 1528 001a 0422     		movs	r2, #4
 1529 001c 1A70     		strb	r2, [r3]
 1530 001e 0BE0     		b	.L103
 1531              	.L102:
1307:Generated_Source\PSoC4/RS232UART.c ****         }
1308:Generated_Source\PSoC4/RS232UART.c ****         else if((size & RS232UART_TX_STS_FIFO_EMPTY) != 0u)
 1532              		.loc 1 1308 0
 1533 0020 FB1D     		adds	r3, r7, #7
 1534 0022 1B78     		ldrb	r3, [r3]
 1535 0024 0222     		movs	r2, #2
 1536 0026 1340     		ands	r3, r2
 1537 0028 03D0     		beq	.L104
ARM GAS  C:\Users\alexport\AppData\Local\Temp\ccDJmAqX.s 			page 51


1309:Generated_Source\PSoC4/RS232UART.c ****         {
1310:Generated_Source\PSoC4/RS232UART.c ****             size = 0u;
 1538              		.loc 1 1310 0
 1539 002a FB1D     		adds	r3, r7, #7
 1540 002c 0022     		movs	r2, #0
 1541 002e 1A70     		strb	r2, [r3]
 1542 0030 02E0     		b	.L103
 1543              	.L104:
1311:Generated_Source\PSoC4/RS232UART.c ****         }
1312:Generated_Source\PSoC4/RS232UART.c ****         else
1313:Generated_Source\PSoC4/RS232UART.c ****         {
1314:Generated_Source\PSoC4/RS232UART.c ****             /* We only know there is data in the fifo. */
1315:Generated_Source\PSoC4/RS232UART.c ****             size = 1u;
 1544              		.loc 1 1315 0
 1545 0032 FB1D     		adds	r3, r7, #7
 1546 0034 0122     		movs	r2, #1
 1547 0036 1A70     		strb	r2, [r3]
 1548              	.L103:
1316:Generated_Source\PSoC4/RS232UART.c ****         }
1317:Generated_Source\PSoC4/RS232UART.c **** 
1318:Generated_Source\PSoC4/RS232UART.c ****     #endif /* (RS232UART_TX_INTERRUPT_ENABLED) */
1319:Generated_Source\PSoC4/RS232UART.c **** 
1320:Generated_Source\PSoC4/RS232UART.c ****     return(size);
 1549              		.loc 1 1320 0
 1550 0038 FB1D     		adds	r3, r7, #7
 1551 003a 1B78     		ldrb	r3, [r3]
1321:Generated_Source\PSoC4/RS232UART.c ****     }
 1552              		.loc 1 1321 0
 1553 003c 1800     		movs	r0, r3
 1554 003e BD46     		mov	sp, r7
 1555 0040 02B0     		add	sp, sp, #8
 1556              		@ sp needed
 1557 0042 80BD     		pop	{r7, pc}
 1558              	.L107:
 1559              		.align	2
 1560              	.L106:
 1561 0044 60000F40 		.word	1074724960
 1562              		.cfi_endproc
 1563              	.LFE25:
 1564              		.size	RS232UART_GetTxBufferSize, .-RS232UART_GetTxBufferSize
 1565              		.section	.text.RS232UART_ClearTxBuffer,"ax",%progbits
 1566              		.align	2
 1567              		.global	RS232UART_ClearTxBuffer
 1568              		.code	16
 1569              		.thumb_func
 1570              		.type	RS232UART_ClearTxBuffer, %function
 1571              	RS232UART_ClearTxBuffer:
 1572              	.LFB26:
1322:Generated_Source\PSoC4/RS232UART.c **** 
1323:Generated_Source\PSoC4/RS232UART.c **** 
1324:Generated_Source\PSoC4/RS232UART.c ****     /*******************************************************************************
1325:Generated_Source\PSoC4/RS232UART.c ****     * Function Name: RS232UART_ClearTxBuffer
1326:Generated_Source\PSoC4/RS232UART.c ****     ********************************************************************************
1327:Generated_Source\PSoC4/RS232UART.c ****     *
1328:Generated_Source\PSoC4/RS232UART.c ****     * Summary:
1329:Generated_Source\PSoC4/RS232UART.c ****     *  Clears all data from the TX buffer and hardware TX FIFO.
1330:Generated_Source\PSoC4/RS232UART.c ****     *
ARM GAS  C:\Users\alexport\AppData\Local\Temp\ccDJmAqX.s 			page 52


1331:Generated_Source\PSoC4/RS232UART.c ****     * Parameters:
1332:Generated_Source\PSoC4/RS232UART.c ****     *  None.
1333:Generated_Source\PSoC4/RS232UART.c ****     *
1334:Generated_Source\PSoC4/RS232UART.c ****     * Return:
1335:Generated_Source\PSoC4/RS232UART.c ****     *  None.
1336:Generated_Source\PSoC4/RS232UART.c ****     *
1337:Generated_Source\PSoC4/RS232UART.c ****     * Global Variables:
1338:Generated_Source\PSoC4/RS232UART.c ****     *  RS232UART_txBufferWrite - cleared to zero.
1339:Generated_Source\PSoC4/RS232UART.c ****     *  RS232UART_txBufferRead - cleared to zero.
1340:Generated_Source\PSoC4/RS232UART.c ****     *
1341:Generated_Source\PSoC4/RS232UART.c ****     * Reentrant:
1342:Generated_Source\PSoC4/RS232UART.c ****     *  No.
1343:Generated_Source\PSoC4/RS232UART.c ****     *
1344:Generated_Source\PSoC4/RS232UART.c ****     * Theory:
1345:Generated_Source\PSoC4/RS232UART.c ****     *  Setting the pointers to zero makes the system believe there is no data to
1346:Generated_Source\PSoC4/RS232UART.c ****     *  read and writing will resume at address 0 overwriting any data that may have
1347:Generated_Source\PSoC4/RS232UART.c ****     *  remained in the RAM.
1348:Generated_Source\PSoC4/RS232UART.c ****     *
1349:Generated_Source\PSoC4/RS232UART.c ****     * Side Effects:
1350:Generated_Source\PSoC4/RS232UART.c ****     *  Data waiting in the transmit buffer is not sent; a byte that is currently
1351:Generated_Source\PSoC4/RS232UART.c ****     *  transmitting finishes transmitting.
1352:Generated_Source\PSoC4/RS232UART.c ****     *
1353:Generated_Source\PSoC4/RS232UART.c ****     *******************************************************************************/
1354:Generated_Source\PSoC4/RS232UART.c ****     void RS232UART_ClearTxBuffer(void) 
1355:Generated_Source\PSoC4/RS232UART.c ****     {
 1573              		.loc 1 1355 0
 1574              		.cfi_startproc
 1575              		@ args = 0, pretend = 0, frame = 8
 1576              		@ frame_needed = 1, uses_anonymous_args = 0
 1577 0000 90B5     		push	{r4, r7, lr}
 1578              		.cfi_def_cfa_offset 12
 1579              		.cfi_offset 4, -12
 1580              		.cfi_offset 7, -8
 1581              		.cfi_offset 14, -4
 1582 0002 83B0     		sub	sp, sp, #12
 1583              		.cfi_def_cfa_offset 24
 1584 0004 00AF     		add	r7, sp, #0
 1585              		.cfi_def_cfa_register 7
1356:Generated_Source\PSoC4/RS232UART.c ****         uint8 enableInterrupts;
1357:Generated_Source\PSoC4/RS232UART.c **** 
1358:Generated_Source\PSoC4/RS232UART.c ****         enableInterrupts = CyEnterCriticalSection();
 1586              		.loc 1 1358 0
 1587 0006 FC1D     		adds	r4, r7, #7
 1588 0008 FFF7FEFF 		bl	CyEnterCriticalSection
 1589 000c 0300     		movs	r3, r0
 1590 000e 2370     		strb	r3, [r4]
1359:Generated_Source\PSoC4/RS232UART.c ****         /* Clear the HW FIFO */
1360:Generated_Source\PSoC4/RS232UART.c ****         RS232UART_TXDATA_AUX_CTL_REG |= (uint8)  RS232UART_TX_FIFO_CLR;
 1591              		.loc 1 1360 0
 1592 0010 0C4A     		ldr	r2, .L109
 1593 0012 0C4B     		ldr	r3, .L109
 1594 0014 1B78     		ldrb	r3, [r3]
 1595 0016 DBB2     		uxtb	r3, r3
 1596 0018 0121     		movs	r1, #1
 1597 001a 0B43     		orrs	r3, r1
 1598 001c DBB2     		uxtb	r3, r3
 1599 001e 1370     		strb	r3, [r2]
ARM GAS  C:\Users\alexport\AppData\Local\Temp\ccDJmAqX.s 			page 53


1361:Generated_Source\PSoC4/RS232UART.c ****         RS232UART_TXDATA_AUX_CTL_REG &= (uint8) ~RS232UART_TX_FIFO_CLR;
 1600              		.loc 1 1361 0
 1601 0020 084A     		ldr	r2, .L109
 1602 0022 084B     		ldr	r3, .L109
 1603 0024 1B78     		ldrb	r3, [r3]
 1604 0026 DBB2     		uxtb	r3, r3
 1605 0028 0121     		movs	r1, #1
 1606 002a 8B43     		bics	r3, r1
 1607 002c DBB2     		uxtb	r3, r3
 1608 002e 1370     		strb	r3, [r2]
1362:Generated_Source\PSoC4/RS232UART.c ****         CyExitCriticalSection(enableInterrupts);
 1609              		.loc 1 1362 0
 1610 0030 FB1D     		adds	r3, r7, #7
 1611 0032 1B78     		ldrb	r3, [r3]
 1612 0034 1800     		movs	r0, r3
 1613 0036 FFF7FEFF 		bl	CyExitCriticalSection
1363:Generated_Source\PSoC4/RS232UART.c **** 
1364:Generated_Source\PSoC4/RS232UART.c ****     #if (RS232UART_TX_INTERRUPT_ENABLED)
1365:Generated_Source\PSoC4/RS232UART.c **** 
1366:Generated_Source\PSoC4/RS232UART.c ****         /* Protect variables that could change on interrupt. */
1367:Generated_Source\PSoC4/RS232UART.c ****         RS232UART_DisableTxInt();
1368:Generated_Source\PSoC4/RS232UART.c **** 
1369:Generated_Source\PSoC4/RS232UART.c ****         RS232UART_txBufferRead = 0u;
1370:Generated_Source\PSoC4/RS232UART.c ****         RS232UART_txBufferWrite = 0u;
1371:Generated_Source\PSoC4/RS232UART.c **** 
1372:Generated_Source\PSoC4/RS232UART.c ****         /* Enable Tx interrupt. */
1373:Generated_Source\PSoC4/RS232UART.c ****         RS232UART_EnableTxInt();
1374:Generated_Source\PSoC4/RS232UART.c **** 
1375:Generated_Source\PSoC4/RS232UART.c ****     #endif /* (RS232UART_TX_INTERRUPT_ENABLED) */
1376:Generated_Source\PSoC4/RS232UART.c ****     }
 1614              		.loc 1 1376 0
 1615 003a C046     		nop
 1616 003c BD46     		mov	sp, r7
 1617 003e 03B0     		add	sp, sp, #12
 1618              		@ sp needed
 1619 0040 90BD     		pop	{r4, r7, pc}
 1620              	.L110:
 1621 0042 C046     		.align	2
 1622              	.L109:
 1623 0044 90000F40 		.word	1074725008
 1624              		.cfi_endproc
 1625              	.LFE26:
 1626              		.size	RS232UART_ClearTxBuffer, .-RS232UART_ClearTxBuffer
 1627              		.section	.text.RS232UART_SendBreak,"ax",%progbits
 1628              		.align	2
 1629              		.global	RS232UART_SendBreak
 1630              		.code	16
 1631              		.thumb_func
 1632              		.type	RS232UART_SendBreak, %function
 1633              	RS232UART_SendBreak:
 1634              	.LFB27:
1377:Generated_Source\PSoC4/RS232UART.c **** 
1378:Generated_Source\PSoC4/RS232UART.c **** 
1379:Generated_Source\PSoC4/RS232UART.c ****     /*******************************************************************************
1380:Generated_Source\PSoC4/RS232UART.c ****     * Function Name: RS232UART_SendBreak
1381:Generated_Source\PSoC4/RS232UART.c ****     ********************************************************************************
1382:Generated_Source\PSoC4/RS232UART.c ****     *
ARM GAS  C:\Users\alexport\AppData\Local\Temp\ccDJmAqX.s 			page 54


1383:Generated_Source\PSoC4/RS232UART.c ****     * Summary:
1384:Generated_Source\PSoC4/RS232UART.c ****     *  Transmits a break signal on the bus.
1385:Generated_Source\PSoC4/RS232UART.c ****     *
1386:Generated_Source\PSoC4/RS232UART.c ****     * Parameters:
1387:Generated_Source\PSoC4/RS232UART.c ****     *  uint8 retMode:  Send Break return mode. See the following table for options.
1388:Generated_Source\PSoC4/RS232UART.c ****     *   RS232UART_SEND_BREAK - Initialize registers for break, send the Break
1389:Generated_Source\PSoC4/RS232UART.c ****     *       signal and return immediately.
1390:Generated_Source\PSoC4/RS232UART.c ****     *   RS232UART_WAIT_FOR_COMPLETE_REINIT - Wait until break transmission is
1391:Generated_Source\PSoC4/RS232UART.c ****     *       complete, reinitialize registers to normal transmission mode then return
1392:Generated_Source\PSoC4/RS232UART.c ****     *   RS232UART_REINIT - Reinitialize registers to normal transmission mode
1393:Generated_Source\PSoC4/RS232UART.c ****     *       then return.
1394:Generated_Source\PSoC4/RS232UART.c ****     *   RS232UART_SEND_WAIT_REINIT - Performs both options: 
1395:Generated_Source\PSoC4/RS232UART.c ****     *      RS232UART_SEND_BREAK and RS232UART_WAIT_FOR_COMPLETE_REINIT.
1396:Generated_Source\PSoC4/RS232UART.c ****     *      This option is recommended for most cases.
1397:Generated_Source\PSoC4/RS232UART.c ****     *
1398:Generated_Source\PSoC4/RS232UART.c ****     * Return:
1399:Generated_Source\PSoC4/RS232UART.c ****     *  None.
1400:Generated_Source\PSoC4/RS232UART.c ****     *
1401:Generated_Source\PSoC4/RS232UART.c ****     * Global Variables:
1402:Generated_Source\PSoC4/RS232UART.c ****     *  RS232UART_initVar - checked to identify that the component has been
1403:Generated_Source\PSoC4/RS232UART.c ****     *     initialized.
1404:Generated_Source\PSoC4/RS232UART.c ****     *  txPeriod - static variable, used for keeping TX period configuration.
1405:Generated_Source\PSoC4/RS232UART.c ****     *
1406:Generated_Source\PSoC4/RS232UART.c ****     * Reentrant:
1407:Generated_Source\PSoC4/RS232UART.c ****     *  No.
1408:Generated_Source\PSoC4/RS232UART.c ****     *
1409:Generated_Source\PSoC4/RS232UART.c ****     * Theory:
1410:Generated_Source\PSoC4/RS232UART.c ****     *  SendBreak function initializes registers to send 13-bit break signal. It is
1411:Generated_Source\PSoC4/RS232UART.c ****     *  important to return the registers configuration to normal for continue 8-bit
1412:Generated_Source\PSoC4/RS232UART.c ****     *  operation.
1413:Generated_Source\PSoC4/RS232UART.c ****     *  There are 3 variants for this API usage:
1414:Generated_Source\PSoC4/RS232UART.c ****     *  1) SendBreak(3) - function will send the Break signal and take care on the
1415:Generated_Source\PSoC4/RS232UART.c ****     *     configuration returning. Function will block CPU until transmission
1416:Generated_Source\PSoC4/RS232UART.c ****     *     complete.
1417:Generated_Source\PSoC4/RS232UART.c ****     *  2) User may want to use blocking time if UART configured to the low speed
1418:Generated_Source\PSoC4/RS232UART.c ****     *     operation
1419:Generated_Source\PSoC4/RS232UART.c ****     *     Example for this case:
1420:Generated_Source\PSoC4/RS232UART.c ****     *     SendBreak(0);     - initialize Break signal transmission
1421:Generated_Source\PSoC4/RS232UART.c ****     *         Add your code here to use CPU time
1422:Generated_Source\PSoC4/RS232UART.c ****     *     SendBreak(1);     - complete Break operation
1423:Generated_Source\PSoC4/RS232UART.c ****     *  3) Same to 2) but user may want to initialize and use the interrupt to
1424:Generated_Source\PSoC4/RS232UART.c ****     *     complete break operation.
1425:Generated_Source\PSoC4/RS232UART.c ****     *     Example for this case:
1426:Generated_Source\PSoC4/RS232UART.c ****     *     Initialize TX interrupt with "TX - On TX Complete" parameter
1427:Generated_Source\PSoC4/RS232UART.c ****     *     SendBreak(0);     - initialize Break signal transmission
1428:Generated_Source\PSoC4/RS232UART.c ****     *         Add your code here to use CPU time
1429:Generated_Source\PSoC4/RS232UART.c ****     *     When interrupt appear with RS232UART_TX_STS_COMPLETE status:
1430:Generated_Source\PSoC4/RS232UART.c ****     *     SendBreak(2);     - complete Break operation
1431:Generated_Source\PSoC4/RS232UART.c ****     *
1432:Generated_Source\PSoC4/RS232UART.c ****     * Side Effects:
1433:Generated_Source\PSoC4/RS232UART.c ****     *  The RS232UART_SendBreak() function initializes registers to send a
1434:Generated_Source\PSoC4/RS232UART.c ****     *  break signal.
1435:Generated_Source\PSoC4/RS232UART.c ****     *  Break signal length depends on the break signal bits configuration.
1436:Generated_Source\PSoC4/RS232UART.c ****     *  The register configuration should be reinitialized before normal 8-bit
1437:Generated_Source\PSoC4/RS232UART.c ****     *  communication can continue.
1438:Generated_Source\PSoC4/RS232UART.c ****     *
1439:Generated_Source\PSoC4/RS232UART.c ****     *******************************************************************************/
ARM GAS  C:\Users\alexport\AppData\Local\Temp\ccDJmAqX.s 			page 55


1440:Generated_Source\PSoC4/RS232UART.c ****     void RS232UART_SendBreak(uint8 retMode) 
1441:Generated_Source\PSoC4/RS232UART.c ****     {
 1635              		.loc 1 1441 0
 1636              		.cfi_startproc
 1637              		@ args = 0, pretend = 0, frame = 16
 1638              		@ frame_needed = 1, uses_anonymous_args = 0
 1639 0000 80B5     		push	{r7, lr}
 1640              		.cfi_def_cfa_offset 8
 1641              		.cfi_offset 7, -8
 1642              		.cfi_offset 14, -4
 1643 0002 84B0     		sub	sp, sp, #16
 1644              		.cfi_def_cfa_offset 24
 1645 0004 00AF     		add	r7, sp, #0
 1646              		.cfi_def_cfa_register 7
 1647 0006 0200     		movs	r2, r0
 1648 0008 FB1D     		adds	r3, r7, #7
 1649 000a 1A70     		strb	r2, [r3]
1442:Generated_Source\PSoC4/RS232UART.c **** 
1443:Generated_Source\PSoC4/RS232UART.c ****         /* If not Initialized then skip this function*/
1444:Generated_Source\PSoC4/RS232UART.c ****         if(RS232UART_initVar != 0u)
 1650              		.loc 1 1444 0
 1651 000c 254B     		ldr	r3, .L120
 1652 000e 1B78     		ldrb	r3, [r3]
 1653 0010 002B     		cmp	r3, #0
 1654 0012 43D0     		beq	.L119
 1655              	.LBB2:
1445:Generated_Source\PSoC4/RS232UART.c ****         {
1446:Generated_Source\PSoC4/RS232UART.c ****             /* Set the Counter to 13-bits and transmit a 00 byte */
1447:Generated_Source\PSoC4/RS232UART.c ****             /* When that is done then reset the counter value back */
1448:Generated_Source\PSoC4/RS232UART.c ****             uint8 tmpStat;
1449:Generated_Source\PSoC4/RS232UART.c **** 
1450:Generated_Source\PSoC4/RS232UART.c ****         #if(RS232UART_HD_ENABLED) /* Half Duplex mode*/
1451:Generated_Source\PSoC4/RS232UART.c **** 
1452:Generated_Source\PSoC4/RS232UART.c ****             if( (retMode == RS232UART_SEND_BREAK) ||
1453:Generated_Source\PSoC4/RS232UART.c ****                 (retMode == RS232UART_SEND_WAIT_REINIT ) )
1454:Generated_Source\PSoC4/RS232UART.c ****             {
1455:Generated_Source\PSoC4/RS232UART.c ****                 /* CTRL_HD_SEND_BREAK - sends break bits in HD mode */
1456:Generated_Source\PSoC4/RS232UART.c ****                 RS232UART_WriteControlRegister(RS232UART_ReadControlRegister() |
1457:Generated_Source\PSoC4/RS232UART.c ****                                                       RS232UART_CTRL_HD_SEND_BREAK);
1458:Generated_Source\PSoC4/RS232UART.c ****                 /* Send zeros */
1459:Generated_Source\PSoC4/RS232UART.c ****                 RS232UART_TXDATA_REG = 0u;
1460:Generated_Source\PSoC4/RS232UART.c **** 
1461:Generated_Source\PSoC4/RS232UART.c ****                 do /* Wait until transmit starts */
1462:Generated_Source\PSoC4/RS232UART.c ****                 {
1463:Generated_Source\PSoC4/RS232UART.c ****                     tmpStat = RS232UART_TXSTATUS_REG;
1464:Generated_Source\PSoC4/RS232UART.c ****                 }
1465:Generated_Source\PSoC4/RS232UART.c ****                 while((tmpStat & RS232UART_TX_STS_FIFO_EMPTY) != 0u);
1466:Generated_Source\PSoC4/RS232UART.c ****             }
1467:Generated_Source\PSoC4/RS232UART.c **** 
1468:Generated_Source\PSoC4/RS232UART.c ****             if( (retMode == RS232UART_WAIT_FOR_COMPLETE_REINIT) ||
1469:Generated_Source\PSoC4/RS232UART.c ****                 (retMode == RS232UART_SEND_WAIT_REINIT) )
1470:Generated_Source\PSoC4/RS232UART.c ****             {
1471:Generated_Source\PSoC4/RS232UART.c ****                 do /* Wait until transmit complete */
1472:Generated_Source\PSoC4/RS232UART.c ****                 {
1473:Generated_Source\PSoC4/RS232UART.c ****                     tmpStat = RS232UART_TXSTATUS_REG;
1474:Generated_Source\PSoC4/RS232UART.c ****                 }
1475:Generated_Source\PSoC4/RS232UART.c ****                 while(((uint8)~tmpStat & RS232UART_TX_STS_COMPLETE) != 0u);
ARM GAS  C:\Users\alexport\AppData\Local\Temp\ccDJmAqX.s 			page 56


1476:Generated_Source\PSoC4/RS232UART.c ****             }
1477:Generated_Source\PSoC4/RS232UART.c **** 
1478:Generated_Source\PSoC4/RS232UART.c ****             if( (retMode == RS232UART_WAIT_FOR_COMPLETE_REINIT) ||
1479:Generated_Source\PSoC4/RS232UART.c ****                 (retMode == RS232UART_REINIT) ||
1480:Generated_Source\PSoC4/RS232UART.c ****                 (retMode == RS232UART_SEND_WAIT_REINIT) )
1481:Generated_Source\PSoC4/RS232UART.c ****             {
1482:Generated_Source\PSoC4/RS232UART.c ****                 RS232UART_WriteControlRegister(RS232UART_ReadControlRegister() &
1483:Generated_Source\PSoC4/RS232UART.c ****                                               (uint8)~RS232UART_CTRL_HD_SEND_BREAK);
1484:Generated_Source\PSoC4/RS232UART.c ****             }
1485:Generated_Source\PSoC4/RS232UART.c **** 
1486:Generated_Source\PSoC4/RS232UART.c ****         #else /* RS232UART_HD_ENABLED Full Duplex mode */
1487:Generated_Source\PSoC4/RS232UART.c **** 
1488:Generated_Source\PSoC4/RS232UART.c ****             static uint8 txPeriod;
1489:Generated_Source\PSoC4/RS232UART.c **** 
1490:Generated_Source\PSoC4/RS232UART.c ****             if( (retMode == RS232UART_SEND_BREAK) ||
 1656              		.loc 1 1490 0
 1657 0014 FB1D     		adds	r3, r7, #7
 1658 0016 1B78     		ldrb	r3, [r3]
 1659 0018 002B     		cmp	r3, #0
 1660 001a 03D0     		beq	.L113
 1661              		.loc 1 1490 0 is_stmt 0 discriminator 1
 1662 001c FB1D     		adds	r3, r7, #7
 1663 001e 1B78     		ldrb	r3, [r3]
 1664 0020 032B     		cmp	r3, #3
 1665 0022 15D1     		bne	.L114
 1666              	.L113:
1491:Generated_Source\PSoC4/RS232UART.c ****                 (retMode == RS232UART_SEND_WAIT_REINIT) )
1492:Generated_Source\PSoC4/RS232UART.c ****             {
1493:Generated_Source\PSoC4/RS232UART.c ****                 /* CTRL_HD_SEND_BREAK - skip to send parity bit at Break signal in Full Duplex mode
1494:Generated_Source\PSoC4/RS232UART.c ****                 #if( (RS232UART_PARITY_TYPE != RS232UART__B_UART__NONE_REVB) || \
1495:Generated_Source\PSoC4/RS232UART.c ****                                     (RS232UART_PARITY_TYPE_SW != 0u) )
1496:Generated_Source\PSoC4/RS232UART.c ****                     RS232UART_WriteControlRegister(RS232UART_ReadControlRegister() |
1497:Generated_Source\PSoC4/RS232UART.c ****                                                           RS232UART_CTRL_HD_SEND_BREAK);
1498:Generated_Source\PSoC4/RS232UART.c ****                 #endif /* End RS232UART_PARITY_TYPE != RS232UART__B_UART__NONE_REVB  */
1499:Generated_Source\PSoC4/RS232UART.c **** 
1500:Generated_Source\PSoC4/RS232UART.c ****                 #if(RS232UART_TXCLKGEN_DP)
1501:Generated_Source\PSoC4/RS232UART.c ****                     txPeriod = RS232UART_TXBITCLKTX_COMPLETE_REG;
 1667              		.loc 1 1501 0 is_stmt 1
 1668 0024 204B     		ldr	r3, .L120+4
 1669 0026 1B78     		ldrb	r3, [r3]
 1670 0028 DAB2     		uxtb	r2, r3
 1671 002a 204B     		ldr	r3, .L120+8
 1672 002c 1A70     		strb	r2, [r3]
1502:Generated_Source\PSoC4/RS232UART.c ****                     RS232UART_TXBITCLKTX_COMPLETE_REG = RS232UART_TXBITCTR_BREAKBITS;
 1673              		.loc 1 1502 0
 1674 002e 1E4B     		ldr	r3, .L120+4
 1675 0030 6722     		movs	r2, #103
 1676 0032 1A70     		strb	r2, [r3]
1503:Generated_Source\PSoC4/RS232UART.c ****                 #else
1504:Generated_Source\PSoC4/RS232UART.c ****                     txPeriod = RS232UART_TXBITCTR_PERIOD_REG;
1505:Generated_Source\PSoC4/RS232UART.c ****                     RS232UART_TXBITCTR_PERIOD_REG = RS232UART_TXBITCTR_BREAKBITS8X;
1506:Generated_Source\PSoC4/RS232UART.c ****                 #endif /* End RS232UART_TXCLKGEN_DP */
1507:Generated_Source\PSoC4/RS232UART.c **** 
1508:Generated_Source\PSoC4/RS232UART.c ****                 /* Send zeros */
1509:Generated_Source\PSoC4/RS232UART.c ****                 RS232UART_TXDATA_REG = 0u;
 1677              		.loc 1 1509 0
 1678 0034 1E4B     		ldr	r3, .L120+12
ARM GAS  C:\Users\alexport\AppData\Local\Temp\ccDJmAqX.s 			page 57


 1679 0036 0022     		movs	r2, #0
 1680 0038 1A70     		strb	r2, [r3]
 1681              	.L115:
1510:Generated_Source\PSoC4/RS232UART.c **** 
1511:Generated_Source\PSoC4/RS232UART.c ****                 do /* Wait until transmit starts */
1512:Generated_Source\PSoC4/RS232UART.c ****                 {
1513:Generated_Source\PSoC4/RS232UART.c ****                     tmpStat = RS232UART_TXSTATUS_REG;
 1682              		.loc 1 1513 0 discriminator 1
 1683 003a 1E4A     		ldr	r2, .L120+16
 1684 003c 0F23     		movs	r3, #15
 1685 003e FB18     		adds	r3, r7, r3
 1686 0040 1278     		ldrb	r2, [r2]
 1687 0042 1A70     		strb	r2, [r3]
1514:Generated_Source\PSoC4/RS232UART.c ****                 }
1515:Generated_Source\PSoC4/RS232UART.c ****                 while((tmpStat & RS232UART_TX_STS_FIFO_EMPTY) != 0u);
 1688              		.loc 1 1515 0 discriminator 1
 1689 0044 0F23     		movs	r3, #15
 1690 0046 FB18     		adds	r3, r7, r3
 1691 0048 1B78     		ldrb	r3, [r3]
 1692 004a 0222     		movs	r2, #2
 1693 004c 1340     		ands	r3, r2
 1694 004e F4D1     		bne	.L115
 1695              	.L114:
1516:Generated_Source\PSoC4/RS232UART.c ****             }
1517:Generated_Source\PSoC4/RS232UART.c **** 
1518:Generated_Source\PSoC4/RS232UART.c ****             if( (retMode == RS232UART_WAIT_FOR_COMPLETE_REINIT) ||
 1696              		.loc 1 1518 0
 1697 0050 FB1D     		adds	r3, r7, #7
 1698 0052 1B78     		ldrb	r3, [r3]
 1699 0054 012B     		cmp	r3, #1
 1700 0056 03D0     		beq	.L116
 1701              		.loc 1 1518 0 is_stmt 0 discriminator 1
 1702 0058 FB1D     		adds	r3, r7, #7
 1703 005a 1B78     		ldrb	r3, [r3]
 1704 005c 032B     		cmp	r3, #3
 1705 005e 0DD1     		bne	.L117
 1706              	.L116:
1519:Generated_Source\PSoC4/RS232UART.c ****                 (retMode == RS232UART_SEND_WAIT_REINIT) )
1520:Generated_Source\PSoC4/RS232UART.c ****             {
1521:Generated_Source\PSoC4/RS232UART.c ****                 do /* Wait until transmit complete */
1522:Generated_Source\PSoC4/RS232UART.c ****                 {
1523:Generated_Source\PSoC4/RS232UART.c ****                     tmpStat = RS232UART_TXSTATUS_REG;
 1707              		.loc 1 1523 0 is_stmt 1 discriminator 1
 1708 0060 144A     		ldr	r2, .L120+16
 1709 0062 0F23     		movs	r3, #15
 1710 0064 FB18     		adds	r3, r7, r3
 1711 0066 1278     		ldrb	r2, [r2]
 1712 0068 1A70     		strb	r2, [r3]
1524:Generated_Source\PSoC4/RS232UART.c ****                 }
1525:Generated_Source\PSoC4/RS232UART.c ****                 while(((uint8)~tmpStat & RS232UART_TX_STS_COMPLETE) != 0u);
 1713              		.loc 1 1525 0 discriminator 1
 1714 006a 0F23     		movs	r3, #15
 1715 006c FB18     		adds	r3, r7, r3
 1716 006e 1B78     		ldrb	r3, [r3]
 1717 0070 DB43     		mvns	r3, r3
 1718 0072 DBB2     		uxtb	r3, r3
 1719 0074 1A00     		movs	r2, r3
ARM GAS  C:\Users\alexport\AppData\Local\Temp\ccDJmAqX.s 			page 58


 1720 0076 0123     		movs	r3, #1
 1721 0078 1340     		ands	r3, r2
 1722 007a F1D1     		bne	.L116
 1723              	.L117:
1526:Generated_Source\PSoC4/RS232UART.c ****             }
1527:Generated_Source\PSoC4/RS232UART.c **** 
1528:Generated_Source\PSoC4/RS232UART.c ****             if( (retMode == RS232UART_WAIT_FOR_COMPLETE_REINIT) ||
 1724              		.loc 1 1528 0
 1725 007c FB1D     		adds	r3, r7, #7
 1726 007e 1B78     		ldrb	r3, [r3]
 1727 0080 012B     		cmp	r3, #1
 1728 0082 07D0     		beq	.L118
 1729              		.loc 1 1528 0 is_stmt 0 discriminator 1
 1730 0084 FB1D     		adds	r3, r7, #7
 1731 0086 1B78     		ldrb	r3, [r3]
 1732 0088 022B     		cmp	r3, #2
 1733 008a 03D0     		beq	.L118
1529:Generated_Source\PSoC4/RS232UART.c ****                 (retMode == RS232UART_REINIT) ||
 1734              		.loc 1 1529 0 is_stmt 1
 1735 008c FB1D     		adds	r3, r7, #7
 1736 008e 1B78     		ldrb	r3, [r3]
 1737 0090 032B     		cmp	r3, #3
 1738 0092 03D1     		bne	.L119
 1739              	.L118:
1530:Generated_Source\PSoC4/RS232UART.c ****                 (retMode == RS232UART_SEND_WAIT_REINIT) )
1531:Generated_Source\PSoC4/RS232UART.c ****             {
1532:Generated_Source\PSoC4/RS232UART.c **** 
1533:Generated_Source\PSoC4/RS232UART.c ****             #if(RS232UART_TXCLKGEN_DP)
1534:Generated_Source\PSoC4/RS232UART.c ****                 RS232UART_TXBITCLKTX_COMPLETE_REG = txPeriod;
 1740              		.loc 1 1534 0
 1741 0094 044A     		ldr	r2, .L120+4
 1742 0096 054B     		ldr	r3, .L120+8
 1743 0098 1B78     		ldrb	r3, [r3]
 1744 009a 1370     		strb	r3, [r2]
 1745              	.L119:
 1746              	.LBE2:
1535:Generated_Source\PSoC4/RS232UART.c ****             #else
1536:Generated_Source\PSoC4/RS232UART.c ****                 RS232UART_TXBITCTR_PERIOD_REG = txPeriod;
1537:Generated_Source\PSoC4/RS232UART.c ****             #endif /* End RS232UART_TXCLKGEN_DP */
1538:Generated_Source\PSoC4/RS232UART.c **** 
1539:Generated_Source\PSoC4/RS232UART.c ****             #if( (RS232UART_PARITY_TYPE != RS232UART__B_UART__NONE_REVB) || \
1540:Generated_Source\PSoC4/RS232UART.c ****                  (RS232UART_PARITY_TYPE_SW != 0u) )
1541:Generated_Source\PSoC4/RS232UART.c ****                 RS232UART_WriteControlRegister(RS232UART_ReadControlRegister() &
1542:Generated_Source\PSoC4/RS232UART.c ****                                                       (uint8) ~RS232UART_CTRL_HD_SEND_BREAK);
1543:Generated_Source\PSoC4/RS232UART.c ****             #endif /* End RS232UART_PARITY_TYPE != NONE */
1544:Generated_Source\PSoC4/RS232UART.c ****             }
1545:Generated_Source\PSoC4/RS232UART.c ****         #endif    /* End RS232UART_HD_ENABLED */
1546:Generated_Source\PSoC4/RS232UART.c ****         }
1547:Generated_Source\PSoC4/RS232UART.c ****     }
 1747              		.loc 1 1547 0
 1748 009c C046     		nop
 1749 009e BD46     		mov	sp, r7
 1750 00a0 04B0     		add	sp, sp, #16
 1751              		@ sp needed
 1752 00a2 80BD     		pop	{r7, pc}
 1753              	.L121:
 1754              		.align	2
ARM GAS  C:\Users\alexport\AppData\Local\Temp\ccDJmAqX.s 			page 59


 1755              	.L120:
 1756 00a4 00000000 		.word	RS232UART_initVar
 1757 00a8 31000F40 		.word	1074724913
 1758 00ac 06000000 		.word	txPeriod.5048
 1759 00b0 40000F40 		.word	1074724928
 1760 00b4 60000F40 		.word	1074724960
 1761              		.cfi_endproc
 1762              	.LFE27:
 1763              		.size	RS232UART_SendBreak, .-RS232UART_SendBreak
 1764              		.section	.text.RS232UART_SetTxAddressMode,"ax",%progbits
 1765              		.align	2
 1766              		.global	RS232UART_SetTxAddressMode
 1767              		.code	16
 1768              		.thumb_func
 1769              		.type	RS232UART_SetTxAddressMode, %function
 1770              	RS232UART_SetTxAddressMode:
 1771              	.LFB28:
1548:Generated_Source\PSoC4/RS232UART.c **** 
1549:Generated_Source\PSoC4/RS232UART.c **** 
1550:Generated_Source\PSoC4/RS232UART.c ****     /*******************************************************************************
1551:Generated_Source\PSoC4/RS232UART.c ****     * Function Name: RS232UART_SetTxAddressMode
1552:Generated_Source\PSoC4/RS232UART.c ****     ********************************************************************************
1553:Generated_Source\PSoC4/RS232UART.c ****     *
1554:Generated_Source\PSoC4/RS232UART.c ****     * Summary:
1555:Generated_Source\PSoC4/RS232UART.c ****     *  Configures the transmitter to signal the next bytes is address or data.
1556:Generated_Source\PSoC4/RS232UART.c ****     *
1557:Generated_Source\PSoC4/RS232UART.c ****     * Parameters:
1558:Generated_Source\PSoC4/RS232UART.c ****     *  addressMode: 
1559:Generated_Source\PSoC4/RS232UART.c ****     *       RS232UART_SET_SPACE - Configure the transmitter to send the next
1560:Generated_Source\PSoC4/RS232UART.c ****     *                                    byte as a data.
1561:Generated_Source\PSoC4/RS232UART.c ****     *       RS232UART_SET_MARK  - Configure the transmitter to send the next
1562:Generated_Source\PSoC4/RS232UART.c ****     *                                    byte as an address.
1563:Generated_Source\PSoC4/RS232UART.c ****     *
1564:Generated_Source\PSoC4/RS232UART.c ****     * Return:
1565:Generated_Source\PSoC4/RS232UART.c ****     *  None.
1566:Generated_Source\PSoC4/RS232UART.c ****     *
1567:Generated_Source\PSoC4/RS232UART.c ****     * Side Effects:
1568:Generated_Source\PSoC4/RS232UART.c ****     *  This function sets and clears RS232UART_CTRL_MARK bit in the Control
1569:Generated_Source\PSoC4/RS232UART.c ****     *  register.
1570:Generated_Source\PSoC4/RS232UART.c ****     *
1571:Generated_Source\PSoC4/RS232UART.c ****     *******************************************************************************/
1572:Generated_Source\PSoC4/RS232UART.c ****     void RS232UART_SetTxAddressMode(uint8 addressMode) 
1573:Generated_Source\PSoC4/RS232UART.c ****     {
 1772              		.loc 1 1573 0
 1773              		.cfi_startproc
 1774              		@ args = 0, pretend = 0, frame = 8
 1775              		@ frame_needed = 1, uses_anonymous_args = 0
 1776 0000 80B5     		push	{r7, lr}
 1777              		.cfi_def_cfa_offset 8
 1778              		.cfi_offset 7, -8
 1779              		.cfi_offset 14, -4
 1780 0002 82B0     		sub	sp, sp, #8
 1781              		.cfi_def_cfa_offset 16
 1782 0004 00AF     		add	r7, sp, #0
 1783              		.cfi_def_cfa_register 7
 1784 0006 0200     		movs	r2, r0
 1785 0008 FB1D     		adds	r3, r7, #7
ARM GAS  C:\Users\alexport\AppData\Local\Temp\ccDJmAqX.s 			page 60


 1786 000a 1A70     		strb	r2, [r3]
1574:Generated_Source\PSoC4/RS232UART.c ****         /* Mark/Space sending enable */
1575:Generated_Source\PSoC4/RS232UART.c ****         if(addressMode != 0u)
1576:Generated_Source\PSoC4/RS232UART.c ****         {
1577:Generated_Source\PSoC4/RS232UART.c ****         #if( RS232UART_CONTROL_REG_REMOVED == 0u )
1578:Generated_Source\PSoC4/RS232UART.c ****             RS232UART_WriteControlRegister(RS232UART_ReadControlRegister() |
1579:Generated_Source\PSoC4/RS232UART.c ****                                                   RS232UART_CTRL_MARK);
1580:Generated_Source\PSoC4/RS232UART.c ****         #endif /* End RS232UART_CONTROL_REG_REMOVED == 0u */
1581:Generated_Source\PSoC4/RS232UART.c ****         }
1582:Generated_Source\PSoC4/RS232UART.c ****         else
1583:Generated_Source\PSoC4/RS232UART.c ****         {
1584:Generated_Source\PSoC4/RS232UART.c ****         #if( RS232UART_CONTROL_REG_REMOVED == 0u )
1585:Generated_Source\PSoC4/RS232UART.c ****             RS232UART_WriteControlRegister(RS232UART_ReadControlRegister() &
1586:Generated_Source\PSoC4/RS232UART.c ****                                                   (uint8) ~RS232UART_CTRL_MARK);
1587:Generated_Source\PSoC4/RS232UART.c ****         #endif /* End RS232UART_CONTROL_REG_REMOVED == 0u */
1588:Generated_Source\PSoC4/RS232UART.c ****         }
1589:Generated_Source\PSoC4/RS232UART.c ****     }
 1787              		.loc 1 1589 0
 1788 000c C046     		nop
 1789 000e BD46     		mov	sp, r7
 1790 0010 02B0     		add	sp, sp, #8
 1791              		@ sp needed
 1792 0012 80BD     		pop	{r7, pc}
 1793              		.cfi_endproc
 1794              	.LFE28:
 1795              		.size	RS232UART_SetTxAddressMode, .-RS232UART_SetTxAddressMode
 1796              		.bss
 1797              	txPeriod.5048:
 1798 0006 00       		.space	1
 1799              		.text
 1800              	.Letext0:
 1801              		.file 2 "Generated_Source\\PSoC4\\cytypes.h"