ARM GAS  C:\Users\alexport\AppData\Local\Temp\ccMvG6ge.s 			page 1


   1              		.syntax unified
   2              		.cpu cortex-m0
   3              		.fpu softvfp
   4              		.eabi_attribute 20, 1
   5              		.eabi_attribute 21, 1
   6              		.eabi_attribute 23, 3
   7              		.eabi_attribute 24, 1
   8              		.eabi_attribute 25, 1
   9              		.eabi_attribute 26, 1
  10              		.eabi_attribute 30, 6
  11              		.eabi_attribute 34, 0
  12              		.eabi_attribute 18, 4
  13              		.thumb
  14              		.syntax unified
  15              		.file	"rtc.c"
  16              		.text
  17              	.Ltext0:
  18              		.cfi_sections	.debug_frame
  19              		.global	__aeabi_uidiv
  20              		.global	__aeabi_uidivmod
  21              		.section	.text.DecToBCD,"ax",%progbits
  22              		.align	2
  23              		.code	16
  24              		.thumb_func
  25              		.type	DecToBCD, %function
  26              	DecToBCD:
  27              	.LFB35:
  28              		.file 1 "rtc.c"
   1:rtc.c         **** /* ========================================
   2:rtc.c         ****  *
   3:rtc.c         ****  * Copyright YOUR COMPANY, THE YEAR
   4:rtc.c         ****  * All Rights Reserved
   5:rtc.c         ****  * UNPUBLISHED, LICENSED SOFTWARE.
   6:rtc.c         ****  *
   7:rtc.c         ****  * CONFIDENTIAL AND PROPRIETARY INFORMATION
   8:rtc.c         ****  * WHICH IS THE PROPERTY OF your company.
   9:rtc.c         ****  *
  10:rtc.c         ****  * ========================================
  11:rtc.c         **** */
  12:rtc.c         **** #include "rtc.h"
  13:rtc.c         **** 
  14:rtc.c         **** 
  15:rtc.c         **** static uint8_t DecToBCD(uint8_t val) {
  29              		.loc 1 15 0
  30              		.cfi_startproc
  31              		@ args = 0, pretend = 0, frame = 8
  32              		@ frame_needed = 1, uses_anonymous_args = 0
  33 0000 90B5     		push	{r4, r7, lr}
  34              		.cfi_def_cfa_offset 12
  35              		.cfi_offset 4, -12
  36              		.cfi_offset 7, -8
  37              		.cfi_offset 14, -4
  38 0002 83B0     		sub	sp, sp, #12
  39              		.cfi_def_cfa_offset 24
  40 0004 00AF     		add	r7, sp, #0
  41              		.cfi_def_cfa_register 7
  42 0006 0200     		movs	r2, r0
ARM GAS  C:\Users\alexport\AppData\Local\Temp\ccMvG6ge.s 			page 2


  43 0008 FB1D     		adds	r3, r7, #7
  44 000a 1A70     		strb	r2, [r3]
  16:rtc.c         ****     return ((val / 10) << 4) | (val % 10);
  45              		.loc 1 16 0
  46 000c FB1D     		adds	r3, r7, #7
  47 000e 1B78     		ldrb	r3, [r3]
  48 0010 0A21     		movs	r1, #10
  49 0012 1800     		movs	r0, r3
  50 0014 FFF7FEFF 		bl	__aeabi_uidiv
  51 0018 0300     		movs	r3, r0
  52 001a DBB2     		uxtb	r3, r3
  53 001c 1B01     		lsls	r3, r3, #4
  54 001e 5CB2     		sxtb	r4, r3
  55 0020 FB1D     		adds	r3, r7, #7
  56 0022 1B78     		ldrb	r3, [r3]
  57 0024 0A21     		movs	r1, #10
  58 0026 1800     		movs	r0, r3
  59 0028 FFF7FEFF 		bl	__aeabi_uidivmod
  60 002c 0B00     		movs	r3, r1
  61 002e DBB2     		uxtb	r3, r3
  62 0030 5BB2     		sxtb	r3, r3
  63 0032 2343     		orrs	r3, r4
  64 0034 5BB2     		sxtb	r3, r3
  65 0036 DBB2     		uxtb	r3, r3
  17:rtc.c         **** }
  66              		.loc 1 17 0
  67 0038 1800     		movs	r0, r3
  68 003a BD46     		mov	sp, r7
  69 003c 03B0     		add	sp, sp, #12
  70              		@ sp needed
  71 003e 90BD     		pop	{r4, r7, pc}
  72              		.cfi_endproc
  73              	.LFE35:
  74              		.size	DecToBCD, .-DecToBCD
  75              		.section	.text.BCDToDec,"ax",%progbits
  76              		.align	2
  77              		.code	16
  78              		.thumb_func
  79              		.type	BCDToDec, %function
  80              	BCDToDec:
  81              	.LFB36:
  18:rtc.c         **** 
  19:rtc.c         **** // Helper: Convert BCD to Decimal
  20:rtc.c         **** static uint8_t BCDToDec(uint8_t val) {
  82              		.loc 1 20 0
  83              		.cfi_startproc
  84              		@ args = 0, pretend = 0, frame = 8
  85              		@ frame_needed = 1, uses_anonymous_args = 0
  86 0000 80B5     		push	{r7, lr}
  87              		.cfi_def_cfa_offset 8
  88              		.cfi_offset 7, -8
  89              		.cfi_offset 14, -4
  90 0002 82B0     		sub	sp, sp, #8
  91              		.cfi_def_cfa_offset 16
  92 0004 00AF     		add	r7, sp, #0
  93              		.cfi_def_cfa_register 7
  94 0006 0200     		movs	r2, r0
ARM GAS  C:\Users\alexport\AppData\Local\Temp\ccMvG6ge.s 			page 3


  95 0008 FB1D     		adds	r3, r7, #7
  96 000a 1A70     		strb	r2, [r3]
  21:rtc.c         ****     return (val >> 4) * 10 + (val & 0x0F);
  97              		.loc 1 21 0
  98 000c FB1D     		adds	r3, r7, #7
  99 000e 1B78     		ldrb	r3, [r3]
 100 0010 1B09     		lsrs	r3, r3, #4
 101 0012 DBB2     		uxtb	r3, r3
 102 0014 1A1C     		adds	r2, r3, #0
 103 0016 9200     		lsls	r2, r2, #2
 104 0018 D318     		adds	r3, r2, r3
 105 001a DB18     		adds	r3, r3, r3
 106 001c DAB2     		uxtb	r2, r3
 107 001e FB1D     		adds	r3, r7, #7
 108 0020 1B78     		ldrb	r3, [r3]
 109 0022 0F21     		movs	r1, #15
 110 0024 0B40     		ands	r3, r1
 111 0026 DBB2     		uxtb	r3, r3
 112 0028 D318     		adds	r3, r2, r3
 113 002a DBB2     		uxtb	r3, r3
  22:rtc.c         **** }
 114              		.loc 1 22 0
 115 002c 1800     		movs	r0, r3
 116 002e BD46     		mov	sp, r7
 117 0030 02B0     		add	sp, sp, #8
 118              		@ sp needed
 119 0032 80BD     		pop	{r7, pc}
 120              		.cfi_endproc
 121              	.LFE36:
 122              		.size	BCDToDec, .-BCDToDec
 123              		.section	.text.DS3231_EnableDateTime,"ax",%progbits
 124              		.align	2
 125              		.global	DS3231_EnableDateTime
 126              		.code	16
 127              		.thumb_func
 128              		.type	DS3231_EnableDateTime, %function
 129              	DS3231_EnableDateTime:
 130              	.LFB37:
  23:rtc.c         **** 
  24:rtc.c         **** void DS3231_EnableDateTime(void ){
 131              		.loc 1 24 0
 132              		.cfi_startproc
 133              		@ args = 0, pretend = 0, frame = 8
 134              		@ frame_needed = 1, uses_anonymous_args = 0
 135 0000 80B5     		push	{r7, lr}
 136              		.cfi_def_cfa_offset 8
 137              		.cfi_offset 7, -8
 138              		.cfi_offset 14, -4
 139 0002 82B0     		sub	sp, sp, #8
 140              		.cfi_def_cfa_offset 16
 141 0004 00AF     		add	r7, sp, #0
 142              		.cfi_def_cfa_register 7
  25:rtc.c         ****     uint8_t data[2];
  26:rtc.c         ****     data[0] = 0x00; // Start at seconds register
 143              		.loc 1 26 0
 144 0006 3B1D     		adds	r3, r7, #4
 145 0008 0022     		movs	r2, #0
ARM GAS  C:\Users\alexport\AppData\Local\Temp\ccMvG6ge.s 			page 4


 146 000a 1A70     		strb	r2, [r3]
  27:rtc.c         ****     data[1] = 0x00;
 147              		.loc 1 27 0
 148 000c 3B1D     		adds	r3, r7, #4
 149 000e 0022     		movs	r2, #0
 150 0010 5A70     		strb	r2, [r3, #1]
  28:rtc.c         ****     
  29:rtc.c         ****     I2C_I2CMasterWriteBuf(I2C_RTC_SLAVE_ADDR, data, sizeof(data), I2C_I2C_MODE_COMPLETE_XFER);
 151              		.loc 1 29 0
 152 0012 391D     		adds	r1, r7, #4
 153 0014 0023     		movs	r3, #0
 154 0016 0222     		movs	r2, #2
 155 0018 6820     		movs	r0, #104
 156 001a FFF7FEFF 		bl	I2C_I2CMasterWriteBuf
  30:rtc.c         ****     while (I2C_I2CMasterStatus() & I2C_I2C_MSTAT_XFER_INP);
 157              		.loc 1 30 0
 158 001e C046     		nop
 159              	.L6:
 160              		.loc 1 30 0 is_stmt 0 discriminator 1
 161 0020 FFF7FEFF 		bl	I2C_I2CMasterStatus
 162 0024 0200     		movs	r2, r0
 163 0026 0423     		movs	r3, #4
 164 0028 1340     		ands	r3, r2
 165 002a F9D1     		bne	.L6
  31:rtc.c         **** }
 166              		.loc 1 31 0 is_stmt 1
 167 002c C046     		nop
 168 002e BD46     		mov	sp, r7
 169 0030 02B0     		add	sp, sp, #8
 170              		@ sp needed
 171 0032 80BD     		pop	{r7, pc}
 172              		.cfi_endproc
 173              	.LFE37:
 174              		.size	DS3231_EnableDateTime, .-DS3231_EnableDateTime
 175              		.section	.text.DS3231_SetDateTime,"ax",%progbits
 176              		.align	2
 177              		.global	DS3231_SetDateTime
 178              		.code	16
 179              		.thumb_func
 180              		.type	DS3231_SetDateTime, %function
 181              	DS3231_SetDateTime:
 182              	.LFB38:
  32:rtc.c         **** 
  33:rtc.c         **** void DS3231_SetDateTime(const S_DateTime* dt) {
 183              		.loc 1 33 0
 184              		.cfi_startproc
 185              		@ args = 0, pretend = 0, frame = 16
 186              		@ frame_needed = 1, uses_anonymous_args = 0
 187 0000 80B5     		push	{r7, lr}
 188              		.cfi_def_cfa_offset 8
 189              		.cfi_offset 7, -8
 190              		.cfi_offset 14, -4
 191 0002 84B0     		sub	sp, sp, #16
 192              		.cfi_def_cfa_offset 24
 193 0004 00AF     		add	r7, sp, #0
 194              		.cfi_def_cfa_register 7
 195 0006 7860     		str	r0, [r7, #4]
ARM GAS  C:\Users\alexport\AppData\Local\Temp\ccMvG6ge.s 			page 5


  34:rtc.c         ****     uint8_t data[8];
  35:rtc.c         ****     
  36:rtc.c         ****     data[0] = 0x00; // Start at seconds register
 196              		.loc 1 36 0
 197 0008 0823     		movs	r3, #8
 198 000a FB18     		adds	r3, r7, r3
 199 000c 0022     		movs	r2, #0
 200 000e 1A70     		strb	r2, [r3]
  37:rtc.c         ****     data[1] = DecToBCD(dt->seconds);
 201              		.loc 1 37 0
 202 0010 7B68     		ldr	r3, [r7, #4]
 203 0012 1B78     		ldrb	r3, [r3]
 204 0014 1800     		movs	r0, r3
 205 0016 FFF7FEFF 		bl	DecToBCD
 206 001a 0300     		movs	r3, r0
 207 001c 1A00     		movs	r2, r3
 208 001e 0823     		movs	r3, #8
 209 0020 FB18     		adds	r3, r7, r3
 210 0022 5A70     		strb	r2, [r3, #1]
  38:rtc.c         ****     data[2] = DecToBCD(dt->minutes);
 211              		.loc 1 38 0
 212 0024 7B68     		ldr	r3, [r7, #4]
 213 0026 5B78     		ldrb	r3, [r3, #1]
 214 0028 1800     		movs	r0, r3
 215 002a FFF7FEFF 		bl	DecToBCD
 216 002e 0300     		movs	r3, r0
 217 0030 1A00     		movs	r2, r3
 218 0032 0823     		movs	r3, #8
 219 0034 FB18     		adds	r3, r7, r3
 220 0036 9A70     		strb	r2, [r3, #2]
  39:rtc.c         ****     data[3] = DecToBCD(dt->hours);
 221              		.loc 1 39 0
 222 0038 7B68     		ldr	r3, [r7, #4]
 223 003a 9B78     		ldrb	r3, [r3, #2]
 224 003c 1800     		movs	r0, r3
 225 003e FFF7FEFF 		bl	DecToBCD
 226 0042 0300     		movs	r3, r0
 227 0044 1A00     		movs	r2, r3
 228 0046 0823     		movs	r3, #8
 229 0048 FB18     		adds	r3, r7, r3
 230 004a DA70     		strb	r2, [r3, #3]
  40:rtc.c         ****     data[4] = DecToBCD(dt->dayOfWeek);
 231              		.loc 1 40 0
 232 004c 7B68     		ldr	r3, [r7, #4]
 233 004e DB78     		ldrb	r3, [r3, #3]
 234 0050 1800     		movs	r0, r3
 235 0052 FFF7FEFF 		bl	DecToBCD
 236 0056 0300     		movs	r3, r0
 237 0058 1A00     		movs	r2, r3
 238 005a 0823     		movs	r3, #8
 239 005c FB18     		adds	r3, r7, r3
 240 005e 1A71     		strb	r2, [r3, #4]
  41:rtc.c         ****     data[5] = DecToBCD(dt->day);
 241              		.loc 1 41 0
 242 0060 7B68     		ldr	r3, [r7, #4]
 243 0062 1B79     		ldrb	r3, [r3, #4]
 244 0064 1800     		movs	r0, r3
ARM GAS  C:\Users\alexport\AppData\Local\Temp\ccMvG6ge.s 			page 6


 245 0066 FFF7FEFF 		bl	DecToBCD
 246 006a 0300     		movs	r3, r0
 247 006c 1A00     		movs	r2, r3
 248 006e 0823     		movs	r3, #8
 249 0070 FB18     		adds	r3, r7, r3
 250 0072 5A71     		strb	r2, [r3, #5]
  42:rtc.c         ****     data[6] = DecToBCD(dt->month);
 251              		.loc 1 42 0
 252 0074 7B68     		ldr	r3, [r7, #4]
 253 0076 5B79     		ldrb	r3, [r3, #5]
 254 0078 1800     		movs	r0, r3
 255 007a FFF7FEFF 		bl	DecToBCD
 256 007e 0300     		movs	r3, r0
 257 0080 1A00     		movs	r2, r3
 258 0082 0823     		movs	r3, #8
 259 0084 FB18     		adds	r3, r7, r3
 260 0086 9A71     		strb	r2, [r3, #6]
  43:rtc.c         ****     data[7] = DecToBCD(dt->year);
 261              		.loc 1 43 0
 262 0088 7B68     		ldr	r3, [r7, #4]
 263 008a 9B79     		ldrb	r3, [r3, #6]
 264 008c 1800     		movs	r0, r3
 265 008e FFF7FEFF 		bl	DecToBCD
 266 0092 0300     		movs	r3, r0
 267 0094 1A00     		movs	r2, r3
 268 0096 0823     		movs	r3, #8
 269 0098 FB18     		adds	r3, r7, r3
 270 009a DA71     		strb	r2, [r3, #7]
  44:rtc.c         ****    
  45:rtc.c         ****     
  46:rtc.c         ****     I2C_I2CMasterWriteBuf(I2C_RTC_SLAVE_ADDR, data, sizeof(data)+1, I2C_I2C_MODE_COMPLETE_XFER);
 271              		.loc 1 46 0
 272 009c 0823     		movs	r3, #8
 273 009e F918     		adds	r1, r7, r3
 274 00a0 0023     		movs	r3, #0
 275 00a2 0922     		movs	r2, #9
 276 00a4 6820     		movs	r0, #104
 277 00a6 FFF7FEFF 		bl	I2C_I2CMasterWriteBuf
  47:rtc.c         ****     while (I2C_I2CMasterStatus() & I2C_I2C_MSTAT_XFER_INP);
 278              		.loc 1 47 0
 279 00aa C046     		nop
 280              	.L8:
 281              		.loc 1 47 0 is_stmt 0 discriminator 1
 282 00ac FFF7FEFF 		bl	I2C_I2CMasterStatus
 283 00b0 0200     		movs	r2, r0
 284 00b2 0423     		movs	r3, #4
 285 00b4 1340     		ands	r3, r2
 286 00b6 F9D1     		bne	.L8
  48:rtc.c         **** 
  49:rtc.c         **** }
 287              		.loc 1 49 0 is_stmt 1
 288 00b8 C046     		nop
 289 00ba BD46     		mov	sp, r7
 290 00bc 04B0     		add	sp, sp, #16
 291              		@ sp needed
 292 00be 80BD     		pop	{r7, pc}
 293              		.cfi_endproc
ARM GAS  C:\Users\alexport\AppData\Local\Temp\ccMvG6ge.s 			page 7


 294              	.LFE38:
 295              		.size	DS3231_SetDateTime, .-DS3231_SetDateTime
 296              		.section	.text.DS3231_GetDateTime,"ax",%progbits
 297              		.align	2
 298              		.global	DS3231_GetDateTime
 299              		.code	16
 300              		.thumb_func
 301              		.type	DS3231_GetDateTime, %function
 302              	DS3231_GetDateTime:
 303              	.LFB39:
  50:rtc.c         **** 
  51:rtc.c         **** void DS3231_GetDateTime(S_DateTime* dt) {
 304              		.loc 1 51 0
 305              		.cfi_startproc
 306              		@ args = 0, pretend = 0, frame = 16
 307              		@ frame_needed = 1, uses_anonymous_args = 0
 308 0000 80B5     		push	{r7, lr}
 309              		.cfi_def_cfa_offset 8
 310              		.cfi_offset 7, -8
 311              		.cfi_offset 14, -4
 312 0002 84B0     		sub	sp, sp, #16
 313              		.cfi_def_cfa_offset 24
 314 0004 00AF     		add	r7, sp, #0
 315              		.cfi_def_cfa_register 7
 316 0006 7860     		str	r0, [r7, #4]
  52:rtc.c         ****     uint8_t reg = 0x00;
 317              		.loc 1 52 0
 318 0008 0F23     		movs	r3, #15
 319 000a FB18     		adds	r3, r7, r3
 320 000c 0022     		movs	r2, #0
 321 000e 1A70     		strb	r2, [r3]
  53:rtc.c         ****     uint8_t data[7];
  54:rtc.c         **** 
  55:rtc.c         ****     // Send memory address
  56:rtc.c         ****     I2C_I2CMasterWriteBuf(I2C_RTC_SLAVE_ADDR, &reg, 1, I2C_I2C_MODE_COMPLETE_XFER);
 322              		.loc 1 56 0
 323 0010 0F23     		movs	r3, #15
 324 0012 F918     		adds	r1, r7, r3
 325 0014 0023     		movs	r3, #0
 326 0016 0122     		movs	r2, #1
 327 0018 6820     		movs	r0, #104
 328 001a FFF7FEFF 		bl	I2C_I2CMasterWriteBuf
  57:rtc.c         ****     while (I2C_I2CMasterStatus() & I2C_I2C_MSTAT_XFER_INP);
 329              		.loc 1 57 0
 330 001e C046     		nop
 331              	.L10:
 332              		.loc 1 57 0 is_stmt 0 discriminator 1
 333 0020 FFF7FEFF 		bl	I2C_I2CMasterStatus
 334 0024 0200     		movs	r2, r0
 335 0026 0423     		movs	r3, #4
 336 0028 1340     		ands	r3, r2
 337 002a F9D1     		bne	.L10
  58:rtc.c         **** 
  59:rtc.c         ****     // Read data
  60:rtc.c         ****     I2C_I2CMasterReadBuf(I2C_RTC_SLAVE_ADDR, data, 7, I2C_I2C_MODE_COMPLETE_XFER);
 338              		.loc 1 60 0 is_stmt 1
 339 002c 0823     		movs	r3, #8
ARM GAS  C:\Users\alexport\AppData\Local\Temp\ccMvG6ge.s 			page 8


 340 002e F918     		adds	r1, r7, r3
 341 0030 0023     		movs	r3, #0
 342 0032 0722     		movs	r2, #7
 343 0034 6820     		movs	r0, #104
 344 0036 FFF7FEFF 		bl	I2C_I2CMasterReadBuf
  61:rtc.c         ****     while (I2C_I2CMasterStatus() & I2C_I2C_MSTAT_XFER_INP);
 345              		.loc 1 61 0
 346 003a C046     		nop
 347              	.L11:
 348              		.loc 1 61 0 is_stmt 0 discriminator 1
 349 003c FFF7FEFF 		bl	I2C_I2CMasterStatus
 350 0040 0200     		movs	r2, r0
 351 0042 0423     		movs	r3, #4
 352 0044 1340     		ands	r3, r2
 353 0046 F9D1     		bne	.L11
  62:rtc.c         ****     
  63:rtc.c         ****     dt->seconds    = BCDToDec(data[0]);
 354              		.loc 1 63 0 is_stmt 1
 355 0048 0823     		movs	r3, #8
 356 004a FB18     		adds	r3, r7, r3
 357 004c 1B78     		ldrb	r3, [r3]
 358 004e 1800     		movs	r0, r3
 359 0050 FFF7FEFF 		bl	BCDToDec
 360 0054 0300     		movs	r3, r0
 361 0056 1A00     		movs	r2, r3
 362 0058 7B68     		ldr	r3, [r7, #4]
 363 005a 1A70     		strb	r2, [r3]
  64:rtc.c         ****     dt->minutes    = BCDToDec(data[1]);
 364              		.loc 1 64 0
 365 005c 0823     		movs	r3, #8
 366 005e FB18     		adds	r3, r7, r3
 367 0060 5B78     		ldrb	r3, [r3, #1]
 368 0062 1800     		movs	r0, r3
 369 0064 FFF7FEFF 		bl	BCDToDec
 370 0068 0300     		movs	r3, r0
 371 006a 1A00     		movs	r2, r3
 372 006c 7B68     		ldr	r3, [r7, #4]
 373 006e 5A70     		strb	r2, [r3, #1]
  65:rtc.c         ****     dt->hours      = BCDToDec(data[2] & 0x3F);
 374              		.loc 1 65 0
 375 0070 0823     		movs	r3, #8
 376 0072 FB18     		adds	r3, r7, r3
 377 0074 9B78     		ldrb	r3, [r3, #2]
 378 0076 3F22     		movs	r2, #63
 379 0078 1340     		ands	r3, r2
 380 007a DBB2     		uxtb	r3, r3
 381 007c 1800     		movs	r0, r3
 382 007e FFF7FEFF 		bl	BCDToDec
 383 0082 0300     		movs	r3, r0
 384 0084 1A00     		movs	r2, r3
 385 0086 7B68     		ldr	r3, [r7, #4]
 386 0088 9A70     		strb	r2, [r3, #2]
  66:rtc.c         ****     dt->dayOfWeek  = BCDToDec(data[3]);
 387              		.loc 1 66 0
 388 008a 0823     		movs	r3, #8
 389 008c FB18     		adds	r3, r7, r3
 390 008e DB78     		ldrb	r3, [r3, #3]
ARM GAS  C:\Users\alexport\AppData\Local\Temp\ccMvG6ge.s 			page 9


 391 0090 1800     		movs	r0, r3
 392 0092 FFF7FEFF 		bl	BCDToDec
 393 0096 0300     		movs	r3, r0
 394 0098 1A00     		movs	r2, r3
 395 009a 7B68     		ldr	r3, [r7, #4]
 396 009c DA70     		strb	r2, [r3, #3]
  67:rtc.c         ****     dt->day        = BCDToDec(data[4]);
 397              		.loc 1 67 0
 398 009e 0823     		movs	r3, #8
 399 00a0 FB18     		adds	r3, r7, r3
 400 00a2 1B79     		ldrb	r3, [r3, #4]
 401 00a4 1800     		movs	r0, r3
 402 00a6 FFF7FEFF 		bl	BCDToDec
 403 00aa 0300     		movs	r3, r0
 404 00ac 1A00     		movs	r2, r3
 405 00ae 7B68     		ldr	r3, [r7, #4]
 406 00b0 1A71     		strb	r2, [r3, #4]
  68:rtc.c         ****     dt->month      = BCDToDec(data[5] & 0x1F); // remove century bit
 407              		.loc 1 68 0
 408 00b2 0823     		movs	r3, #8
 409 00b4 FB18     		adds	r3, r7, r3
 410 00b6 5B79     		ldrb	r3, [r3, #5]
 411 00b8 1F22     		movs	r2, #31
 412 00ba 1340     		ands	r3, r2
 413 00bc DBB2     		uxtb	r3, r3
 414 00be 1800     		movs	r0, r3
 415 00c0 FFF7FEFF 		bl	BCDToDec
 416 00c4 0300     		movs	r3, r0
 417 00c6 1A00     		movs	r2, r3
 418 00c8 7B68     		ldr	r3, [r7, #4]
 419 00ca 5A71     		strb	r2, [r3, #5]
  69:rtc.c         ****     dt->year       = BCDToDec(data[6]);
 420              		.loc 1 69 0
 421 00cc 0823     		movs	r3, #8
 422 00ce FB18     		adds	r3, r7, r3
 423 00d0 9B79     		ldrb	r3, [r3, #6]
 424 00d2 1800     		movs	r0, r3
 425 00d4 FFF7FEFF 		bl	BCDToDec
 426 00d8 0300     		movs	r3, r0
 427 00da 1A00     		movs	r2, r3
 428 00dc 7B68     		ldr	r3, [r7, #4]
 429 00de 9A71     		strb	r2, [r3, #6]
  70:rtc.c         ****     
  71:rtc.c         ****     
  72:rtc.c         **** }
 430              		.loc 1 72 0
 431 00e0 C046     		nop
 432 00e2 BD46     		mov	sp, r7
 433 00e4 04B0     		add	sp, sp, #16
 434              		@ sp needed
 435 00e6 80BD     		pop	{r7, pc}
 436              		.cfi_endproc
 437              	.LFE39:
 438              		.size	DS3231_GetDateTime, .-DS3231_GetDateTime
 439              		.global	write_result
 440              		.bss
 441              		.align	2
ARM GAS  C:\Users\alexport\AppData\Local\Temp\ccMvG6ge.s 			page 10


 442              		.type	write_result, %object
 443              		.size	write_result, 4
 444              	write_result:
 445 0000 00000000 		.space	4
 446              		.global	read_result
 447              		.align	2
 448              		.type	read_result, %object
 449              		.size	read_result, 4
 450              	read_result:
 451 0004 00000000 		.space	4
 452              		.global	result
 453              		.align	2
 454              		.type	result, %object
 455              		.size	result, 4
 456              	result:
 457 0008 00000000 		.space	4
 458              		.section	.text.read_RTC,"ax",%progbits
 459              		.align	2
 460              		.global	read_RTC
 461              		.code	16
 462              		.thumb_func
 463              		.type	read_RTC, %function
 464              	read_RTC:
 465              	.LFB40:
  73:rtc.c         **** 
  74:rtc.c         **** 
  75:rtc.c         **** volatile uint32_t write_result = 0;
  76:rtc.c         **** volatile uint32_t read_result = 0;
  77:rtc.c         **** uint32 result = 0;
  78:rtc.c         **** 
  79:rtc.c         **** void read_RTC( S_DateTime *rtc) {
 466              		.loc 1 79 0
 467              		.cfi_startproc
 468              		@ args = 0, pretend = 0, frame = 24
 469              		@ frame_needed = 1, uses_anonymous_args = 0
 470 0000 80B5     		push	{r7, lr}
 471              		.cfi_def_cfa_offset 8
 472              		.cfi_offset 7, -8
 473              		.cfi_offset 14, -4
 474 0002 86B0     		sub	sp, sp, #24
 475              		.cfi_def_cfa_offset 32
 476 0004 00AF     		add	r7, sp, #0
 477              		.cfi_def_cfa_register 7
 478 0006 7860     		str	r0, [r7, #4]
  80:rtc.c         ****     
  81:rtc.c         ****     uint8 WriteBuf[1] = {0};
 479              		.loc 1 81 0
 480 0008 1423     		movs	r3, #20
 481 000a FB18     		adds	r3, r7, r3
 482 000c 0022     		movs	r2, #0
 483 000e 1A70     		strb	r2, [r3]
  82:rtc.c         ****     WriteBuf[0] = 0;
 484              		.loc 1 82 0
 485 0010 1423     		movs	r3, #20
 486 0012 FB18     		adds	r3, r7, r3
 487 0014 0022     		movs	r2, #0
 488 0016 1A70     		strb	r2, [r3]
ARM GAS  C:\Users\alexport\AppData\Local\Temp\ccMvG6ge.s 			page 11


  83:rtc.c         ****     S_DateTime chip_rtc;
  84:rtc.c         ****    
  85:rtc.c         ****     
  86:rtc.c         ****     
  87:rtc.c         ****     write_result = I2C_I2CMasterWriteBuf(I2C_RTC_SLAVE_ADDR, (uint8 *) WriteBuf, 1, I2C_I2C_MODE_NO
 489              		.loc 1 87 0
 490 0018 1423     		movs	r3, #20
 491 001a F918     		adds	r1, r7, r3
 492 001c 0223     		movs	r3, #2
 493 001e 0122     		movs	r2, #1
 494 0020 6820     		movs	r0, #104
 495 0022 FFF7FEFF 		bl	I2C_I2CMasterWriteBuf
 496 0026 0200     		movs	r2, r0
 497 0028 5A4B     		ldr	r3, .L20
 498 002a 1A60     		str	r2, [r3]
  88:rtc.c         ****     while(((result = I2C_I2CMasterStatus()) & I2C_I2C_MSTAT_WR_CMPLT) == 0) {
 499              		.loc 1 88 0
 500 002c 03E0     		b	.L13
 501              	.L14:
  89:rtc.c         ****         write_result = result;
 502              		.loc 1 89 0
 503 002e 5A4B     		ldr	r3, .L20+4
 504 0030 1A68     		ldr	r2, [r3]
 505 0032 584B     		ldr	r3, .L20
 506 0034 1A60     		str	r2, [r3]
 507              	.L13:
  88:rtc.c         ****     while(((result = I2C_I2CMasterStatus()) & I2C_I2C_MSTAT_WR_CMPLT) == 0) {
 508              		.loc 1 88 0
 509 0036 FFF7FEFF 		bl	I2C_I2CMasterStatus
 510 003a 0200     		movs	r2, r0
 511 003c 564B     		ldr	r3, .L20+4
 512 003e 1A60     		str	r2, [r3]
 513 0040 554B     		ldr	r3, .L20+4
 514 0042 1B68     		ldr	r3, [r3]
 515 0044 0222     		movs	r2, #2
 516 0046 1340     		ands	r3, r2
 517 0048 F1D0     		beq	.L14
  90:rtc.c         ****     }
  91:rtc.c         ****     
  92:rtc.c         ****     //CyDelay(10);
  93:rtc.c         ****     
  94:rtc.c         ****     read_result = I2C_I2CMasterReadBuf(I2C_RTC_SLAVE_ADDR, (uint8 *) &chip_rtc, sizeof( S_DateTime)
 518              		.loc 1 94 0
 519 004a 0C23     		movs	r3, #12
 520 004c F918     		adds	r1, r7, r3
 521 004e 0123     		movs	r3, #1
 522 0050 0722     		movs	r2, #7
 523 0052 6820     		movs	r0, #104
 524 0054 FFF7FEFF 		bl	I2C_I2CMasterReadBuf
 525 0058 0200     		movs	r2, r0
 526 005a 504B     		ldr	r3, .L20+8
 527 005c 1A60     		str	r2, [r3]
  95:rtc.c         ****     while(((result = I2C_I2CMasterStatus()) & I2C_I2C_MSTAT_RD_CMPLT) == 0) {};
 528              		.loc 1 95 0
 529 005e C046     		nop
 530              	.L15:
 531              		.loc 1 95 0 is_stmt 0 discriminator 1
ARM GAS  C:\Users\alexport\AppData\Local\Temp\ccMvG6ge.s 			page 12


 532 0060 FFF7FEFF 		bl	I2C_I2CMasterStatus
 533 0064 0200     		movs	r2, r0
 534 0066 4C4B     		ldr	r3, .L20+4
 535 0068 1A60     		str	r2, [r3]
 536 006a 4B4B     		ldr	r3, .L20+4
 537 006c 1B68     		ldr	r3, [r3]
 538 006e 0122     		movs	r2, #1
 539 0070 1340     		ands	r3, r2
 540 0072 F5D0     		beq	.L15
  96:rtc.c         ****     
  97:rtc.c         ****     
  98:rtc.c         ****     // convert chip date to real rtc info
  99:rtc.c         ****     rtc->seconds = ((chip_rtc.seconds >> 4) * 10) + (chip_rtc.seconds & 0x0F);
 541              		.loc 1 99 0 is_stmt 1
 542 0074 0C23     		movs	r3, #12
 543 0076 FB18     		adds	r3, r7, r3
 544 0078 1B78     		ldrb	r3, [r3]
 545 007a 1B09     		lsrs	r3, r3, #4
 546 007c DBB2     		uxtb	r3, r3
 547 007e 1A1C     		adds	r2, r3, #0
 548 0080 9200     		lsls	r2, r2, #2
 549 0082 D318     		adds	r3, r2, r3
 550 0084 DB18     		adds	r3, r3, r3
 551 0086 DAB2     		uxtb	r2, r3
 552 0088 0C23     		movs	r3, #12
 553 008a FB18     		adds	r3, r7, r3
 554 008c 1B78     		ldrb	r3, [r3]
 555 008e 0F21     		movs	r1, #15
 556 0090 0B40     		ands	r3, r1
 557 0092 DBB2     		uxtb	r3, r3
 558 0094 D318     		adds	r3, r2, r3
 559 0096 DAB2     		uxtb	r2, r3
 560 0098 7B68     		ldr	r3, [r7, #4]
 561 009a 1A70     		strb	r2, [r3]
 100:rtc.c         ****     rtc->minutes =  ((chip_rtc.minutes >> 4) * 10) + (chip_rtc.minutes & 0x0F);
 562              		.loc 1 100 0
 563 009c 0C23     		movs	r3, #12
 564 009e FB18     		adds	r3, r7, r3
 565 00a0 5B78     		ldrb	r3, [r3, #1]
 566 00a2 1B09     		lsrs	r3, r3, #4
 567 00a4 DBB2     		uxtb	r3, r3
 568 00a6 1A1C     		adds	r2, r3, #0
 569 00a8 9200     		lsls	r2, r2, #2
 570 00aa D318     		adds	r3, r2, r3
 571 00ac DB18     		adds	r3, r3, r3
 572 00ae DAB2     		uxtb	r2, r3
 573 00b0 0C23     		movs	r3, #12
 574 00b2 FB18     		adds	r3, r7, r3
 575 00b4 5B78     		ldrb	r3, [r3, #1]
 576 00b6 0F21     		movs	r1, #15
 577 00b8 0B40     		ands	r3, r1
 578 00ba DBB2     		uxtb	r3, r3
 579 00bc D318     		adds	r3, r2, r3
 580 00be DAB2     		uxtb	r2, r3
 581 00c0 7B68     		ldr	r3, [r7, #4]
 582 00c2 5A70     		strb	r2, [r3, #1]
 101:rtc.c         ****     //fix hour check with AM/PM vs 24hr bit
ARM GAS  C:\Users\alexport\AppData\Local\Temp\ccMvG6ge.s 			page 13


 102:rtc.c         ****     // rtc->hours = (((chip_rtc.hours & 0x1F) >> 4) * 10) + (chip_rtc.hours & 0x0F); (Wrong!!)_
 103:rtc.c         ****     
 104:rtc.c         **** 
 105:rtc.c         ****     // TODO check 12/24n bit (0x40)
 106:rtc.c         ****     if (chip_rtc.hours & 0x20) rtc->hours = 20; // 20hr Flag?
 583              		.loc 1 106 0
 584 00c4 0C23     		movs	r3, #12
 585 00c6 FB18     		adds	r3, r7, r3
 586 00c8 9B78     		ldrb	r3, [r3, #2]
 587 00ca 1A00     		movs	r2, r3
 588 00cc 2023     		movs	r3, #32
 589 00ce 1340     		ands	r3, r2
 590 00d0 03D0     		beq	.L16
 591              		.loc 1 106 0 is_stmt 0 discriminator 1
 592 00d2 7B68     		ldr	r3, [r7, #4]
 593 00d4 1422     		movs	r2, #20
 594 00d6 9A70     		strb	r2, [r3, #2]
 595 00d8 0DE0     		b	.L17
 596              	.L16:
 107:rtc.c         ****     else if (chip_rtc.hours & 0x10) rtc->hours = 10;  // 10hr Flag ?
 597              		.loc 1 107 0 is_stmt 1
 598 00da 0C23     		movs	r3, #12
 599 00dc FB18     		adds	r3, r7, r3
 600 00de 9B78     		ldrb	r3, [r3, #2]
 601 00e0 1A00     		movs	r2, r3
 602 00e2 1023     		movs	r3, #16
 603 00e4 1340     		ands	r3, r2
 604 00e6 03D0     		beq	.L18
 605              		.loc 1 107 0 is_stmt 0 discriminator 1
 606 00e8 7B68     		ldr	r3, [r7, #4]
 607 00ea 0A22     		movs	r2, #10
 608 00ec 9A70     		strb	r2, [r3, #2]
 609 00ee 02E0     		b	.L17
 610              	.L18:
 108:rtc.c         ****     else rtc->hours = 0; // no flags.
 611              		.loc 1 108 0 is_stmt 1
 612 00f0 7B68     		ldr	r3, [r7, #4]
 613 00f2 0022     		movs	r2, #0
 614 00f4 9A70     		strb	r2, [r3, #2]
 615              	.L17:
 109:rtc.c         **** 
 110:rtc.c         ****     rtc->hours +=  (chip_rtc.hours & 0x0F);
 616              		.loc 1 110 0
 617 00f6 7B68     		ldr	r3, [r7, #4]
 618 00f8 9A78     		ldrb	r2, [r3, #2]
 619 00fa 0C23     		movs	r3, #12
 620 00fc FB18     		adds	r3, r7, r3
 621 00fe 9B78     		ldrb	r3, [r3, #2]
 622 0100 0F21     		movs	r1, #15
 623 0102 0B40     		ands	r3, r1
 624 0104 DBB2     		uxtb	r3, r3
 625 0106 D318     		adds	r3, r2, r3
 626 0108 DAB2     		uxtb	r2, r3
 627 010a 7B68     		ldr	r3, [r7, #4]
 628 010c 9A70     		strb	r2, [r3, #2]
 111:rtc.c         **** 
 112:rtc.c         **** //     rtc->date = (((chip_rtc.date & 0x3F) >> 4) * 10) + (chip_rtc.date & 0x0F);
ARM GAS  C:\Users\alexport\AppData\Local\Temp\ccMvG6ge.s 			page 14


 113:rtc.c         ****     
 114:rtc.c         ****     rtc->day = ((chip_rtc.day >> 4) * 10) + (chip_rtc.day & 0x0F);
 629              		.loc 1 114 0
 630 010e 0C23     		movs	r3, #12
 631 0110 FB18     		adds	r3, r7, r3
 632 0112 1B79     		ldrb	r3, [r3, #4]
 633 0114 1B09     		lsrs	r3, r3, #4
 634 0116 DBB2     		uxtb	r3, r3
 635 0118 1A1C     		adds	r2, r3, #0
 636 011a 9200     		lsls	r2, r2, #2
 637 011c D318     		adds	r3, r2, r3
 638 011e DB18     		adds	r3, r3, r3
 639 0120 DAB2     		uxtb	r2, r3
 640 0122 0C23     		movs	r3, #12
 641 0124 FB18     		adds	r3, r7, r3
 642 0126 1B79     		ldrb	r3, [r3, #4]
 643 0128 0F21     		movs	r1, #15
 644 012a 0B40     		ands	r3, r1
 645 012c DBB2     		uxtb	r3, r3
 646 012e D318     		adds	r3, r2, r3
 647 0130 DAB2     		uxtb	r2, r3
 648 0132 7B68     		ldr	r3, [r7, #4]
 649 0134 1A71     		strb	r2, [r3, #4]
 115:rtc.c         ****     //if (chip_rtc.date & 0x30) rtc->date = 30;       // 30 day Flag?
 116:rtc.c         ****     //else if (chip_rtc.date & 0x20) rtc->date = 20;  // 20 day Flag?
 117:rtc.c         ****     //else if (chip_rtc.date & 0x10) rtc->date = 10;  // 10 day Flag ?
 118:rtc.c         ****     //else rtc->date = 0; // no flags.
 119:rtc.c         **** 
 120:rtc.c         ****     //rtc->date +=  (chip_rtc.date & 0x0F);    
 121:rtc.c         ****     
 122:rtc.c         ****     
 123:rtc.c         ****     //check century bit in month byte?
 124:rtc.c         ****     rtc->month = (((chip_rtc.month & 0x1F) >> 4) * 10) + (chip_rtc.month & 0x0F);
 650              		.loc 1 124 0
 651 0136 0C23     		movs	r3, #12
 652 0138 FB18     		adds	r3, r7, r3
 653 013a 5B79     		ldrb	r3, [r3, #5]
 654 013c 1B11     		asrs	r3, r3, #4
 655 013e DBB2     		uxtb	r3, r3
 656 0140 0122     		movs	r2, #1
 657 0142 1340     		ands	r3, r2
 658 0144 DBB2     		uxtb	r3, r3
 659 0146 1A1C     		adds	r2, r3, #0
 660 0148 9200     		lsls	r2, r2, #2
 661 014a D318     		adds	r3, r2, r3
 662 014c DB18     		adds	r3, r3, r3
 663 014e DAB2     		uxtb	r2, r3
 664 0150 0C23     		movs	r3, #12
 665 0152 FB18     		adds	r3, r7, r3
 666 0154 5B79     		ldrb	r3, [r3, #5]
 667 0156 0F21     		movs	r1, #15
 668 0158 0B40     		ands	r3, r1
 669 015a DBB2     		uxtb	r3, r3
 670 015c D318     		adds	r3, r2, r3
 671 015e DAB2     		uxtb	r2, r3
 672 0160 7B68     		ldr	r3, [r7, #4]
 673 0162 5A71     		strb	r2, [r3, #5]
ARM GAS  C:\Users\alexport\AppData\Local\Temp\ccMvG6ge.s 			page 15


 125:rtc.c         ****     rtc->year = ((chip_rtc.year >> 4) * 10) + (chip_rtc.year & 0x0F); // + 2000;  // Chip isnt desi
 674              		.loc 1 125 0
 675 0164 0C23     		movs	r3, #12
 676 0166 FB18     		adds	r3, r7, r3
 677 0168 9B79     		ldrb	r3, [r3, #6]
 678 016a 1B09     		lsrs	r3, r3, #4
 679 016c DBB2     		uxtb	r3, r3
 680 016e 1A1C     		adds	r2, r3, #0
 681 0170 9200     		lsls	r2, r2, #2
 682 0172 D318     		adds	r3, r2, r3
 683 0174 DB18     		adds	r3, r3, r3
 684 0176 DAB2     		uxtb	r2, r3
 685 0178 0C23     		movs	r3, #12
 686 017a FB18     		adds	r3, r7, r3
 687 017c 9B79     		ldrb	r3, [r3, #6]
 688 017e 0F21     		movs	r1, #15
 689 0180 0B40     		ands	r3, r1
 690 0182 DBB2     		uxtb	r3, r3
 691 0184 D318     		adds	r3, r2, r3
 692 0186 DAB2     		uxtb	r2, r3
 693 0188 7B68     		ldr	r3, [r7, #4]
 694 018a 9A71     		strb	r2, [r3, #6]
 126:rtc.c         ****     
 127:rtc.c         ****     return;   
 695              		.loc 1 127 0
 696 018c C046     		nop
 128:rtc.c         ****     
 129:rtc.c         **** }
 697              		.loc 1 129 0
 698 018e BD46     		mov	sp, r7
 699 0190 06B0     		add	sp, sp, #24
 700              		@ sp needed
 701 0192 80BD     		pop	{r7, pc}
 702              	.L21:
 703              		.align	2
 704              	.L20:
 705 0194 00000000 		.word	write_result
 706 0198 00000000 		.word	result
 707 019c 00000000 		.word	read_result
 708              		.cfi_endproc
 709              	.LFE40:
 710              		.size	read_RTC, .-read_RTC
 711              		.section	.text.write_RTC,"ax",%progbits
 712              		.align	2
 713              		.global	write_RTC
 714              		.code	16
 715              		.thumb_func
 716              		.type	write_RTC, %function
 717              	write_RTC:
 718              	.LFB41:
 130:rtc.c         **** 
 131:rtc.c         **** 
 132:rtc.c         **** void write_RTC( S_DateTime *rtc) {
 719              		.loc 1 132 0
 720              		.cfi_startproc
 721              		@ args = 0, pretend = 0, frame = 32
 722              		@ frame_needed = 1, uses_anonymous_args = 0
ARM GAS  C:\Users\alexport\AppData\Local\Temp\ccMvG6ge.s 			page 16


 723 0000 90B5     		push	{r4, r7, lr}
 724              		.cfi_def_cfa_offset 12
 725              		.cfi_offset 4, -12
 726              		.cfi_offset 7, -8
 727              		.cfi_offset 14, -4
 728 0002 89B0     		sub	sp, sp, #36
 729              		.cfi_def_cfa_offset 48
 730 0004 00AF     		add	r7, sp, #0
 731              		.cfi_def_cfa_register 7
 732 0006 7860     		str	r0, [r7, #4]
 133:rtc.c         ****     
 134:rtc.c         ****     uint8 WriteBuf[8] = {0};
 733              		.loc 1 134 0
 734 0008 1423     		movs	r3, #20
 735 000a FB18     		adds	r3, r7, r3
 736 000c 1800     		movs	r0, r3
 737 000e 0823     		movs	r3, #8
 738 0010 1A00     		movs	r2, r3
 739 0012 0021     		movs	r1, #0
 740 0014 FFF7FEFF 		bl	memset
 135:rtc.c         ****     WriteBuf[0] = 0;
 741              		.loc 1 135 0
 742 0018 1423     		movs	r3, #20
 743 001a FB18     		adds	r3, r7, r3
 744 001c 0022     		movs	r2, #0
 745 001e 1A70     		strb	r2, [r3]
 136:rtc.c         ****     
 137:rtc.c         ****     S_DateTime chip_rtc;
 138:rtc.c         ****     uint16 year, modulus;
 139:rtc.c         **** 
 140:rtc.c         ****     // convert real rtc info to Chip data
 141:rtc.c         ****     chip_rtc.seconds = ((uint8)(rtc->seconds / 10) << 4 )  | (rtc->seconds%10);
 746              		.loc 1 141 0
 747 0020 7B68     		ldr	r3, [r7, #4]
 748 0022 1B78     		ldrb	r3, [r3]
 749 0024 0A21     		movs	r1, #10
 750 0026 1800     		movs	r0, r3
 751 0028 FFF7FEFF 		bl	__aeabi_uidiv
 752 002c 0300     		movs	r3, r0
 753 002e DBB2     		uxtb	r3, r3
 754 0030 1B01     		lsls	r3, r3, #4
 755 0032 5CB2     		sxtb	r4, r3
 756 0034 7B68     		ldr	r3, [r7, #4]
 757 0036 1B78     		ldrb	r3, [r3]
 758 0038 0A21     		movs	r1, #10
 759 003a 1800     		movs	r0, r3
 760 003c FFF7FEFF 		bl	__aeabi_uidivmod
 761 0040 0B00     		movs	r3, r1
 762 0042 DBB2     		uxtb	r3, r3
 763 0044 5BB2     		sxtb	r3, r3
 764 0046 2343     		orrs	r3, r4
 765 0048 5BB2     		sxtb	r3, r3
 766 004a DAB2     		uxtb	r2, r3
 767 004c 0C23     		movs	r3, #12
 768 004e FB18     		adds	r3, r7, r3
 769 0050 1A70     		strb	r2, [r3]
 142:rtc.c         ****     chip_rtc.minutes = ((uint8)(rtc->minutes / 10) << 4 )  | (rtc->minutes%10);
ARM GAS  C:\Users\alexport\AppData\Local\Temp\ccMvG6ge.s 			page 17


 770              		.loc 1 142 0
 771 0052 7B68     		ldr	r3, [r7, #4]
 772 0054 5B78     		ldrb	r3, [r3, #1]
 773 0056 0A21     		movs	r1, #10
 774 0058 1800     		movs	r0, r3
 775 005a FFF7FEFF 		bl	__aeabi_uidiv
 776 005e 0300     		movs	r3, r0
 777 0060 DBB2     		uxtb	r3, r3
 778 0062 1B01     		lsls	r3, r3, #4
 779 0064 5CB2     		sxtb	r4, r3
 780 0066 7B68     		ldr	r3, [r7, #4]
 781 0068 5B78     		ldrb	r3, [r3, #1]
 782 006a 0A21     		movs	r1, #10
 783 006c 1800     		movs	r0, r3
 784 006e FFF7FEFF 		bl	__aeabi_uidivmod
 785 0072 0B00     		movs	r3, r1
 786 0074 DBB2     		uxtb	r3, r3
 787 0076 5BB2     		sxtb	r3, r3
 788 0078 2343     		orrs	r3, r4
 789 007a 5BB2     		sxtb	r3, r3
 790 007c DAB2     		uxtb	r2, r3
 791 007e 0C23     		movs	r3, #12
 792 0080 FB18     		adds	r3, r7, r3
 793 0082 5A70     		strb	r2, [r3, #1]
 143:rtc.c         ****    // chip_rtc.hours = ((uint8)(rtc->hours / 10) << 4 )  | (rtc->hours%10);
 144:rtc.c         ****     chip_rtc.day = 7;
 794              		.loc 1 144 0
 795 0084 0C23     		movs	r3, #12
 796 0086 FB18     		adds	r3, r7, r3
 797 0088 0722     		movs	r2, #7
 798 008a 1A71     		strb	r2, [r3, #4]
 145:rtc.c         **** 
 146:rtc.c         ****     if (rtc->hours >= 20) {
 799              		.loc 1 146 0
 800 008c 7B68     		ldr	r3, [r7, #4]
 801 008e 9B78     		ldrb	r3, [r3, #2]
 802 0090 132B     		cmp	r3, #19
 803 0092 0AD9     		bls	.L23
 147:rtc.c         ****         chip_rtc.hours = 0x20; // set 20hr Flag?
 804              		.loc 1 147 0
 805 0094 0C23     		movs	r3, #12
 806 0096 FB18     		adds	r3, r7, r3
 807 0098 2022     		movs	r2, #32
 808 009a 9A70     		strb	r2, [r3, #2]
 148:rtc.c         ****         rtc->hours -= 20;
 809              		.loc 1 148 0
 810 009c 7B68     		ldr	r3, [r7, #4]
 811 009e 9B78     		ldrb	r3, [r3, #2]
 812 00a0 143B     		subs	r3, r3, #20
 813 00a2 DAB2     		uxtb	r2, r3
 814 00a4 7B68     		ldr	r3, [r7, #4]
 815 00a6 9A70     		strb	r2, [r3, #2]
 816 00a8 12E0     		b	.L24
 817              	.L23:
 149:rtc.c         ****     } else if (rtc->hours >= 10) { 
 818              		.loc 1 149 0
 819 00aa 7B68     		ldr	r3, [r7, #4]
ARM GAS  C:\Users\alexport\AppData\Local\Temp\ccMvG6ge.s 			page 18


 820 00ac 9B78     		ldrb	r3, [r3, #2]
 821 00ae 092B     		cmp	r3, #9
 822 00b0 0AD9     		bls	.L25
 150:rtc.c         ****         chip_rtc.hours = 0x10;  // set 10hr Flag ?
 823              		.loc 1 150 0
 824 00b2 0C23     		movs	r3, #12
 825 00b4 FB18     		adds	r3, r7, r3
 826 00b6 1022     		movs	r2, #16
 827 00b8 9A70     		strb	r2, [r3, #2]
 151:rtc.c         ****         rtc->hours -= 10;   
 828              		.loc 1 151 0
 829 00ba 7B68     		ldr	r3, [r7, #4]
 830 00bc 9B78     		ldrb	r3, [r3, #2]
 831 00be 0A3B     		subs	r3, r3, #10
 832 00c0 DAB2     		uxtb	r2, r3
 833 00c2 7B68     		ldr	r3, [r7, #4]
 834 00c4 9A70     		strb	r2, [r3, #2]
 835 00c6 03E0     		b	.L24
 836              	.L25:
 152:rtc.c         ****     }
 153:rtc.c         ****     else chip_rtc.hours  = 0; // clear flags.
 837              		.loc 1 153 0
 838 00c8 0C23     		movs	r3, #12
 839 00ca FB18     		adds	r3, r7, r3
 840 00cc 0022     		movs	r2, #0
 841 00ce 9A70     		strb	r2, [r3, #2]
 842              	.L24:
 154:rtc.c         ****     
 155:rtc.c         ****     chip_rtc.hours |= rtc->hours;
 843              		.loc 1 155 0
 844 00d0 0C23     		movs	r3, #12
 845 00d2 FB18     		adds	r3, r7, r3
 846 00d4 9A78     		ldrb	r2, [r3, #2]
 847 00d6 7B68     		ldr	r3, [r7, #4]
 848 00d8 9B78     		ldrb	r3, [r3, #2]
 849 00da 1343     		orrs	r3, r2
 850 00dc DAB2     		uxtb	r2, r3
 851 00de 0C23     		movs	r3, #12
 852 00e0 FB18     		adds	r3, r7, r3
 853 00e2 9A70     		strb	r2, [r3, #2]
 156:rtc.c         ****     
 157:rtc.c         ****     
 158:rtc.c         ****        
 159:rtc.c         ****     chip_rtc.day = ((uint8)(rtc->day / 10) << 4 )  | (rtc->day % 10);
 854              		.loc 1 159 0
 855 00e4 7B68     		ldr	r3, [r7, #4]
 856 00e6 1B79     		ldrb	r3, [r3, #4]
 857 00e8 0A21     		movs	r1, #10
 858 00ea 1800     		movs	r0, r3
 859 00ec FFF7FEFF 		bl	__aeabi_uidiv
 860 00f0 0300     		movs	r3, r0
 861 00f2 DBB2     		uxtb	r3, r3
 862 00f4 1B01     		lsls	r3, r3, #4
 863 00f6 5CB2     		sxtb	r4, r3
 864 00f8 7B68     		ldr	r3, [r7, #4]
 865 00fa 1B79     		ldrb	r3, [r3, #4]
 866 00fc 0A21     		movs	r1, #10
ARM GAS  C:\Users\alexport\AppData\Local\Temp\ccMvG6ge.s 			page 19


 867 00fe 1800     		movs	r0, r3
 868 0100 FFF7FEFF 		bl	__aeabi_uidivmod
 869 0104 0B00     		movs	r3, r1
 870 0106 DBB2     		uxtb	r3, r3
 871 0108 5BB2     		sxtb	r3, r3
 872 010a 2343     		orrs	r3, r4
 873 010c 5BB2     		sxtb	r3, r3
 874 010e DAB2     		uxtb	r2, r3
 875 0110 0C23     		movs	r3, #12
 876 0112 FB18     		adds	r3, r7, r3
 877 0114 1A71     		strb	r2, [r3, #4]
 160:rtc.c         ****                
 161:rtc.c         **** //    if (rtc->date >  30) {             
 162:rtc.c         **** //            chip_rtc.date = 0x30; //  Set 30 day Flag
 163:rtc.c         **** //            rtc->date -= 30;
 164:rtc.c         **** //    }
 165:rtc.c         **** //    else if (rtc->date >  20) {             
 166:rtc.c         **** //            chip_rtc.date = 0x20; //  Set 20 day Flag
 167:rtc.c         **** //            rtc->date -= 20;
 168:rtc.c         **** //    }    
 169:rtc.c         **** //    else if (rtc->date >= 10) { 
 170:rtc.c         **** //        chip_rtc.date = 0x10;  // set 10 day Flag ?
 171:rtc.c         **** //        rtc->date -= 10;   
 172:rtc.c         **** //    }
 173:rtc.c         **** //    else chip_rtc.date  = 0; // clear flags.
 174:rtc.c         ****     
 175:rtc.c         **** //    chip_rtc.date |= rtc->date;
 176:rtc.c         ****         
 177:rtc.c         ****     
 178:rtc.c         ****     chip_rtc.month = rtc->month;
 878              		.loc 1 178 0
 879 0116 7B68     		ldr	r3, [r7, #4]
 880 0118 5A79     		ldrb	r2, [r3, #5]
 881 011a 0C23     		movs	r3, #12
 882 011c FB18     		adds	r3, r7, r3
 883 011e 5A71     		strb	r2, [r3, #5]
 179:rtc.c         ****  
 180:rtc.c         ****     year = rtc->year; // Chip isnt designed for Centuries..    
 884              		.loc 1 180 0
 885 0120 7B68     		ldr	r3, [r7, #4]
 886 0122 9A79     		ldrb	r2, [r3, #6]
 887 0124 1E23     		movs	r3, #30
 888 0126 FB18     		adds	r3, r7, r3
 889 0128 1A80     		strh	r2, [r3]
 181:rtc.c         ****     chip_rtc.year = ((uint8)(year / 10) << 4 )  | (year%10);
 890              		.loc 1 181 0
 891 012a 1E23     		movs	r3, #30
 892 012c FB18     		adds	r3, r7, r3
 893 012e 1B88     		ldrh	r3, [r3]
 894 0130 0A21     		movs	r1, #10
 895 0132 1800     		movs	r0, r3
 896 0134 FFF7FEFF 		bl	__aeabi_uidiv
 897 0138 0300     		movs	r3, r0
 898 013a 9BB2     		uxth	r3, r3
 899 013c DBB2     		uxtb	r3, r3
 900 013e 1B01     		lsls	r3, r3, #4
 901 0140 5CB2     		sxtb	r4, r3
ARM GAS  C:\Users\alexport\AppData\Local\Temp\ccMvG6ge.s 			page 20


 902 0142 1E23     		movs	r3, #30
 903 0144 FB18     		adds	r3, r7, r3
 904 0146 1B88     		ldrh	r3, [r3]
 905 0148 0A21     		movs	r1, #10
 906 014a 1800     		movs	r0, r3
 907 014c FFF7FEFF 		bl	__aeabi_uidivmod
 908 0150 0B00     		movs	r3, r1
 909 0152 9BB2     		uxth	r3, r3
 910 0154 5BB2     		sxtb	r3, r3
 911 0156 2343     		orrs	r3, r4
 912 0158 5BB2     		sxtb	r3, r3
 913 015a DAB2     		uxtb	r2, r3
 914 015c 0C23     		movs	r3, #12
 915 015e FB18     		adds	r3, r7, r3
 916 0160 9A71     		strb	r2, [r3, #6]
 182:rtc.c         ****     
 183:rtc.c         ****     // copy buffer 
 184:rtc.c         ****     
 185:rtc.c         ****     memcpy(&WriteBuf[1],&chip_rtc, sizeof(S_DateTime));
 917              		.loc 1 185 0
 918 0162 1423     		movs	r3, #20
 919 0164 FB18     		adds	r3, r7, r3
 920 0166 0122     		movs	r2, #1
 921 0168 0C21     		movs	r1, #12
 922 016a 7918     		adds	r1, r7, r1
 923 016c 9B18     		adds	r3, r3, r2
 924 016e 0722     		movs	r2, #7
 925 0170 1800     		movs	r0, r3
 926 0172 FFF7FEFF 		bl	memcpy
 186:rtc.c         ****     
 187:rtc.c         ****     
 188:rtc.c         ****    // I2CM_I2CMasterWriteBuf(DS3231MZ_ADDR, (uint8 *) WriteBuf, 0, I2CM_I2C_MODE_COMPLETE_XFER);  /
 189:rtc.c         ****    // while((I2CM_I2CMasterStatus() & I2CM_I2C_MSTAT_WR_CMPLT) == 0) {};
 190:rtc.c         **** 
 191:rtc.c         ****     //CyDelay(10);
 192:rtc.c         ****     
 193:rtc.c         ****     I2C_I2CMasterWriteBuf(I2C_RTC_SLAVE_ADDR, (uint8 *) &WriteBuf[0],  sizeof(S_DateTime)+1 , I2C_I
 927              		.loc 1 193 0
 928 0176 1423     		movs	r3, #20
 929 0178 F918     		adds	r1, r7, r3
 930 017a 0023     		movs	r3, #0
 931 017c 0822     		movs	r2, #8
 932 017e 6820     		movs	r0, #104
 933 0180 FFF7FEFF 		bl	I2C_I2CMasterWriteBuf
 194:rtc.c         ****     //I2CM_I2CMasterWriteBuf(DS3231MZ_ADDR, (uint8 *) &chip_rtc,  sizeof(struct rtc_date_struct) , 
 195:rtc.c         **** //    I2CM_I2CMasterWriteBuf(DS3231MZ_ADDR, (uint8 *) &chip_rtc,  sizeof(struct ds3231mz_date_struc
 196:rtc.c         ****     while((I2C_I2CMasterStatus() & I2C_I2C_MSTAT_WR_CMPLT) == 0) {};
 934              		.loc 1 196 0
 935 0184 C046     		nop
 936              	.L26:
 937              		.loc 1 196 0 is_stmt 0 discriminator 1
 938 0186 FFF7FEFF 		bl	I2C_I2CMasterStatus
 939 018a 0200     		movs	r2, r0
 940 018c 0223     		movs	r3, #2
 941 018e 1340     		ands	r3, r2
 942 0190 F9D0     		beq	.L26
 197:rtc.c         ****     
ARM GAS  C:\Users\alexport\AppData\Local\Temp\ccMvG6ge.s 			page 21


 198:rtc.c         ****     return;   
 943              		.loc 1 198 0 is_stmt 1
 944 0192 C046     		nop
 199:rtc.c         ****     
 200:rtc.c         **** }
 945              		.loc 1 200 0
 946 0194 BD46     		mov	sp, r7
 947 0196 09B0     		add	sp, sp, #36
 948              		@ sp needed
 949 0198 90BD     		pop	{r4, r7, pc}
 950              		.cfi_endproc
 951              	.LFE41:
 952              		.size	write_RTC, .-write_RTC
 953 019a C046     		.section	.text.read_RTCReg,"ax",%progbits
 954              		.align	2
 955              		.global	read_RTCReg
 956              		.code	16
 957              		.thumb_func
 958              		.type	read_RTCReg, %function
 959              	read_RTCReg:
 960              	.LFB42:
 201:rtc.c         **** 
 202:rtc.c         **** 
 203:rtc.c         **** uint8_t read_RTCReg( uint8_t reg){
 961              		.loc 1 203 0
 962              		.cfi_startproc
 963              		@ args = 0, pretend = 0, frame = 16
 964              		@ frame_needed = 1, uses_anonymous_args = 0
 965 0000 80B5     		push	{r7, lr}
 966              		.cfi_def_cfa_offset 8
 967              		.cfi_offset 7, -8
 968              		.cfi_offset 14, -4
 969 0002 84B0     		sub	sp, sp, #16
 970              		.cfi_def_cfa_offset 24
 971 0004 00AF     		add	r7, sp, #0
 972              		.cfi_def_cfa_register 7
 973 0006 0200     		movs	r2, r0
 974 0008 FB1D     		adds	r3, r7, #7
 975 000a 1A70     		strb	r2, [r3]
 204:rtc.c         ****     //uint8_t reg = 0x0E;
 205:rtc.c         ****     uint8_t data;
 206:rtc.c         ****     write_result = I2C_I2CMasterWriteBuf(I2C_RTC_SLAVE_ADDR, (uint8 *) &reg, 1, I2C_I2C_MODE_NO_STO
 976              		.loc 1 206 0
 977 000c F91D     		adds	r1, r7, #7
 978 000e 0223     		movs	r3, #2
 979 0010 0122     		movs	r2, #1
 980 0012 6820     		movs	r0, #104
 981 0014 FFF7FEFF 		bl	I2C_I2CMasterWriteBuf
 982 0018 0200     		movs	r2, r0
 983 001a 164B     		ldr	r3, .L33
 984 001c 1A60     		str	r2, [r3]
 207:rtc.c         ****     while(((result = I2C_I2CMasterStatus()) & I2C_I2C_MSTAT_WR_CMPLT) == 0) {
 985              		.loc 1 207 0
 986 001e 03E0     		b	.L29
 987              	.L30:
 208:rtc.c         ****         write_result = result;
 988              		.loc 1 208 0
ARM GAS  C:\Users\alexport\AppData\Local\Temp\ccMvG6ge.s 			page 22


 989 0020 154B     		ldr	r3, .L33+4
 990 0022 1A68     		ldr	r2, [r3]
 991 0024 134B     		ldr	r3, .L33
 992 0026 1A60     		str	r2, [r3]
 993              	.L29:
 207:rtc.c         ****     while(((result = I2C_I2CMasterStatus()) & I2C_I2C_MSTAT_WR_CMPLT) == 0) {
 994              		.loc 1 207 0
 995 0028 FFF7FEFF 		bl	I2C_I2CMasterStatus
 996 002c 0200     		movs	r2, r0
 997 002e 124B     		ldr	r3, .L33+4
 998 0030 1A60     		str	r2, [r3]
 999 0032 114B     		ldr	r3, .L33+4
 1000 0034 1B68     		ldr	r3, [r3]
 1001 0036 0222     		movs	r2, #2
 1002 0038 1340     		ands	r3, r2
 1003 003a F1D0     		beq	.L30
 209:rtc.c         ****     }
 210:rtc.c         ****     
 211:rtc.c         ****     read_result = I2C_I2CMasterReadBuf(I2C_RTC_SLAVE_ADDR, (uint8 *) &data, 1 , I2C_I2C_MODE_REPEAT
 1004              		.loc 1 211 0
 1005 003c 0F23     		movs	r3, #15
 1006 003e F918     		adds	r1, r7, r3
 1007 0040 0123     		movs	r3, #1
 1008 0042 0122     		movs	r2, #1
 1009 0044 6820     		movs	r0, #104
 1010 0046 FFF7FEFF 		bl	I2C_I2CMasterReadBuf
 1011 004a 0200     		movs	r2, r0
 1012 004c 0B4B     		ldr	r3, .L33+8
 1013 004e 1A60     		str	r2, [r3]
 212:rtc.c         ****     while(((result = I2C_I2CMasterStatus()) & I2C_I2C_MSTAT_RD_CMPLT) == 0) {};
 1014              		.loc 1 212 0
 1015 0050 C046     		nop
 1016              	.L31:
 1017              		.loc 1 212 0 is_stmt 0 discriminator 1
 1018 0052 FFF7FEFF 		bl	I2C_I2CMasterStatus
 1019 0056 0200     		movs	r2, r0
 1020 0058 074B     		ldr	r3, .L33+4
 1021 005a 1A60     		str	r2, [r3]
 1022 005c 064B     		ldr	r3, .L33+4
 1023 005e 1B68     		ldr	r3, [r3]
 1024 0060 0122     		movs	r2, #1
 1025 0062 1340     		ands	r3, r2
 1026 0064 F5D0     		beq	.L31
 213:rtc.c         ****     
 214:rtc.c         ****     return data;
 1027              		.loc 1 214 0 is_stmt 1
 1028 0066 0F23     		movs	r3, #15
 1029 0068 FB18     		adds	r3, r7, r3
 1030 006a 1B78     		ldrb	r3, [r3]
 215:rtc.c         **** }
 1031              		.loc 1 215 0
 1032 006c 1800     		movs	r0, r3
 1033 006e BD46     		mov	sp, r7
 1034 0070 04B0     		add	sp, sp, #16
 1035              		@ sp needed
 1036 0072 80BD     		pop	{r7, pc}
 1037              	.L34:
ARM GAS  C:\Users\alexport\AppData\Local\Temp\ccMvG6ge.s 			page 23


 1038              		.align	2
 1039              	.L33:
 1040 0074 00000000 		.word	write_result
 1041 0078 00000000 		.word	result
 1042 007c 00000000 		.word	read_result
 1043              		.cfi_endproc
 1044              	.LFE42:
 1045              		.size	read_RTCReg, .-read_RTCReg
 1046              		.text
 1047              	.Letext0:
 1048              		.file 2 "c:\\program files (x86)\\cypress\\psoc creator\\4.4\\psoc creator\\import\\gnu\\arm\\5.4.
 1049              		.file 3 "c:\\program files (x86)\\cypress\\psoc creator\\4.4\\psoc creator\\import\\gnu\\arm\\5.4.
 1050              		.file 4 "Generated_Source\\PSoC4/cytypes.h"
 1051              		.file 5 "Generated_Source\\PSoC4/blue_Stack.h"
 1052              		.file 6 "Generated_Source\\PSoC4/blue_dis.h"
 1053              		.file 7 "rtc.h"