ARM GAS  C:\Users\alexport\AppData\Local\Temp\cc5NLpBH.s 			page 1


   1              		.syntax unified
   2              		.cpu cortex-m0
   3              		.fpu softvfp
   4              		.eabi_attribute 20, 1
   5              		.eabi_attribute 21, 1
   6              		.eabi_attribute 23, 3
   7              		.eabi_attribute 24, 1
   8              		.eabi_attribute 25, 1
   9              		.eabi_attribute 26, 1
  10              		.eabi_attribute 30, 6
  11              		.eabi_attribute 34, 0
  12              		.eabi_attribute 18, 4
  13              		.thumb
  14              		.syntax unified
  15              		.file	"runtime.c"
  16              		.text
  17              	.Ltext0:
  18              		.cfi_sections	.debug_frame
  19              		.comm	Sensor,264,8
  20              		.comm	System,216,8
  21              		.comm	date_time,7,4
  22              		.comm	firmwareVersion,10,4
  23              		.comm	txt,50,4
  24              		.global	ch2Active
  25              		.bss
  26              		.type	ch2Active, %object
  27              		.size	ch2Active, 1
  28              	ch2Active:
  29 0000 00       		.space	1
  30              		.comm	runtimeMode,1,1
  31              		.comm	newMode,1,1
  32              		.comm	sensor,240,4
  33              		.comm	sysReading,8,4
  34              		.comm	sensor_status,144,4
  35              		.comm	relays_state,1,1
  36              		.comm	rs232RxBuffer,8,4
  37              		.global	rs232RequestReceived
  38              		.type	rs232RequestReceived, %object
  39              		.size	rs232RequestReceived, 1
  40              	rs232RequestReceived:
  41 0001 00       		.space	1
  42              		.global	latitude
  43              		.data
  44              		.align	2
  45              		.type	latitude, %object
  46              		.size	latitude, 4
  47              	latitude:
  48 0000 FFFFFFFF 		.word	-1
  49              		.global	longitude
  50              		.align	2
  51              		.type	longitude, %object
  52              		.size	longitude, 4
  53              	longitude:
  54 0004 FFFFFFFF 		.word	-1
  55              		.comm	flatitude,4,4
  56              		.comm	flongitude,4,4
  57              		.global	ack_received
ARM GAS  C:\Users\alexport\AppData\Local\Temp\cc5NLpBH.s 			page 2


  58              		.bss
  59              		.type	ack_received, %object
  60              		.size	ack_received, 1
  61              	ack_received:
  62 0002 00       		.space	1
  63              		.comm	reset_alarms,1,1
  64              		.comm	mySlaveAddr,1,1
  65              		.comm	msa,1,1
  66              		.comm	i2cPeriod,2,2
  67              		.comm	sleepPeriod,4,4
  68              		.comm	bytesIn,1,1
  69              		.comm	startI2CRead,1,1
  70              		.comm	startI2CWrite,1,1
  71              		.global	sendCommand
  72              		.type	sendCommand, %object
  73              		.size	sendCommand, 1
  74              	sendCommand:
  75 0003 00       		.space	1
  76              		.comm	deepSleep,1,1
  77              		.comm	sleepEnable,1,1
  78              		.global	wasSleeping
  79              		.type	wasSleeping, %object
  80              		.size	wasSleeping, 1
  81              	wasSleeping:
  82 0004 00       		.space	1
  83              		.comm	BleControl,1,1
  84              		.comm	bleTimerExpired,1,1
  85              		.comm	slavePersent,2,2
  86              		.comm	sleepCnt,2,2
  87              		.comm	SW1_Pressed,1,1
  88              		.comm	SW2_Pressed,1,1
  89              		.comm	SW1_2_Released,1,1
  90              		.comm	SW3_Pressed,1,1
  91              		.comm	SW4_Pressed,1,1
  92              		.comm	SW3_4_Released,1,1
  93              		.comm	prev_status,2,4
  94              		.comm	prev_alarm_status,2,4
  95              		.comm	alarm_status,2,4
  96              		.comm	relay_status,1,1
  97              		.global	last_rtc_time
  98 0005 000000   		.align	2
  99              		.type	last_rtc_time, %object
 100              		.size	last_rtc_time, 4
 101              	last_rtc_time:
 102 0008 00000000 		.space	4
 103              		.global	last_relay_time
 104              		.align	2
 105              		.type	last_relay_time, %object
 106              		.size	last_relay_time, 4
 107              	last_relay_time:
 108 000c 00000000 		.space	4
 109              		.global	last_led_time
 110              		.align	2
 111              		.type	last_led_time, %object
 112              		.size	last_led_time, 4
 113              	last_led_time:
 114 0010 00000000 		.space	4
ARM GAS  C:\Users\alexport\AppData\Local\Temp\cc5NLpBH.s 			page 3


 115              		.global	last_display_time
 116              		.align	2
 117              		.type	last_display_time, %object
 118              		.size	last_display_time, 4
 119              	last_display_time:
 120 0014 00000000 		.space	4
 121              		.global	last_sensor_time
 122              		.align	2
 123              		.type	last_sensor_time, %object
 124              		.size	last_sensor_time, 4
 125              	last_sensor_time:
 126 0018 00000000 		.space	4
 127              		.global	blinker
 128              		.type	blinker, %object
 129              		.size	blinker, 1
 130              	blinker:
 131 001c 00       		.space	1
 132              		.global	strobe
 133              		.type	strobe, %object
 134              		.size	strobe, 1
 135              	strobe:
 136 001d 00       		.space	1
 137              		.comm	arr,120,4
 138              		.comm	txarr,101,4
 139              		.comm	log_record,400,4
 140              		.comm	log_last_entry_idx,1,1
 141              		.comm	log_txt,40,4
 142              		.global	ef1
 143              		.data
 144              		.type	ef1, %object
 145              		.size	ef1, 1
 146              	ef1:
 147 0008 01       		.byte	1
 148              		.global	ef2
 149              		.type	ef2, %object
 150              		.size	ef2, 1
 151              	ef2:
 152 0009 01       		.byte	1
 153              		.comm	newEvent,1,1
 154              		.comm	iReading,2,2
 155              		.comm	rfReading,4,4
 156              		.comm	as_found,4,4
 157              		.global	alarm_mask
 158              		.bss
 159 001e 0000     		.align	2
 160              		.type	alarm_mask, %object
 161              		.size	alarm_mask, 2
 162              	alarm_mask:
 163 0020 0000     		.space	2
 164              		.comm	relay_present,1,1
 165              		.section	.text.Test_Increment,"ax",%progbits
 166              		.align	2
 167              		.global	Test_Increment
 168              		.code	16
 169              		.thumb_func
 170              		.type	Test_Increment, %function
 171              	Test_Increment:
ARM GAS  C:\Users\alexport\AppData\Local\Temp\cc5NLpBH.s 			page 4


 172              	.LFB36:
 173              		.file 1 "runtime.c"
   1:runtime.c     **** /* ========================================
   2:runtime.c     ****  *
   3:runtime.c     ****  * Copyright YOUR COMPANY, THE YEAR
   4:runtime.c     ****  * All Rights Reserved
   5:runtime.c     ****  * UNPUBLISHED, LICENSED SOFTWARE.
   6:runtime.c     ****  *
   7:runtime.c     ****  * CONFIDENTIAL AND PROPRIETARY INFORMATION
   8:runtime.c     ****  * WHICH IS THE PROPERTY OF your company.
   9:runtime.c     ****  *
  10:runtime.c     ****  * ========================================
  11:runtime.c     **** */
  12:runtime.c     **** 
  13:runtime.c     **** #include "runtime.h"
  14:runtime.c     **** #include "modbus.h"
  15:runtime.c     **** #include "sensor.h"
  16:runtime.c     **** #include "display.h"
  17:runtime.c     **** #include "relay.h"
  18:runtime.c     **** #include "eeprom.h"
  19:runtime.c     **** #include "i2c_master.h"
  20:runtime.c     **** #include "rtc.h"
  21:runtime.c     **** #include "dac.h"
  22:runtime.c     **** #include <math.h>
  23:runtime.c     **** 
  24:runtime.c     **** 
  25:runtime.c     **** 
  26:runtime.c     **** 
  27:runtime.c     **** 
  28:runtime.c     **** typedef struct {
  29:runtime.c     ****     uint8 reg;
  30:runtime.c     ****     uint8 data[BUFFER_SIZE];
  31:runtime.c     **** }S_I2C;
  32:runtime.c     **** 
  33:runtime.c     **** S_DateTime date_time;
  34:runtime.c     **** 
  35:runtime.c     **** extern Point circlePoints[NUM_POINTS];
  36:runtime.c     **** extern Point circlePoints2[NUM_POINTS];
  37:runtime.c     **** 
  38:runtime.c     **** //extern S_Sensor s;
  39:runtime.c     **** char firmwareVersion[10];
  40:runtime.c     **** char txt[50];
  41:runtime.c     **** 
  42:runtime.c     **** uint8_t ch2Active=0;;
  43:runtime.c     **** 
  44:runtime.c     **** 
  45:runtime.c     **** uint8_t runtimeMode;
  46:runtime.c     **** uint8_t newMode;
  47:runtime.c     **** 
  48:runtime.c     **** uint8_t sensor[2][DATA_LENGTH];
  49:runtime.c     **** float  sysReading[2];
  50:runtime.c     **** S_Static sensor_status[2];
  51:runtime.c     **** 
  52:runtime.c     **** extern S_Rly relay[4];
  53:runtime.c     **** uint8_t relays_state;
  54:runtime.c     **** 
  55:runtime.c     **** //uint8_t sensor2[DATA_LENGTH];
ARM GAS  C:\Users\alexport\AppData\Local\Temp\cc5NLpBH.s 			page 5


  56:runtime.c     **** extern uint8_t modbus_rxBuffer[MODBUS_RX_BUFFER_SIZE];
  57:runtime.c     **** extern uint8_t modbus_txBuffer[MODBUS_TX_BUFFER_SIZE];
  58:runtime.c     **** extern char settings_obj[DISP_OBJ_SETTINGS_NUM][10];
  59:runtime.c     **** extern char relay_obj[DISP_OBJ_RLY_NUM][10];
  60:runtime.c     **** extern char alarm_obj[DISP_OBJ_ALARM_NUM][10];
  61:runtime.c     **** extern char date_time_obj[DISP_OBJ_DATETIME_NUM][10];
  62:runtime.c     **** extern char modbus_obj[DISP_OBJ_MODBUS_NUM][10];
  63:runtime.c     **** extern char gps_obj[DISP_OBJ_GPS_NUM][10];
  64:runtime.c     **** extern char pollrate_obj[1][10];
  65:runtime.c     **** extern char modbusaddr_obj[3][10];
  66:runtime.c     **** extern char warmup_obj[2][10];
  67:runtime.c     **** extern char retry_obj[2][10];
  68:runtime.c     **** extern char span_reset_obj[10];
  69:runtime.c     **** extern char log_obj[DISP__OBJ_EVENT_CNT][10];
  70:runtime.c     **** extern char display_obj_text[2][10];
  71:runtime.c     **** extern char display_obj_status[2][10];
  72:runtime.c     **** 
  73:runtime.c     **** uint8_t rs232RxBuffer[RS232_RX_BUFFER_SIZE];
  74:runtime.c     **** //uint8_t rs232TxBuffer[MODBUS_TX_BUFFER_SIZE];
  75:runtime.c     **** uint8_t rs232RequestReceived=0;
  76:runtime.c     **** 
  77:runtime.c     **** int32_t latitude = -1;
  78:runtime.c     **** int32_t longitude= -1;
  79:runtime.c     **** float flatitude;
  80:runtime.c     **** float flongitude;
  81:runtime.c     **** 
  82:runtime.c     **** uint8_t ack_received=0;
  83:runtime.c     **** uint8_t reset_alarms;
  84:runtime.c     **** 
  85:runtime.c     **** uint8_t mySlaveAddr,msa;
  86:runtime.c     **** uint16_t i2cPeriod;
  87:runtime.c     **** uint32_t sleepPeriod;
  88:runtime.c     **** 
  89:runtime.c     **** uint8_t bytesIn;;
  90:runtime.c     **** 
  91:runtime.c     **** uint8_t startI2CRead;
  92:runtime.c     **** uint8_t startI2CWrite;
  93:runtime.c     **** 
  94:runtime.c     **** uint8_t sendCommand=0;
  95:runtime.c     **** uint8_t deepSleep;
  96:runtime.c     **** uint8_t sleepEnable;
  97:runtime.c     **** uint8_t wasSleeping=0;
  98:runtime.c     **** 
  99:runtime.c     **** uint8_t BleControl;
 100:runtime.c     **** uint8_t bleTimerExpired;
 101:runtime.c     **** 
 102:runtime.c     **** uint16_t slavePersent; 
 103:runtime.c     **** uint16_t sleepCnt; 
 104:runtime.c     **** 
 105:runtime.c     **** uint8_t SW1_Pressed;
 106:runtime.c     **** uint8_t SW2_Pressed;
 107:runtime.c     **** uint8_t SW1_2_Released;
 108:runtime.c     **** uint8_t SW3_Pressed;
 109:runtime.c     **** uint8_t SW4_Pressed;
 110:runtime.c     **** uint8_t SW3_4_Released;
 111:runtime.c     **** 
 112:runtime.c     **** 
ARM GAS  C:\Users\alexport\AppData\Local\Temp\cc5NLpBH.s 			page 6


 113:runtime.c     **** uint8_t prev_status[2];
 114:runtime.c     **** uint8_t prev_alarm_status[2];
 115:runtime.c     **** uint8_t alarm_status[2];
 116:runtime.c     **** uint8_t relay_status;
 117:runtime.c     **** 
 118:runtime.c     **** uint32_t last_rtc_time = 0;
 119:runtime.c     **** uint32_t last_relay_time = 0;
 120:runtime.c     **** uint32_t last_led_time = 0;
 121:runtime.c     **** uint32_t last_display_time = 0;
 122:runtime.c     **** uint32_t last_sensor_time = 0;
 123:runtime.c     **** extern uint32_t msTick; 
 124:runtime.c     **** 
 125:runtime.c     **** uint8_t blinker=0;
 126:runtime.c     **** uint8_t strobe=0;
 127:runtime.c     **** 
 128:runtime.c     **** uint8  arr[DATA_LENGTH]; // input I2C buffer
 129:runtime.c     **** S_I2C  txarr; // output I2C data structure      
 130:runtime.c     **** 
 131:runtime.c     **** char log_record[LOG_MAX_ENTRIES][LOG_TXT_LENGTH];
 132:runtime.c     **** uint8_t log_last_entry_idx; // last record
 133:runtime.c     **** char log_txt[LOG_TXT_LENGTH];
 134:runtime.c     **** 
 135:runtime.c     **** uint8_t ef1=1;
 136:runtime.c     **** uint8_t ef2=1;
 137:runtime.c     **** 
 138:runtime.c     **** uint8_t newEvent;
 139:runtime.c     **** 
 140:runtime.c     **** int16 iReading;
 141:runtime.c     **** float rfReading;
 142:runtime.c     **** uint32 as_found;
 143:runtime.c     **** 
 144:runtime.c     **** uint8_t alarm_mask[2]={0};
 145:runtime.c     **** 
 146:runtime.c     **** uint8_t relay_present;
 147:runtime.c     **** 
 148:runtime.c     **** 
 149:runtime.c     **** void Test_Increment(uint8 reg , uint8 bytes_to_send){
 174              		.loc 1 149 0
 175              		.cfi_startproc
 176              		@ args = 0, pretend = 0, frame = 16
 177              		@ frame_needed = 1, uses_anonymous_args = 0
 178 0000 80B5     		push	{r7, lr}
 179              		.cfi_def_cfa_offset 8
 180              		.cfi_offset 7, -8
 181              		.cfi_offset 14, -4
 182 0002 84B0     		sub	sp, sp, #16
 183              		.cfi_def_cfa_offset 24
 184 0004 00AF     		add	r7, sp, #0
 185              		.cfi_def_cfa_register 7
 186 0006 0200     		movs	r2, r0
 187 0008 FB1D     		adds	r3, r7, #7
 188 000a 1A70     		strb	r2, [r3]
 189 000c BB1D     		adds	r3, r7, #6
 190 000e 0A1C     		adds	r2, r1, #0
 191 0010 1A70     		strb	r2, [r3]
 150:runtime.c     ****     txarr.reg=reg;
 192              		.loc 1 150 0
ARM GAS  C:\Users\alexport\AppData\Local\Temp\cc5NLpBH.s 			page 7


 193 0012 1B4B     		ldr	r3, .L4
 194 0014 FA1D     		adds	r2, r7, #7
 195 0016 1278     		ldrb	r2, [r2]
 196 0018 1A70     		strb	r2, [r3]
 197              	.LBB2:
 151:runtime.c     ****     for(uint8 i =0 ;i<bytes_to_send;i++ ){
 198              		.loc 1 151 0
 199 001a 0F23     		movs	r3, #15
 200 001c FB18     		adds	r3, r7, r3
 201 001e 0022     		movs	r2, #0
 202 0020 1A70     		strb	r2, [r3]
 203 0022 15E0     		b	.L2
 204              	.L3:
 152:runtime.c     ****          txarr.data[i]+=1;
 205              		.loc 1 152 0 discriminator 3
 206 0024 0F23     		movs	r3, #15
 207 0026 FB18     		adds	r3, r7, r3
 208 0028 1B78     		ldrb	r3, [r3]
 209 002a 0F22     		movs	r2, #15
 210 002c BA18     		adds	r2, r7, r2
 211 002e 1278     		ldrb	r2, [r2]
 212 0030 1349     		ldr	r1, .L4
 213 0032 8A18     		adds	r2, r1, r2
 214 0034 5278     		ldrb	r2, [r2, #1]
 215 0036 0132     		adds	r2, r2, #1
 216 0038 D1B2     		uxtb	r1, r2
 217 003a 114A     		ldr	r2, .L4
 218 003c D318     		adds	r3, r2, r3
 219 003e 0A1C     		adds	r2, r1, #0
 220 0040 5A70     		strb	r2, [r3, #1]
 151:runtime.c     ****     for(uint8 i =0 ;i<bytes_to_send;i++ ){
 221              		.loc 1 151 0 discriminator 3
 222 0042 0F23     		movs	r3, #15
 223 0044 FB18     		adds	r3, r7, r3
 224 0046 1A78     		ldrb	r2, [r3]
 225 0048 0F23     		movs	r3, #15
 226 004a FB18     		adds	r3, r7, r3
 227 004c 0132     		adds	r2, r2, #1
 228 004e 1A70     		strb	r2, [r3]
 229              	.L2:
 151:runtime.c     ****     for(uint8 i =0 ;i<bytes_to_send;i++ ){
 230              		.loc 1 151 0 is_stmt 0 discriminator 1
 231 0050 0F23     		movs	r3, #15
 232 0052 FA18     		adds	r2, r7, r3
 233 0054 BB1D     		adds	r3, r7, #6
 234 0056 1278     		ldrb	r2, [r2]
 235 0058 1B78     		ldrb	r3, [r3]
 236 005a 9A42     		cmp	r2, r3
 237 005c E2D3     		bcc	.L3
 238              	.LBE2:
 153:runtime.c     ****     }
 154:runtime.c     ****     CyDelay(1000);
 239              		.loc 1 154 0 is_stmt 1
 240 005e FA23     		movs	r3, #250
 241 0060 9B00     		lsls	r3, r3, #2
 242 0062 1800     		movs	r0, r3
 243 0064 FFF7FEFF 		bl	CyDelay
ARM GAS  C:\Users\alexport\AppData\Local\Temp\cc5NLpBH.s 			page 8


 155:runtime.c     ****     slave_WriteDataRaw(0, bytes_to_send, &txarr.reg);
 244              		.loc 1 155 0
 245 0068 BB1D     		adds	r3, r7, #6
 246 006a 1B78     		ldrb	r3, [r3]
 247 006c 9BB2     		uxth	r3, r3
 248 006e 044A     		ldr	r2, .L4
 249 0070 1900     		movs	r1, r3
 250 0072 0020     		movs	r0, #0
 251 0074 FFF7FEFF 		bl	slave_WriteDataRaw
 156:runtime.c     **** }
 252              		.loc 1 156 0
 253 0078 C046     		nop
 254 007a BD46     		mov	sp, r7
 255 007c 04B0     		add	sp, sp, #16
 256              		@ sp needed
 257 007e 80BD     		pop	{r7, pc}
 258              	.L5:
 259              		.align	2
 260              	.L4:
 261 0080 00000000 		.word	txarr
 262              		.cfi_endproc
 263              	.LFE36:
 264              		.size	Test_Increment, .-Test_Increment
 265              		.section	.rodata
 266              		.align	2
 267              	.LC9:
 268 0000 30312E30 		.ascii	"01.00.00\000"
 268      302E3030 
 268      00
 269              		.global	__aeabi_idivmod
 270 0009 000000   		.align	2
 271              	.LC22:
 272 000c 53412D32 		.ascii	"SA-220-\000"
 272      32302D00 
 273              		.align	2
 274              	.LC24:
 275 0014 2000     		.ascii	" \000"
 276 0016 0000     		.align	2
 277              	.LC27:
 278 0018 523100   		.ascii	"R1\000"
 279 001b 00       		.align	2
 280              	.LC12:
 281 001c 31313131 		.ascii	"11111111\000"
 281      31313131 
 281      00
 282              		.section	.text.InitSystem,"ax",%progbits
 283              		.align	2
 284              		.global	InitSystem
 285              		.code	16
 286              		.thumb_func
 287              		.type	InitSystem, %function
 288              	InitSystem:
 289              	.LFB37:
 157:runtime.c     **** 
 158:runtime.c     **** 
 159:runtime.c     **** 
 160:runtime.c     **** void InitSystem(){
ARM GAS  C:\Users\alexport\AppData\Local\Temp\cc5NLpBH.s 			page 9


 290              		.loc 1 160 0
 291              		.cfi_startproc
 292              		@ args = 0, pretend = 0, frame = 80
 293              		@ frame_needed = 1, uses_anonymous_args = 0
 294 0000 80B5     		push	{r7, lr}
 295              		.cfi_def_cfa_offset 8
 296              		.cfi_offset 7, -8
 297              		.cfi_offset 14, -4
 298 0002 94B0     		sub	sp, sp, #80
 299              		.cfi_def_cfa_offset 88
 300 0004 00AF     		add	r7, sp, #0
 301              		.cfi_def_cfa_register 7
 161:runtime.c     ****     char text[10];
 162:runtime.c     ****     RTC_RST_Write(1);
 302              		.loc 1 162 0
 303 0006 0120     		movs	r0, #1
 304 0008 FFF7FEFF 		bl	RTC_RST_Write
 163:runtime.c     ****     CyDelay(100);
 305              		.loc 1 163 0
 306 000c 6420     		movs	r0, #100
 307 000e FFF7FEFF 		bl	CyDelay
 164:runtime.c     ****     
 165:runtime.c     ****     mySlaveAddr = EEPROM_GetMyAddress();
 308              		.loc 1 165 0
 309 0012 FFF7FEFF 		bl	EEPROM_GetMyAddress
 310 0016 0300     		movs	r3, r0
 311 0018 1A00     		movs	r2, r3
 312 001a CA4B     		ldr	r3, .L23
 313 001c 1A70     		strb	r2, [r3]
 166:runtime.c     ****     msa = mySlaveAddr;
 314              		.loc 1 166 0
 315 001e C94B     		ldr	r3, .L23
 316 0020 1A78     		ldrb	r2, [r3]
 317 0022 C94B     		ldr	r3, .L23+4
 318 0024 1A70     		strb	r2, [r3]
 167:runtime.c     ****     i2cPeriod = EEPROM_GetI2CPeriod();
 319              		.loc 1 167 0
 320 0026 FFF7FEFF 		bl	EEPROM_GetI2CPeriod
 321 002a 0300     		movs	r3, r0
 322 002c 1A00     		movs	r2, r3
 323 002e C74B     		ldr	r3, .L23+8
 324 0030 1A80     		strh	r2, [r3]
 168:runtime.c     ****     
 169:runtime.c     **** #ifndef SINGLE_SENSOR_SYSTEM    
 170:runtime.c     ****     ch2Active = EEPROM_GetCh2Activity();
 325              		.loc 1 170 0
 326 0032 FFF7FEFF 		bl	EEPROM_GetCh2Activity
 327 0036 0300     		movs	r3, r0
 328 0038 1A00     		movs	r2, r3
 329 003a C54B     		ldr	r3, .L23+12
 330 003c 1A70     		strb	r2, [r3]
 171:runtime.c     **** #else
 172:runtime.c     ****     ch2Active=0;
 173:runtime.c     **** #endif    
 174:runtime.c     ****     
 175:runtime.c     ****     relay_present = TCA9534_GetStatus();
 331              		.loc 1 175 0
ARM GAS  C:\Users\alexport\AppData\Local\Temp\cc5NLpBH.s 			page 10


 332 003e FFF7FEFF 		bl	TCA9534_GetStatus
 333 0042 0300     		movs	r3, r0
 334 0044 1A00     		movs	r2, r3
 335 0046 C34B     		ldr	r3, .L23+16
 336 0048 1A70     		strb	r2, [r3]
 176:runtime.c     ****     
 177:runtime.c     ****     #ifdef DEEPSLEEP
 178:runtime.c     ****     sleepPeriod = EEPROM_GetSleepPeriod();    
 337              		.loc 1 178 0
 338 004a FFF7FEFF 		bl	EEPROM_GetSleepPeriod
 339 004e 0200     		movs	r2, r0
 340 0050 C14B     		ldr	r3, .L23+20
 341 0052 1A60     		str	r2, [r3]
 179:runtime.c     ****     //sleepEnable = (sleepPeriod > 0)? 1:0;
 180:runtime.c     ****     BLETimer_Start();
 342              		.loc 1 180 0
 343 0054 FFF7FEFF 		bl	BLETimer_Start
 181:runtime.c     ****     BLETimer_Stop();
 344              		.loc 1 181 0
 345 0058 FFF7FEFF 		bl	BLETimer_Stop
 182:runtime.c     ****     SetSleepPeriod(sleepPeriod);
 346              		.loc 1 182 0
 347 005c BE4B     		ldr	r3, .L23+20
 348 005e 1B68     		ldr	r3, [r3]
 349 0060 1800     		movs	r0, r3
 350 0062 FFF7FEFF 		bl	SetSleepPeriod
 183:runtime.c     ****     BLETimer_Start();
 351              		.loc 1 183 0
 352 0066 FFF7FEFF 		bl	BLETimer_Start
 184:runtime.c     ****     #endif
 185:runtime.c     ****     
 186:runtime.c     ****     sensor[0][DEVTYPEMSB] = 0;
 353              		.loc 1 186 0
 354 006a BC4B     		ldr	r3, .L23+24
 355 006c 0022     		movs	r2, #0
 356 006e 9A70     		strb	r2, [r3, #2]
 187:runtime.c     ****     sensor[0][DEVTYPELSB] = DEV_TYPE;
 357              		.loc 1 187 0
 358 0070 BA4B     		ldr	r3, .L23+24
 359 0072 DC22     		movs	r2, #220
 360 0074 DA70     		strb	r2, [r3, #3]
 188:runtime.c     ****     
 189:runtime.c     ****     sensor[1][DEVTYPEMSB] = 0;
 361              		.loc 1 189 0
 362 0076 B94B     		ldr	r3, .L23+24
 363 0078 7A22     		movs	r2, #122
 364 007a 0021     		movs	r1, #0
 365 007c 9954     		strb	r1, [r3, r2]
 190:runtime.c     ****     sensor[1][DEVTYPELSB] = DEV_TYPE;
 366              		.loc 1 190 0
 367 007e B74B     		ldr	r3, .L23+24
 368 0080 7B22     		movs	r2, #123
 369 0082 DC21     		movs	r1, #220
 370 0084 9954     		strb	r1, [r3, r2]
 191:runtime.c     ****     
 192:runtime.c     ****     
 193:runtime.c     ****     strncpy(firmwareVersion, FIRMWARE_VISION, 10);
ARM GAS  C:\Users\alexport\AppData\Local\Temp\cc5NLpBH.s 			page 11


 371              		.loc 1 193 0
 372 0086 B649     		ldr	r1, .L23+28
 373 0088 B64B     		ldr	r3, .L23+32
 374 008a 0A22     		movs	r2, #10
 375 008c 1800     		movs	r0, r3
 376 008e FFF7FEFF 		bl	strncpy
 194:runtime.c     ****     
 195:runtime.c     ****     char SysSerialNumber[] = "11111111"; 
 377              		.loc 1 195 0
 378 0092 3023     		movs	r3, #48
 379 0094 FB18     		adds	r3, r7, r3
 380 0096 B44A     		ldr	r2, .L23+36
 381 0098 03CA     		ldmia	r2!, {r0, r1}
 382 009a 03C3     		stmia	r3!, {r0, r1}
 383 009c 1278     		ldrb	r2, [r2]
 384 009e 1A70     		strb	r2, [r3]
 196:runtime.c     ****     uint32 SensorSerialNumber = 0x123456; 
 385              		.loc 1 196 0
 386 00a0 B24B     		ldr	r3, .L23+40
 387 00a2 BB64     		str	r3, [r7, #72]
 197:runtime.c     ****     
 198:runtime.c     ****     
 199:runtime.c     ****     
 200:runtime.c     ****     //Load Sensors Info HERE
 201:runtime.c     ****     if(LoadSensorInfo(0)!=POLL_SENSOR_STATUS_ABSENT){
 388              		.loc 1 201 0
 389 00a4 0020     		movs	r0, #0
 390 00a6 FFF7FEFF 		bl	LoadSensorInfo
 391 00aa 0300     		movs	r3, r0
 392 00ac 082B     		cmp	r3, #8
 393 00ae 1AD0     		beq	.L7
 202:runtime.c     ****         RecalculateAlarms(0);
 394              		.loc 1 202 0
 395 00b0 0020     		movs	r0, #0
 396 00b2 FFF7FEFF 		bl	RecalculateAlarms
 203:runtime.c     ****         decodeLastCalDate(0);
 397              		.loc 1 203 0
 398 00b6 0020     		movs	r0, #0
 399 00b8 FFF7FEFF 		bl	decodeLastCalDate
 204:runtime.c     ****         sensor_status[0].fullScaleRange =   (uint32_t)(sensor[0][FULLSCALERANGE1]<<24)|
 400              		.loc 1 204 0
 401 00bc A74B     		ldr	r3, .L23+24
 402 00be 2E22     		movs	r2, #46
 403 00c0 9B5C     		ldrb	r3, [r3, r2]
 404 00c2 1B06     		lsls	r3, r3, #24
 405 00c4 1900     		movs	r1, r3
 205:runtime.c     ****                                             (uint32_t)(sensor[0][FULLSCALERANGE2]<<16)|
 406              		.loc 1 205 0
 407 00c6 A54B     		ldr	r3, .L23+24
 408 00c8 2F22     		movs	r2, #47
 409 00ca 9B5C     		ldrb	r3, [r3, r2]
 410 00cc 1B04     		lsls	r3, r3, #16
 204:runtime.c     ****         sensor_status[0].fullScaleRange =   (uint32_t)(sensor[0][FULLSCALERANGE1]<<24)|
 411              		.loc 1 204 0
 412 00ce 0B43     		orrs	r3, r1
 206:runtime.c     ****                                             (uint32_t)(sensor[0][FULLSCALERANGE3]<<8)|
 413              		.loc 1 206 0
ARM GAS  C:\Users\alexport\AppData\Local\Temp\cc5NLpBH.s 			page 12


 414 00d0 A24A     		ldr	r2, .L23+24
 415 00d2 3021     		movs	r1, #48
 416 00d4 525C     		ldrb	r2, [r2, r1]
 417 00d6 1202     		lsls	r2, r2, #8
 205:runtime.c     ****                                             (uint32_t)(sensor[0][FULLSCALERANGE2]<<16)|
 418              		.loc 1 205 0
 419 00d8 1343     		orrs	r3, r2
 207:runtime.c     ****                                             (uint32_t)sensor[0][FULLSCALERANGE4];
 420              		.loc 1 207 0
 421 00da A04A     		ldr	r2, .L23+24
 422 00dc 3121     		movs	r1, #49
 423 00de 525C     		ldrb	r2, [r2, r1]
 206:runtime.c     ****                                             (uint32_t)(sensor[0][FULLSCALERANGE3]<<8)|
 424              		.loc 1 206 0
 425 00e0 1A43     		orrs	r2, r3
 204:runtime.c     ****                                             (uint32_t)(sensor[0][FULLSCALERANGE2]<<16)|
 426              		.loc 1 204 0
 427 00e2 A34B     		ldr	r3, .L23+44
 428 00e4 5A60     		str	r2, [r3, #4]
 429              	.L7:
 208:runtime.c     ****     }
 209:runtime.c     ****     
 210:runtime.c     ****     
 211:runtime.c     ****     
 212:runtime.c     ****     if(LoadSensorInfo(1)!=POLL_SENSOR_STATUS_ABSENT){
 430              		.loc 1 212 0
 431 00e6 0120     		movs	r0, #1
 432 00e8 FFF7FEFF 		bl	LoadSensorInfo
 433 00ec 0300     		movs	r3, r0
 434 00ee 082B     		cmp	r3, #8
 435 00f0 1AD0     		beq	.L8
 213:runtime.c     ****         RecalculateAlarms(1);
 436              		.loc 1 213 0
 437 00f2 0120     		movs	r0, #1
 438 00f4 FFF7FEFF 		bl	RecalculateAlarms
 214:runtime.c     ****         decodeLastCalDate(1);
 439              		.loc 1 214 0
 440 00f8 0120     		movs	r0, #1
 441 00fa FFF7FEFF 		bl	decodeLastCalDate
 215:runtime.c     ****         sensor_status[1].fullScaleRange =   (uint32_t)(sensor[1][FULLSCALERANGE1]<<24)|
 442              		.loc 1 215 0
 443 00fe 974B     		ldr	r3, .L23+24
 444 0100 A622     		movs	r2, #166
 445 0102 9B5C     		ldrb	r3, [r3, r2]
 446 0104 1B06     		lsls	r3, r3, #24
 447 0106 1900     		movs	r1, r3
 216:runtime.c     ****                                             (uint32_t)(sensor[1][FULLSCALERANGE2]<<16)|
 448              		.loc 1 216 0
 449 0108 944B     		ldr	r3, .L23+24
 450 010a A722     		movs	r2, #167
 451 010c 9B5C     		ldrb	r3, [r3, r2]
 452 010e 1B04     		lsls	r3, r3, #16
 215:runtime.c     ****         sensor_status[1].fullScaleRange =   (uint32_t)(sensor[1][FULLSCALERANGE1]<<24)|
 453              		.loc 1 215 0
 454 0110 0B43     		orrs	r3, r1
 217:runtime.c     ****                                             (uint32_t)(sensor[1][FULLSCALERANGE3]<<8)|
 455              		.loc 1 217 0
ARM GAS  C:\Users\alexport\AppData\Local\Temp\cc5NLpBH.s 			page 13


 456 0112 924A     		ldr	r2, .L23+24
 457 0114 A821     		movs	r1, #168
 458 0116 525C     		ldrb	r2, [r2, r1]
 459 0118 1202     		lsls	r2, r2, #8
 216:runtime.c     ****                                             (uint32_t)(sensor[1][FULLSCALERANGE2]<<16)|
 460              		.loc 1 216 0
 461 011a 1343     		orrs	r3, r2
 218:runtime.c     ****                                             (uint32_t)sensor[1][FULLSCALERANGE4];
 462              		.loc 1 218 0
 463 011c 8F4A     		ldr	r2, .L23+24
 464 011e A921     		movs	r1, #169
 465 0120 525C     		ldrb	r2, [r2, r1]
 217:runtime.c     ****                                             (uint32_t)(sensor[1][FULLSCALERANGE3]<<8)|
 466              		.loc 1 217 0
 467 0122 1A43     		orrs	r2, r3
 215:runtime.c     ****                                             (uint32_t)(sensor[1][FULLSCALERANGE2]<<16)|
 468              		.loc 1 215 0
 469 0124 924B     		ldr	r3, .L23+44
 470 0126 DA64     		str	r2, [r3, #76]
 471              	.L8:
 219:runtime.c     ****     }
 220:runtime.c     ****     
 221:runtime.c     ****     
 222:runtime.c     ****     
 223:runtime.c     ****     // Get Relays Settings
 224:runtime.c     ****     EEPROM_GetRelaySetting((uint8_t*)relay);
 472              		.loc 1 224 0
 473 0128 924B     		ldr	r3, .L23+48
 474 012a 1800     		movs	r0, r3
 475 012c FFF7FEFF 		bl	EEPROM_GetRelaySetting
 225:runtime.c     ****     if(relay[0].energ>1)relay[0].energ = RELAY1_ENRGD_DEFAULT;
 476              		.loc 1 225 0
 477 0130 904B     		ldr	r3, .L23+48
 478 0132 1B78     		ldrb	r3, [r3]
 479 0134 012B     		cmp	r3, #1
 480 0136 02D9     		bls	.L9
 481              		.loc 1 225 0 is_stmt 0 discriminator 1
 482 0138 8E4B     		ldr	r3, .L23+48
 483 013a 0022     		movs	r2, #0
 484 013c 1A70     		strb	r2, [r3]
 485              	.L9:
 226:runtime.c     ****     if(relay[1].energ>1)relay[1].energ = RELAY2_ENRGD_DEFAULT;
 486              		.loc 1 226 0 is_stmt 1
 487 013e 8D4B     		ldr	r3, .L23+48
 488 0140 DB78     		ldrb	r3, [r3, #3]
 489 0142 012B     		cmp	r3, #1
 490 0144 02D9     		bls	.L10
 491              		.loc 1 226 0 is_stmt 0 discriminator 1
 492 0146 8B4B     		ldr	r3, .L23+48
 493 0148 0022     		movs	r2, #0
 494 014a DA70     		strb	r2, [r3, #3]
 495              	.L10:
 227:runtime.c     ****     if(relay[2].energ>1)relay[2].energ = RELAY3_ENRGD_DEFAULT;
 496              		.loc 1 227 0 is_stmt 1
 497 014c 894B     		ldr	r3, .L23+48
 498 014e 9B79     		ldrb	r3, [r3, #6]
 499 0150 012B     		cmp	r3, #1
ARM GAS  C:\Users\alexport\AppData\Local\Temp\cc5NLpBH.s 			page 14


 500 0152 02D9     		bls	.L11
 501              		.loc 1 227 0 is_stmt 0 discriminator 1
 502 0154 874B     		ldr	r3, .L23+48
 503 0156 0022     		movs	r2, #0
 504 0158 9A71     		strb	r2, [r3, #6]
 505              	.L11:
 228:runtime.c     ****     if(relay[3].energ>1)relay[3].energ = RELAY4_ENRGD_DEFAULT;
 506              		.loc 1 228 0 is_stmt 1
 507 015a 864B     		ldr	r3, .L23+48
 508 015c 5B7A     		ldrb	r3, [r3, #9]
 509 015e 012B     		cmp	r3, #1
 510 0160 02D9     		bls	.L12
 511              		.loc 1 228 0 is_stmt 0 discriminator 1
 512 0162 844B     		ldr	r3, .L23+48
 513 0164 0122     		movs	r2, #1
 514 0166 5A72     		strb	r2, [r3, #9]
 515              	.L12:
 229:runtime.c     ****     
 230:runtime.c     ****     if(relay[0].latched>1)relay[0].latched = RELAY1_LATCH_DEFAULT;
 516              		.loc 1 230 0 is_stmt 1
 517 0168 824B     		ldr	r3, .L23+48
 518 016a 5B78     		ldrb	r3, [r3, #1]
 519 016c 012B     		cmp	r3, #1
 520 016e 02D9     		bls	.L13
 521              		.loc 1 230 0 is_stmt 0 discriminator 1
 522 0170 804B     		ldr	r3, .L23+48
 523 0172 0022     		movs	r2, #0
 524 0174 5A70     		strb	r2, [r3, #1]
 525              	.L13:
 231:runtime.c     ****     if(relay[1].latched>1)relay[1].latched = RELAY2_LATCH_DEFAULT;
 526              		.loc 1 231 0 is_stmt 1
 527 0176 7F4B     		ldr	r3, .L23+48
 528 0178 1B79     		ldrb	r3, [r3, #4]
 529 017a 012B     		cmp	r3, #1
 530 017c 02D9     		bls	.L14
 531              		.loc 1 231 0 is_stmt 0 discriminator 1
 532 017e 7D4B     		ldr	r3, .L23+48
 533 0180 0022     		movs	r2, #0
 534 0182 1A71     		strb	r2, [r3, #4]
 535              	.L14:
 232:runtime.c     ****     if(relay[2].latched>1)relay[2].latched = RELAY3_LATCH_DEFAULT;
 536              		.loc 1 232 0 is_stmt 1
 537 0184 7B4B     		ldr	r3, .L23+48
 538 0186 DB79     		ldrb	r3, [r3, #7]
 539 0188 012B     		cmp	r3, #1
 540 018a 02D9     		bls	.L15
 541              		.loc 1 232 0 is_stmt 0 discriminator 1
 542 018c 794B     		ldr	r3, .L23+48
 543 018e 0022     		movs	r2, #0
 544 0190 DA71     		strb	r2, [r3, #7]
 545              	.L15:
 233:runtime.c     ****     if(relay[3].latched>1)relay[3].latched = RELAY4_LATCH_DEFAULT;
 546              		.loc 1 233 0 is_stmt 1
 547 0192 784B     		ldr	r3, .L23+48
 548 0194 9B7A     		ldrb	r3, [r3, #10]
 549 0196 012B     		cmp	r3, #1
 550 0198 02D9     		bls	.L16
ARM GAS  C:\Users\alexport\AppData\Local\Temp\cc5NLpBH.s 			page 15


 551              		.loc 1 233 0 is_stmt 0 discriminator 1
 552 019a 764B     		ldr	r3, .L23+48
 553 019c 0022     		movs	r2, #0
 554 019e 9A72     		strb	r2, [r3, #10]
 555              	.L16:
 234:runtime.c     ****     
 235:runtime.c     ****     if(relay[0].ack>1)relay[0].ack = RELAY1_ACK_DEFAULT;
 556              		.loc 1 235 0 is_stmt 1
 557 01a0 744B     		ldr	r3, .L23+48
 558 01a2 9B78     		ldrb	r3, [r3, #2]
 559 01a4 012B     		cmp	r3, #1
 560 01a6 02D9     		bls	.L17
 561              		.loc 1 235 0 is_stmt 0 discriminator 1
 562 01a8 724B     		ldr	r3, .L23+48
 563 01aa 0122     		movs	r2, #1
 564 01ac 9A70     		strb	r2, [r3, #2]
 565              	.L17:
 236:runtime.c     ****     if(relay[1].ack>1)relay[1].ack = RELAY2_ACK_DEFAULT;
 566              		.loc 1 236 0 is_stmt 1
 567 01ae 714B     		ldr	r3, .L23+48
 568 01b0 5B79     		ldrb	r3, [r3, #5]
 569 01b2 012B     		cmp	r3, #1
 570 01b4 02D9     		bls	.L18
 571              		.loc 1 236 0 is_stmt 0 discriminator 1
 572 01b6 6F4B     		ldr	r3, .L23+48
 573 01b8 0122     		movs	r2, #1
 574 01ba 5A71     		strb	r2, [r3, #5]
 575              	.L18:
 237:runtime.c     ****     if(relay[2].ack>1)relay[2].ack = RELAY3_ACK_DEFAULT;
 576              		.loc 1 237 0 is_stmt 1
 577 01bc 6D4B     		ldr	r3, .L23+48
 578 01be 1B7A     		ldrb	r3, [r3, #8]
 579 01c0 012B     		cmp	r3, #1
 580 01c2 02D9     		bls	.L19
 581              		.loc 1 237 0 is_stmt 0 discriminator 1
 582 01c4 6B4B     		ldr	r3, .L23+48
 583 01c6 0122     		movs	r2, #1
 584 01c8 1A72     		strb	r2, [r3, #8]
 585              	.L19:
 238:runtime.c     ****     if(relay[3].ack>1)relay[3].ack = RELAY4_ACK_DEFAULT;
 586              		.loc 1 238 0 is_stmt 1
 587 01ca 6A4B     		ldr	r3, .L23+48
 588 01cc DB7A     		ldrb	r3, [r3, #11]
 589 01ce 012B     		cmp	r3, #1
 590 01d0 02D9     		bls	.L20
 591              		.loc 1 238 0 is_stmt 0 discriminator 1
 592 01d2 684B     		ldr	r3, .L23+48
 593 01d4 0122     		movs	r2, #1
 594 01d6 DA72     		strb	r2, [r3, #11]
 595              	.L20:
 239:runtime.c     ****     
 240:runtime.c     ****     TCA9534_Init(0xF0); // Init realys control chip outputs
 596              		.loc 1 240 0 is_stmt 1
 597 01d8 F020     		movs	r0, #240
 598 01da FFF7FEFF 		bl	TCA9534_Init
 241:runtime.c     ****     Reset_relays();
 599              		.loc 1 241 0
ARM GAS  C:\Users\alexport\AppData\Local\Temp\cc5NLpBH.s 			page 16


 600 01de FFF7FEFF 		bl	Reset_relays
 242:runtime.c     ****     
 243:runtime.c     ****     
 244:runtime.c     ****     
 245:runtime.c     ****     EEPROM_GetGPS(&flatitude,  &flongitude);
 601              		.loc 1 245 0
 602 01e2 654A     		ldr	r2, .L23+52
 603 01e4 654B     		ldr	r3, .L23+56
 604 01e6 1100     		movs	r1, r2
 605 01e8 1800     		movs	r0, r3
 606 01ea FFF7FEFF 		bl	EEPROM_GetGPS
 246:runtime.c     ****     
 247:runtime.c     ****     
 248:runtime.c     ****     // Get Time
 249:runtime.c     ****     DS3231_GetDateTime(&date_time);
 607              		.loc 1 249 0
 608 01ee 644B     		ldr	r3, .L23+60
 609 01f0 1800     		movs	r0, r3
 610 01f2 FFF7FEFF 		bl	DS3231_GetDateTime
 250:runtime.c     ****     
 251:runtime.c     ****     
 252:runtime.c     ****     
 253:runtime.c     ****     
 254:runtime.c     **** 
 255:runtime.c     ****     // Get Log Entries
 256:runtime.c     ****     //GetLog((char*) &log_record);
 257:runtime.c     ****     
 258:runtime.c     ****     log_last_entry_idx= LoadLogIndex()+1;
 611              		.loc 1 258 0
 612 01f6 FFF7FEFF 		bl	LoadLogIndex
 613 01fa 0300     		movs	r3, r0
 614 01fc 0133     		adds	r3, r3, #1
 615 01fe DAB2     		uxtb	r2, r3
 616 0200 604B     		ldr	r3, .L23+64
 617 0202 1A70     		strb	r2, [r3]
 618              	.LBB3:
 259:runtime.c     ****     for(uint8_t i=0;i<LOG_MAX_ENTRIES;i++ )
 619              		.loc 1 259 0
 620 0204 4F23     		movs	r3, #79
 621 0206 FB18     		adds	r3, r7, r3
 622 0208 0022     		movs	r2, #0
 623 020a 1A70     		strb	r2, [r3]
 624 020c 1FE0     		b	.L21
 625              	.L22:
 260:runtime.c     ****         GetLogEntry((log_last_entry_idx+i)%LOG_MAX_ENTRIES, log_record[i]);
 626              		.loc 1 260 0 discriminator 3
 627 020e 5D4B     		ldr	r3, .L23+64
 628 0210 1B78     		ldrb	r3, [r3]
 629 0212 1A00     		movs	r2, r3
 630 0214 4F23     		movs	r3, #79
 631 0216 FB18     		adds	r3, r7, r3
 632 0218 1B78     		ldrb	r3, [r3]
 633 021a D318     		adds	r3, r2, r3
 634 021c 0A21     		movs	r1, #10
 635 021e 1800     		movs	r0, r3
 636 0220 FFF7FEFF 		bl	__aeabi_idivmod
 637 0224 0B00     		movs	r3, r1
ARM GAS  C:\Users\alexport\AppData\Local\Temp\cc5NLpBH.s 			page 17


 638 0226 D8B2     		uxtb	r0, r3
 639 0228 4F23     		movs	r3, #79
 640 022a FB18     		adds	r3, r7, r3
 641 022c 1A78     		ldrb	r2, [r3]
 642 022e 1300     		movs	r3, r2
 643 0230 9B00     		lsls	r3, r3, #2
 644 0232 9B18     		adds	r3, r3, r2
 645 0234 DB00     		lsls	r3, r3, #3
 646 0236 544A     		ldr	r2, .L23+68
 647 0238 9B18     		adds	r3, r3, r2
 648 023a 1900     		movs	r1, r3
 649 023c FFF7FEFF 		bl	GetLogEntry
 259:runtime.c     ****     for(uint8_t i=0;i<LOG_MAX_ENTRIES;i++ )
 650              		.loc 1 259 0 discriminator 3
 651 0240 4F23     		movs	r3, #79
 652 0242 FB18     		adds	r3, r7, r3
 653 0244 1A78     		ldrb	r2, [r3]
 654 0246 4F23     		movs	r3, #79
 655 0248 FB18     		adds	r3, r7, r3
 656 024a 0132     		adds	r2, r2, #1
 657 024c 1A70     		strb	r2, [r3]
 658              	.L21:
 259:runtime.c     ****     for(uint8_t i=0;i<LOG_MAX_ENTRIES;i++ )
 659              		.loc 1 259 0 is_stmt 0 discriminator 1
 660 024e 4F23     		movs	r3, #79
 661 0250 FB18     		adds	r3, r7, r3
 662 0252 1B78     		ldrb	r3, [r3]
 663 0254 092B     		cmp	r3, #9
 664 0256 DAD9     		bls	.L22
 665              	.LBE3:
 261:runtime.c     ****         
 262:runtime.c     ****     
 263:runtime.c     ****     
 264:runtime.c     ****     
 265:runtime.c     **** //    // UPDATE TEXT in DISPLY INFO PAGE
 266:runtime.c     **** //    Nextion_SetTextIncognito(PAGE_INFO, DISP_OBJ_CH1 , "SFDGFHGHHJHJGHKGJLKJGL");
 267:runtime.c     **** //    CyDelay(50);
 268:runtime.c     **** //    Nextion_SetTextIncognito(PAGE_INFO, DISP_OBJ_CH2 , "fgfdgsfgfgsfgfgsfgsfg");
 269:runtime.c     **** //    CyDelay(50);
 270:runtime.c     **** //    
 271:runtime.c     **** //    
 272:runtime.c     ****     char str[12];
 273:runtime.c     ****     memset(str , 0 , sizeof(str));
 666              		.loc 1 273 0 is_stmt 1
 667 0258 2423     		movs	r3, #36
 668 025a FB18     		adds	r3, r7, r3
 669 025c 0C22     		movs	r2, #12
 670 025e 0021     		movs	r1, #0
 671 0260 1800     		movs	r0, r3
 672 0262 FFF7FEFF 		bl	memset
 274:runtime.c     ****     remove_trailing_spaces(str, (char*) &sensor[0][COMPAUND1]);
 673              		.loc 1 274 0
 674 0266 494A     		ldr	r2, .L23+72
 675 0268 2423     		movs	r3, #36
 676 026a FB18     		adds	r3, r7, r3
 677 026c 1100     		movs	r1, r2
 678 026e 1800     		movs	r0, r3
ARM GAS  C:\Users\alexport\AppData\Local\Temp\cc5NLpBH.s 			page 18


 679 0270 FFF7FEFF 		bl	remove_trailing_spaces
 275:runtime.c     ****     
 276:runtime.c     ****     char BleName[30];
 277:runtime.c     ****     memset(BleName, 0 , sizeof(BleName));
 680              		.loc 1 277 0
 681 0274 3B1D     		adds	r3, r7, #4
 682 0276 1E22     		movs	r2, #30
 683 0278 0021     		movs	r1, #0
 684 027a 1800     		movs	r0, r3
 685 027c FFF7FEFF 		bl	memset
 278:runtime.c     ****     strcpy( BleName, "SA-220-" );
 686              		.loc 1 278 0
 687 0280 3B1D     		adds	r3, r7, #4
 688 0282 434A     		ldr	r2, .L23+76
 689 0284 03CA     		ldmia	r2!, {r0, r1}
 690 0286 03C3     		stmia	r3!, {r0, r1}
 279:runtime.c     ****     strncat(BleName, str,strlen(str) );
 691              		.loc 1 279 0
 692 0288 2423     		movs	r3, #36
 693 028a FB18     		adds	r3, r7, r3
 694 028c 1800     		movs	r0, r3
 695 028e FFF7FEFF 		bl	strlen
 696 0292 0200     		movs	r2, r0
 697 0294 2423     		movs	r3, #36
 698 0296 F918     		adds	r1, r7, r3
 699 0298 3B1D     		adds	r3, r7, #4
 700 029a 1800     		movs	r0, r3
 701 029c FFF7FEFF 		bl	strncat
 280:runtime.c     ****     strcat(BleName, " ");
 702              		.loc 1 280 0
 703 02a0 3B1D     		adds	r3, r7, #4
 704 02a2 1800     		movs	r0, r3
 705 02a4 FFF7FEFF 		bl	strlen
 706 02a8 0300     		movs	r3, r0
 707 02aa 1A00     		movs	r2, r3
 708 02ac 3B1D     		adds	r3, r7, #4
 709 02ae 9A18     		adds	r2, r3, r2
 710 02b0 384B     		ldr	r3, .L23+80
 711 02b2 1000     		movs	r0, r2
 712 02b4 1900     		movs	r1, r3
 713 02b6 0223     		movs	r3, #2
 714 02b8 1A00     		movs	r2, r3
 715 02ba FFF7FEFF 		bl	memcpy
 281:runtime.c     ****     strncat(BleName, (char*)&sensor[0][SERIALNUMBER1],6 );
 716              		.loc 1 281 0
 717 02be 3649     		ldr	r1, .L23+84
 718 02c0 3B1D     		adds	r3, r7, #4
 719 02c2 0622     		movs	r2, #6
 720 02c4 1800     		movs	r0, r3
 721 02c6 FFF7FEFF 		bl	strncat
 282:runtime.c     ****     
 283:runtime.c     ****     CyBle_GapSetLocalName( BleName );
 722              		.loc 1 283 0
 723 02ca 3B1D     		adds	r3, r7, #4
 724 02cc 1800     		movs	r0, r3
 725 02ce FFF7FEFF 		bl	CyBle_GapSetLocalName
 284:runtime.c     ****     CyBle_DissSetCharacteristicValue(CYBLE_DIS_SYSTEM_ID, 8, (uint8 *)SysSerialNumber);
ARM GAS  C:\Users\alexport\AppData\Local\Temp\cc5NLpBH.s 			page 19


 726              		.loc 1 284 0
 727 02d2 3023     		movs	r3, #48
 728 02d4 FB18     		adds	r3, r7, r3
 729 02d6 1A00     		movs	r2, r3
 730 02d8 0821     		movs	r1, #8
 731 02da 0620     		movs	r0, #6
 732 02dc FFF7FEFF 		bl	CyBle_DissSetCharacteristicValue
 285:runtime.c     ****     memset(str , 0 , sizeof(str));
 733              		.loc 1 285 0
 734 02e0 2423     		movs	r3, #36
 735 02e2 FB18     		adds	r3, r7, r3
 736 02e4 0C22     		movs	r2, #12
 737 02e6 0021     		movs	r1, #0
 738 02e8 1800     		movs	r0, r3
 739 02ea FFF7FEFF 		bl	memset
 286:runtime.c     ****     strncpy(&str[2], (char*)&sensor[0][SERIALNUMBER1],6);
 740              		.loc 1 286 0
 741 02ee 2A49     		ldr	r1, .L23+84
 742 02f0 2423     		movs	r3, #36
 743 02f2 FB18     		adds	r3, r7, r3
 744 02f4 0233     		adds	r3, r3, #2
 745 02f6 0622     		movs	r2, #6
 746 02f8 1800     		movs	r0, r3
 747 02fa FFF7FEFF 		bl	strncpy
 287:runtime.c     ****     CyBle_DissSetCharacteristicValue(CYBLE_DIS_SYSTEM_ID, 8, (uint8 *)&str);
 748              		.loc 1 287 0
 749 02fe 2423     		movs	r3, #36
 750 0300 FB18     		adds	r3, r7, r3
 751 0302 1A00     		movs	r2, r3
 752 0304 0821     		movs	r1, #8
 753 0306 0620     		movs	r0, #6
 754 0308 FFF7FEFF 		bl	CyBle_DissSetCharacteristicValue
 288:runtime.c     ****     CyBle_DissSetCharacteristicValue(CYBLE_DIS_FIRMWARE_REV, 10, (uint8 *)FIRMWARE_VISION);
 755              		.loc 1 288 0
 756 030c 144B     		ldr	r3, .L23+28
 757 030e 1A00     		movs	r2, r3
 758 0310 0A21     		movs	r1, #10
 759 0312 0420     		movs	r0, #4
 760 0314 FFF7FEFF 		bl	CyBle_DissSetCharacteristicValue
 289:runtime.c     ****     CyBle_DissSetCharacteristicValue(CYBLE_DIS_SOFTWARE_REV, 10, (uint8 *)FIRMWARE_VISION);
 761              		.loc 1 289 0
 762 0318 114B     		ldr	r3, .L23+28
 763 031a 1A00     		movs	r2, r3
 764 031c 0A21     		movs	r1, #10
 765 031e 0520     		movs	r0, #5
 766 0320 FFF7FEFF 		bl	CyBle_DissSetCharacteristicValue
 290:runtime.c     ****     CyBle_DissSetCharacteristicValue(CYBLE_DIS_SERIAL_NUMBER, 12, (uint8 *)&sensor[0][SERIALNUMBER1
 767              		.loc 1 290 0
 768 0324 1C4B     		ldr	r3, .L23+84
 769 0326 1A00     		movs	r2, r3
 770 0328 0C21     		movs	r1, #12
 771 032a 0220     		movs	r0, #2
 772 032c FFF7FEFF 		bl	CyBle_DissSetCharacteristicValue
 291:runtime.c     ****     CyBle_DissSetCharacteristicValue(CYBLE_DIS_HARDWARE_REV, 4, (uint8 *)HARDWARE_VISION);
 773              		.loc 1 291 0
 774 0330 1A4B     		ldr	r3, .L23+88
 775 0332 1A00     		movs	r2, r3
ARM GAS  C:\Users\alexport\AppData\Local\Temp\cc5NLpBH.s 			page 20


 776 0334 0421     		movs	r1, #4
 777 0336 0320     		movs	r0, #3
 778 0338 FFF7FEFF 		bl	CyBle_DissSetCharacteristicValue
 292:runtime.c     ****     
 293:runtime.c     ****     
 294:runtime.c     ****     
 295:runtime.c     **** }
 779              		.loc 1 295 0
 780 033c C046     		nop
 781 033e BD46     		mov	sp, r7
 782 0340 14B0     		add	sp, sp, #80
 783              		@ sp needed
 784 0342 80BD     		pop	{r7, pc}
 785              	.L24:
 786              		.align	2
 787              	.L23:
 788 0344 00000000 		.word	mySlaveAddr
 789 0348 00000000 		.word	msa
 790 034c 00000000 		.word	i2cPeriod
 791 0350 00000000 		.word	ch2Active
 792 0354 00000000 		.word	relay_present
 793 0358 00000000 		.word	sleepPeriod
 794 035c 00000000 		.word	sensor
 795 0360 00000000 		.word	.LC9
 796 0364 00000000 		.word	firmwareVersion
 797 0368 1C000000 		.word	.LC12
 798 036c 56341200 		.word	1193046
 799 0370 00000000 		.word	sensor_status
 800 0374 00000000 		.word	relay
 801 0378 00000000 		.word	flongitude
 802 037c 00000000 		.word	flatitude
 803 0380 00000000 		.word	date_time
 804 0384 00000000 		.word	log_last_entry_idx
 805 0388 00000000 		.word	log_record
 806 038c 32000000 		.word	sensor+50
 807 0390 0C000000 		.word	.LC22
 808 0394 14000000 		.word	.LC24
 809 0398 40000000 		.word	sensor+64
 810 039c 18000000 		.word	.LC27
 811              		.cfi_endproc
 812              	.LFE37:
 813              		.size	InitSystem, .-InitSystem
 814              		.global	__aeabi_ui2d
 815              		.global	__aeabi_i2d
 816              		.global	__aeabi_ddiv
 817              		.global	__aeabi_dmul
 818              		.global	__aeabi_d2f
 819              		.section	.text.RecalculateAlarms,"ax",%progbits
 820              		.align	2
 821              		.global	RecalculateAlarms
 822              		.code	16
 823              		.thumb_func
 824              		.type	RecalculateAlarms, %function
 825              	RecalculateAlarms:
 826              	.LFB38:
 296:runtime.c     **** 
 297:runtime.c     **** 
ARM GAS  C:\Users\alexport\AppData\Local\Temp\cc5NLpBH.s 			page 21


 298:runtime.c     **** void RecalculateAlarms(uint8_t ch){
 827              		.loc 1 298 0
 828              		.cfi_startproc
 829              		@ args = 0, pretend = 0, frame = 8
 830              		@ frame_needed = 1, uses_anonymous_args = 0
 831 0000 F0B5     		push	{r4, r5, r6, r7, lr}
 832              		.cfi_def_cfa_offset 20
 833              		.cfi_offset 4, -20
 834              		.cfi_offset 5, -16
 835              		.cfi_offset 6, -12
 836              		.cfi_offset 7, -8
 837              		.cfi_offset 14, -4
 838 0002 83B0     		sub	sp, sp, #12
 839              		.cfi_def_cfa_offset 32
 840 0004 00AF     		add	r7, sp, #0
 841              		.cfi_def_cfa_register 7
 842 0006 0200     		movs	r2, r0
 843 0008 FB1D     		adds	r3, r7, #7
 844 000a 1A70     		strb	r2, [r3]
 299:runtime.c     ****     sensor_status[ch].fullScaleRange = ARRtoINT32(sensor[ch],FULLSCALERANGE1);
 845              		.loc 1 299 0
 846 000c FB1D     		adds	r3, r7, #7
 847 000e 1A78     		ldrb	r2, [r3]
 848 0010 FB1D     		adds	r3, r7, #7
 849 0012 1978     		ldrb	r1, [r3]
 850 0014 CD48     		ldr	r0, .L26
 851 0016 2E24     		movs	r4, #46
 852 0018 0B00     		movs	r3, r1
 853 001a 1B01     		lsls	r3, r3, #4
 854 001c 5B1A     		subs	r3, r3, r1
 855 001e DB00     		lsls	r3, r3, #3
 856 0020 C318     		adds	r3, r0, r3
 857 0022 1B19     		adds	r3, r3, r4
 858 0024 1B78     		ldrb	r3, [r3]
 859 0026 1B06     		lsls	r3, r3, #24
 860 0028 1D00     		movs	r5, r3
 861 002a FB1D     		adds	r3, r7, #7
 862 002c 1978     		ldrb	r1, [r3]
 863 002e C748     		ldr	r0, .L26
 864 0030 2F24     		movs	r4, #47
 865 0032 0B00     		movs	r3, r1
 866 0034 1B01     		lsls	r3, r3, #4
 867 0036 5B1A     		subs	r3, r3, r1
 868 0038 DB00     		lsls	r3, r3, #3
 869 003a C318     		adds	r3, r0, r3
 870 003c 1B19     		adds	r3, r3, r4
 871 003e 1B78     		ldrb	r3, [r3]
 872 0040 1B04     		lsls	r3, r3, #16
 873 0042 E818     		adds	r0, r5, r3
 874 0044 FB1D     		adds	r3, r7, #7
 875 0046 1978     		ldrb	r1, [r3]
 876 0048 C04C     		ldr	r4, .L26
 877 004a 3025     		movs	r5, #48
 878 004c 0B00     		movs	r3, r1
 879 004e 1B01     		lsls	r3, r3, #4
 880 0050 5B1A     		subs	r3, r3, r1
 881 0052 DB00     		lsls	r3, r3, #3
ARM GAS  C:\Users\alexport\AppData\Local\Temp\cc5NLpBH.s 			page 22


 882 0054 E318     		adds	r3, r4, r3
 883 0056 5B19     		adds	r3, r3, r5
 884 0058 1B78     		ldrb	r3, [r3]
 885 005a 1B02     		lsls	r3, r3, #8
 886 005c C018     		adds	r0, r0, r3
 887 005e FB1D     		adds	r3, r7, #7
 888 0060 1978     		ldrb	r1, [r3]
 889 0062 BA4C     		ldr	r4, .L26
 890 0064 3125     		movs	r5, #49
 891 0066 0B00     		movs	r3, r1
 892 0068 1B01     		lsls	r3, r3, #4
 893 006a 5B1A     		subs	r3, r3, r1
 894 006c DB00     		lsls	r3, r3, #3
 895 006e E318     		adds	r3, r4, r3
 896 0070 5B19     		adds	r3, r3, r5
 897 0072 1B78     		ldrb	r3, [r3]
 898 0074 C118     		adds	r1, r0, r3
 899 0076 B648     		ldr	r0, .L26+4
 900 0078 1300     		movs	r3, r2
 901 007a DB00     		lsls	r3, r3, #3
 902 007c 9B18     		adds	r3, r3, r2
 903 007e DB00     		lsls	r3, r3, #3
 904 0080 C318     		adds	r3, r0, r3
 905 0082 0433     		adds	r3, r3, #4
 906 0084 1960     		str	r1, [r3]
 300:runtime.c     ****     sensor_status[ch].alarm1val = ARRtoINT16(sensor[ch],ALARM1MSB);
 907              		.loc 1 300 0
 908 0086 FB1D     		adds	r3, r7, #7
 909 0088 1A78     		ldrb	r2, [r3]
 910 008a FB1D     		adds	r3, r7, #7
 911 008c 1978     		ldrb	r1, [r3]
 912 008e AF48     		ldr	r0, .L26
 913 0090 4A24     		movs	r4, #74
 914 0092 0B00     		movs	r3, r1
 915 0094 1B01     		lsls	r3, r3, #4
 916 0096 5B1A     		subs	r3, r3, r1
 917 0098 DB00     		lsls	r3, r3, #3
 918 009a C318     		adds	r3, r0, r3
 919 009c 1B19     		adds	r3, r3, r4
 920 009e 1B78     		ldrb	r3, [r3]
 921 00a0 9BB2     		uxth	r3, r3
 922 00a2 1B02     		lsls	r3, r3, #8
 923 00a4 98B2     		uxth	r0, r3
 924 00a6 FB1D     		adds	r3, r7, #7
 925 00a8 1978     		ldrb	r1, [r3]
 926 00aa A84C     		ldr	r4, .L26
 927 00ac 4B25     		movs	r5, #75
 928 00ae 0B00     		movs	r3, r1
 929 00b0 1B01     		lsls	r3, r3, #4
 930 00b2 5B1A     		subs	r3, r3, r1
 931 00b4 DB00     		lsls	r3, r3, #3
 932 00b6 E318     		adds	r3, r4, r3
 933 00b8 5B19     		adds	r3, r3, r5
 934 00ba 1B78     		ldrb	r3, [r3]
 935 00bc 9BB2     		uxth	r3, r3
 936 00be C318     		adds	r3, r0, r3
 937 00c0 98B2     		uxth	r0, r3
ARM GAS  C:\Users\alexport\AppData\Local\Temp\cc5NLpBH.s 			page 23


 938 00c2 A349     		ldr	r1, .L26+4
 939 00c4 1300     		movs	r3, r2
 940 00c6 DB00     		lsls	r3, r3, #3
 941 00c8 9B18     		adds	r3, r3, r2
 942 00ca DB00     		lsls	r3, r3, #3
 943 00cc CB18     		adds	r3, r1, r3
 944 00ce 1E33     		adds	r3, r3, #30
 945 00d0 021C     		adds	r2, r0, #0
 946 00d2 1A80     		strh	r2, [r3]
 301:runtime.c     ****     sensor_status[ch].alarm2val = ARRtoINT16(sensor[ch],ALARM2MSB);
 947              		.loc 1 301 0
 948 00d4 FB1D     		adds	r3, r7, #7
 949 00d6 1A78     		ldrb	r2, [r3]
 950 00d8 FB1D     		adds	r3, r7, #7
 951 00da 1978     		ldrb	r1, [r3]
 952 00dc 9B48     		ldr	r0, .L26
 953 00de 4E24     		movs	r4, #78
 954 00e0 0B00     		movs	r3, r1
 955 00e2 1B01     		lsls	r3, r3, #4
 956 00e4 5B1A     		subs	r3, r3, r1
 957 00e6 DB00     		lsls	r3, r3, #3
 958 00e8 C318     		adds	r3, r0, r3
 959 00ea 1B19     		adds	r3, r3, r4
 960 00ec 1B78     		ldrb	r3, [r3]
 961 00ee 9BB2     		uxth	r3, r3
 962 00f0 1B02     		lsls	r3, r3, #8
 963 00f2 98B2     		uxth	r0, r3
 964 00f4 FB1D     		adds	r3, r7, #7
 965 00f6 1978     		ldrb	r1, [r3]
 966 00f8 944C     		ldr	r4, .L26
 967 00fa 4F25     		movs	r5, #79
 968 00fc 0B00     		movs	r3, r1
 969 00fe 1B01     		lsls	r3, r3, #4
 970 0100 5B1A     		subs	r3, r3, r1
 971 0102 DB00     		lsls	r3, r3, #3
 972 0104 E318     		adds	r3, r4, r3
 973 0106 5B19     		adds	r3, r3, r5
 974 0108 1B78     		ldrb	r3, [r3]
 975 010a 9BB2     		uxth	r3, r3
 976 010c C318     		adds	r3, r0, r3
 977 010e 98B2     		uxth	r0, r3
 978 0110 8F49     		ldr	r1, .L26+4
 979 0112 1300     		movs	r3, r2
 980 0114 DB00     		lsls	r3, r3, #3
 981 0116 9B18     		adds	r3, r3, r2
 982 0118 DB00     		lsls	r3, r3, #3
 983 011a CB18     		adds	r3, r1, r3
 984 011c 2833     		adds	r3, r3, #40
 985 011e 021C     		adds	r2, r0, #0
 986 0120 1A80     		strh	r2, [r3]
 302:runtime.c     ****     sensor_status[ch].alarm3val = ARRtoINT16(sensor[ch],ALARM3MSB);
 987              		.loc 1 302 0
 988 0122 FB1D     		adds	r3, r7, #7
 989 0124 1A78     		ldrb	r2, [r3]
 990 0126 FB1D     		adds	r3, r7, #7
 991 0128 1978     		ldrb	r1, [r3]
 992 012a 8848     		ldr	r0, .L26
ARM GAS  C:\Users\alexport\AppData\Local\Temp\cc5NLpBH.s 			page 24


 993 012c 5224     		movs	r4, #82
 994 012e 0B00     		movs	r3, r1
 995 0130 1B01     		lsls	r3, r3, #4
 996 0132 5B1A     		subs	r3, r3, r1
 997 0134 DB00     		lsls	r3, r3, #3
 998 0136 C318     		adds	r3, r0, r3
 999 0138 1B19     		adds	r3, r3, r4
 1000 013a 1B78     		ldrb	r3, [r3]
 1001 013c 9BB2     		uxth	r3, r3
 1002 013e 1B02     		lsls	r3, r3, #8
 1003 0140 98B2     		uxth	r0, r3
 1004 0142 FB1D     		adds	r3, r7, #7
 1005 0144 1978     		ldrb	r1, [r3]
 1006 0146 814C     		ldr	r4, .L26
 1007 0148 5325     		movs	r5, #83
 1008 014a 0B00     		movs	r3, r1
 1009 014c 1B01     		lsls	r3, r3, #4
 1010 014e 5B1A     		subs	r3, r3, r1
 1011 0150 DB00     		lsls	r3, r3, #3
 1012 0152 E318     		adds	r3, r4, r3
 1013 0154 5B19     		adds	r3, r3, r5
 1014 0156 1B78     		ldrb	r3, [r3]
 1015 0158 9BB2     		uxth	r3, r3
 1016 015a C318     		adds	r3, r0, r3
 1017 015c 98B2     		uxth	r0, r3
 1018 015e 7C49     		ldr	r1, .L26+4
 1019 0160 1300     		movs	r3, r2
 1020 0162 DB00     		lsls	r3, r3, #3
 1021 0164 9B18     		adds	r3, r3, r2
 1022 0166 DB00     		lsls	r3, r3, #3
 1023 0168 CB18     		adds	r3, r1, r3
 1024 016a 3433     		adds	r3, r3, #52
 1025 016c 021C     		adds	r2, r0, #0
 1026 016e 1A80     		strh	r2, [r3]
 303:runtime.c     ****     sensor_status[ch].alarm1asc = ARRtoINT16(sensor[ch],ALARM1ASCMSB);
 1027              		.loc 1 303 0
 1028 0170 FB1D     		adds	r3, r7, #7
 1029 0172 1A78     		ldrb	r2, [r3]
 1030 0174 FB1D     		adds	r3, r7, #7
 1031 0176 1978     		ldrb	r1, [r3]
 1032 0178 7448     		ldr	r0, .L26
 1033 017a 4D24     		movs	r4, #77
 1034 017c 0B00     		movs	r3, r1
 1035 017e 1B01     		lsls	r3, r3, #4
 1036 0180 5B1A     		subs	r3, r3, r1
 1037 0182 DB00     		lsls	r3, r3, #3
 1038 0184 C318     		adds	r3, r0, r3
 1039 0186 1B19     		adds	r3, r3, r4
 1040 0188 1C78     		ldrb	r4, [r3]
 1041 018a 7149     		ldr	r1, .L26+4
 1042 018c 2620     		movs	r0, #38
 1043 018e 1300     		movs	r3, r2
 1044 0190 DB00     		lsls	r3, r3, #3
 1045 0192 9B18     		adds	r3, r3, r2
 1046 0194 DB00     		lsls	r3, r3, #3
 1047 0196 CB18     		adds	r3, r1, r3
 1048 0198 1B18     		adds	r3, r3, r0
ARM GAS  C:\Users\alexport\AppData\Local\Temp\cc5NLpBH.s 			page 25


 1049 019a 221C     		adds	r2, r4, #0
 1050 019c 1A70     		strb	r2, [r3]
 304:runtime.c     ****     sensor_status[ch].alarm2asc = ARRtoINT16(sensor[ch],ALARM2ASCMSB);
 1051              		.loc 1 304 0
 1052 019e FB1D     		adds	r3, r7, #7
 1053 01a0 1A78     		ldrb	r2, [r3]
 1054 01a2 FB1D     		adds	r3, r7, #7
 1055 01a4 1978     		ldrb	r1, [r3]
 1056 01a6 6948     		ldr	r0, .L26
 1057 01a8 5124     		movs	r4, #81
 1058 01aa 0B00     		movs	r3, r1
 1059 01ac 1B01     		lsls	r3, r3, #4
 1060 01ae 5B1A     		subs	r3, r3, r1
 1061 01b0 DB00     		lsls	r3, r3, #3
 1062 01b2 C318     		adds	r3, r0, r3
 1063 01b4 1B19     		adds	r3, r3, r4
 1064 01b6 1C78     		ldrb	r4, [r3]
 1065 01b8 6549     		ldr	r1, .L26+4
 1066 01ba 3220     		movs	r0, #50
 1067 01bc 1300     		movs	r3, r2
 1068 01be DB00     		lsls	r3, r3, #3
 1069 01c0 9B18     		adds	r3, r3, r2
 1070 01c2 DB00     		lsls	r3, r3, #3
 1071 01c4 CB18     		adds	r3, r1, r3
 1072 01c6 1B18     		adds	r3, r3, r0
 1073 01c8 221C     		adds	r2, r4, #0
 1074 01ca 1A70     		strb	r2, [r3]
 305:runtime.c     ****     sensor_status[ch].alarm3asc = ARRtoINT16(sensor[ch],ALARM3ASCMSB);
 1075              		.loc 1 305 0
 1076 01cc FB1D     		adds	r3, r7, #7
 1077 01ce 1A78     		ldrb	r2, [r3]
 1078 01d0 FB1D     		adds	r3, r7, #7
 1079 01d2 1978     		ldrb	r1, [r3]
 1080 01d4 5D48     		ldr	r0, .L26
 1081 01d6 5524     		movs	r4, #85
 1082 01d8 0B00     		movs	r3, r1
 1083 01da 1B01     		lsls	r3, r3, #4
 1084 01dc 5B1A     		subs	r3, r3, r1
 1085 01de DB00     		lsls	r3, r3, #3
 1086 01e0 C318     		adds	r3, r0, r3
 1087 01e2 1B19     		adds	r3, r3, r4
 1088 01e4 1C78     		ldrb	r4, [r3]
 1089 01e6 5A49     		ldr	r1, .L26+4
 1090 01e8 3E20     		movs	r0, #62
 1091 01ea 1300     		movs	r3, r2
 1092 01ec DB00     		lsls	r3, r3, #3
 1093 01ee 9B18     		adds	r3, r3, r2
 1094 01f0 DB00     		lsls	r3, r3, #3
 1095 01f2 CB18     		adds	r3, r1, r3
 1096 01f4 1B18     		adds	r3, r3, r0
 1097 01f6 221C     		adds	r2, r4, #0
 1098 01f8 1A70     		strb	r2, [r3]
 306:runtime.c     ****     sensor_status[ch].alarm1fval =  sensor_status[ch].fullScaleRange * (sensor_status[ch].alarm1val
 1099              		.loc 1 306 0
 1100 01fa FB1D     		adds	r3, r7, #7
 1101 01fc 1C78     		ldrb	r4, [r3]
 1102 01fe FB1D     		adds	r3, r7, #7
ARM GAS  C:\Users\alexport\AppData\Local\Temp\cc5NLpBH.s 			page 26


 1103 0200 1A78     		ldrb	r2, [r3]
 1104 0202 5349     		ldr	r1, .L26+4
 1105 0204 1300     		movs	r3, r2
 1106 0206 DB00     		lsls	r3, r3, #3
 1107 0208 9B18     		adds	r3, r3, r2
 1108 020a DB00     		lsls	r3, r3, #3
 1109 020c CB18     		adds	r3, r1, r3
 1110 020e 0433     		adds	r3, r3, #4
 1111 0210 1B68     		ldr	r3, [r3]
 1112 0212 1800     		movs	r0, r3
 1113 0214 FFF7FEFF 		bl	__aeabi_ui2d
 1114 0218 0500     		movs	r5, r0
 1115 021a 0E00     		movs	r6, r1
 1116 021c FB1D     		adds	r3, r7, #7
 1117 021e 1A78     		ldrb	r2, [r3]
 1118 0220 4B49     		ldr	r1, .L26+4
 1119 0222 1300     		movs	r3, r2
 1120 0224 DB00     		lsls	r3, r3, #3
 1121 0226 9B18     		adds	r3, r3, r2
 1122 0228 DB00     		lsls	r3, r3, #3
 1123 022a CB18     		adds	r3, r1, r3
 1124 022c 1E33     		adds	r3, r3, #30
 1125 022e 1B88     		ldrh	r3, [r3]
 1126 0230 1800     		movs	r0, r3
 1127 0232 FFF7FEFF 		bl	__aeabi_i2d
 1128 0236 0022     		movs	r2, #0
 1129 0238 464B     		ldr	r3, .L26+8
 1130 023a FFF7FEFF 		bl	__aeabi_ddiv
 1131 023e 0200     		movs	r2, r0
 1132 0240 0B00     		movs	r3, r1
 1133 0242 2800     		movs	r0, r5
 1134 0244 3100     		movs	r1, r6
 1135 0246 FFF7FEFF 		bl	__aeabi_dmul
 1136 024a 0200     		movs	r2, r0
 1137 024c 0B00     		movs	r3, r1
 1138 024e 1000     		movs	r0, r2
 1139 0250 1900     		movs	r1, r3
 1140 0252 FFF7FEFF 		bl	__aeabi_d2f
 1141 0256 011C     		adds	r1, r0, #0
 1142 0258 3D4A     		ldr	r2, .L26+4
 1143 025a 2300     		movs	r3, r4
 1144 025c DB00     		lsls	r3, r3, #3
 1145 025e 1B19     		adds	r3, r3, r4
 1146 0260 DB00     		lsls	r3, r3, #3
 1147 0262 D318     		adds	r3, r2, r3
 1148 0264 2033     		adds	r3, r3, #32
 1149 0266 1960     		str	r1, [r3]
 307:runtime.c     ****     sensor_status[ch].alarm2fval =  sensor_status[ch].fullScaleRange * (sensor_status[ch].alarm2val
 1150              		.loc 1 307 0
 1151 0268 FB1D     		adds	r3, r7, #7
 1152 026a 1C78     		ldrb	r4, [r3]
 1153 026c FB1D     		adds	r3, r7, #7
 1154 026e 1A78     		ldrb	r2, [r3]
 1155 0270 3749     		ldr	r1, .L26+4
 1156 0272 1300     		movs	r3, r2
 1157 0274 DB00     		lsls	r3, r3, #3
 1158 0276 9B18     		adds	r3, r3, r2
ARM GAS  C:\Users\alexport\AppData\Local\Temp\cc5NLpBH.s 			page 27


 1159 0278 DB00     		lsls	r3, r3, #3
 1160 027a CB18     		adds	r3, r1, r3
 1161 027c 0433     		adds	r3, r3, #4
 1162 027e 1B68     		ldr	r3, [r3]
 1163 0280 1800     		movs	r0, r3
 1164 0282 FFF7FEFF 		bl	__aeabi_ui2d
 1165 0286 0500     		movs	r5, r0
 1166 0288 0E00     		movs	r6, r1
 1167 028a FB1D     		adds	r3, r7, #7
 1168 028c 1A78     		ldrb	r2, [r3]
 1169 028e 3049     		ldr	r1, .L26+4
 1170 0290 1300     		movs	r3, r2
 1171 0292 DB00     		lsls	r3, r3, #3
 1172 0294 9B18     		adds	r3, r3, r2
 1173 0296 DB00     		lsls	r3, r3, #3
 1174 0298 CB18     		adds	r3, r1, r3
 1175 029a 2833     		adds	r3, r3, #40
 1176 029c 1B88     		ldrh	r3, [r3]
 1177 029e 1800     		movs	r0, r3
 1178 02a0 FFF7FEFF 		bl	__aeabi_i2d
 1179 02a4 0022     		movs	r2, #0
 1180 02a6 2B4B     		ldr	r3, .L26+8
 1181 02a8 FFF7FEFF 		bl	__aeabi_ddiv
 1182 02ac 0200     		movs	r2, r0
 1183 02ae 0B00     		movs	r3, r1
 1184 02b0 2800     		movs	r0, r5
 1185 02b2 3100     		movs	r1, r6
 1186 02b4 FFF7FEFF 		bl	__aeabi_dmul
 1187 02b8 0200     		movs	r2, r0
 1188 02ba 0B00     		movs	r3, r1
 1189 02bc 1000     		movs	r0, r2
 1190 02be 1900     		movs	r1, r3
 1191 02c0 FFF7FEFF 		bl	__aeabi_d2f
 1192 02c4 011C     		adds	r1, r0, #0
 1193 02c6 224A     		ldr	r2, .L26+4
 1194 02c8 2300     		movs	r3, r4
 1195 02ca DB00     		lsls	r3, r3, #3
 1196 02cc 1B19     		adds	r3, r3, r4
 1197 02ce DB00     		lsls	r3, r3, #3
 1198 02d0 D318     		adds	r3, r2, r3
 1199 02d2 2C33     		adds	r3, r3, #44
 1200 02d4 1960     		str	r1, [r3]
 308:runtime.c     ****     sensor_status[ch].alarm3fval =  sensor_status[ch].fullScaleRange * (sensor_status[ch].alarm3val
 1201              		.loc 1 308 0
 1202 02d6 FB1D     		adds	r3, r7, #7
 1203 02d8 1C78     		ldrb	r4, [r3]
 1204 02da FB1D     		adds	r3, r7, #7
 1205 02dc 1A78     		ldrb	r2, [r3]
 1206 02de 1C49     		ldr	r1, .L26+4
 1207 02e0 1300     		movs	r3, r2
 1208 02e2 DB00     		lsls	r3, r3, #3
 1209 02e4 9B18     		adds	r3, r3, r2
 1210 02e6 DB00     		lsls	r3, r3, #3
 1211 02e8 CB18     		adds	r3, r1, r3
 1212 02ea 0433     		adds	r3, r3, #4
 1213 02ec 1B68     		ldr	r3, [r3]
 1214 02ee 1800     		movs	r0, r3
ARM GAS  C:\Users\alexport\AppData\Local\Temp\cc5NLpBH.s 			page 28


 1215 02f0 FFF7FEFF 		bl	__aeabi_ui2d
 1216 02f4 0500     		movs	r5, r0
 1217 02f6 0E00     		movs	r6, r1
 1218 02f8 FB1D     		adds	r3, r7, #7
 1219 02fa 1A78     		ldrb	r2, [r3]
 1220 02fc 1449     		ldr	r1, .L26+4
 1221 02fe 1300     		movs	r3, r2
 1222 0300 DB00     		lsls	r3, r3, #3
 1223 0302 9B18     		adds	r3, r3, r2
 1224 0304 DB00     		lsls	r3, r3, #3
 1225 0306 CB18     		adds	r3, r1, r3
 1226 0308 3433     		adds	r3, r3, #52
 1227 030a 1B88     		ldrh	r3, [r3]
 1228 030c 1800     		movs	r0, r3
 1229 030e FFF7FEFF 		bl	__aeabi_i2d
 1230 0312 0022     		movs	r2, #0
 1231 0314 0F4B     		ldr	r3, .L26+8
 1232 0316 FFF7FEFF 		bl	__aeabi_ddiv
 1233 031a 0200     		movs	r2, r0
 1234 031c 0B00     		movs	r3, r1
 1235 031e 2800     		movs	r0, r5
 1236 0320 3100     		movs	r1, r6
 1237 0322 FFF7FEFF 		bl	__aeabi_dmul
 1238 0326 0200     		movs	r2, r0
 1239 0328 0B00     		movs	r3, r1
 1240 032a 1000     		movs	r0, r2
 1241 032c 1900     		movs	r1, r3
 1242 032e FFF7FEFF 		bl	__aeabi_d2f
 1243 0332 011C     		adds	r1, r0, #0
 1244 0334 064A     		ldr	r2, .L26+4
 1245 0336 2300     		movs	r3, r4
 1246 0338 DB00     		lsls	r3, r3, #3
 1247 033a 1B19     		adds	r3, r3, r4
 1248 033c DB00     		lsls	r3, r3, #3
 1249 033e D318     		adds	r3, r2, r3
 1250 0340 3833     		adds	r3, r3, #56
 1251 0342 1960     		str	r1, [r3]
 309:runtime.c     **** }
 1252              		.loc 1 309 0
 1253 0344 C046     		nop
 1254 0346 BD46     		mov	sp, r7
 1255 0348 03B0     		add	sp, sp, #12
 1256              		@ sp needed
 1257 034a F0BD     		pop	{r4, r5, r6, r7, pc}
 1258              	.L27:
 1259              		.align	2
 1260              	.L26:
 1261 034c 00000000 		.word	sensor
 1262 0350 00000000 		.word	sensor_status
 1263 0354 0088C340 		.word	1086556160
 1264              		.cfi_endproc
 1265              	.LFE38:
 1266              		.size	RecalculateAlarms, .-RecalculateAlarms
 1267              		.global	__aeabi_ui2f
 1268              		.global	__aeabi_f2iz
 1269              		.section	.text.LoadSensorInfo,"ax",%progbits
 1270              		.align	2
ARM GAS  C:\Users\alexport\AppData\Local\Temp\cc5NLpBH.s 			page 29


 1271              		.global	LoadSensorInfo
 1272              		.code	16
 1273              		.thumb_func
 1274              		.type	LoadSensorInfo, %function
 1275              	LoadSensorInfo:
 1276              	.LFB39:
 310:runtime.c     **** 
 311:runtime.c     **** //uint8_t EEPROM_GetMyAddress(void){
 312:runtime.c     **** //    uint8_t myaddr;
 313:runtime.c     **** //    myaddr =  i2c_Read_8(EEPROM_I2C_ADDRESS,EEPROM_MY_ADDRESS_REG );
 314:runtime.c     **** //    CyDelay(50);
 315:runtime.c     **** //    if(myaddr==0xFF)
 316:runtime.c     **** //        myaddr = MODBUS_MY_DEFAULT_ADDRESS;
 317:runtime.c     **** //    return myaddr;
 318:runtime.c     **** //}
 319:runtime.c     **** //
 320:runtime.c     **** //void EEPROM_SetMyAddress(uint8_t addr){
 321:runtime.c     **** //    i2c_write_8(EEPROM_I2C_ADDRESS,EEPROM_MY_ADDRESS_REG,addr);
 322:runtime.c     **** //    CyDelay(100);
 323:runtime.c     **** //}
 324:runtime.c     **** //
 325:runtime.c     **** //uint16_t EEPROM_GetI2CPeriod(void){
 326:runtime.c     **** //    uint16_t i2c_period;
 327:runtime.c     **** //    i2c_period =  (i2c_Read_8(EEPROM_I2C_ADDRESS,EEPROM_I2C_PERIOD_MSB_REG ))<<8;
 328:runtime.c     **** //    CyDelay(50);
 329:runtime.c     **** //    i2c_period +=  i2c_Read_8(EEPROM_I2C_ADDRESS,EEPROM_I2C_PERIOD_LSB_REG );
 330:runtime.c     **** //    CyDelay(50);
 331:runtime.c     **** //    if((i2c_period==0xFFFF)||((i2c_period<MINIMAL_DEFAULT_I2C_PERIOD)))
 332:runtime.c     **** //        i2c_period = MINIMAL_DEFAULT_I2C_PERIOD;
 333:runtime.c     **** //    return i2c_period;
 334:runtime.c     **** //}
 335:runtime.c     **** //
 336:runtime.c     **** //void EEPROM_SetI2CPeriod(uint16_t period){
 337:runtime.c     **** //    i2c_write_8(EEPROM_I2C_ADDRESS,EEPROM_I2C_PERIOD_MSB_REG,(period>>8)&0xFF);
 338:runtime.c     **** //    CyDelay(100);
 339:runtime.c     **** //    i2c_write_8(EEPROM_I2C_ADDRESS,EEPROM_I2C_PERIOD_LSB_REG, period & 0xFF );
 340:runtime.c     **** //    CyDelay(100);
 341:runtime.c     **** //}
 342:runtime.c     **** //
 343:runtime.c     **** //
 344:runtime.c     **** //uint16_t EEPROM_GetSleepPeriod(void){
 345:runtime.c     **** //    uint16_t sleep_period;
 346:runtime.c     **** //    sleep_period =  (i2c_Read_8(EEPROM_I2C_ADDRESS,EEPROM_SLEEP_PERIOD_MSB_REG ))<<8;
 347:runtime.c     **** //    CyDelay(50);
 348:runtime.c     **** //    sleep_period +=  i2c_Read_8(EEPROM_I2C_ADDRESS,EEPROM_SLEEP_PERIOD_LSB_REG );
 349:runtime.c     **** //    CyDelay(50);
 350:runtime.c     **** //    if(sleep_period==0xFFFF)
 351:runtime.c     **** //        sleep_period = DEFAULT_SLEEP_PERIOD;
 352:runtime.c     **** //    return sleep_period;
 353:runtime.c     **** //}
 354:runtime.c     **** //
 355:runtime.c     **** //void EEPROM_SetSleepPeriod(uint16_t period){
 356:runtime.c     **** //    i2c_write_8(EEPROM_I2C_ADDRESS,EEPROM_SLEEP_PERIOD_MSB_REG,(period>>8)&0xFF);
 357:runtime.c     **** //    CyDelay(100);
 358:runtime.c     **** //    i2c_write_8(EEPROM_I2C_ADDRESS,EEPROM_SLEEP_PERIOD_LSB_REG, period & 0xFF );
 359:runtime.c     **** //    CyDelay(100);
 360:runtime.c     **** //    
ARM GAS  C:\Users\alexport\AppData\Local\Temp\cc5NLpBH.s 			page 30


 361:runtime.c     **** //}
 362:runtime.c     **** //
 363:runtime.c     **** //uint8_t EEPROM_GetCh2Activity(void){
 364:runtime.c     **** //    uint16_t ch2Active;
 365:runtime.c     **** //    ch2Active =  i2c_Read_8(EEPROM_I2C_ADDRESS,EEPROM_CH2_ACTIVE_REG );
 366:runtime.c     **** //    CyDelay(50);
 367:runtime.c     **** //    if(ch2Active==0xFF)
 368:runtime.c     **** //        ch2Active = CHANNEL2_ACTIVE_DEFAULT;
 369:runtime.c     **** //    return ch2Active;
 370:runtime.c     **** //
 371:runtime.c     **** //}
 372:runtime.c     **** //
 373:runtime.c     **** //void EEPROM_SetCh2Activity(uint8_t active){
 374:runtime.c     **** //    i2c_write_8(EEPROM_I2C_ADDRESS,EEPROM_CH2_ACTIVE_REG,active);
 375:runtime.c     **** //    CyDelay(50);
 376:runtime.c     **** //    
 377:runtime.c     **** //}
 378:runtime.c     **** //
 379:runtime.c     **** //uint8_t EEPROM_GetRelaySetting(uint8_t reg){
 380:runtime.c     **** //    uint16_t ch2Active;
 381:runtime.c     **** //    ch2Active =  i2c_Read_8(EEPROM_I2C_ADDRESS,reg );
 382:runtime.c     **** //    CyDelay(50);
 383:runtime.c     **** //    if(ch2Active==0xFF)
 384:runtime.c     **** //        ch2Active = 0;
 385:runtime.c     **** //    return ch2Active;
 386:runtime.c     **** //}
 387:runtime.c     **** //
 388:runtime.c     **** //void EEPROM_SetRelaySetting(uint8_t reg ,uint8_t val ){
 389:runtime.c     **** //    i2c_write_8(EEPROM_I2C_ADDRESS,reg,val);
 390:runtime.c     **** //    CyDelay(50);
 391:runtime.c     **** //}
 392:runtime.c     **** 
 393:runtime.c     **** 
 394:runtime.c     **** 
 395:runtime.c     **** 
 396:runtime.c     **** int32_t LoadSensorInfo(uint8_t ch){
 1277              		.loc 1 396 0
 1278              		.cfi_startproc
 1279              		@ args = 0, pretend = 0, frame = 24
 1280              		@ frame_needed = 1, uses_anonymous_args = 0
 1281 0000 B0B5     		push	{r4, r5, r7, lr}
 1282              		.cfi_def_cfa_offset 16
 1283              		.cfi_offset 4, -16
 1284              		.cfi_offset 5, -12
 1285              		.cfi_offset 7, -8
 1286              		.cfi_offset 14, -4
 1287 0002 86B0     		sub	sp, sp, #24
 1288              		.cfi_def_cfa_offset 40
 1289 0004 00AF     		add	r7, sp, #0
 1290              		.cfi_def_cfa_register 7
 1291 0006 0200     		movs	r2, r0
 1292 0008 FB1D     		adds	r3, r7, #7
 1293 000a 1A70     		strb	r2, [r3]
 397:runtime.c     ****     uint32_t status;
 398:runtime.c     ****    uint8_t tmp[4], tmp2[4];
 399:runtime.c     ****     float f;
 400:runtime.c     ****     static uint8_t prev_state[2];
ARM GAS  C:\Users\alexport\AppData\Local\Temp\cc5NLpBH.s 			page 31


 401:runtime.c     ****     static uint8_t wait[2];
 402:runtime.c     ****     
 403:runtime.c     **** 
 404:runtime.c     ****     sensor[ch][STATUSLSB]=POLL_SENSOR_STATUS_OK;
 1294              		.loc 1 404 0
 1295 000c FB1D     		adds	r3, r7, #7
 1296 000e 1A78     		ldrb	r2, [r3]
 1297 0010 B049     		ldr	r1, .L38
 1298 0012 1300     		movs	r3, r2
 1299 0014 1B01     		lsls	r3, r3, #4
 1300 0016 9B1A     		subs	r3, r3, r2
 1301 0018 DB00     		lsls	r3, r3, #3
 1302 001a CB18     		adds	r3, r1, r3
 1303 001c 0933     		adds	r3, r3, #9
 1304 001e 0022     		movs	r2, #0
 1305 0020 1A70     		strb	r2, [r3]
 405:runtime.c     ****     SelectChannel(ch);
 1306              		.loc 1 405 0
 1307 0022 FB1D     		adds	r3, r7, #7
 1308 0024 1B78     		ldrb	r3, [r3]
 1309 0026 1800     		movs	r0, r3
 1310 0028 FFF7FEFF 		bl	SelectChannel
 406:runtime.c     ****     status = i2c_status(I2C_SENSOR_SLAVE_ADDR);
 1311              		.loc 1 406 0
 1312 002c 6120     		movs	r0, #97
 1313 002e FFF7FEFF 		bl	i2c_status
 1314 0032 0300     		movs	r3, r0
 1315 0034 7B61     		str	r3, [r7, #20]
 407:runtime.c     ****     //memset(sensor, 0 , sizeof(sensor));    
 408:runtime.c     ****     if(status !=I2C_I2C_MSTR_NO_ERROR){
 1316              		.loc 1 408 0
 1317 0036 7B69     		ldr	r3, [r7, #20]
 1318 0038 002B     		cmp	r3, #0
 1319 003a 26D0     		beq	.L29
 409:runtime.c     ****         sensor[ch][STATUSLSB]=POLL_SENSOR_STATUS_ABSENT;
 1320              		.loc 1 409 0
 1321 003c FB1D     		adds	r3, r7, #7
 1322 003e 1A78     		ldrb	r2, [r3]
 1323 0040 A449     		ldr	r1, .L38
 1324 0042 1300     		movs	r3, r2
 1325 0044 1B01     		lsls	r3, r3, #4
 1326 0046 9B1A     		subs	r3, r3, r2
 1327 0048 DB00     		lsls	r3, r3, #3
 1328 004a CB18     		adds	r3, r1, r3
 1329 004c 0933     		adds	r3, r3, #9
 1330 004e 0822     		movs	r2, #8
 1331 0050 1A70     		strb	r2, [r3]
 410:runtime.c     ****         prev_state[ch]=POLL_SENSOR_STATUS_ABSENT;
 1332              		.loc 1 410 0
 1333 0052 FB1D     		adds	r3, r7, #7
 1334 0054 1B78     		ldrb	r3, [r3]
 1335 0056 A04A     		ldr	r2, .L38+4
 1336 0058 0821     		movs	r1, #8
 1337 005a D154     		strb	r1, [r2, r3]
 411:runtime.c     ****         wait[ch]=0;
 1338              		.loc 1 411 0
 1339 005c FB1D     		adds	r3, r7, #7
ARM GAS  C:\Users\alexport\AppData\Local\Temp\cc5NLpBH.s 			page 32


 1340 005e 1B78     		ldrb	r3, [r3]
 1341 0060 9E4A     		ldr	r2, .L38+8
 1342 0062 0021     		movs	r1, #0
 1343 0064 D154     		strb	r1, [r2, r3]
 412:runtime.c     ****         status = i2c_status(I2C_RTC_SLAVE_ADDR);
 1344              		.loc 1 412 0
 1345 0066 6820     		movs	r0, #104
 1346 0068 FFF7FEFF 		bl	i2c_status
 1347 006c 0300     		movs	r3, r0
 1348 006e 7B61     		str	r3, [r7, #20]
 413:runtime.c     ****             if(status !=I2C_I2C_MSTR_NO_ERROR){
 1349              		.loc 1 413 0
 1350 0070 7B69     		ldr	r3, [r7, #20]
 1351 0072 002B     		cmp	r3, #0
 1352 0074 01D0     		beq	.L30
 414:runtime.c     ****                 // If other memer doesnt respond
 415:runtime.c     ****                 // Reset I2C peripheral . It helps to recover I2C bus
 416:runtime.c     ****                 I2C_Recover();
 1353              		.loc 1 416 0
 1354 0076 FFF7FEFF 		bl	I2C_Recover
 1355              	.L30:
 417:runtime.c     ****             }
 418:runtime.c     ****         Set_Output_mA(ch,0);     
 1356              		.loc 1 418 0
 1357 007a 0022     		movs	r2, #0
 1358 007c FB1D     		adds	r3, r7, #7
 1359 007e 1B78     		ldrb	r3, [r3]
 1360 0080 111C     		adds	r1, r2, #0
 1361 0082 1800     		movs	r0, r3
 1362 0084 FFF7FEFF 		bl	Set_Output_mA
 1363 0088 1FE1     		b	.L31
 1364              	.L29:
 419:runtime.c     ****     }
 420:runtime.c     ****     else{
 421:runtime.c     ****         sensor[ch][STATUSLSB]=POLL_SENSOR_STATUS_OK;
 1365              		.loc 1 421 0
 1366 008a FB1D     		adds	r3, r7, #7
 1367 008c 1A78     		ldrb	r2, [r3]
 1368 008e 9149     		ldr	r1, .L38
 1369 0090 1300     		movs	r3, r2
 1370 0092 1B01     		lsls	r3, r3, #4
 1371 0094 9B1A     		subs	r3, r3, r2
 1372 0096 DB00     		lsls	r3, r3, #3
 1373 0098 CB18     		adds	r3, r1, r3
 1374 009a 0933     		adds	r3, r3, #9
 1375 009c 0022     		movs	r2, #0
 1376 009e 1A70     		strb	r2, [r3]
 422:runtime.c     ****         
 423:runtime.c     ****         
 424:runtime.c     ****         tmp[3]=sensor[ch][SYSREADING1];
 1377              		.loc 1 424 0
 1378 00a0 FB1D     		adds	r3, r7, #7
 1379 00a2 1A78     		ldrb	r2, [r3]
 1380 00a4 8B49     		ldr	r1, .L38
 1381 00a6 1300     		movs	r3, r2
 1382 00a8 1B01     		lsls	r3, r3, #4
 1383 00aa 9B1A     		subs	r3, r3, r2
ARM GAS  C:\Users\alexport\AppData\Local\Temp\cc5NLpBH.s 			page 33


 1384 00ac DB00     		lsls	r3, r3, #3
 1385 00ae CB18     		adds	r3, r1, r3
 1386 00b0 0433     		adds	r3, r3, #4
 1387 00b2 1A78     		ldrb	r2, [r3]
 1388 00b4 1023     		movs	r3, #16
 1389 00b6 FB18     		adds	r3, r7, r3
 1390 00b8 DA70     		strb	r2, [r3, #3]
 425:runtime.c     ****         tmp[2]=sensor[ch][SYSREADING2];
 1391              		.loc 1 425 0
 1392 00ba FB1D     		adds	r3, r7, #7
 1393 00bc 1A78     		ldrb	r2, [r3]
 1394 00be 8549     		ldr	r1, .L38
 1395 00c0 1300     		movs	r3, r2
 1396 00c2 1B01     		lsls	r3, r3, #4
 1397 00c4 9B1A     		subs	r3, r3, r2
 1398 00c6 DB00     		lsls	r3, r3, #3
 1399 00c8 CB18     		adds	r3, r1, r3
 1400 00ca 0533     		adds	r3, r3, #5
 1401 00cc 1A78     		ldrb	r2, [r3]
 1402 00ce 1023     		movs	r3, #16
 1403 00d0 FB18     		adds	r3, r7, r3
 1404 00d2 9A70     		strb	r2, [r3, #2]
 426:runtime.c     ****         tmp[1]=sensor[ch][SYSREADING3];
 1405              		.loc 1 426 0
 1406 00d4 FB1D     		adds	r3, r7, #7
 1407 00d6 1A78     		ldrb	r2, [r3]
 1408 00d8 7E49     		ldr	r1, .L38
 1409 00da 1300     		movs	r3, r2
 1410 00dc 1B01     		lsls	r3, r3, #4
 1411 00de 9B1A     		subs	r3, r3, r2
 1412 00e0 DB00     		lsls	r3, r3, #3
 1413 00e2 CB18     		adds	r3, r1, r3
 1414 00e4 0633     		adds	r3, r3, #6
 1415 00e6 1A78     		ldrb	r2, [r3]
 1416 00e8 1023     		movs	r3, #16
 1417 00ea FB18     		adds	r3, r7, r3
 1418 00ec 5A70     		strb	r2, [r3, #1]
 427:runtime.c     ****         tmp[0]=sensor[ch][SYSREADING4];
 1419              		.loc 1 427 0
 1420 00ee FB1D     		adds	r3, r7, #7
 1421 00f0 1A78     		ldrb	r2, [r3]
 1422 00f2 7849     		ldr	r1, .L38
 1423 00f4 1300     		movs	r3, r2
 1424 00f6 1B01     		lsls	r3, r3, #4
 1425 00f8 9B1A     		subs	r3, r3, r2
 1426 00fa DB00     		lsls	r3, r3, #3
 1427 00fc CB18     		adds	r3, r1, r3
 1428 00fe 0733     		adds	r3, r3, #7
 1429 0100 1A78     		ldrb	r2, [r3]
 1430 0102 1023     		movs	r3, #16
 1431 0104 FB18     		adds	r3, r7, r3
 1432 0106 1A70     		strb	r2, [r3]
 428:runtime.c     ****             
 429:runtime.c     ****         memcpy( &f, tmp,4);
 1433              		.loc 1 429 0
 1434 0108 1023     		movs	r3, #16
 1435 010a F918     		adds	r1, r7, r3
ARM GAS  C:\Users\alexport\AppData\Local\Temp\cc5NLpBH.s 			page 34


 1436 010c 0823     		movs	r3, #8
 1437 010e FB18     		adds	r3, r7, r3
 1438 0110 0422     		movs	r2, #4
 1439 0112 1800     		movs	r0, r3
 1440 0114 FFF7FEFF 		bl	memcpy
 430:runtime.c     ****         
 431:runtime.c     ****                 
 432:runtime.c     ****         // Here we get all sensor data
 433:runtime.c     ****         slave_ReadDataRaw(0, (DATA_LENGTH-4) ,&sensor[ch][SYSREADING1] );
 1441              		.loc 1 433 0
 1442 0118 FB1D     		adds	r3, r7, #7
 1443 011a 1A78     		ldrb	r2, [r3]
 1444 011c 1300     		movs	r3, r2
 1445 011e 1B01     		lsls	r3, r3, #4
 1446 0120 9B1A     		subs	r3, r3, r2
 1447 0122 DB00     		lsls	r3, r3, #3
 1448 0124 1A1D     		adds	r2, r3, #4
 1449 0126 6B4B     		ldr	r3, .L38
 1450 0128 D318     		adds	r3, r2, r3
 1451 012a 1A00     		movs	r2, r3
 1452 012c 7421     		movs	r1, #116
 1453 012e 0020     		movs	r0, #0
 1454 0130 FFF7FEFF 		bl	slave_ReadDataRaw
 434:runtime.c     ****         sensor_status[ch].fullScaleRange =   (uint32_t)(sensor[ch][FULLSCALERANGE1]<<24)|
 1455              		.loc 1 434 0
 1456 0134 FB1D     		adds	r3, r7, #7
 1457 0136 1A78     		ldrb	r2, [r3]
 1458 0138 FB1D     		adds	r3, r7, #7
 1459 013a 1978     		ldrb	r1, [r3]
 1460 013c 6548     		ldr	r0, .L38
 1461 013e 2E24     		movs	r4, #46
 1462 0140 0B00     		movs	r3, r1
 1463 0142 1B01     		lsls	r3, r3, #4
 1464 0144 5B1A     		subs	r3, r3, r1
 1465 0146 DB00     		lsls	r3, r3, #3
 1466 0148 C318     		adds	r3, r0, r3
 1467 014a 1B19     		adds	r3, r3, r4
 1468 014c 1B78     		ldrb	r3, [r3]
 1469 014e 1B06     		lsls	r3, r3, #24
 1470 0150 1D00     		movs	r5, r3
 435:runtime.c     ****                                             (uint32_t)(sensor[ch][FULLSCALERANGE2]<<16)|
 1471              		.loc 1 435 0
 1472 0152 FB1D     		adds	r3, r7, #7
 1473 0154 1978     		ldrb	r1, [r3]
 1474 0156 5F48     		ldr	r0, .L38
 1475 0158 2F24     		movs	r4, #47
 1476 015a 0B00     		movs	r3, r1
 1477 015c 1B01     		lsls	r3, r3, #4
 1478 015e 5B1A     		subs	r3, r3, r1
 1479 0160 DB00     		lsls	r3, r3, #3
 1480 0162 C318     		adds	r3, r0, r3
 1481 0164 1B19     		adds	r3, r3, r4
 1482 0166 1B78     		ldrb	r3, [r3]
 1483 0168 1B04     		lsls	r3, r3, #16
 434:runtime.c     ****         sensor_status[ch].fullScaleRange =   (uint32_t)(sensor[ch][FULLSCALERANGE1]<<24)|
 1484              		.loc 1 434 0
 1485 016a 2800     		movs	r0, r5
ARM GAS  C:\Users\alexport\AppData\Local\Temp\cc5NLpBH.s 			page 35


 1486 016c 1843     		orrs	r0, r3
 436:runtime.c     ****                                             (uint32_t)(sensor[ch][FULLSCALERANGE3]<<8)|
 1487              		.loc 1 436 0
 1488 016e FB1D     		adds	r3, r7, #7
 1489 0170 1978     		ldrb	r1, [r3]
 1490 0172 584C     		ldr	r4, .L38
 1491 0174 3025     		movs	r5, #48
 1492 0176 0B00     		movs	r3, r1
 1493 0178 1B01     		lsls	r3, r3, #4
 1494 017a 5B1A     		subs	r3, r3, r1
 1495 017c DB00     		lsls	r3, r3, #3
 1496 017e E318     		adds	r3, r4, r3
 1497 0180 5B19     		adds	r3, r3, r5
 1498 0182 1B78     		ldrb	r3, [r3]
 1499 0184 1B02     		lsls	r3, r3, #8
 435:runtime.c     ****                                             (uint32_t)(sensor[ch][FULLSCALERANGE2]<<16)|
 1500              		.loc 1 435 0
 1501 0186 1843     		orrs	r0, r3
 437:runtime.c     ****                                             (uint32_t)sensor[ch][FULLSCALERANGE4];
 1502              		.loc 1 437 0
 1503 0188 FB1D     		adds	r3, r7, #7
 1504 018a 1978     		ldrb	r1, [r3]
 1505 018c 514C     		ldr	r4, .L38
 1506 018e 3125     		movs	r5, #49
 1507 0190 0B00     		movs	r3, r1
 1508 0192 1B01     		lsls	r3, r3, #4
 1509 0194 5B1A     		subs	r3, r3, r1
 1510 0196 DB00     		lsls	r3, r3, #3
 1511 0198 E318     		adds	r3, r4, r3
 1512 019a 5B19     		adds	r3, r3, r5
 1513 019c 1B78     		ldrb	r3, [r3]
 436:runtime.c     ****                                             (uint32_t)(sensor[ch][FULLSCALERANGE3]<<8)|
 1514              		.loc 1 436 0
 1515 019e 0100     		movs	r1, r0
 1516 01a0 1943     		orrs	r1, r3
 434:runtime.c     ****                                             (uint32_t)(sensor[ch][FULLSCALERANGE2]<<16)|
 1517              		.loc 1 434 0
 1518 01a2 4F48     		ldr	r0, .L38+12
 1519 01a4 1300     		movs	r3, r2
 1520 01a6 DB00     		lsls	r3, r3, #3
 1521 01a8 9B18     		adds	r3, r3, r2
 1522 01aa DB00     		lsls	r3, r3, #3
 1523 01ac C318     		adds	r3, r0, r3
 1524 01ae 0433     		adds	r3, r3, #4
 1525 01b0 1960     		str	r1, [r3]
 438:runtime.c     ****         if(sensor[ch][STATUSLSB]==RUNTIME_SENSOR_IN_WARMUP)
 1526              		.loc 1 438 0
 1527 01b2 FB1D     		adds	r3, r7, #7
 1528 01b4 1A78     		ldrb	r2, [r3]
 1529 01b6 4749     		ldr	r1, .L38
 1530 01b8 1300     		movs	r3, r2
 1531 01ba 1B01     		lsls	r3, r3, #4
 1532 01bc 9B1A     		subs	r3, r3, r2
 1533 01be DB00     		lsls	r3, r3, #3
 1534 01c0 CB18     		adds	r3, r1, r3
 1535 01c2 0933     		adds	r3, r3, #9
 1536 01c4 1B78     		ldrb	r3, [r3]
ARM GAS  C:\Users\alexport\AppData\Local\Temp\cc5NLpBH.s 			page 36


 1537 01c6 402B     		cmp	r3, #64
 1538 01c8 08D1     		bne	.L32
 439:runtime.c     ****             Set_Output_mA(ch,4);
 1539              		.loc 1 439 0
 1540 01ca 8122     		movs	r2, #129
 1541 01cc D205     		lsls	r2, r2, #23
 1542 01ce FB1D     		adds	r3, r7, #7
 1543 01d0 1B78     		ldrb	r3, [r3]
 1544 01d2 111C     		adds	r1, r2, #0
 1545 01d4 1800     		movs	r0, r3
 1546 01d6 FFF7FEFF 		bl	Set_Output_mA
 1547 01da 3EE0     		b	.L33
 1548              	.L32:
 440:runtime.c     ****         else if(sensor[ch][STATUSLSB]==RUNTIME_SENSOR_IN_CALIBRATION){
 1549              		.loc 1 440 0
 1550 01dc FB1D     		adds	r3, r7, #7
 1551 01de 1A78     		ldrb	r2, [r3]
 1552 01e0 3C49     		ldr	r1, .L38
 1553 01e2 1300     		movs	r3, r2
 1554 01e4 1B01     		lsls	r3, r3, #4
 1555 01e6 9B1A     		subs	r3, r3, r2
 1556 01e8 DB00     		lsls	r3, r3, #3
 1557 01ea CB18     		adds	r3, r1, r3
 1558 01ec 0933     		adds	r3, r3, #9
 1559 01ee 1B78     		ldrb	r3, [r3]
 1560 01f0 202B     		cmp	r3, #32
 1561 01f2 08D1     		bne	.L34
 441:runtime.c     ****             Set_Output_mA(ch,2);
 1562              		.loc 1 441 0
 1563 01f4 8022     		movs	r2, #128
 1564 01f6 D205     		lsls	r2, r2, #23
 1565 01f8 FB1D     		adds	r3, r7, #7
 1566 01fa 1B78     		ldrb	r3, [r3]
 1567 01fc 111C     		adds	r1, r2, #0
 1568 01fe 1800     		movs	r0, r3
 1569 0200 FFF7FEFF 		bl	Set_Output_mA
 1570 0204 29E0     		b	.L33
 1571              	.L34:
 442:runtime.c     ****         }else if (sensor[ch][STATUSLSB]==RUNTIME_SENSOR_CAL_FAULT){
 1572              		.loc 1 442 0
 1573 0206 FB1D     		adds	r3, r7, #7
 1574 0208 1A78     		ldrb	r2, [r3]
 1575 020a 3249     		ldr	r1, .L38
 1576 020c 1300     		movs	r3, r2
 1577 020e 1B01     		lsls	r3, r3, #4
 1578 0210 9B1A     		subs	r3, r3, r2
 1579 0212 DB00     		lsls	r3, r3, #3
 1580 0214 CB18     		adds	r3, r1, r3
 1581 0216 0933     		adds	r3, r3, #9
 1582 0218 1B78     		ldrb	r3, [r3]
 1583 021a 022B     		cmp	r3, #2
 1584 021c 07D1     		bne	.L35
 443:runtime.c     ****             Set_Output_mA(ch, 0);        
 1585              		.loc 1 443 0
 1586 021e 0022     		movs	r2, #0
 1587 0220 FB1D     		adds	r3, r7, #7
 1588 0222 1B78     		ldrb	r3, [r3]
ARM GAS  C:\Users\alexport\AppData\Local\Temp\cc5NLpBH.s 			page 37


 1589 0224 111C     		adds	r1, r2, #0
 1590 0226 1800     		movs	r0, r3
 1591 0228 FFF7FEFF 		bl	Set_Output_mA
 1592 022c 15E0     		b	.L33
 1593              	.L35:
 444:runtime.c     ****         }
 445:runtime.c     ****         else{
 446:runtime.c     ****             UpdateCurrentLoopOutput(ch , f , 0 , sensor_status[ch].fullScaleRange);
 1594              		.loc 1 446 0
 1595 022e BC68     		ldr	r4, [r7, #8]
 1596 0230 FB1D     		adds	r3, r7, #7
 1597 0232 1A78     		ldrb	r2, [r3]
 1598 0234 2A49     		ldr	r1, .L38+12
 1599 0236 1300     		movs	r3, r2
 1600 0238 DB00     		lsls	r3, r3, #3
 1601 023a 9B18     		adds	r3, r3, r2
 1602 023c DB00     		lsls	r3, r3, #3
 1603 023e CB18     		adds	r3, r1, r3
 1604 0240 0433     		adds	r3, r3, #4
 1605 0242 1B68     		ldr	r3, [r3]
 1606 0244 1800     		movs	r0, r3
 1607 0246 FFF7FEFF 		bl	__aeabi_ui2f
 1608 024a 011C     		adds	r1, r0, #0
 1609 024c 0022     		movs	r2, #0
 1610 024e FB1D     		adds	r3, r7, #7
 1611 0250 1878     		ldrb	r0, [r3]
 1612 0252 0B1C     		adds	r3, r1, #0
 1613 0254 211C     		adds	r1, r4, #0
 1614 0256 FFF7FEFF 		bl	UpdateCurrentLoopOutput
 1615              	.L33:
 447:runtime.c     ****         }
 448:runtime.c     ****         
 449:runtime.c     ****         
 450:runtime.c     ****         // for old 
 451:runtime.c     ****         if(ch==0){
 1616              		.loc 1 451 0
 1617 025a FB1D     		adds	r3, r7, #7
 1618 025c 1B78     		ldrb	r3, [r3]
 1619 025e 002B     		cmp	r3, #0
 1620 0260 02D1     		bne	.L36
 452:runtime.c     ****             
 453:runtime.c     ****             memcpy(&rfReading ,&f, 4 );
 1621              		.loc 1 453 0
 1622 0262 BA68     		ldr	r2, [r7, #8]
 1623 0264 1F4B     		ldr	r3, .L38+16
 1624 0266 1A60     		str	r2, [r3]
 1625              	.L36:
 454:runtime.c     ****         }
 455:runtime.c     ****                 
 456:runtime.c     ****         iReading = (int16)f;
 1626              		.loc 1 456 0
 1627 0268 BB68     		ldr	r3, [r7, #8]
 1628 026a 181C     		adds	r0, r3, #0
 1629 026c FFF7FEFF 		bl	__aeabi_f2iz
 1630 0270 0300     		movs	r3, r0
 1631 0272 1AB2     		sxth	r2, r3
 1632 0274 1C4B     		ldr	r3, .L38+20
ARM GAS  C:\Users\alexport\AppData\Local\Temp\cc5NLpBH.s 			page 38


 1633 0276 1A80     		strh	r2, [r3]
 457:runtime.c     ****         // AS FOUND 
 458:runtime.c     ****         memcpy(&as_found, &sensor[0][SPANASFOUND1], 4);
 1634              		.loc 1 458 0
 1635 0278 1C49     		ldr	r1, .L38+24
 1636 027a 1D4B     		ldr	r3, .L38+28
 1637 027c 0422     		movs	r2, #4
 1638 027e 1800     		movs	r0, r3
 1639 0280 FFF7FEFF 		bl	memcpy
 459:runtime.c     ****         
 460:runtime.c     ****         if( prev_state[ch]==POLL_SENSOR_STATUS_ABSENT){
 1640              		.loc 1 460 0
 1641 0284 FB1D     		adds	r3, r7, #7
 1642 0286 1B78     		ldrb	r3, [r3]
 1643 0288 134A     		ldr	r2, .L38+4
 1644 028a D35C     		ldrb	r3, [r2, r3]
 1645 028c 082B     		cmp	r3, #8
 1646 028e 1CD1     		bne	.L31
 461:runtime.c     ****             wait[ch]++;
 1647              		.loc 1 461 0
 1648 0290 FB1D     		adds	r3, r7, #7
 1649 0292 1B78     		ldrb	r3, [r3]
 1650 0294 114A     		ldr	r2, .L38+8
 1651 0296 D25C     		ldrb	r2, [r2, r3]
 1652 0298 0132     		adds	r2, r2, #1
 1653 029a D1B2     		uxtb	r1, r2
 1654 029c 0F4A     		ldr	r2, .L38+8
 1655 029e D154     		strb	r1, [r2, r3]
 462:runtime.c     ****             if(wait[ch]>20){
 1656              		.loc 1 462 0
 1657 02a0 FB1D     		adds	r3, r7, #7
 1658 02a2 1B78     		ldrb	r3, [r3]
 1659 02a4 0D4A     		ldr	r2, .L38+8
 1660 02a6 D35C     		ldrb	r3, [r2, r3]
 1661 02a8 142B     		cmp	r3, #20
 1662 02aa 0ED9     		bls	.L31
 463:runtime.c     ****                 wait[ch]=0;
 1663              		.loc 1 463 0
 1664 02ac FB1D     		adds	r3, r7, #7
 1665 02ae 1B78     		ldrb	r3, [r3]
 1666 02b0 0A4A     		ldr	r2, .L38+8
 1667 02b2 0021     		movs	r1, #0
 1668 02b4 D154     		strb	r1, [r2, r3]
 464:runtime.c     ****                 prev_state[ch]=POLL_SENSOR_STATUS_OK;
 1669              		.loc 1 464 0
 1670 02b6 FB1D     		adds	r3, r7, #7
 1671 02b8 1B78     		ldrb	r3, [r3]
 1672 02ba 074A     		ldr	r2, .L38+4
 1673 02bc 0021     		movs	r1, #0
 1674 02be D154     		strb	r1, [r2, r3]
 465:runtime.c     ****                 
 466:runtime.c     **** //                char str[10];
 467:runtime.c     **** //                char units[5];
 468:runtime.c     **** //            
 469:runtime.c     **** //                memset(str , 0 , sizeof(str));
 470:runtime.c     **** //                remove_trailing_spaces(str, (char*) &sensor[ch][COMPAUND1]);
 471:runtime.c     **** //                if(ch==0)
ARM GAS  C:\Users\alexport\AppData\Local\Temp\cc5NLpBH.s 			page 39


 472:runtime.c     **** //                    Nextion_SetText(DISP_OBJ_GAS_TYPE1,str);
 473:runtime.c     **** //                else
 474:runtime.c     **** //                    Nextion_SetText(DISP_OBJ_GAS_TYPE2,str);
 475:runtime.c     **** //            
 476:runtime.c     **** //                memset(str , 0 , sizeof(str));
 477:runtime.c     **** //                strncpy(units, (char *)&sensor[ch][UNIT1], 4);
 478:runtime.c     **** //                units[4] = '\0';
 479:runtime.c     **** //                remove_leading_spaces((char *)units);
 480:runtime.c     **** //                remove_trailing_spaces(str, (char*) units);
 481:runtime.c     **** //            
 482:runtime.c     **** //                if(ch==0)
 483:runtime.c     **** //                    Nextion_SetText(DISP_OBJ_ENG_UNIT1,str);
 484:runtime.c     **** //                else
 485:runtime.c     **** //                    Nextion_SetText(DISP_OBJ_ENG_UNIT2,str);
 486:runtime.c     ****                     ReloadSensorGasType(ch);
 1675              		.loc 1 486 0
 1676 02c0 FB1D     		adds	r3, r7, #7
 1677 02c2 1B78     		ldrb	r3, [r3]
 1678 02c4 1800     		movs	r0, r3
 1679 02c6 FFF7FEFF 		bl	ReloadSensorGasType
 1680              	.L31:
 487:runtime.c     ****             }
 488:runtime.c     ****         }
 489:runtime.c     ****         
 490:runtime.c     ****             
 491:runtime.c     ****     }
 492:runtime.c     ****      
 493:runtime.c     ****     
 494:runtime.c     ****     
 495:runtime.c     ****     // SIMULATION
 496:runtime.c     **** //    static float sim,sim2;
 497:runtime.c     **** //    static int8_t dir, dir2;
 498:runtime.c     **** //    
 499:runtime.c     **** //    
 500:runtime.c     **** //    if(sim<15) dir=1;
 501:runtime.c     **** //    else if (sim>25) dir =0;
 502:runtime.c     **** //    
 503:runtime.c     **** //    if(sim2<0) dir2=1;
 504:runtime.c     **** //    else if (sim2>5) dir2 =0;
 505:runtime.c     **** //    
 506:runtime.c     **** //    if(dir)
 507:runtime.c     **** //        sim+=0.1;
 508:runtime.c     **** //    else
 509:runtime.c     **** //        sim-=0.1;
 510:runtime.c     **** //    
 511:runtime.c     **** //    if(dir2)
 512:runtime.c     **** //        sim2+=0.1;
 513:runtime.c     **** //    else
 514:runtime.c     **** //        sim2-=0.1;
 515:runtime.c     **** //    
 516:runtime.c     **** //    
 517:runtime.c     **** //    memcpy(tmp, &sim, sizeof(float));
 518:runtime.c     **** //    memcpy(tmp2, &sim2, sizeof(float));
 519:runtime.c     **** //    
 520:runtime.c     **** //    sensor[0][SYSREADING1]=tmp[3];
 521:runtime.c     **** //    sensor[0][SYSREADING2]=tmp[2];
 522:runtime.c     **** //    sensor[0][SYSREADING3]=tmp[1];
ARM GAS  C:\Users\alexport\AppData\Local\Temp\cc5NLpBH.s 			page 40


 523:runtime.c     **** //    sensor[0][SYSREADING4]=tmp[0];
 524:runtime.c     **** //        
 525:runtime.c     **** //    sensor[1][SYSREADING1]=tmp2[3];
 526:runtime.c     **** //    sensor[1][SYSREADING2]=tmp2[2];
 527:runtime.c     **** //    sensor[1][SYSREADING3]=tmp2[1];
 528:runtime.c     **** //    sensor[1][SYSREADING4]=tmp2[0];
 529:runtime.c     **** //    
 530:runtime.c     **** //    
 531:runtime.c     **** //    if((sensor[ch][STATUSLSB]!=RUNTIME_SENSOR_IN_CALIBRATION)&&
 532:runtime.c     **** //       (sensor[ch][STATUSLSB]!=RUNTIME_SENSOR_IN_WARMUP)&&
 533:runtime.c     **** //       (sensor[ch][STATUSLSB]!=RUNTIME_SENSOR_CAL_FAULT)&&
 534:runtime.c     **** //        (sensor[ch][STATUSLSB]!=POLL_SENSOR_STATUS_ABSENT)    
 535:runtime.c     **** //    ){
 536:runtime.c     **** //        UpdateCurrentLoopOutput(0 , sim, 0 , sensor_status[0].fullScaleRange);
 537:runtime.c     **** //        UpdateCurrentLoopOutput(1 , sim2, 0 , sensor_status[2].fullScaleRange);
 538:runtime.c     **** //    }
 539:runtime.c     **** //    
 540:runtime.c     **** //    if(sensor[ch][STATUSLSB]==POLL_SENSOR_STATUS_ABSENT)
 541:runtime.c     **** //        Set_Output_mA(ch,0);
 542:runtime.c     **** //    if(sensor[ch][STATUSLSB]==RUNTIME_SENSOR_IN_WARMUP)
 543:runtime.c     **** //        Set_Output_mA(ch,4);
 544:runtime.c     ****  // SIMULATION END       
 545:runtime.c     ****         
 546:runtime.c     ****     return status;
 1681              		.loc 1 546 0
 1682 02ca 7B69     		ldr	r3, [r7, #20]
 547:runtime.c     **** }
 1683              		.loc 1 547 0
 1684 02cc 1800     		movs	r0, r3
 1685 02ce BD46     		mov	sp, r7
 1686 02d0 06B0     		add	sp, sp, #24
 1687              		@ sp needed
 1688 02d2 B0BD     		pop	{r4, r5, r7, pc}
 1689              	.L39:
 1690              		.align	2
 1691              	.L38:
 1692 02d4 00000000 		.word	sensor
 1693 02d8 24000000 		.word	prev_state.10964
 1694 02dc 28000000 		.word	wait.10965
 1695 02e0 00000000 		.word	sensor_status
 1696 02e4 00000000 		.word	rfReading
 1697 02e8 00000000 		.word	iReading
 1698 02ec 22000000 		.word	sensor+34
 1699 02f0 00000000 		.word	as_found
 1700              		.cfi_endproc
 1701              	.LFE39:
 1702              		.size	LoadSensorInfo, .-LoadSensorInfo
 1703              		.section	.text.runtime_PollSensor,"ax",%progbits
 1704              		.align	2
 1705              		.global	runtime_PollSensor
 1706              		.code	16
 1707              		.thumb_func
 1708              		.type	runtime_PollSensor, %function
 1709              	runtime_PollSensor:
 1710              	.LFB40:
 548:runtime.c     **** 
 549:runtime.c     **** 
ARM GAS  C:\Users\alexport\AppData\Local\Temp\cc5NLpBH.s 			page 41


 550:runtime.c     **** void runtime_PollSensor(void){
 1711              		.loc 1 550 0
 1712              		.cfi_startproc
 1713              		@ args = 0, pretend = 0, frame = 0
 1714              		@ frame_needed = 1, uses_anonymous_args = 0
 1715 0000 80B5     		push	{r7, lr}
 1716              		.cfi_def_cfa_offset 8
 1717              		.cfi_offset 7, -8
 1718              		.cfi_offset 14, -4
 1719 0002 00AF     		add	r7, sp, #0
 1720              		.cfi_def_cfa_register 7
 551:runtime.c     ****     
 552:runtime.c     ****     //uint8 data = i2c_Read_8( I2C_SLAVE_ADDR,  I2C_SYS_READING_OFFSET );
 553:runtime.c     ****     slave_ReadDataRaw(0, 20 ,&sensor[0][SYSREADING1] );
 1721              		.loc 1 553 0
 1722 0004 044B     		ldr	r3, .L42
 1723 0006 1A00     		movs	r2, r3
 1724 0008 1421     		movs	r1, #20
 1725 000a 0020     		movs	r0, #0
 1726 000c FFF7FEFF 		bl	slave_ReadDataRaw
 554:runtime.c     ****     return;    
 1727              		.loc 1 554 0
 1728 0010 C046     		nop
 555:runtime.c     **** }
 1729              		.loc 1 555 0
 1730 0012 BD46     		mov	sp, r7
 1731              		@ sp needed
 1732 0014 80BD     		pop	{r7, pc}
 1733              	.L43:
 1734 0016 C046     		.align	2
 1735              	.L42:
 1736 0018 04000000 		.word	sensor+4
 1737              		.cfi_endproc
 1738              	.LFE40:
 1739              		.size	runtime_PollSensor, .-runtime_PollSensor
 1740              		.section	.text.runtime_CtrlSensor,"ax",%progbits
 1741              		.align	2
 1742              		.global	runtime_CtrlSensor
 1743              		.code	16
 1744              		.thumb_func
 1745              		.type	runtime_CtrlSensor, %function
 1746              	runtime_CtrlSensor:
 1747              	.LFB41:
 556:runtime.c     **** 
 557:runtime.c     **** void runtime_CtrlSensor(uint8_t ch , uint8_t reg, uint16 data){
 1748              		.loc 1 557 0
 1749              		.cfi_startproc
 1750              		@ args = 0, pretend = 0, frame = 8
 1751              		@ frame_needed = 1, uses_anonymous_args = 0
 1752 0000 90B5     		push	{r4, r7, lr}
 1753              		.cfi_def_cfa_offset 12
 1754              		.cfi_offset 4, -12
 1755              		.cfi_offset 7, -8
 1756              		.cfi_offset 14, -4
 1757 0002 83B0     		sub	sp, sp, #12
 1758              		.cfi_def_cfa_offset 24
 1759 0004 00AF     		add	r7, sp, #0
ARM GAS  C:\Users\alexport\AppData\Local\Temp\cc5NLpBH.s 			page 42


 1760              		.cfi_def_cfa_register 7
 1761 0006 0400     		movs	r4, r0
 1762 0008 0800     		movs	r0, r1
 1763 000a 1100     		movs	r1, r2
 1764 000c FB1D     		adds	r3, r7, #7
 1765 000e 221C     		adds	r2, r4, #0
 1766 0010 1A70     		strb	r2, [r3]
 1767 0012 BB1D     		adds	r3, r7, #6
 1768 0014 021C     		adds	r2, r0, #0
 1769 0016 1A70     		strb	r2, [r3]
 1770 0018 3B1D     		adds	r3, r7, #4
 1771 001a 0A1C     		adds	r2, r1, #0
 1772 001c 1A80     		strh	r2, [r3]
 558:runtime.c     ****     SelectChannel(ch);
 1773              		.loc 1 558 0
 1774 001e FB1D     		adds	r3, r7, #7
 1775 0020 1B78     		ldrb	r3, [r3]
 1776 0022 1800     		movs	r0, r3
 1777 0024 FFF7FEFF 		bl	SelectChannel
 559:runtime.c     ****     //CyDelay(50);
 560:runtime.c     ****     i2c_write_16(I2C_SENSOR_SLAVE_ADDR ,reg ,  data);
 1778              		.loc 1 560 0
 1779 0028 3B1D     		adds	r3, r7, #4
 1780 002a 1A88     		ldrh	r2, [r3]
 1781 002c BB1D     		adds	r3, r7, #6
 1782 002e 1B78     		ldrb	r3, [r3]
 1783 0030 1900     		movs	r1, r3
 1784 0032 6120     		movs	r0, #97
 1785 0034 FFF7FEFF 		bl	i2c_write_16
 561:runtime.c     ****     //CyDelay(50);
 562:runtime.c     ****     return;
 1786              		.loc 1 562 0
 1787 0038 C046     		nop
 563:runtime.c     **** }
 1788              		.loc 1 563 0
 1789 003a BD46     		mov	sp, r7
 1790 003c 03B0     		add	sp, sp, #12
 1791              		@ sp needed
 1792 003e 90BD     		pop	{r4, r7, pc}
 1793              		.cfi_endproc
 1794              	.LFE41:
 1795              		.size	runtime_CtrlSensor, .-runtime_CtrlSensor
 1796              		.section	.text.runtime_UpdateSensor,"ax",%progbits
 1797              		.align	2
 1798              		.global	runtime_UpdateSensor
 1799              		.code	16
 1800              		.thumb_func
 1801              		.type	runtime_UpdateSensor, %function
 1802              	runtime_UpdateSensor:
 1803              	.LFB42:
 564:runtime.c     **** 
 565:runtime.c     **** void runtime_UpdateSensor(uint8_t ch , uint8_t reg, uint16 data){
 1804              		.loc 1 565 0
 1805              		.cfi_startproc
 1806              		@ args = 0, pretend = 0, frame = 8
 1807              		@ frame_needed = 1, uses_anonymous_args = 0
 1808 0000 90B5     		push	{r4, r7, lr}
ARM GAS  C:\Users\alexport\AppData\Local\Temp\cc5NLpBH.s 			page 43


 1809              		.cfi_def_cfa_offset 12
 1810              		.cfi_offset 4, -12
 1811              		.cfi_offset 7, -8
 1812              		.cfi_offset 14, -4
 1813 0002 83B0     		sub	sp, sp, #12
 1814              		.cfi_def_cfa_offset 24
 1815 0004 00AF     		add	r7, sp, #0
 1816              		.cfi_def_cfa_register 7
 1817 0006 0400     		movs	r4, r0
 1818 0008 0800     		movs	r0, r1
 1819 000a 1100     		movs	r1, r2
 1820 000c FB1D     		adds	r3, r7, #7
 1821 000e 221C     		adds	r2, r4, #0
 1822 0010 1A70     		strb	r2, [r3]
 1823 0012 BB1D     		adds	r3, r7, #6
 1824 0014 021C     		adds	r2, r0, #0
 1825 0016 1A70     		strb	r2, [r3]
 1826 0018 3B1D     		adds	r3, r7, #4
 1827 001a 0A1C     		adds	r2, r1, #0
 1828 001c 1A80     		strh	r2, [r3]
 566:runtime.c     ****     SelectChannel(ch);
 1829              		.loc 1 566 0
 1830 001e FB1D     		adds	r3, r7, #7
 1831 0020 1B78     		ldrb	r3, [r3]
 1832 0022 1800     		movs	r0, r3
 1833 0024 FFF7FEFF 		bl	SelectChannel
 567:runtime.c     ****     //CyDelay(50);
 568:runtime.c     ****     i2c_write_16(I2C_SENSOR_SLAVE_ADDR ,reg ,  data);
 1834              		.loc 1 568 0
 1835 0028 3B1D     		adds	r3, r7, #4
 1836 002a 1A88     		ldrh	r2, [r3]
 1837 002c BB1D     		adds	r3, r7, #6
 1838 002e 1B78     		ldrb	r3, [r3]
 1839 0030 1900     		movs	r1, r3
 1840 0032 6120     		movs	r0, #97
 1841 0034 FFF7FEFF 		bl	i2c_write_16
 569:runtime.c     ****     //CyDelay(50);
 570:runtime.c     ****     return;
 1842              		.loc 1 570 0
 1843 0038 C046     		nop
 571:runtime.c     **** }
 1844              		.loc 1 571 0
 1845 003a BD46     		mov	sp, r7
 1846 003c 03B0     		add	sp, sp, #12
 1847              		@ sp needed
 1848 003e 90BD     		pop	{r4, r7, pc}
 1849              		.cfi_endproc
 1850              	.LFE42:
 1851              		.size	runtime_UpdateSensor, .-runtime_UpdateSensor
 1852              		.global	__aeabi_uidiv
 1853              		.global	__aeabi_uidivmod
 1854              		.section	.rodata
 1855 0025 000000   		.align	2
 1856              	.LC54:
 1857 0028 25303264 		.ascii	"%02d/%02d/%02d at %02d:%02d CH%d ZERO CAL\000"
 1857      2F253032 
 1857      642F2530 
ARM GAS  C:\Users\alexport\AppData\Local\Temp\cc5NLpBH.s 			page 44


 1857      32642061 
 1857      74202530 
 1858 0052 0000     		.align	2
 1859              	.LC58:
 1860 0054 25303264 		.ascii	"%02d/%02d/%02d at %02d:%02d CH%d SPAN CAL\000"
 1860      2F253032 
 1860      642F2530 
 1860      32642061 
 1860      74202530 
 1861              		.section	.text.runtime_ProcessRequest,"ax",%progbits
 1862              		.align	2
 1863              		.global	runtime_ProcessRequest
 1864              		.code	16
 1865              		.thumb_func
 1866              		.type	runtime_ProcessRequest, %function
 1867              	runtime_ProcessRequest:
 1868              	.LFB43:
 572:runtime.c     **** 
 573:runtime.c     **** 
 574:runtime.c     **** 
 575:runtime.c     **** 
 576:runtime.c     **** 
 577:runtime.c     **** void runtime_ProcessRequest(void){
 1869              		.loc 1 577 0
 1870              		.cfi_startproc
 1871              		@ args = 0, pretend = 0, frame = 48
 1872              		@ frame_needed = 1, uses_anonymous_args = 0
 1873 0000 F0B5     		push	{r4, r5, r6, r7, lr}
 1874              		.cfi_def_cfa_offset 20
 1875              		.cfi_offset 4, -20
 1876              		.cfi_offset 5, -16
 1877              		.cfi_offset 6, -12
 1878              		.cfi_offset 7, -8
 1879              		.cfi_offset 14, -4
 1880 0002 91B0     		sub	sp, sp, #68
 1881              		.cfi_def_cfa_offset 88
 1882 0004 04AF     		add	r7, sp, #16
 1883              		.cfi_def_cfa 7, 72
 578:runtime.c     ****     uint16_t regsToSend;
 579:runtime.c     ****     uint16_t  startRegister;
 580:runtime.c     ****     uint8_t  modbusCommand;
 581:runtime.c     ****     uint16_t data;
 582:runtime.c     ****      uint8_t dev; 
 583:runtime.c     ****     // Is this my packet?
 584:runtime.c     ****     if( (mySlaveAddr != modbus_rxBuffer[0]) && (modbus_rxBuffer[0]!= MODBUS_BROADCAST_ADDRESS) ) { 
 1884              		.loc 1 584 0
 1885 0006 B24B     		ldr	r3, .L145
 1886 0008 1A78     		ldrb	r2, [r3]
 1887 000a B24B     		ldr	r3, .L145+4
 1888 000c 1B78     		ldrb	r3, [r3]
 1889 000e 9A42     		cmp	r2, r3
 1890 0010 08D0     		beq	.L49
 1891              		.loc 1 584 0 is_stmt 0 discriminator 1
 1892 0012 AF4B     		ldr	r3, .L145
 1893 0014 1B78     		ldrb	r3, [r3]
 1894 0016 FE2B     		cmp	r3, #254
 1895 0018 04D0     		beq	.L49
ARM GAS  C:\Users\alexport\AppData\Local\Temp\cc5NLpBH.s 			page 45


 585:runtime.c     ****         bytesIn =0;
 1896              		.loc 1 585 0 is_stmt 1
 1897 001a AF4B     		ldr	r3, .L145+8
 1898 001c 0022     		movs	r2, #0
 1899 001e 1A70     		strb	r2, [r3]
 586:runtime.c     ****         return;
 1900              		.loc 1 586 0
 1901 0020 01F043FB 		bl	.L48	@ far jump
 1902              	.L49:
 587:runtime.c     ****     }    
 588:runtime.c     ****     
 589:runtime.c     ****     uint16 crc;
 590:runtime.c     ****     uint16 recvdcrc = (modbus_rxBuffer[bytesIn-2]<<8)+modbus_rxBuffer[bytesIn-1];
 1903              		.loc 1 590 0
 1904 0024 AC4B     		ldr	r3, .L145+8
 1905 0026 1B78     		ldrb	r3, [r3]
 1906 0028 023B     		subs	r3, r3, #2
 1907 002a A94A     		ldr	r2, .L145
 1908 002c D35C     		ldrb	r3, [r2, r3]
 1909 002e 9BB2     		uxth	r3, r3
 1910 0030 1B02     		lsls	r3, r3, #8
 1911 0032 99B2     		uxth	r1, r3
 1912 0034 A84B     		ldr	r3, .L145+8
 1913 0036 1B78     		ldrb	r3, [r3]
 1914 0038 013B     		subs	r3, r3, #1
 1915 003a A54A     		ldr	r2, .L145
 1916 003c D35C     		ldrb	r3, [r2, r3]
 1917 003e 9AB2     		uxth	r2, r3
 1918 0040 1C23     		movs	r3, #28
 1919 0042 0820     		movs	r0, #8
 1920 0044 8446     		mov	ip, r0
 1921 0046 BC44     		add	ip, ip, r7
 1922 0048 6344     		add	r3, r3, ip
 1923 004a 8A18     		adds	r2, r1, r2
 1924 004c 1A80     		strh	r2, [r3]
 591:runtime.c     ****     crc = (uint16) modbus_GenerateCRC(modbus_rxBuffer,bytesIn); // bytesIn
 1925              		.loc 1 591 0
 1926 004e A24B     		ldr	r3, .L145+8
 1927 0050 1B78     		ldrb	r3, [r3]
 1928 0052 9AB2     		uxth	r2, r3
 1929 0054 1A23     		movs	r3, #26
 1930 0056 0821     		movs	r1, #8
 1931 0058 7918     		adds	r1, r7, r1
 1932 005a CC18     		adds	r4, r1, r3
 1933 005c 9C4B     		ldr	r3, .L145
 1934 005e 1100     		movs	r1, r2
 1935 0060 1800     		movs	r0, r3
 1936 0062 FFF7FEFF 		bl	modbus_GenerateCRC
 1937 0066 0300     		movs	r3, r0
 1938 0068 2380     		strh	r3, [r4]
 592:runtime.c     ****     if(crc!=recvdcrc){
 1939              		.loc 1 592 0
 1940 006a 1A23     		movs	r3, #26
 1941 006c 0822     		movs	r2, #8
 1942 006e BA18     		adds	r2, r7, r2
 1943 0070 D218     		adds	r2, r2, r3
 1944 0072 1C23     		movs	r3, #28
ARM GAS  C:\Users\alexport\AppData\Local\Temp\cc5NLpBH.s 			page 46


 1945 0074 0821     		movs	r1, #8
 1946 0076 8C46     		mov	ip, r1
 1947 0078 BC44     		add	ip, ip, r7
 1948 007a 6344     		add	r3, r3, ip
 1949 007c 1288     		ldrh	r2, [r2]
 1950 007e 1B88     		ldrh	r3, [r3]
 1951 0080 9A42     		cmp	r2, r3
 1952 0082 04D0     		beq	.L51
 593:runtime.c     ****         bytesIn =0;
 1953              		.loc 1 593 0
 1954 0084 944B     		ldr	r3, .L145+8
 1955 0086 0022     		movs	r2, #0
 1956 0088 1A70     		strb	r2, [r3]
 594:runtime.c     ****         return;
 1957              		.loc 1 594 0
 1958 008a 01F00EFB 		bl	.L48	@ far jump
 1959              	.L51:
 595:runtime.c     ****     } 
 596:runtime.c     ****     
 597:runtime.c     ****     
 598:runtime.c     ****     modbusCommand = modbus_rxBuffer[1];
 1960              		.loc 1 598 0
 1961 008e 1923     		movs	r3, #25
 1962 0090 0822     		movs	r2, #8
 1963 0092 9446     		mov	ip, r2
 1964 0094 BC44     		add	ip, ip, r7
 1965 0096 6344     		add	r3, r3, ip
 1966 0098 8D4A     		ldr	r2, .L145
 1967 009a 5278     		ldrb	r2, [r2, #1]
 1968 009c 1A70     		strb	r2, [r3]
 599:runtime.c     ****     
 600:runtime.c     ****     // Broadcast request for My Slave Address
 601:runtime.c     ****     if(modbus_rxBuffer[0]==MODBUS_BROADCAST_ADDRESS){
 1969              		.loc 1 601 0
 1970 009e 8C4B     		ldr	r3, .L145
 1971 00a0 1B78     		ldrb	r3, [r3]
 1972 00a2 FE2B     		cmp	r3, #254
 1973 00a4 33D1     		bne	.L52
 602:runtime.c     ****         if ( MODBUS_READ_CMD == modbusCommand){
 1974              		.loc 1 602 0
 1975 00a6 1923     		movs	r3, #25
 1976 00a8 0822     		movs	r2, #8
 1977 00aa 9446     		mov	ip, r2
 1978 00ac BC44     		add	ip, ip, r7
 1979 00ae 6344     		add	r3, r3, ip
 1980 00b0 1B78     		ldrb	r3, [r3]
 1981 00b2 032B     		cmp	r3, #3
 1982 00b4 26D1     		bne	.L53
 603:runtime.c     ****             startRegister = modbus_rxBuffer[3];
 1983              		.loc 1 603 0
 1984 00b6 864B     		ldr	r3, .L145
 1985 00b8 DA78     		ldrb	r2, [r3, #3]
 1986 00ba 1623     		movs	r3, #22
 1987 00bc 0821     		movs	r1, #8
 1988 00be 8C46     		mov	ip, r1
 1989 00c0 BC44     		add	ip, ip, r7
 1990 00c2 6344     		add	r3, r3, ip
ARM GAS  C:\Users\alexport\AppData\Local\Temp\cc5NLpBH.s 			page 47


 1991 00c4 1A80     		strh	r2, [r3]
 604:runtime.c     ****             regsToSend = modbus_rxBuffer[5];
 1992              		.loc 1 604 0
 1993 00c6 824B     		ldr	r3, .L145
 1994 00c8 5A79     		ldrb	r2, [r3, #5]
 1995 00ca 1423     		movs	r3, #20
 1996 00cc 0821     		movs	r1, #8
 1997 00ce 8C46     		mov	ip, r1
 1998 00d0 BC44     		add	ip, ip, r7
 1999 00d2 6344     		add	r3, r3, ip
 2000 00d4 1A80     		strh	r2, [r3]
 605:runtime.c     ****             modbus_txBuffer[3] = 0;
 2001              		.loc 1 605 0
 2002 00d6 814B     		ldr	r3, .L145+12
 2003 00d8 0022     		movs	r2, #0
 2004 00da DA70     		strb	r2, [r3, #3]
 606:runtime.c     ****             modbus_txBuffer[4] = mySlaveAddr;
 2005              		.loc 1 606 0
 2006 00dc 7D4B     		ldr	r3, .L145+4
 2007 00de 1A78     		ldrb	r2, [r3]
 2008 00e0 7E4B     		ldr	r3, .L145+12
 2009 00e2 1A71     		strb	r2, [r3, #4]
 607:runtime.c     ****             modbusSendBulk(MODBUS_BROADCAST_ADDRESS , modbusCommand , regsToSend);     
 2010              		.loc 1 607 0
 2011 00e4 1423     		movs	r3, #20
 2012 00e6 0822     		movs	r2, #8
 2013 00e8 9446     		mov	ip, r2
 2014 00ea BC44     		add	ip, ip, r7
 2015 00ec 6344     		add	r3, r3, ip
 2016 00ee 1A88     		ldrh	r2, [r3]
 2017 00f0 1923     		movs	r3, #25
 2018 00f2 0821     		movs	r1, #8
 2019 00f4 8C46     		mov	ip, r1
 2020 00f6 BC44     		add	ip, ip, r7
 2021 00f8 6344     		add	r3, r3, ip
 2022 00fa 1B78     		ldrb	r3, [r3]
 2023 00fc 1900     		movs	r1, r3
 2024 00fe FE20     		movs	r0, #254
 2025 0100 FFF7FEFF 		bl	modbusSendBulk
 2026              	.L53:
 608:runtime.c     ****         }
 609:runtime.c     ****         bytesIn =0;
 2027              		.loc 1 609 0
 2028 0104 744B     		ldr	r3, .L145+8
 2029 0106 0022     		movs	r2, #0
 2030 0108 1A70     		strb	r2, [r3]
 610:runtime.c     ****         return;
 2031              		.loc 1 610 0
 2032 010a 01F0CEFA 		bl	.L48	@ far jump
 2033              	.L52:
 611:runtime.c     ****     }
 612:runtime.c     ****     
 613:runtime.c     ****     
 614:runtime.c     ****     
 615:runtime.c     ****     dev = modbus_rxBuffer[3]/100;
 2034              		.loc 1 615 0
 2035 010e 704B     		ldr	r3, .L145
ARM GAS  C:\Users\alexport\AppData\Local\Temp\cc5NLpBH.s 			page 48


 2036 0110 DB78     		ldrb	r3, [r3, #3]
 2037 0112 1322     		movs	r2, #19
 2038 0114 0821     		movs	r1, #8
 2039 0116 7918     		adds	r1, r7, r1
 2040 0118 8C18     		adds	r4, r1, r2
 2041 011a 6421     		movs	r1, #100
 2042 011c 1800     		movs	r0, r3
 2043 011e FFF7FEFF 		bl	__aeabi_uidiv
 2044 0122 0300     		movs	r3, r0
 2045 0124 2370     		strb	r3, [r4]
 616:runtime.c     ****     startRegister = modbus_rxBuffer[3]%100;
 2046              		.loc 1 616 0
 2047 0126 6A4B     		ldr	r3, .L145
 2048 0128 DB78     		ldrb	r3, [r3, #3]
 2049 012a 6421     		movs	r1, #100
 2050 012c 1800     		movs	r0, r3
 2051 012e FFF7FEFF 		bl	__aeabi_uidivmod
 2052 0132 0B00     		movs	r3, r1
 2053 0134 DAB2     		uxtb	r2, r3
 2054 0136 1623     		movs	r3, #22
 2055 0138 0821     		movs	r1, #8
 2056 013a 8C46     		mov	ip, r1
 2057 013c BC44     		add	ip, ip, r7
 2058 013e 6344     		add	r3, r3, ip
 2059 0140 1A80     		strh	r2, [r3]
 617:runtime.c     ****         
 618:runtime.c     ****     
 619:runtime.c     ****     if ( MODBUS_READ_CMD == modbusCommand){
 2060              		.loc 1 619 0
 2061 0142 1923     		movs	r3, #25
 2062 0144 0822     		movs	r2, #8
 2063 0146 9446     		mov	ip, r2
 2064 0148 BC44     		add	ip, ip, r7
 2065 014a 6344     		add	r3, r3, ip
 2066 014c 1B78     		ldrb	r3, [r3]
 2067 014e 032B     		cmp	r3, #3
 2068 0150 01D0     		beq	.LCB1684
 2069 0152 00F0D8FC 		bl	.L54	@far jump
 2070              	.LCB1684:
 2071              	.LBB4:
 620:runtime.c     ****         // Send Read Response to Modbus Master
 621:runtime.c     ****         bytesIn =0;
 2072              		.loc 1 621 0
 2073 0156 604B     		ldr	r3, .L145+8
 2074 0158 0022     		movs	r2, #0
 2075 015a 1A70     		strb	r2, [r3]
 622:runtime.c     ****         
 623:runtime.c     ****         //dev = modbus_rxBuffer[3]/100;
 624:runtime.c     ****         //startRegister = modbus_rxBuffer[3]%100;
 625:runtime.c     ****         regsToSend = modbus_rxBuffer[5];
 2076              		.loc 1 625 0
 2077 015c 5C4B     		ldr	r3, .L145
 2078 015e 5A79     		ldrb	r2, [r3, #5]
 2079 0160 1423     		movs	r3, #20
 2080 0162 0821     		movs	r1, #8
 2081 0164 8C46     		mov	ip, r1
 2082 0166 BC44     		add	ip, ip, r7
ARM GAS  C:\Users\alexport\AppData\Local\Temp\cc5NLpBH.s 			page 49


 2083 0168 6344     		add	r3, r3, ip
 2084 016a 1A80     		strh	r2, [r3]
 626:runtime.c     ****         uint8_t idx=3;
 2085              		.loc 1 626 0
 2086 016c 2523     		movs	r3, #37
 2087 016e 0822     		movs	r2, #8
 2088 0170 9446     		mov	ip, r2
 2089 0172 BC44     		add	ip, ip, r7
 2090 0174 6344     		add	r3, r3, ip
 2091 0176 0322     		movs	r2, #3
 2092 0178 1A70     		strb	r2, [r3]
 627:runtime.c     ****         uint8_t byteCount = regsToSend;
 2093              		.loc 1 627 0
 2094 017a 2423     		movs	r3, #36
 2095 017c 0822     		movs	r2, #8
 2096 017e 9446     		mov	ip, r2
 2097 0180 BC44     		add	ip, ip, r7
 2098 0182 6344     		add	r3, r3, ip
 2099 0184 1422     		movs	r2, #20
 2100 0186 0821     		movs	r1, #8
 2101 0188 8C46     		mov	ip, r1
 2102 018a BC44     		add	ip, ip, r7
 2103 018c 6244     		add	r2, r2, ip
 2104 018e 1288     		ldrh	r2, [r2]
 2105 0190 1A70     		strb	r2, [r3]
 628:runtime.c     ****         uint8_t lat[4];
 629:runtime.c     ****         uint8_t lon[4];
 630:runtime.c     ****         memcpy(lat, &flatitude, 4);
 2106              		.loc 1 630 0
 2107 0192 0C23     		movs	r3, #12
 2108 0194 0822     		movs	r2, #8
 2109 0196 9446     		mov	ip, r2
 2110 0198 BC44     		add	ip, ip, r7
 2111 019a 6344     		add	r3, r3, ip
 2112 019c 504A     		ldr	r2, .L145+16
 2113 019e 1268     		ldr	r2, [r2]
 2114 01a0 1A60     		str	r2, [r3]
 631:runtime.c     ****         memcpy(lon, &flongitude, 4);
 2115              		.loc 1 631 0
 2116 01a2 0823     		movs	r3, #8
 2117 01a4 0822     		movs	r2, #8
 2118 01a6 9446     		mov	ip, r2
 2119 01a8 BC44     		add	ip, ip, r7
 2120 01aa 6344     		add	r3, r3, ip
 2121 01ac 4D4A     		ldr	r2, .L145+20
 2122 01ae 1268     		ldr	r2, [r2]
 2123 01b0 1A60     		str	r2, [r3]
 632:runtime.c     ****         uint8_t sensors;
 633:runtime.c     ****         uint8_t alarm;
 634:runtime.c     ****         
 635:runtime.c     ****         
 636:runtime.c     ****         
 637:runtime.c     ****         if(!ch2Active){
 2124              		.loc 1 637 0
 2125 01b2 4D4B     		ldr	r3, .L145+24
 2126 01b4 1B78     		ldrb	r3, [r3]
 2127 01b6 002B     		cmp	r3, #0
ARM GAS  C:\Users\alexport\AppData\Local\Temp\cc5NLpBH.s 			page 50


 2128 01b8 13D1     		bne	.L55
 638:runtime.c     ****             if(sensor[0][STATUSLSB]==POLL_SENSOR_STATUS_ABSENT)
 2129              		.loc 1 638 0
 2130 01ba 4C4B     		ldr	r3, .L145+28
 2131 01bc 5B7A     		ldrb	r3, [r3, #9]
 2132 01be 082B     		cmp	r3, #8
 2133 01c0 07D1     		bne	.L56
 639:runtime.c     ****                 sensors =0;
 2134              		.loc 1 639 0
 2135 01c2 2323     		movs	r3, #35
 2136 01c4 0822     		movs	r2, #8
 2137 01c6 9446     		mov	ip, r2
 2138 01c8 BC44     		add	ip, ip, r7
 2139 01ca 6344     		add	r3, r3, ip
 2140 01cc 0022     		movs	r2, #0
 2141 01ce 1A70     		strb	r2, [r3]
 2142 01d0 1BE0     		b	.L58
 2143              	.L56:
 640:runtime.c     ****             else
 641:runtime.c     ****                 sensors =1;
 2144              		.loc 1 641 0
 2145 01d2 2323     		movs	r3, #35
 2146 01d4 0822     		movs	r2, #8
 2147 01d6 9446     		mov	ip, r2
 2148 01d8 BC44     		add	ip, ip, r7
 2149 01da 6344     		add	r3, r3, ip
 2150 01dc 0122     		movs	r2, #1
 2151 01de 1A70     		strb	r2, [r3]
 2152 01e0 13E0     		b	.L58
 2153              	.L55:
 642:runtime.c     ****         }
 643:runtime.c     ****         else{
 644:runtime.c     ****             if(sensor[1][STATUSLSB]==POLL_SENSOR_STATUS_ABSENT)
 2154              		.loc 1 644 0
 2155 01e2 424B     		ldr	r3, .L145+28
 2156 01e4 8122     		movs	r2, #129
 2157 01e6 9B5C     		ldrb	r3, [r3, r2]
 2158 01e8 082B     		cmp	r3, #8
 2159 01ea 07D1     		bne	.L59
 645:runtime.c     ****                 sensors =1;
 2160              		.loc 1 645 0
 2161 01ec 2323     		movs	r3, #35
 2162 01ee 0822     		movs	r2, #8
 2163 01f0 9446     		mov	ip, r2
 2164 01f2 BC44     		add	ip, ip, r7
 2165 01f4 6344     		add	r3, r3, ip
 2166 01f6 0122     		movs	r2, #1
 2167 01f8 1A70     		strb	r2, [r3]
 2168 01fa 06E0     		b	.L58
 2169              	.L59:
 646:runtime.c     ****             else
 647:runtime.c     ****                 sensors =2;
 2170              		.loc 1 647 0
 2171 01fc 2323     		movs	r3, #35
 2172 01fe 0822     		movs	r2, #8
 2173 0200 9446     		mov	ip, r2
 2174 0202 BC44     		add	ip, ip, r7
ARM GAS  C:\Users\alexport\AppData\Local\Temp\cc5NLpBH.s 			page 51


 2175 0204 6344     		add	r3, r3, ip
 2176 0206 0222     		movs	r2, #2
 2177 0208 1A70     		strb	r2, [r3]
 2178              	.L58:
 648:runtime.c     ****         }
 649:runtime.c     ****         
 650:runtime.c     ****         if((alarm_status[0]==0)&&(alarm_status[1]==0))alarm=0;
 2179              		.loc 1 650 0
 2180 020a 394B     		ldr	r3, .L145+32
 2181 020c 1B78     		ldrb	r3, [r3]
 2182 020e 002B     		cmp	r3, #0
 2183 0210 0AD1     		bne	.L60
 2184              		.loc 1 650 0 is_stmt 0 discriminator 1
 2185 0212 374B     		ldr	r3, .L145+32
 2186 0214 5B78     		ldrb	r3, [r3, #1]
 2187 0216 002B     		cmp	r3, #0
 2188 0218 06D1     		bne	.L60
 2189              		.loc 1 650 0 discriminator 2
 2190 021a 1223     		movs	r3, #18
 2191 021c 0822     		movs	r2, #8
 2192 021e 9446     		mov	ip, r2
 2193 0220 BC44     		add	ip, ip, r7
 2194 0222 6344     		add	r3, r3, ip
 2195 0224 0022     		movs	r2, #0
 2196 0226 1A70     		strb	r2, [r3]
 2197              	.L60:
 651:runtime.c     ****         if((alarm_status[0]==4)||(alarm_status[1]==4))alarm=4;
 2198              		.loc 1 651 0 is_stmt 1
 2199 0228 314B     		ldr	r3, .L145+32
 2200 022a 1B78     		ldrb	r3, [r3]
 2201 022c 042B     		cmp	r3, #4
 2202 022e 03D0     		beq	.L61
 2203              		.loc 1 651 0 is_stmt 0 discriminator 2
 2204 0230 2F4B     		ldr	r3, .L145+32
 2205 0232 5B78     		ldrb	r3, [r3, #1]
 2206 0234 042B     		cmp	r3, #4
 2207 0236 06D1     		bne	.L62
 2208              	.L61:
 2209              		.loc 1 651 0 discriminator 3
 2210 0238 1223     		movs	r3, #18
 2211 023a 0822     		movs	r2, #8
 2212 023c 9446     		mov	ip, r2
 2213 023e BC44     		add	ip, ip, r7
 2214 0240 6344     		add	r3, r3, ip
 2215 0242 0422     		movs	r2, #4
 2216 0244 1A70     		strb	r2, [r3]
 2217              	.L62:
 652:runtime.c     ****         if((alarm_status[0]==1)||(alarm_status[1]==1))alarm=1;
 2218              		.loc 1 652 0 is_stmt 1
 2219 0246 2A4B     		ldr	r3, .L145+32
 2220 0248 1B78     		ldrb	r3, [r3]
 2221 024a 012B     		cmp	r3, #1
 2222 024c 03D0     		beq	.L63
 2223              		.loc 1 652 0 is_stmt 0 discriminator 2
 2224 024e 284B     		ldr	r3, .L145+32
 2225 0250 5B78     		ldrb	r3, [r3, #1]
 2226 0252 012B     		cmp	r3, #1
ARM GAS  C:\Users\alexport\AppData\Local\Temp\cc5NLpBH.s 			page 52


 2227 0254 06D1     		bne	.L64
 2228              	.L63:
 2229              		.loc 1 652 0 discriminator 3
 2230 0256 1223     		movs	r3, #18
 2231 0258 0822     		movs	r2, #8
 2232 025a 9446     		mov	ip, r2
 2233 025c BC44     		add	ip, ip, r7
 2234 025e 6344     		add	r3, r3, ip
 2235 0260 0122     		movs	r2, #1
 2236 0262 1A70     		strb	r2, [r3]
 2237              	.L64:
 653:runtime.c     ****         if((alarm_status[0]==2)||(alarm_status[1]==2))alarm=2;
 2238              		.loc 1 653 0 is_stmt 1
 2239 0264 224B     		ldr	r3, .L145+32
 2240 0266 1B78     		ldrb	r3, [r3]
 2241 0268 022B     		cmp	r3, #2
 2242 026a 03D0     		beq	.L65
 2243              		.loc 1 653 0 is_stmt 0 discriminator 2
 2244 026c 204B     		ldr	r3, .L145+32
 2245 026e 5B78     		ldrb	r3, [r3, #1]
 2246 0270 022B     		cmp	r3, #2
 2247 0272 06D1     		bne	.L66
 2248              	.L65:
 2249              		.loc 1 653 0 discriminator 3
 2250 0274 1223     		movs	r3, #18
 2251 0276 0822     		movs	r2, #8
 2252 0278 9446     		mov	ip, r2
 2253 027a BC44     		add	ip, ip, r7
 2254 027c 6344     		add	r3, r3, ip
 2255 027e 0222     		movs	r2, #2
 2256 0280 1A70     		strb	r2, [r3]
 2257              	.L66:
 654:runtime.c     ****         if((alarm_status[0]==3)||(alarm_status[1]==3))alarm=3;
 2258              		.loc 1 654 0 is_stmt 1
 2259 0282 1B4B     		ldr	r3, .L145+32
 2260 0284 1B78     		ldrb	r3, [r3]
 2261 0286 032B     		cmp	r3, #3
 2262 0288 03D0     		beq	.L67
 2263              		.loc 1 654 0 is_stmt 0 discriminator 2
 2264 028a 194B     		ldr	r3, .L145+32
 2265 028c 5B78     		ldrb	r3, [r3, #1]
 2266 028e 032B     		cmp	r3, #3
 2267 0290 06D1     		bne	.L68
 2268              	.L67:
 2269              		.loc 1 654 0 discriminator 3
 2270 0292 1223     		movs	r3, #18
 2271 0294 0822     		movs	r2, #8
 2272 0296 9446     		mov	ip, r2
 2273 0298 BC44     		add	ip, ip, r7
 2274 029a 6344     		add	r3, r3, ip
 2275 029c 0322     		movs	r2, #3
 2276 029e 1A70     		strb	r2, [r3]
 2277              	.L68:
 655:runtime.c     ****         
 656:runtime.c     ****         
 657:runtime.c     ****         if(dev==0){
 2278              		.loc 1 657 0 is_stmt 1
ARM GAS  C:\Users\alexport\AppData\Local\Temp\cc5NLpBH.s 			page 53


 2279 02a0 1323     		movs	r3, #19
 2280 02a2 0822     		movs	r2, #8
 2281 02a4 9446     		mov	ip, r2
 2282 02a6 BC44     		add	ip, ip, r7
 2283 02a8 6344     		add	r3, r3, ip
 2284 02aa 1B78     		ldrb	r3, [r3]
 2285 02ac 002B     		cmp	r3, #0
 2286 02ae 00D0     		beq	.LCB1883
 2287 02b0 C5E3     		b	.L69	@long jump
 2288              	.LCB1883:
 658:runtime.c     ****             
 659:runtime.c     ****             switch(startRegister){
 2289              		.loc 1 659 0
 2290 02b2 1623     		movs	r3, #22
 2291 02b4 0822     		movs	r2, #8
 2292 02b6 9446     		mov	ip, r2
 2293 02b8 BC44     		add	ip, ip, r7
 2294 02ba 6344     		add	r3, r3, ip
 2295 02bc 1B88     		ldrh	r3, [r3]
 2296 02be 0E2B     		cmp	r3, #14
 2297 02c0 00D9     		bls	.LCB1891
 2298 02c2 AAE3     		b	.L70	@long jump
 2299              	.LCB1891:
 2300 02c4 9A00     		lsls	r2, r3, #2
 2301 02c6 0B4B     		ldr	r3, .L145+36
 2302 02c8 D318     		adds	r3, r2, r3
 2303 02ca 1B68     		ldr	r3, [r3]
 2304 02cc 9F46     		mov	pc, r3
 2305              		.section	.rodata
 2306 007e 0000     		.align	2
 2307              	.L72:
 2308 0080 F8020000 		.word	.L71
 2309 0084 6A030000 		.word	.L73
 2310 0088 E4030000 		.word	.L74
 2311 008c 56040000 		.word	.L75
 2312 0090 D0040000 		.word	.L76
 2313 0094 40050000 		.word	.L77
 2314 0098 C4050000 		.word	.L78
 2315 009c 48060000 		.word	.L79
 2316 00a0 CC060000 		.word	.L80
 2317 00a4 64070000 		.word	.L81
 2318 00a8 D6070000 		.word	.L82
 2319 00ac 48080000 		.word	.L83
 2320 00b0 BA080000 		.word	.L84
 2321 00b4 2C090000 		.word	.L85
 2322 00b8 9C090000 		.word	.L86
 2323              		.section	.text.runtime_ProcessRequest
 2324              	.L146:
 2325 02ce C046     		.align	2
 2326              	.L145:
 2327 02d0 00000000 		.word	modbus_rxBuffer
 2328 02d4 00000000 		.word	mySlaveAddr
 2329 02d8 00000000 		.word	bytesIn
 2330 02dc 00000000 		.word	modbus_txBuffer
 2331 02e0 00000000 		.word	flatitude
 2332 02e4 00000000 		.word	flongitude
 2333 02e8 00000000 		.word	ch2Active
ARM GAS  C:\Users\alexport\AppData\Local\Temp\cc5NLpBH.s 			page 54


 2334 02ec 00000000 		.word	sensor
 2335 02f0 00000000 		.word	alarm_status
 2336 02f4 80000000 		.word	.L72
 2337              	.L71:
 660:runtime.c     ****                 case 0:
 661:runtime.c     ****                     modbus_txBuffer[idx++] = 0 ;
 2338              		.loc 1 661 0
 2339 02f8 2523     		movs	r3, #37
 2340 02fa 0822     		movs	r2, #8
 2341 02fc 9446     		mov	ip, r2
 2342 02fe BC44     		add	ip, ip, r7
 2343 0300 6344     		add	r3, r3, ip
 2344 0302 1B78     		ldrb	r3, [r3]
 2345 0304 2522     		movs	r2, #37
 2346 0306 0821     		movs	r1, #8
 2347 0308 8C46     		mov	ip, r1
 2348 030a BC44     		add	ip, ip, r7
 2349 030c 6244     		add	r2, r2, ip
 2350 030e 591C     		adds	r1, r3, #1
 2351 0310 1170     		strb	r1, [r2]
 2352 0312 1A00     		movs	r2, r3
 2353 0314 FA4B     		ldr	r3, .L147
 2354 0316 0021     		movs	r1, #0
 2355 0318 9954     		strb	r1, [r3, r2]
 662:runtime.c     ****                     modbus_txBuffer[idx++] = sensor[0][DEVTYPELSB] ;
 2356              		.loc 1 662 0
 2357 031a 2523     		movs	r3, #37
 2358 031c 0822     		movs	r2, #8
 2359 031e 9446     		mov	ip, r2
 2360 0320 BC44     		add	ip, ip, r7
 2361 0322 6344     		add	r3, r3, ip
 2362 0324 1B78     		ldrb	r3, [r3]
 2363 0326 2522     		movs	r2, #37
 2364 0328 0821     		movs	r1, #8
 2365 032a 8C46     		mov	ip, r1
 2366 032c BC44     		add	ip, ip, r7
 2367 032e 6244     		add	r2, r2, ip
 2368 0330 591C     		adds	r1, r3, #1
 2369 0332 1170     		strb	r1, [r2]
 2370 0334 1A00     		movs	r2, r3
 2371 0336 F34B     		ldr	r3, .L147+4
 2372 0338 D978     		ldrb	r1, [r3, #3]
 2373 033a F14B     		ldr	r3, .L147
 2374 033c 9954     		strb	r1, [r3, r2]
 663:runtime.c     ****                     if((--byteCount)==0) break;
 2375              		.loc 1 663 0
 2376 033e 2423     		movs	r3, #36
 2377 0340 0822     		movs	r2, #8
 2378 0342 9446     		mov	ip, r2
 2379 0344 BC44     		add	ip, ip, r7
 2380 0346 6344     		add	r3, r3, ip
 2381 0348 2422     		movs	r2, #36
 2382 034a 0821     		movs	r1, #8
 2383 034c 8C46     		mov	ip, r1
 2384 034e BC44     		add	ip, ip, r7
 2385 0350 6244     		add	r2, r2, ip
 2386 0352 1278     		ldrb	r2, [r2]
ARM GAS  C:\Users\alexport\AppData\Local\Temp\cc5NLpBH.s 			page 55


 2387 0354 013A     		subs	r2, r2, #1
 2388 0356 1A70     		strb	r2, [r3]
 2389 0358 2423     		movs	r3, #36
 2390 035a 0822     		movs	r2, #8
 2391 035c 9446     		mov	ip, r2
 2392 035e BC44     		add	ip, ip, r7
 2393 0360 6344     		add	r3, r3, ip
 2394 0362 1B78     		ldrb	r3, [r3]
 2395 0364 002B     		cmp	r3, #0
 2396 0366 00D1     		bne	.LCB1973
 2397 0368 3CE3     		b	.L125	@long jump
 2398              	.LCB1973:
 2399              	.L73:
 664:runtime.c     ****                     
 665:runtime.c     ****                 case 1:
 666:runtime.c     ****                     modbus_txBuffer[idx++] = 0;
 2400              		.loc 1 666 0
 2401 036a 2523     		movs	r3, #37
 2402 036c 0822     		movs	r2, #8
 2403 036e 9446     		mov	ip, r2
 2404 0370 BC44     		add	ip, ip, r7
 2405 0372 6344     		add	r3, r3, ip
 2406 0374 1B78     		ldrb	r3, [r3]
 2407 0376 2522     		movs	r2, #37
 2408 0378 0821     		movs	r1, #8
 2409 037a 8C46     		mov	ip, r1
 2410 037c BC44     		add	ip, ip, r7
 2411 037e 6244     		add	r2, r2, ip
 2412 0380 591C     		adds	r1, r3, #1
 2413 0382 1170     		strb	r1, [r2]
 2414 0384 1A00     		movs	r2, r3
 2415 0386 DE4B     		ldr	r3, .L147
 2416 0388 0021     		movs	r1, #0
 2417 038a 9954     		strb	r1, [r3, r2]
 667:runtime.c     ****                     modbus_txBuffer[idx++] = sensors;//number of sensors
 2418              		.loc 1 667 0
 2419 038c 2523     		movs	r3, #37
 2420 038e 0822     		movs	r2, #8
 2421 0390 9446     		mov	ip, r2
 2422 0392 BC44     		add	ip, ip, r7
 2423 0394 6344     		add	r3, r3, ip
 2424 0396 1B78     		ldrb	r3, [r3]
 2425 0398 2522     		movs	r2, #37
 2426 039a 0821     		movs	r1, #8
 2427 039c 8C46     		mov	ip, r1
 2428 039e BC44     		add	ip, ip, r7
 2429 03a0 6244     		add	r2, r2, ip
 2430 03a2 591C     		adds	r1, r3, #1
 2431 03a4 1170     		strb	r1, [r2]
 2432 03a6 1900     		movs	r1, r3
 2433 03a8 D54B     		ldr	r3, .L147
 2434 03aa 2322     		movs	r2, #35
 2435 03ac 0820     		movs	r0, #8
 2436 03ae 8446     		mov	ip, r0
 2437 03b0 BC44     		add	ip, ip, r7
 2438 03b2 6244     		add	r2, r2, ip
 2439 03b4 1278     		ldrb	r2, [r2]
ARM GAS  C:\Users\alexport\AppData\Local\Temp\cc5NLpBH.s 			page 56


 2440 03b6 5A54     		strb	r2, [r3, r1]
 668:runtime.c     ****                     if((--byteCount)==0) break;
 2441              		.loc 1 668 0
 2442 03b8 2423     		movs	r3, #36
 2443 03ba 0822     		movs	r2, #8
 2444 03bc 9446     		mov	ip, r2
 2445 03be BC44     		add	ip, ip, r7
 2446 03c0 6344     		add	r3, r3, ip
 2447 03c2 2422     		movs	r2, #36
 2448 03c4 0821     		movs	r1, #8
 2449 03c6 8C46     		mov	ip, r1
 2450 03c8 BC44     		add	ip, ip, r7
 2451 03ca 6244     		add	r2, r2, ip
 2452 03cc 1278     		ldrb	r2, [r2]
 2453 03ce 013A     		subs	r2, r2, #1
 2454 03d0 1A70     		strb	r2, [r3]
 2455 03d2 2423     		movs	r3, #36
 2456 03d4 0822     		movs	r2, #8
 2457 03d6 9446     		mov	ip, r2
 2458 03d8 BC44     		add	ip, ip, r7
 2459 03da 6344     		add	r3, r3, ip
 2460 03dc 1B78     		ldrb	r3, [r3]
 2461 03de 002B     		cmp	r3, #0
 2462 03e0 00D1     		bne	.LCB2034
 2463 03e2 01E3     		b	.L126	@long jump
 2464              	.LCB2034:
 2465              	.L74:
 669:runtime.c     ****                 case 2:
 670:runtime.c     ****                     modbus_txBuffer[idx++] = 0;
 2466              		.loc 1 670 0
 2467 03e4 2523     		movs	r3, #37
 2468 03e6 0822     		movs	r2, #8
 2469 03e8 9446     		mov	ip, r2
 2470 03ea BC44     		add	ip, ip, r7
 2471 03ec 6344     		add	r3, r3, ip
 2472 03ee 1B78     		ldrb	r3, [r3]
 2473 03f0 2522     		movs	r2, #37
 2474 03f2 0821     		movs	r1, #8
 2475 03f4 8C46     		mov	ip, r1
 2476 03f6 BC44     		add	ip, ip, r7
 2477 03f8 6244     		add	r2, r2, ip
 2478 03fa 591C     		adds	r1, r3, #1
 2479 03fc 1170     		strb	r1, [r2]
 2480 03fe 1A00     		movs	r2, r3
 2481 0400 BF4B     		ldr	r3, .L147
 2482 0402 0021     		movs	r1, #0
 2483 0404 9954     		strb	r1, [r3, r2]
 671:runtime.c     ****                     modbus_txBuffer[idx++] = mySlaveAddr;
 2484              		.loc 1 671 0
 2485 0406 2523     		movs	r3, #37
 2486 0408 0822     		movs	r2, #8
 2487 040a 9446     		mov	ip, r2
 2488 040c BC44     		add	ip, ip, r7
 2489 040e 6344     		add	r3, r3, ip
 2490 0410 1B78     		ldrb	r3, [r3]
 2491 0412 2522     		movs	r2, #37
 2492 0414 0821     		movs	r1, #8
ARM GAS  C:\Users\alexport\AppData\Local\Temp\cc5NLpBH.s 			page 57


 2493 0416 8C46     		mov	ip, r1
 2494 0418 BC44     		add	ip, ip, r7
 2495 041a 6244     		add	r2, r2, ip
 2496 041c 591C     		adds	r1, r3, #1
 2497 041e 1170     		strb	r1, [r2]
 2498 0420 1A00     		movs	r2, r3
 2499 0422 B94B     		ldr	r3, .L147+8
 2500 0424 1978     		ldrb	r1, [r3]
 2501 0426 B64B     		ldr	r3, .L147
 2502 0428 9954     		strb	r1, [r3, r2]
 672:runtime.c     ****                     if((--byteCount)==0) break;
 2503              		.loc 1 672 0
 2504 042a 2423     		movs	r3, #36
 2505 042c 0822     		movs	r2, #8
 2506 042e 9446     		mov	ip, r2
 2507 0430 BC44     		add	ip, ip, r7
 2508 0432 6344     		add	r3, r3, ip
 2509 0434 2422     		movs	r2, #36
 2510 0436 0821     		movs	r1, #8
 2511 0438 8C46     		mov	ip, r1
 2512 043a BC44     		add	ip, ip, r7
 2513 043c 6244     		add	r2, r2, ip
 2514 043e 1278     		ldrb	r2, [r2]
 2515 0440 013A     		subs	r2, r2, #1
 2516 0442 1A70     		strb	r2, [r3]
 2517 0444 2423     		movs	r3, #36
 2518 0446 0822     		movs	r2, #8
 2519 0448 9446     		mov	ip, r2
 2520 044a BC44     		add	ip, ip, r7
 2521 044c 6344     		add	r3, r3, ip
 2522 044e 1B78     		ldrb	r3, [r3]
 2523 0450 002B     		cmp	r3, #0
 2524 0452 00D1     		bne	.LCB2091
 2525 0454 CAE2     		b	.L127	@long jump
 2526              	.LCB2091:
 2527              	.L75:
 673:runtime.c     ****                 case 3:    
 674:runtime.c     ****                     modbus_txBuffer[idx++] = (sleepPeriod>>8)&0xFF;
 2528              		.loc 1 674 0
 2529 0456 2523     		movs	r3, #37
 2530 0458 0822     		movs	r2, #8
 2531 045a 9446     		mov	ip, r2
 2532 045c BC44     		add	ip, ip, r7
 2533 045e 6344     		add	r3, r3, ip
 2534 0460 1B78     		ldrb	r3, [r3]
 2535 0462 2522     		movs	r2, #37
 2536 0464 0821     		movs	r1, #8
 2537 0466 8C46     		mov	ip, r1
 2538 0468 BC44     		add	ip, ip, r7
 2539 046a 6244     		add	r2, r2, ip
 2540 046c 591C     		adds	r1, r3, #1
 2541 046e 1170     		strb	r1, [r2]
 2542 0470 1A00     		movs	r2, r3
 2543 0472 A64B     		ldr	r3, .L147+12
 2544 0474 1B68     		ldr	r3, [r3]
 2545 0476 1B0A     		lsrs	r3, r3, #8
 2546 0478 D9B2     		uxtb	r1, r3
ARM GAS  C:\Users\alexport\AppData\Local\Temp\cc5NLpBH.s 			page 58


 2547 047a A14B     		ldr	r3, .L147
 2548 047c 9954     		strb	r1, [r3, r2]
 675:runtime.c     ****                     modbus_txBuffer[idx++] = sleepPeriod&0xFF;
 2549              		.loc 1 675 0
 2550 047e 2523     		movs	r3, #37
 2551 0480 0822     		movs	r2, #8
 2552 0482 9446     		mov	ip, r2
 2553 0484 BC44     		add	ip, ip, r7
 2554 0486 6344     		add	r3, r3, ip
 2555 0488 1B78     		ldrb	r3, [r3]
 2556 048a 2522     		movs	r2, #37
 2557 048c 0821     		movs	r1, #8
 2558 048e 8C46     		mov	ip, r1
 2559 0490 BC44     		add	ip, ip, r7
 2560 0492 6244     		add	r2, r2, ip
 2561 0494 591C     		adds	r1, r3, #1
 2562 0496 1170     		strb	r1, [r2]
 2563 0498 1A00     		movs	r2, r3
 2564 049a 9C4B     		ldr	r3, .L147+12
 2565 049c 1B68     		ldr	r3, [r3]
 2566 049e D9B2     		uxtb	r1, r3
 2567 04a0 974B     		ldr	r3, .L147
 2568 04a2 9954     		strb	r1, [r3, r2]
 676:runtime.c     ****                     if((--byteCount)==0)break;
 2569              		.loc 1 676 0
 2570 04a4 2423     		movs	r3, #36
 2571 04a6 0822     		movs	r2, #8
 2572 04a8 9446     		mov	ip, r2
 2573 04aa BC44     		add	ip, ip, r7
 2574 04ac 6344     		add	r3, r3, ip
 2575 04ae 2422     		movs	r2, #36
 2576 04b0 0821     		movs	r1, #8
 2577 04b2 8C46     		mov	ip, r1
 2578 04b4 BC44     		add	ip, ip, r7
 2579 04b6 6244     		add	r2, r2, ip
 2580 04b8 1278     		ldrb	r2, [r2]
 2581 04ba 013A     		subs	r2, r2, #1
 2582 04bc 1A70     		strb	r2, [r3]
 2583 04be 2423     		movs	r3, #36
 2584 04c0 0822     		movs	r2, #8
 2585 04c2 9446     		mov	ip, r2
 2586 04c4 BC44     		add	ip, ip, r7
 2587 04c6 6344     		add	r3, r3, ip
 2588 04c8 1B78     		ldrb	r3, [r3]
 2589 04ca 002B     		cmp	r3, #0
 2590 04cc 00D1     		bne	.LCB2152
 2591 04ce 8FE2     		b	.L128	@long jump
 2592              	.LCB2152:
 2593              	.L76:
 677:runtime.c     ****                     
 678:runtime.c     ****                 case 4:    
 679:runtime.c     ****                     modbus_txBuffer[idx++] = 0;
 2594              		.loc 1 679 0
 2595 04d0 2523     		movs	r3, #37
 2596 04d2 0822     		movs	r2, #8
 2597 04d4 9446     		mov	ip, r2
 2598 04d6 BC44     		add	ip, ip, r7
ARM GAS  C:\Users\alexport\AppData\Local\Temp\cc5NLpBH.s 			page 59


 2599 04d8 6344     		add	r3, r3, ip
 2600 04da 1B78     		ldrb	r3, [r3]
 2601 04dc 2522     		movs	r2, #37
 2602 04de 0821     		movs	r1, #8
 2603 04e0 8C46     		mov	ip, r1
 2604 04e2 BC44     		add	ip, ip, r7
 2605 04e4 6244     		add	r2, r2, ip
 2606 04e6 591C     		adds	r1, r3, #1
 2607 04e8 1170     		strb	r1, [r2]
 2608 04ea 1A00     		movs	r2, r3
 2609 04ec 844B     		ldr	r3, .L147
 2610 04ee 0021     		movs	r1, #0
 2611 04f0 9954     		strb	r1, [r3, r2]
 680:runtime.c     ****                     modbus_txBuffer[idx++] = 0;
 2612              		.loc 1 680 0
 2613 04f2 2523     		movs	r3, #37
 2614 04f4 0822     		movs	r2, #8
 2615 04f6 9446     		mov	ip, r2
 2616 04f8 BC44     		add	ip, ip, r7
 2617 04fa 6344     		add	r3, r3, ip
 2618 04fc 1B78     		ldrb	r3, [r3]
 2619 04fe 2522     		movs	r2, #37
 2620 0500 0821     		movs	r1, #8
 2621 0502 8C46     		mov	ip, r1
 2622 0504 BC44     		add	ip, ip, r7
 2623 0506 6244     		add	r2, r2, ip
 2624 0508 591C     		adds	r1, r3, #1
 2625 050a 1170     		strb	r1, [r2]
 2626 050c 1A00     		movs	r2, r3
 2627 050e 7C4B     		ldr	r3, .L147
 2628 0510 0021     		movs	r1, #0
 2629 0512 9954     		strb	r1, [r3, r2]
 681:runtime.c     ****                     if((--byteCount)==0)break;
 2630              		.loc 1 681 0
 2631 0514 2423     		movs	r3, #36
 2632 0516 0822     		movs	r2, #8
 2633 0518 9446     		mov	ip, r2
 2634 051a BC44     		add	ip, ip, r7
 2635 051c 6344     		add	r3, r3, ip
 2636 051e 2422     		movs	r2, #36
 2637 0520 0821     		movs	r1, #8
 2638 0522 8C46     		mov	ip, r1
 2639 0524 BC44     		add	ip, ip, r7
 2640 0526 6244     		add	r2, r2, ip
 2641 0528 1278     		ldrb	r2, [r2]
 2642 052a 013A     		subs	r2, r2, #1
 2643 052c 1A70     		strb	r2, [r3]
 2644 052e 2423     		movs	r3, #36
 2645 0530 0822     		movs	r2, #8
 2646 0532 9446     		mov	ip, r2
 2647 0534 BC44     		add	ip, ip, r7
 2648 0536 6344     		add	r3, r3, ip
 2649 0538 1B78     		ldrb	r3, [r3]
 2650 053a 002B     		cmp	r3, #0
 2651 053c 00D1     		bne	.LCB2208
 2652 053e 59E2     		b	.L129	@long jump
 2653              	.LCB2208:
ARM GAS  C:\Users\alexport\AppData\Local\Temp\cc5NLpBH.s 			page 60


 2654              	.L77:
 682:runtime.c     ****                 case 5:    
 683:runtime.c     ****                     modbus_txBuffer[idx++] = lat[3];
 2655              		.loc 1 683 0
 2656 0540 2523     		movs	r3, #37
 2657 0542 0822     		movs	r2, #8
 2658 0544 9446     		mov	ip, r2
 2659 0546 BC44     		add	ip, ip, r7
 2660 0548 6344     		add	r3, r3, ip
 2661 054a 1B78     		ldrb	r3, [r3]
 2662 054c 2522     		movs	r2, #37
 2663 054e 0821     		movs	r1, #8
 2664 0550 8C46     		mov	ip, r1
 2665 0552 BC44     		add	ip, ip, r7
 2666 0554 6244     		add	r2, r2, ip
 2667 0556 591C     		adds	r1, r3, #1
 2668 0558 1170     		strb	r1, [r2]
 2669 055a 1A00     		movs	r2, r3
 2670 055c 0C23     		movs	r3, #12
 2671 055e 0821     		movs	r1, #8
 2672 0560 8C46     		mov	ip, r1
 2673 0562 BC44     		add	ip, ip, r7
 2674 0564 6344     		add	r3, r3, ip
 2675 0566 D978     		ldrb	r1, [r3, #3]
 2676 0568 654B     		ldr	r3, .L147
 2677 056a 9954     		strb	r1, [r3, r2]
 684:runtime.c     ****                     modbus_txBuffer[idx++] = lat[2];
 2678              		.loc 1 684 0
 2679 056c 2523     		movs	r3, #37
 2680 056e 0822     		movs	r2, #8
 2681 0570 9446     		mov	ip, r2
 2682 0572 BC44     		add	ip, ip, r7
 2683 0574 6344     		add	r3, r3, ip
 2684 0576 1B78     		ldrb	r3, [r3]
 2685 0578 2522     		movs	r2, #37
 2686 057a 0821     		movs	r1, #8
 2687 057c 8C46     		mov	ip, r1
 2688 057e BC44     		add	ip, ip, r7
 2689 0580 6244     		add	r2, r2, ip
 2690 0582 591C     		adds	r1, r3, #1
 2691 0584 1170     		strb	r1, [r2]
 2692 0586 1A00     		movs	r2, r3
 2693 0588 0C23     		movs	r3, #12
 2694 058a 0821     		movs	r1, #8
 2695 058c 8C46     		mov	ip, r1
 2696 058e BC44     		add	ip, ip, r7
 2697 0590 6344     		add	r3, r3, ip
 2698 0592 9978     		ldrb	r1, [r3, #2]
 2699 0594 5A4B     		ldr	r3, .L147
 2700 0596 9954     		strb	r1, [r3, r2]
 685:runtime.c     ****                     if((--byteCount)==0)break; 
 2701              		.loc 1 685 0
 2702 0598 2423     		movs	r3, #36
 2703 059a 0822     		movs	r2, #8
 2704 059c 9446     		mov	ip, r2
 2705 059e BC44     		add	ip, ip, r7
 2706 05a0 6344     		add	r3, r3, ip
ARM GAS  C:\Users\alexport\AppData\Local\Temp\cc5NLpBH.s 			page 61


 2707 05a2 2422     		movs	r2, #36
 2708 05a4 0821     		movs	r1, #8
 2709 05a6 8C46     		mov	ip, r1
 2710 05a8 BC44     		add	ip, ip, r7
 2711 05aa 6244     		add	r2, r2, ip
 2712 05ac 1278     		ldrb	r2, [r2]
 2713 05ae 013A     		subs	r2, r2, #1
 2714 05b0 1A70     		strb	r2, [r3]
 2715 05b2 2423     		movs	r3, #36
 2716 05b4 0822     		movs	r2, #8
 2717 05b6 9446     		mov	ip, r2
 2718 05b8 BC44     		add	ip, ip, r7
 2719 05ba 6344     		add	r3, r3, ip
 2720 05bc 1B78     		ldrb	r3, [r3]
 2721 05be 002B     		cmp	r3, #0
 2722 05c0 00D1     		bne	.LCB2274
 2723 05c2 19E2     		b	.L130	@long jump
 2724              	.LCB2274:
 2725              	.L78:
 686:runtime.c     ****                 case 6:    
 687:runtime.c     ****                     modbus_txBuffer[idx++] = lat[1];
 2726              		.loc 1 687 0
 2727 05c4 2523     		movs	r3, #37
 2728 05c6 0822     		movs	r2, #8
 2729 05c8 9446     		mov	ip, r2
 2730 05ca BC44     		add	ip, ip, r7
 2731 05cc 6344     		add	r3, r3, ip
 2732 05ce 1B78     		ldrb	r3, [r3]
 2733 05d0 2522     		movs	r2, #37
 2734 05d2 0821     		movs	r1, #8
 2735 05d4 8C46     		mov	ip, r1
 2736 05d6 BC44     		add	ip, ip, r7
 2737 05d8 6244     		add	r2, r2, ip
 2738 05da 591C     		adds	r1, r3, #1
 2739 05dc 1170     		strb	r1, [r2]
 2740 05de 1A00     		movs	r2, r3
 2741 05e0 0C23     		movs	r3, #12
 2742 05e2 0821     		movs	r1, #8
 2743 05e4 8C46     		mov	ip, r1
 2744 05e6 BC44     		add	ip, ip, r7
 2745 05e8 6344     		add	r3, r3, ip
 2746 05ea 5978     		ldrb	r1, [r3, #1]
 2747 05ec 444B     		ldr	r3, .L147
 2748 05ee 9954     		strb	r1, [r3, r2]
 688:runtime.c     ****                     modbus_txBuffer[idx++] = lat[0];
 2749              		.loc 1 688 0
 2750 05f0 2523     		movs	r3, #37
 2751 05f2 0822     		movs	r2, #8
 2752 05f4 9446     		mov	ip, r2
 2753 05f6 BC44     		add	ip, ip, r7
 2754 05f8 6344     		add	r3, r3, ip
 2755 05fa 1B78     		ldrb	r3, [r3]
 2756 05fc 2522     		movs	r2, #37
 2757 05fe 0821     		movs	r1, #8
 2758 0600 8C46     		mov	ip, r1
 2759 0602 BC44     		add	ip, ip, r7
 2760 0604 6244     		add	r2, r2, ip
ARM GAS  C:\Users\alexport\AppData\Local\Temp\cc5NLpBH.s 			page 62


 2761 0606 591C     		adds	r1, r3, #1
 2762 0608 1170     		strb	r1, [r2]
 2763 060a 1A00     		movs	r2, r3
 2764 060c 0C23     		movs	r3, #12
 2765 060e 0821     		movs	r1, #8
 2766 0610 8C46     		mov	ip, r1
 2767 0612 BC44     		add	ip, ip, r7
 2768 0614 6344     		add	r3, r3, ip
 2769 0616 1978     		ldrb	r1, [r3]
 2770 0618 394B     		ldr	r3, .L147
 2771 061a 9954     		strb	r1, [r3, r2]
 689:runtime.c     ****                     if((--byteCount)==0)break;
 2772              		.loc 1 689 0
 2773 061c 2423     		movs	r3, #36
 2774 061e 0822     		movs	r2, #8
 2775 0620 9446     		mov	ip, r2
 2776 0622 BC44     		add	ip, ip, r7
 2777 0624 6344     		add	r3, r3, ip
 2778 0626 2422     		movs	r2, #36
 2779 0628 0821     		movs	r1, #8
 2780 062a 8C46     		mov	ip, r1
 2781 062c BC44     		add	ip, ip, r7
 2782 062e 6244     		add	r2, r2, ip
 2783 0630 1278     		ldrb	r2, [r2]
 2784 0632 013A     		subs	r2, r2, #1
 2785 0634 1A70     		strb	r2, [r3]
 2786 0636 2423     		movs	r3, #36
 2787 0638 0822     		movs	r2, #8
 2788 063a 9446     		mov	ip, r2
 2789 063c BC44     		add	ip, ip, r7
 2790 063e 6344     		add	r3, r3, ip
 2791 0640 1B78     		ldrb	r3, [r3]
 2792 0642 002B     		cmp	r3, #0
 2793 0644 00D1     		bne	.LCB2340
 2794 0646 D9E1     		b	.L131	@long jump
 2795              	.LCB2340:
 2796              	.L79:
 690:runtime.c     ****                 case 7:    
 691:runtime.c     ****                     modbus_txBuffer[idx++] = lon[3];
 2797              		.loc 1 691 0
 2798 0648 2523     		movs	r3, #37
 2799 064a 0822     		movs	r2, #8
 2800 064c 9446     		mov	ip, r2
 2801 064e BC44     		add	ip, ip, r7
 2802 0650 6344     		add	r3, r3, ip
 2803 0652 1B78     		ldrb	r3, [r3]
 2804 0654 2522     		movs	r2, #37
 2805 0656 0821     		movs	r1, #8
 2806 0658 8C46     		mov	ip, r1
 2807 065a BC44     		add	ip, ip, r7
 2808 065c 6244     		add	r2, r2, ip
 2809 065e 591C     		adds	r1, r3, #1
 2810 0660 1170     		strb	r1, [r2]
 2811 0662 1A00     		movs	r2, r3
 2812 0664 0823     		movs	r3, #8
 2813 0666 0821     		movs	r1, #8
 2814 0668 8C46     		mov	ip, r1
ARM GAS  C:\Users\alexport\AppData\Local\Temp\cc5NLpBH.s 			page 63


 2815 066a BC44     		add	ip, ip, r7
 2816 066c 6344     		add	r3, r3, ip
 2817 066e D978     		ldrb	r1, [r3, #3]
 2818 0670 234B     		ldr	r3, .L147
 2819 0672 9954     		strb	r1, [r3, r2]
 692:runtime.c     ****                     modbus_txBuffer[idx++] = lon[2];
 2820              		.loc 1 692 0
 2821 0674 2523     		movs	r3, #37
 2822 0676 0822     		movs	r2, #8
 2823 0678 9446     		mov	ip, r2
 2824 067a BC44     		add	ip, ip, r7
 2825 067c 6344     		add	r3, r3, ip
 2826 067e 1B78     		ldrb	r3, [r3]
 2827 0680 2522     		movs	r2, #37
 2828 0682 0821     		movs	r1, #8
 2829 0684 8C46     		mov	ip, r1
 2830 0686 BC44     		add	ip, ip, r7
 2831 0688 6244     		add	r2, r2, ip
 2832 068a 591C     		adds	r1, r3, #1
 2833 068c 1170     		strb	r1, [r2]
 2834 068e 1A00     		movs	r2, r3
 2835 0690 0823     		movs	r3, #8
 2836 0692 0821     		movs	r1, #8
 2837 0694 8C46     		mov	ip, r1
 2838 0696 BC44     		add	ip, ip, r7
 2839 0698 6344     		add	r3, r3, ip
 2840 069a 9978     		ldrb	r1, [r3, #2]
 2841 069c 184B     		ldr	r3, .L147
 2842 069e 9954     		strb	r1, [r3, r2]
 693:runtime.c     ****                     if((--byteCount)==0)break;  
 2843              		.loc 1 693 0
 2844 06a0 2423     		movs	r3, #36
 2845 06a2 0822     		movs	r2, #8
 2846 06a4 9446     		mov	ip, r2
 2847 06a6 BC44     		add	ip, ip, r7
 2848 06a8 6344     		add	r3, r3, ip
 2849 06aa 2422     		movs	r2, #36
 2850 06ac 0821     		movs	r1, #8
 2851 06ae 8C46     		mov	ip, r1
 2852 06b0 BC44     		add	ip, ip, r7
 2853 06b2 6244     		add	r2, r2, ip
 2854 06b4 1278     		ldrb	r2, [r2]
 2855 06b6 013A     		subs	r2, r2, #1
 2856 06b8 1A70     		strb	r2, [r3]
 2857 06ba 2423     		movs	r3, #36
 2858 06bc 0822     		movs	r2, #8
 2859 06be 9446     		mov	ip, r2
 2860 06c0 BC44     		add	ip, ip, r7
 2861 06c2 6344     		add	r3, r3, ip
 2862 06c4 1B78     		ldrb	r3, [r3]
 2863 06c6 002B     		cmp	r3, #0
 2864 06c8 00D1     		bne	.LCB2406
 2865 06ca 99E1     		b	.L132	@long jump
 2866              	.LCB2406:
 2867              	.L80:
 694:runtime.c     ****                 case 8:    
 695:runtime.c     ****                     modbus_txBuffer[idx++] = lon[1];
ARM GAS  C:\Users\alexport\AppData\Local\Temp\cc5NLpBH.s 			page 64


 2868              		.loc 1 695 0
 2869 06cc 2523     		movs	r3, #37
 2870 06ce 0822     		movs	r2, #8
 2871 06d0 9446     		mov	ip, r2
 2872 06d2 BC44     		add	ip, ip, r7
 2873 06d4 6344     		add	r3, r3, ip
 2874 06d6 1B78     		ldrb	r3, [r3]
 2875 06d8 2522     		movs	r2, #37
 2876 06da 0821     		movs	r1, #8
 2877 06dc 8C46     		mov	ip, r1
 2878 06de BC44     		add	ip, ip, r7
 2879 06e0 6244     		add	r2, r2, ip
 2880 06e2 591C     		adds	r1, r3, #1
 2881 06e4 1170     		strb	r1, [r2]
 2882 06e6 1A00     		movs	r2, r3
 2883 06e8 0823     		movs	r3, #8
 2884 06ea 0821     		movs	r1, #8
 2885 06ec 8C46     		mov	ip, r1
 2886 06ee BC44     		add	ip, ip, r7
 2887 06f0 6344     		add	r3, r3, ip
 2888 06f2 5978     		ldrb	r1, [r3, #1]
 2889 06f4 024B     		ldr	r3, .L147
 2890 06f6 9954     		strb	r1, [r3, r2]
 696:runtime.c     ****                     modbus_txBuffer[idx++] = lon[0];
 2891              		.loc 1 696 0
 2892 06f8 2523     		movs	r3, #37
 2893 06fa 0822     		movs	r2, #8
 2894 06fc 08E0     		b	.L148
 2895              	.L149:
 2896 06fe C046     		.align	2
 2897              	.L147:
 2898 0700 00000000 		.word	modbus_txBuffer
 2899 0704 00000000 		.word	sensor
 2900 0708 00000000 		.word	mySlaveAddr
 2901 070c 00000000 		.word	sleepPeriod
 2902              	.L148:
 2903 0710 9446     		mov	ip, r2
 2904 0712 BC44     		add	ip, ip, r7
 2905 0714 6344     		add	r3, r3, ip
 2906 0716 1B78     		ldrb	r3, [r3]
 2907 0718 2522     		movs	r2, #37
 2908 071a 0821     		movs	r1, #8
 2909 071c 8C46     		mov	ip, r1
 2910 071e BC44     		add	ip, ip, r7
 2911 0720 6244     		add	r2, r2, ip
 2912 0722 591C     		adds	r1, r3, #1
 2913 0724 1170     		strb	r1, [r2]
 2914 0726 1A00     		movs	r2, r3
 2915 0728 0823     		movs	r3, #8
 2916 072a 0821     		movs	r1, #8
 2917 072c 8C46     		mov	ip, r1
 2918 072e BC44     		add	ip, ip, r7
 2919 0730 6344     		add	r3, r3, ip
 2920 0732 1978     		ldrb	r1, [r3]
 2921 0734 C64B     		ldr	r3, .L150
 2922 0736 9954     		strb	r1, [r3, r2]
 697:runtime.c     ****                     if((--byteCount)==0)break;      
ARM GAS  C:\Users\alexport\AppData\Local\Temp\cc5NLpBH.s 			page 65


 2923              		.loc 1 697 0
 2924 0738 2423     		movs	r3, #36
 2925 073a 0822     		movs	r2, #8
 2926 073c 9446     		mov	ip, r2
 2927 073e BC44     		add	ip, ip, r7
 2928 0740 6344     		add	r3, r3, ip
 2929 0742 2422     		movs	r2, #36
 2930 0744 0821     		movs	r1, #8
 2931 0746 8C46     		mov	ip, r1
 2932 0748 BC44     		add	ip, ip, r7
 2933 074a 6244     		add	r2, r2, ip
 2934 074c 1278     		ldrb	r2, [r2]
 2935 074e 013A     		subs	r2, r2, #1
 2936 0750 1A70     		strb	r2, [r3]
 2937 0752 2423     		movs	r3, #36
 2938 0754 0822     		movs	r2, #8
 2939 0756 9446     		mov	ip, r2
 2940 0758 BC44     		add	ip, ip, r7
 2941 075a 6344     		add	r3, r3, ip
 2942 075c 1B78     		ldrb	r3, [r3]
 2943 075e 002B     		cmp	r3, #0
 2944 0760 00D1     		bne	.LCB2484
 2945 0762 4FE1     		b	.L133	@long jump
 2946              	.LCB2484:
 2947              	.L81:
 698:runtime.c     ****                 case 9:    
 699:runtime.c     ****                     modbus_txBuffer[idx++] = 0;
 2948              		.loc 1 699 0
 2949 0764 2523     		movs	r3, #37
 2950 0766 0822     		movs	r2, #8
 2951 0768 9446     		mov	ip, r2
 2952 076a BC44     		add	ip, ip, r7
 2953 076c 6344     		add	r3, r3, ip
 2954 076e 1B78     		ldrb	r3, [r3]
 2955 0770 2522     		movs	r2, #37
 2956 0772 0821     		movs	r1, #8
 2957 0774 8C46     		mov	ip, r1
 2958 0776 BC44     		add	ip, ip, r7
 2959 0778 6244     		add	r2, r2, ip
 2960 077a 591C     		adds	r1, r3, #1
 2961 077c 1170     		strb	r1, [r2]
 2962 077e 1A00     		movs	r2, r3
 2963 0780 B34B     		ldr	r3, .L150
 2964 0782 0021     		movs	r1, #0
 2965 0784 9954     		strb	r1, [r3, r2]
 700:runtime.c     ****                     modbus_txBuffer[idx++] = relays_state;//alarm;
 2966              		.loc 1 700 0
 2967 0786 2523     		movs	r3, #37
 2968 0788 0822     		movs	r2, #8
 2969 078a 9446     		mov	ip, r2
 2970 078c BC44     		add	ip, ip, r7
 2971 078e 6344     		add	r3, r3, ip
 2972 0790 1B78     		ldrb	r3, [r3]
 2973 0792 2522     		movs	r2, #37
 2974 0794 0821     		movs	r1, #8
 2975 0796 8C46     		mov	ip, r1
 2976 0798 BC44     		add	ip, ip, r7
ARM GAS  C:\Users\alexport\AppData\Local\Temp\cc5NLpBH.s 			page 66


 2977 079a 6244     		add	r2, r2, ip
 2978 079c 591C     		adds	r1, r3, #1
 2979 079e 1170     		strb	r1, [r2]
 2980 07a0 1A00     		movs	r2, r3
 2981 07a2 AC4B     		ldr	r3, .L150+4
 2982 07a4 1978     		ldrb	r1, [r3]
 2983 07a6 AA4B     		ldr	r3, .L150
 2984 07a8 9954     		strb	r1, [r3, r2]
 701:runtime.c     ****                     if((--byteCount)==0)break;    
 2985              		.loc 1 701 0
 2986 07aa 2423     		movs	r3, #36
 2987 07ac 0822     		movs	r2, #8
 2988 07ae 9446     		mov	ip, r2
 2989 07b0 BC44     		add	ip, ip, r7
 2990 07b2 6344     		add	r3, r3, ip
 2991 07b4 2422     		movs	r2, #36
 2992 07b6 0821     		movs	r1, #8
 2993 07b8 8C46     		mov	ip, r1
 2994 07ba BC44     		add	ip, ip, r7
 2995 07bc 6244     		add	r2, r2, ip
 2996 07be 1278     		ldrb	r2, [r2]
 2997 07c0 013A     		subs	r2, r2, #1
 2998 07c2 1A70     		strb	r2, [r3]
 2999 07c4 2423     		movs	r3, #36
 3000 07c6 0822     		movs	r2, #8
 3001 07c8 9446     		mov	ip, r2
 3002 07ca BC44     		add	ip, ip, r7
 3003 07cc 6344     		add	r3, r3, ip
 3004 07ce 1B78     		ldrb	r3, [r3]
 3005 07d0 002B     		cmp	r3, #0
 3006 07d2 00D1     		bne	.LCB2541
 3007 07d4 18E1     		b	.L134	@long jump
 3008              	.LCB2541:
 3009              	.L82:
 702:runtime.c     ****                 case 10:    
 703:runtime.c     ****                     modbus_txBuffer[idx++] = 0;
 3010              		.loc 1 703 0
 3011 07d6 2523     		movs	r3, #37
 3012 07d8 0822     		movs	r2, #8
 3013 07da 9446     		mov	ip, r2
 3014 07dc BC44     		add	ip, ip, r7
 3015 07de 6344     		add	r3, r3, ip
 3016 07e0 1B78     		ldrb	r3, [r3]
 3017 07e2 2522     		movs	r2, #37
 3018 07e4 0821     		movs	r1, #8
 3019 07e6 8C46     		mov	ip, r1
 3020 07e8 BC44     		add	ip, ip, r7
 3021 07ea 6244     		add	r2, r2, ip
 3022 07ec 591C     		adds	r1, r3, #1
 3023 07ee 1170     		strb	r1, [r2]
 3024 07f0 1A00     		movs	r2, r3
 3025 07f2 974B     		ldr	r3, .L150
 3026 07f4 0021     		movs	r1, #0
 3027 07f6 9954     		strb	r1, [r3, r2]
 704:runtime.c     ****                     modbus_txBuffer[idx++] = date_time.month;
 3028              		.loc 1 704 0
 3029 07f8 2523     		movs	r3, #37
ARM GAS  C:\Users\alexport\AppData\Local\Temp\cc5NLpBH.s 			page 67


 3030 07fa 0822     		movs	r2, #8
 3031 07fc 9446     		mov	ip, r2
 3032 07fe BC44     		add	ip, ip, r7
 3033 0800 6344     		add	r3, r3, ip
 3034 0802 1B78     		ldrb	r3, [r3]
 3035 0804 2522     		movs	r2, #37
 3036 0806 0821     		movs	r1, #8
 3037 0808 8C46     		mov	ip, r1
 3038 080a BC44     		add	ip, ip, r7
 3039 080c 6244     		add	r2, r2, ip
 3040 080e 591C     		adds	r1, r3, #1
 3041 0810 1170     		strb	r1, [r2]
 3042 0812 1A00     		movs	r2, r3
 3043 0814 904B     		ldr	r3, .L150+8
 3044 0816 5979     		ldrb	r1, [r3, #5]
 3045 0818 8D4B     		ldr	r3, .L150
 3046 081a 9954     		strb	r1, [r3, r2]
 705:runtime.c     ****                     if((--byteCount)==0)break;
 3047              		.loc 1 705 0
 3048 081c 2423     		movs	r3, #36
 3049 081e 0822     		movs	r2, #8
 3050 0820 9446     		mov	ip, r2
 3051 0822 BC44     		add	ip, ip, r7
 3052 0824 6344     		add	r3, r3, ip
 3053 0826 2422     		movs	r2, #36
 3054 0828 0821     		movs	r1, #8
 3055 082a 8C46     		mov	ip, r1
 3056 082c BC44     		add	ip, ip, r7
 3057 082e 6244     		add	r2, r2, ip
 3058 0830 1278     		ldrb	r2, [r2]
 3059 0832 013A     		subs	r2, r2, #1
 3060 0834 1A70     		strb	r2, [r3]
 3061 0836 2423     		movs	r3, #36
 3062 0838 0822     		movs	r2, #8
 3063 083a 9446     		mov	ip, r2
 3064 083c BC44     		add	ip, ip, r7
 3065 083e 6344     		add	r3, r3, ip
 3066 0840 1B78     		ldrb	r3, [r3]
 3067 0842 002B     		cmp	r3, #0
 3068 0844 00D1     		bne	.LCB2598
 3069 0846 E1E0     		b	.L135	@long jump
 3070              	.LCB2598:
 3071              	.L83:
 706:runtime.c     ****                 case 11:    
 707:runtime.c     ****                     modbus_txBuffer[idx++] = 0;
 3072              		.loc 1 707 0
 3073 0848 2523     		movs	r3, #37
 3074 084a 0822     		movs	r2, #8
 3075 084c 9446     		mov	ip, r2
 3076 084e BC44     		add	ip, ip, r7
 3077 0850 6344     		add	r3, r3, ip
 3078 0852 1B78     		ldrb	r3, [r3]
 3079 0854 2522     		movs	r2, #37
 3080 0856 0821     		movs	r1, #8
 3081 0858 8C46     		mov	ip, r1
 3082 085a BC44     		add	ip, ip, r7
 3083 085c 6244     		add	r2, r2, ip
ARM GAS  C:\Users\alexport\AppData\Local\Temp\cc5NLpBH.s 			page 68


 3084 085e 591C     		adds	r1, r3, #1
 3085 0860 1170     		strb	r1, [r2]
 3086 0862 1A00     		movs	r2, r3
 3087 0864 7A4B     		ldr	r3, .L150
 3088 0866 0021     		movs	r1, #0
 3089 0868 9954     		strb	r1, [r3, r2]
 708:runtime.c     ****                     modbus_txBuffer[idx++] = date_time.day;
 3090              		.loc 1 708 0
 3091 086a 2523     		movs	r3, #37
 3092 086c 0822     		movs	r2, #8
 3093 086e 9446     		mov	ip, r2
 3094 0870 BC44     		add	ip, ip, r7
 3095 0872 6344     		add	r3, r3, ip
 3096 0874 1B78     		ldrb	r3, [r3]
 3097 0876 2522     		movs	r2, #37
 3098 0878 0821     		movs	r1, #8
 3099 087a 8C46     		mov	ip, r1
 3100 087c BC44     		add	ip, ip, r7
 3101 087e 6244     		add	r2, r2, ip
 3102 0880 591C     		adds	r1, r3, #1
 3103 0882 1170     		strb	r1, [r2]
 3104 0884 1A00     		movs	r2, r3
 3105 0886 744B     		ldr	r3, .L150+8
 3106 0888 1979     		ldrb	r1, [r3, #4]
 3107 088a 714B     		ldr	r3, .L150
 3108 088c 9954     		strb	r1, [r3, r2]
 709:runtime.c     ****                     if((--byteCount)==0)break;   
 3109              		.loc 1 709 0
 3110 088e 2423     		movs	r3, #36
 3111 0890 0822     		movs	r2, #8
 3112 0892 9446     		mov	ip, r2
 3113 0894 BC44     		add	ip, ip, r7
 3114 0896 6344     		add	r3, r3, ip
 3115 0898 2422     		movs	r2, #36
 3116 089a 0821     		movs	r1, #8
 3117 089c 8C46     		mov	ip, r1
 3118 089e BC44     		add	ip, ip, r7
 3119 08a0 6244     		add	r2, r2, ip
 3120 08a2 1278     		ldrb	r2, [r2]
 3121 08a4 013A     		subs	r2, r2, #1
 3122 08a6 1A70     		strb	r2, [r3]
 3123 08a8 2423     		movs	r3, #36
 3124 08aa 0822     		movs	r2, #8
 3125 08ac 9446     		mov	ip, r2
 3126 08ae BC44     		add	ip, ip, r7
 3127 08b0 6344     		add	r3, r3, ip
 3128 08b2 1B78     		ldrb	r3, [r3]
 3129 08b4 002B     		cmp	r3, #0
 3130 08b6 00D1     		bne	.LCB2655
 3131 08b8 AAE0     		b	.L136	@long jump
 3132              	.LCB2655:
 3133              	.L84:
 710:runtime.c     ****                 case 12:    
 711:runtime.c     ****                     modbus_txBuffer[idx++] = 0;
 3134              		.loc 1 711 0
 3135 08ba 2523     		movs	r3, #37
 3136 08bc 0822     		movs	r2, #8
ARM GAS  C:\Users\alexport\AppData\Local\Temp\cc5NLpBH.s 			page 69


 3137 08be 9446     		mov	ip, r2
 3138 08c0 BC44     		add	ip, ip, r7
 3139 08c2 6344     		add	r3, r3, ip
 3140 08c4 1B78     		ldrb	r3, [r3]
 3141 08c6 2522     		movs	r2, #37
 3142 08c8 0821     		movs	r1, #8
 3143 08ca 8C46     		mov	ip, r1
 3144 08cc BC44     		add	ip, ip, r7
 3145 08ce 6244     		add	r2, r2, ip
 3146 08d0 591C     		adds	r1, r3, #1
 3147 08d2 1170     		strb	r1, [r2]
 3148 08d4 1A00     		movs	r2, r3
 3149 08d6 5E4B     		ldr	r3, .L150
 3150 08d8 0021     		movs	r1, #0
 3151 08da 9954     		strb	r1, [r3, r2]
 712:runtime.c     ****                     modbus_txBuffer[idx++] = date_time.year;
 3152              		.loc 1 712 0
 3153 08dc 2523     		movs	r3, #37
 3154 08de 0822     		movs	r2, #8
 3155 08e0 9446     		mov	ip, r2
 3156 08e2 BC44     		add	ip, ip, r7
 3157 08e4 6344     		add	r3, r3, ip
 3158 08e6 1B78     		ldrb	r3, [r3]
 3159 08e8 2522     		movs	r2, #37
 3160 08ea 0821     		movs	r1, #8
 3161 08ec 8C46     		mov	ip, r1
 3162 08ee BC44     		add	ip, ip, r7
 3163 08f0 6244     		add	r2, r2, ip
 3164 08f2 591C     		adds	r1, r3, #1
 3165 08f4 1170     		strb	r1, [r2]
 3166 08f6 1A00     		movs	r2, r3
 3167 08f8 574B     		ldr	r3, .L150+8
 3168 08fa 9979     		ldrb	r1, [r3, #6]
 3169 08fc 544B     		ldr	r3, .L150
 3170 08fe 9954     		strb	r1, [r3, r2]
 713:runtime.c     ****                     if((--byteCount)==0)break;
 3171              		.loc 1 713 0
 3172 0900 2423     		movs	r3, #36
 3173 0902 0822     		movs	r2, #8
 3174 0904 9446     		mov	ip, r2
 3175 0906 BC44     		add	ip, ip, r7
 3176 0908 6344     		add	r3, r3, ip
 3177 090a 2422     		movs	r2, #36
 3178 090c 0821     		movs	r1, #8
 3179 090e 8C46     		mov	ip, r1
 3180 0910 BC44     		add	ip, ip, r7
 3181 0912 6244     		add	r2, r2, ip
 3182 0914 1278     		ldrb	r2, [r2]
 3183 0916 013A     		subs	r2, r2, #1
 3184 0918 1A70     		strb	r2, [r3]
 3185 091a 2423     		movs	r3, #36
 3186 091c 0822     		movs	r2, #8
 3187 091e 9446     		mov	ip, r2
 3188 0920 BC44     		add	ip, ip, r7
 3189 0922 6344     		add	r3, r3, ip
 3190 0924 1B78     		ldrb	r3, [r3]
 3191 0926 002B     		cmp	r3, #0
ARM GAS  C:\Users\alexport\AppData\Local\Temp\cc5NLpBH.s 			page 70


 3192 0928 00D1     		bne	.LCB2712
 3193 092a 73E0     		b	.L137	@long jump
 3194              	.LCB2712:
 3195              	.L85:
 714:runtime.c     ****                 case 13:    
 715:runtime.c     ****                     modbus_txBuffer[idx++] = 0;
 3196              		.loc 1 715 0
 3197 092c 2523     		movs	r3, #37
 3198 092e 0822     		movs	r2, #8
 3199 0930 9446     		mov	ip, r2
 3200 0932 BC44     		add	ip, ip, r7
 3201 0934 6344     		add	r3, r3, ip
 3202 0936 1B78     		ldrb	r3, [r3]
 3203 0938 2522     		movs	r2, #37
 3204 093a 0821     		movs	r1, #8
 3205 093c 8C46     		mov	ip, r1
 3206 093e BC44     		add	ip, ip, r7
 3207 0940 6244     		add	r2, r2, ip
 3208 0942 591C     		adds	r1, r3, #1
 3209 0944 1170     		strb	r1, [r2]
 3210 0946 1A00     		movs	r2, r3
 3211 0948 414B     		ldr	r3, .L150
 3212 094a 0021     		movs	r1, #0
 3213 094c 9954     		strb	r1, [r3, r2]
 716:runtime.c     ****                     modbus_txBuffer[idx++] = date_time.hours;
 3214              		.loc 1 716 0
 3215 094e 2523     		movs	r3, #37
 3216 0950 0822     		movs	r2, #8
 3217 0952 9446     		mov	ip, r2
 3218 0954 BC44     		add	ip, ip, r7
 3219 0956 6344     		add	r3, r3, ip
 3220 0958 1B78     		ldrb	r3, [r3]
 3221 095a 2522     		movs	r2, #37
 3222 095c 0821     		movs	r1, #8
 3223 095e 8C46     		mov	ip, r1
 3224 0960 BC44     		add	ip, ip, r7
 3225 0962 6244     		add	r2, r2, ip
 3226 0964 591C     		adds	r1, r3, #1
 3227 0966 1170     		strb	r1, [r2]
 3228 0968 1A00     		movs	r2, r3
 3229 096a 3B4B     		ldr	r3, .L150+8
 3230 096c 9978     		ldrb	r1, [r3, #2]
 3231 096e 384B     		ldr	r3, .L150
 3232 0970 9954     		strb	r1, [r3, r2]
 717:runtime.c     ****                     if((--byteCount)==0)break;
 3233              		.loc 1 717 0
 3234 0972 2423     		movs	r3, #36
 3235 0974 0822     		movs	r2, #8
 3236 0976 9446     		mov	ip, r2
 3237 0978 BC44     		add	ip, ip, r7
 3238 097a 6344     		add	r3, r3, ip
 3239 097c 2422     		movs	r2, #36
 3240 097e 0821     		movs	r1, #8
 3241 0980 8C46     		mov	ip, r1
 3242 0982 BC44     		add	ip, ip, r7
 3243 0984 6244     		add	r2, r2, ip
 3244 0986 1278     		ldrb	r2, [r2]
ARM GAS  C:\Users\alexport\AppData\Local\Temp\cc5NLpBH.s 			page 71


 3245 0988 013A     		subs	r2, r2, #1
 3246 098a 1A70     		strb	r2, [r3]
 3247 098c 2423     		movs	r3, #36
 3248 098e 0822     		movs	r2, #8
 3249 0990 9446     		mov	ip, r2
 3250 0992 BC44     		add	ip, ip, r7
 3251 0994 6344     		add	r3, r3, ip
 3252 0996 1B78     		ldrb	r3, [r3]
 3253 0998 002B     		cmp	r3, #0
 3254 099a 3DD0     		beq	.L138
 3255              	.L86:
 718:runtime.c     ****                  case 14:    
 719:runtime.c     ****                     modbus_txBuffer[idx++] = 0;
 3256              		.loc 1 719 0
 3257 099c 2523     		movs	r3, #37
 3258 099e 0822     		movs	r2, #8
 3259 09a0 9446     		mov	ip, r2
 3260 09a2 BC44     		add	ip, ip, r7
 3261 09a4 6344     		add	r3, r3, ip
 3262 09a6 1B78     		ldrb	r3, [r3]
 3263 09a8 2522     		movs	r2, #37
 3264 09aa 0821     		movs	r1, #8
 3265 09ac 8C46     		mov	ip, r1
 3266 09ae BC44     		add	ip, ip, r7
 3267 09b0 6244     		add	r2, r2, ip
 3268 09b2 591C     		adds	r1, r3, #1
 3269 09b4 1170     		strb	r1, [r2]
 3270 09b6 1A00     		movs	r2, r3
 3271 09b8 254B     		ldr	r3, .L150
 3272 09ba 0021     		movs	r1, #0
 3273 09bc 9954     		strb	r1, [r3, r2]
 720:runtime.c     ****                     modbus_txBuffer[idx++] = date_time.minutes;
 3274              		.loc 1 720 0
 3275 09be 2523     		movs	r3, #37
 3276 09c0 0822     		movs	r2, #8
 3277 09c2 9446     		mov	ip, r2
 3278 09c4 BC44     		add	ip, ip, r7
 3279 09c6 6344     		add	r3, r3, ip
 3280 09c8 1B78     		ldrb	r3, [r3]
 3281 09ca 2522     		movs	r2, #37
 3282 09cc 0821     		movs	r1, #8
 3283 09ce 8C46     		mov	ip, r1
 3284 09d0 BC44     		add	ip, ip, r7
 3285 09d2 6244     		add	r2, r2, ip
 3286 09d4 591C     		adds	r1, r3, #1
 3287 09d6 1170     		strb	r1, [r2]
 3288 09d8 1A00     		movs	r2, r3
 3289 09da 1F4B     		ldr	r3, .L150+8
 3290 09dc 5978     		ldrb	r1, [r3, #1]
 3291 09de 1C4B     		ldr	r3, .L150
 3292 09e0 9954     		strb	r1, [r3, r2]
 721:runtime.c     ****                     break;   
 3293              		.loc 1 721 0
 3294 09e2 1AE0     		b	.L70
 3295              	.L125:
 663:runtime.c     ****                     
 3296              		.loc 1 663 0
ARM GAS  C:\Users\alexport\AppData\Local\Temp\cc5NLpBH.s 			page 72


 3297 09e4 C046     		nop
 3298 09e6 18E0     		b	.L70
 3299              	.L126:
 668:runtime.c     ****                 case 2:
 3300              		.loc 1 668 0
 3301 09e8 C046     		nop
 3302 09ea 16E0     		b	.L70
 3303              	.L127:
 672:runtime.c     ****                 case 3:    
 3304              		.loc 1 672 0
 3305 09ec C046     		nop
 3306 09ee 14E0     		b	.L70
 3307              	.L128:
 676:runtime.c     ****                     
 3308              		.loc 1 676 0
 3309 09f0 C046     		nop
 3310 09f2 12E0     		b	.L70
 3311              	.L129:
 681:runtime.c     ****                 case 5:    
 3312              		.loc 1 681 0
 3313 09f4 C046     		nop
 3314 09f6 10E0     		b	.L70
 3315              	.L130:
 685:runtime.c     ****                 case 6:    
 3316              		.loc 1 685 0
 3317 09f8 C046     		nop
 3318 09fa 0EE0     		b	.L70
 3319              	.L131:
 689:runtime.c     ****                 case 7:    
 3320              		.loc 1 689 0
 3321 09fc C046     		nop
 3322 09fe 0CE0     		b	.L70
 3323              	.L132:
 693:runtime.c     ****                 case 8:    
 3324              		.loc 1 693 0
 3325 0a00 C046     		nop
 3326 0a02 0AE0     		b	.L70
 3327              	.L133:
 697:runtime.c     ****                 case 9:    
 3328              		.loc 1 697 0
 3329 0a04 C046     		nop
 3330 0a06 08E0     		b	.L70
 3331              	.L134:
 701:runtime.c     ****                 case 10:    
 3332              		.loc 1 701 0
 3333 0a08 C046     		nop
 3334 0a0a 06E0     		b	.L70
 3335              	.L135:
 705:runtime.c     ****                 case 11:    
 3336              		.loc 1 705 0
 3337 0a0c C046     		nop
 3338 0a0e 04E0     		b	.L70
 3339              	.L136:
 709:runtime.c     ****                 case 12:    
 3340              		.loc 1 709 0
 3341 0a10 C046     		nop
 3342 0a12 02E0     		b	.L70
ARM GAS  C:\Users\alexport\AppData\Local\Temp\cc5NLpBH.s 			page 73


 3343              	.L137:
 713:runtime.c     ****                 case 13:    
 3344              		.loc 1 713 0
 3345 0a14 C046     		nop
 3346 0a16 00E0     		b	.L70
 3347              	.L138:
 717:runtime.c     ****                  case 14:    
 3348              		.loc 1 717 0
 3349 0a18 C046     		nop
 3350              	.L70:
 722:runtime.c     ****                     
 723:runtime.c     ****             }
 724:runtime.c     ****             modbusSendBulk(mySlaveAddr , modbusCommand , regsToSend); 
 3351              		.loc 1 724 0
 3352 0a1a 104B     		ldr	r3, .L150+12
 3353 0a1c 1878     		ldrb	r0, [r3]
 3354 0a1e 1423     		movs	r3, #20
 3355 0a20 0822     		movs	r2, #8
 3356 0a22 9446     		mov	ip, r2
 3357 0a24 BC44     		add	ip, ip, r7
 3358 0a26 6344     		add	r3, r3, ip
 3359 0a28 1A88     		ldrh	r2, [r3]
 3360 0a2a 1923     		movs	r3, #25
 3361 0a2c 0821     		movs	r1, #8
 3362 0a2e 8C46     		mov	ip, r1
 3363 0a30 BC44     		add	ip, ip, r7
 3364 0a32 6344     		add	r3, r3, ip
 3365 0a34 1B78     		ldrb	r3, [r3]
 3366 0a36 1900     		movs	r1, r3
 3367 0a38 FFF7FEFF 		bl	modbusSendBulk
 3368 0a3c 63E0     		b	.L54
 3369              	.L69:
 3370              	.LBB5:
 725:runtime.c     ****         }
 726:runtime.c     ****         else{
 727:runtime.c     ****             for(uint16 i=0;i<regsToSend*2;i++){
 3371              		.loc 1 727 0
 3372 0a3e 2023     		movs	r3, #32
 3373 0a40 0822     		movs	r2, #8
 3374 0a42 9446     		mov	ip, r2
 3375 0a44 BC44     		add	ip, ip, r7
 3376 0a46 6344     		add	r3, r3, ip
 3377 0a48 0022     		movs	r2, #0
 3378 0a4a 1A80     		strh	r2, [r3]
 3379 0a4c 3BE0     		b	.L88
 3380              	.L151:
 3381 0a4e C046     		.align	2
 3382              	.L150:
 3383 0a50 00000000 		.word	modbus_txBuffer
 3384 0a54 00000000 		.word	relays_state
 3385 0a58 00000000 		.word	date_time
 3386 0a5c 00000000 		.word	mySlaveAddr
 3387              	.L89:
 728:runtime.c     ****                 modbus_txBuffer[3+i] = sensor[dev-1][startRegister*2+2+i];
 3388              		.loc 1 728 0 discriminator 3
 3389 0a60 2023     		movs	r3, #32
 3390 0a62 0822     		movs	r2, #8
ARM GAS  C:\Users\alexport\AppData\Local\Temp\cc5NLpBH.s 			page 74


 3391 0a64 9446     		mov	ip, r2
 3392 0a66 BC44     		add	ip, ip, r7
 3393 0a68 6344     		add	r3, r3, ip
 3394 0a6a 1B88     		ldrh	r3, [r3]
 3395 0a6c D91C     		adds	r1, r3, #3
 3396 0a6e 1323     		movs	r3, #19
 3397 0a70 0822     		movs	r2, #8
 3398 0a72 9446     		mov	ip, r2
 3399 0a74 BC44     		add	ip, ip, r7
 3400 0a76 6344     		add	r3, r3, ip
 3401 0a78 1B78     		ldrb	r3, [r3]
 3402 0a7a 5A1E     		subs	r2, r3, #1
 3403 0a7c 1623     		movs	r3, #22
 3404 0a7e 0820     		movs	r0, #8
 3405 0a80 8446     		mov	ip, r0
 3406 0a82 BC44     		add	ip, ip, r7
 3407 0a84 6344     		add	r3, r3, ip
 3408 0a86 1B88     		ldrh	r3, [r3]
 3409 0a88 0133     		adds	r3, r3, #1
 3410 0a8a 5800     		lsls	r0, r3, #1
 3411 0a8c 2023     		movs	r3, #32
 3412 0a8e 0824     		movs	r4, #8
 3413 0a90 A446     		mov	ip, r4
 3414 0a92 BC44     		add	ip, ip, r7
 3415 0a94 6344     		add	r3, r3, ip
 3416 0a96 1B88     		ldrh	r3, [r3]
 3417 0a98 C018     		adds	r0, r0, r3
 3418 0a9a EE4C     		ldr	r4, .L152
 3419 0a9c 1300     		movs	r3, r2
 3420 0a9e 1B01     		lsls	r3, r3, #4
 3421 0aa0 9B1A     		subs	r3, r3, r2
 3422 0aa2 DB00     		lsls	r3, r3, #3
 3423 0aa4 E318     		adds	r3, r4, r3
 3424 0aa6 1A5C     		ldrb	r2, [r3, r0]
 3425 0aa8 EB4B     		ldr	r3, .L152+4
 3426 0aaa 5A54     		strb	r2, [r3, r1]
 727:runtime.c     ****                 modbus_txBuffer[3+i] = sensor[dev-1][startRegister*2+2+i];
 3427              		.loc 1 727 0 discriminator 3
 3428 0aac 2023     		movs	r3, #32
 3429 0aae 0822     		movs	r2, #8
 3430 0ab0 9446     		mov	ip, r2
 3431 0ab2 BC44     		add	ip, ip, r7
 3432 0ab4 6344     		add	r3, r3, ip
 3433 0ab6 1A88     		ldrh	r2, [r3]
 3434 0ab8 2023     		movs	r3, #32
 3435 0aba 0821     		movs	r1, #8
 3436 0abc 8C46     		mov	ip, r1
 3437 0abe BC44     		add	ip, ip, r7
 3438 0ac0 6344     		add	r3, r3, ip
 3439 0ac2 0132     		adds	r2, r2, #1
 3440 0ac4 1A80     		strh	r2, [r3]
 3441              	.L88:
 727:runtime.c     ****                 modbus_txBuffer[3+i] = sensor[dev-1][startRegister*2+2+i];
 3442              		.loc 1 727 0 is_stmt 0 discriminator 1
 3443 0ac6 2023     		movs	r3, #32
 3444 0ac8 0822     		movs	r2, #8
 3445 0aca 9446     		mov	ip, r2
ARM GAS  C:\Users\alexport\AppData\Local\Temp\cc5NLpBH.s 			page 75


 3446 0acc BC44     		add	ip, ip, r7
 3447 0ace 6344     		add	r3, r3, ip
 3448 0ad0 1A88     		ldrh	r2, [r3]
 3449 0ad2 1423     		movs	r3, #20
 3450 0ad4 0821     		movs	r1, #8
 3451 0ad6 8C46     		mov	ip, r1
 3452 0ad8 BC44     		add	ip, ip, r7
 3453 0ada 6344     		add	r3, r3, ip
 3454 0adc 1B88     		ldrh	r3, [r3]
 3455 0ade 5B00     		lsls	r3, r3, #1
 3456 0ae0 9A42     		cmp	r2, r3
 3457 0ae2 BDDB     		blt	.L89
 3458              	.LBE5:
 729:runtime.c     ****             }
 730:runtime.c     ****             modbusSendBulk(mySlaveAddr , modbusCommand , regsToSend); 
 3459              		.loc 1 730 0 is_stmt 1
 3460 0ae4 DD4B     		ldr	r3, .L152+8
 3461 0ae6 1878     		ldrb	r0, [r3]
 3462 0ae8 1423     		movs	r3, #20
 3463 0aea 0822     		movs	r2, #8
 3464 0aec 9446     		mov	ip, r2
 3465 0aee BC44     		add	ip, ip, r7
 3466 0af0 6344     		add	r3, r3, ip
 3467 0af2 1A88     		ldrh	r2, [r3]
 3468 0af4 1923     		movs	r3, #25
 3469 0af6 0821     		movs	r1, #8
 3470 0af8 8C46     		mov	ip, r1
 3471 0afa BC44     		add	ip, ip, r7
 3472 0afc 6344     		add	r3, r3, ip
 3473 0afe 1B78     		ldrb	r3, [r3]
 3474 0b00 1900     		movs	r1, r3
 3475 0b02 FFF7FEFF 		bl	modbusSendBulk
 3476              	.L54:
 3477              	.LBE4:
 731:runtime.c     ****             
 732:runtime.c     ****         } 
 733:runtime.c     ****     }
 734:runtime.c     ****     
 735:runtime.c     ****     
 736:runtime.c     ****     
 737:runtime.c     ****     
 738:runtime.c     ****     
 739:runtime.c     ****     if ( MODBUS_WRITE_CMD == modbusCommand){
 3478              		.loc 1 739 0
 3479 0b06 1923     		movs	r3, #25
 3480 0b08 0822     		movs	r2, #8
 3481 0b0a 9446     		mov	ip, r2
 3482 0b0c BC44     		add	ip, ip, r7
 3483 0b0e 6344     		add	r3, r3, ip
 3484 0b10 1B78     		ldrb	r3, [r3]
 3485 0b12 062B     		cmp	r3, #6
 3486 0b14 01D0     		beq	.LCB3014
 3487 0b16 00F007FD 		bl	.L90	@far jump
 3488              	.LCB3014:
 740:runtime.c     ****         bytesIn =0;
 3489              		.loc 1 740 0
 3490 0b1a D14B     		ldr	r3, .L152+12
ARM GAS  C:\Users\alexport\AppData\Local\Temp\cc5NLpBH.s 			page 76


 3491 0b1c 0022     		movs	r2, #0
 3492 0b1e 1A70     		strb	r2, [r3]
 741:runtime.c     ****         
 742:runtime.c     ****         // send Write response
 743:runtime.c     ****         //dev = modbus_rxBuffer[3]/100;
 744:runtime.c     ****         //startRegister = modbus_rxBuffer[3]%100;
 745:runtime.c     ****         data = modbus_rxBuffer[4];   // high byte to write
 3493              		.loc 1 745 0
 3494 0b20 D04B     		ldr	r3, .L152+16
 3495 0b22 1A79     		ldrb	r2, [r3, #4]
 3496 0b24 2623     		movs	r3, #38
 3497 0b26 0821     		movs	r1, #8
 3498 0b28 8C46     		mov	ip, r1
 3499 0b2a BC44     		add	ip, ip, r7
 3500 0b2c 6344     		add	r3, r3, ip
 3501 0b2e 1A80     		strh	r2, [r3]
 746:runtime.c     ****         data = (data << 8)+ modbus_rxBuffer[5]; // low byte to write
 3502              		.loc 1 746 0
 3503 0b30 2623     		movs	r3, #38
 3504 0b32 0822     		movs	r2, #8
 3505 0b34 9446     		mov	ip, r2
 3506 0b36 BC44     		add	ip, ip, r7
 3507 0b38 6344     		add	r3, r3, ip
 3508 0b3a 1B88     		ldrh	r3, [r3]
 3509 0b3c 1B02     		lsls	r3, r3, #8
 3510 0b3e 99B2     		uxth	r1, r3
 3511 0b40 C84B     		ldr	r3, .L152+16
 3512 0b42 5B79     		ldrb	r3, [r3, #5]
 3513 0b44 9AB2     		uxth	r2, r3
 3514 0b46 2623     		movs	r3, #38
 3515 0b48 0820     		movs	r0, #8
 3516 0b4a 8446     		mov	ip, r0
 3517 0b4c BC44     		add	ip, ip, r7
 3518 0b4e 6344     		add	r3, r3, ip
 3519 0b50 8A18     		adds	r2, r1, r2
 3520 0b52 1A80     		strh	r2, [r3]
 747:runtime.c     ****         
 748:runtime.c     ****         if(startRegister ==MODBUS_SYS_REMOTE_REG){
 3521              		.loc 1 748 0
 3522 0b54 1623     		movs	r3, #22
 3523 0b56 0822     		movs	r2, #8
 3524 0b58 9446     		mov	ip, r2
 3525 0b5a BC44     		add	ip, ip, r7
 3526 0b5c 6344     		add	r3, r3, ip
 3527 0b5e 1B88     		ldrh	r3, [r3]
 3528 0b60 0B2B     		cmp	r3, #11
 3529 0b62 19D1     		bne	.L91
 749:runtime.c     ****             if(dev>0)
 3530              		.loc 1 749 0
 3531 0b64 1323     		movs	r3, #19
 3532 0b66 0822     		movs	r2, #8
 3533 0b68 9446     		mov	ip, r2
 3534 0b6a BC44     		add	ip, ip, r7
 3535 0b6c 6344     		add	r3, r3, ip
 3536 0b6e 1B78     		ldrb	r3, [r3]
 3537 0b70 002B     		cmp	r3, #0
 3538 0b72 11D0     		beq	.L91
ARM GAS  C:\Users\alexport\AppData\Local\Temp\cc5NLpBH.s 			page 77


 750:runtime.c     ****                 runtime_CtrlSensor(dev-1 , SENSOR_SYS_REMOTE_REG, data);   
 3539              		.loc 1 750 0
 3540 0b74 1323     		movs	r3, #19
 3541 0b76 0822     		movs	r2, #8
 3542 0b78 9446     		mov	ip, r2
 3543 0b7a BC44     		add	ip, ip, r7
 3544 0b7c 6344     		add	r3, r3, ip
 3545 0b7e 1B78     		ldrb	r3, [r3]
 3546 0b80 013B     		subs	r3, r3, #1
 3547 0b82 D8B2     		uxtb	r0, r3
 3548 0b84 2623     		movs	r3, #38
 3549 0b86 0822     		movs	r2, #8
 3550 0b88 9446     		mov	ip, r2
 3551 0b8a BC44     		add	ip, ip, r7
 3552 0b8c 6344     		add	r3, r3, ip
 3553 0b8e 1B88     		ldrh	r3, [r3]
 3554 0b90 1A00     		movs	r2, r3
 3555 0b92 1421     		movs	r1, #20
 3556 0b94 FFF7FEFF 		bl	runtime_CtrlSensor
 3557              	.L91:
 751:runtime.c     ****         }
 752:runtime.c     ****         if(startRegister ==MODBUS_ALARM1_REG){
 3558              		.loc 1 752 0
 3559 0b98 1623     		movs	r3, #22
 3560 0b9a 0822     		movs	r2, #8
 3561 0b9c 9446     		mov	ip, r2
 3562 0b9e BC44     		add	ip, ip, r7
 3563 0ba0 6344     		add	r3, r3, ip
 3564 0ba2 1B88     		ldrh	r3, [r3]
 3565 0ba4 242B     		cmp	r3, #36
 3566 0ba6 00D0     		beq	.LCB3086
 3567 0ba8 81E0     		b	.L92	@long jump
 3568              	.LCB3086:
 753:runtime.c     ****             if(dev>0){
 3569              		.loc 1 753 0
 3570 0baa 1323     		movs	r3, #19
 3571 0bac 0822     		movs	r2, #8
 3572 0bae 9446     		mov	ip, r2
 3573 0bb0 BC44     		add	ip, ip, r7
 3574 0bb2 6344     		add	r3, r3, ip
 3575 0bb4 1B78     		ldrb	r3, [r3]
 3576 0bb6 002B     		cmp	r3, #0
 3577 0bb8 79D0     		beq	.L92
 754:runtime.c     ****                 runtime_CtrlSensor(dev-1 , SENSOR_ALARM1_REG, data);   
 3578              		.loc 1 754 0
 3579 0bba 1323     		movs	r3, #19
 3580 0bbc 0822     		movs	r2, #8
 3581 0bbe 9446     		mov	ip, r2
 3582 0bc0 BC44     		add	ip, ip, r7
 3583 0bc2 6344     		add	r3, r3, ip
 3584 0bc4 1B78     		ldrb	r3, [r3]
 3585 0bc6 013B     		subs	r3, r3, #1
 3586 0bc8 D8B2     		uxtb	r0, r3
 3587 0bca 2623     		movs	r3, #38
 3588 0bcc 0822     		movs	r2, #8
 3589 0bce 9446     		mov	ip, r2
 3590 0bd0 BC44     		add	ip, ip, r7
ARM GAS  C:\Users\alexport\AppData\Local\Temp\cc5NLpBH.s 			page 78


 3591 0bd2 6344     		add	r3, r3, ip
 3592 0bd4 1B88     		ldrh	r3, [r3]
 3593 0bd6 1A00     		movs	r2, r3
 3594 0bd8 4621     		movs	r1, #70
 3595 0bda FFF7FEFF 		bl	runtime_CtrlSensor
 755:runtime.c     ****                 runtime_CtrlSensor(dev-1 , SENSOR_SYS_REMOTE_REG, RUNTIME_SMART_SENSOR_SYS_REMOTE_S
 3596              		.loc 1 755 0
 3597 0bde 1323     		movs	r3, #19
 3598 0be0 0822     		movs	r2, #8
 3599 0be2 9446     		mov	ip, r2
 3600 0be4 BC44     		add	ip, ip, r7
 3601 0be6 6344     		add	r3, r3, ip
 3602 0be8 1B78     		ldrb	r3, [r3]
 3603 0bea 013B     		subs	r3, r3, #1
 3604 0bec DBB2     		uxtb	r3, r3
 3605 0bee 3022     		movs	r2, #48
 3606 0bf0 1421     		movs	r1, #20
 3607 0bf2 1800     		movs	r0, r3
 3608 0bf4 FFF7FEFF 		bl	runtime_CtrlSensor
 756:runtime.c     ****                 sensor_status[dev-1].alarm1val= data;
 3609              		.loc 1 756 0
 3610 0bf8 1323     		movs	r3, #19
 3611 0bfa 0822     		movs	r2, #8
 3612 0bfc 9446     		mov	ip, r2
 3613 0bfe BC44     		add	ip, ip, r7
 3614 0c00 6344     		add	r3, r3, ip
 3615 0c02 1B78     		ldrb	r3, [r3]
 3616 0c04 5A1E     		subs	r2, r3, #1
 3617 0c06 9849     		ldr	r1, .L152+20
 3618 0c08 1300     		movs	r3, r2
 3619 0c0a DB00     		lsls	r3, r3, #3
 3620 0c0c 9B18     		adds	r3, r3, r2
 3621 0c0e DB00     		lsls	r3, r3, #3
 3622 0c10 CB18     		adds	r3, r1, r3
 3623 0c12 1E33     		adds	r3, r3, #30
 3624 0c14 2622     		movs	r2, #38
 3625 0c16 0821     		movs	r1, #8
 3626 0c18 8C46     		mov	ip, r1
 3627 0c1a BC44     		add	ip, ip, r7
 3628 0c1c 6244     		add	r2, r2, ip
 3629 0c1e 1288     		ldrh	r2, [r2]
 3630 0c20 1A80     		strh	r2, [r3]
 757:runtime.c     ****                 sensor_status[dev-1].alarm1fval =  sensor_status[dev-1].fullScaleRange * (sensor_st
 3631              		.loc 1 757 0
 3632 0c22 1323     		movs	r3, #19
 3633 0c24 0822     		movs	r2, #8
 3634 0c26 9446     		mov	ip, r2
 3635 0c28 BC44     		add	ip, ip, r7
 3636 0c2a 6344     		add	r3, r3, ip
 3637 0c2c 1B78     		ldrb	r3, [r3]
 3638 0c2e 5C1E     		subs	r4, r3, #1
 3639 0c30 1323     		movs	r3, #19
 3640 0c32 0822     		movs	r2, #8
 3641 0c34 9446     		mov	ip, r2
 3642 0c36 BC44     		add	ip, ip, r7
 3643 0c38 6344     		add	r3, r3, ip
 3644 0c3a 1B78     		ldrb	r3, [r3]
ARM GAS  C:\Users\alexport\AppData\Local\Temp\cc5NLpBH.s 			page 79


 3645 0c3c 5A1E     		subs	r2, r3, #1
 3646 0c3e 8A49     		ldr	r1, .L152+20
 3647 0c40 1300     		movs	r3, r2
 3648 0c42 DB00     		lsls	r3, r3, #3
 3649 0c44 9B18     		adds	r3, r3, r2
 3650 0c46 DB00     		lsls	r3, r3, #3
 3651 0c48 CB18     		adds	r3, r1, r3
 3652 0c4a 0433     		adds	r3, r3, #4
 3653 0c4c 1B68     		ldr	r3, [r3]
 3654 0c4e 1800     		movs	r0, r3
 3655 0c50 FFF7FEFF 		bl	__aeabi_ui2d
 3656 0c54 0500     		movs	r5, r0
 3657 0c56 0E00     		movs	r6, r1
 3658 0c58 1323     		movs	r3, #19
 3659 0c5a 0822     		movs	r2, #8
 3660 0c5c 9446     		mov	ip, r2
 3661 0c5e BC44     		add	ip, ip, r7
 3662 0c60 6344     		add	r3, r3, ip
 3663 0c62 1B78     		ldrb	r3, [r3]
 3664 0c64 5A1E     		subs	r2, r3, #1
 3665 0c66 8049     		ldr	r1, .L152+20
 3666 0c68 1300     		movs	r3, r2
 3667 0c6a DB00     		lsls	r3, r3, #3
 3668 0c6c 9B18     		adds	r3, r3, r2
 3669 0c6e DB00     		lsls	r3, r3, #3
 3670 0c70 CB18     		adds	r3, r1, r3
 3671 0c72 1E33     		adds	r3, r3, #30
 3672 0c74 1B88     		ldrh	r3, [r3]
 3673 0c76 1800     		movs	r0, r3
 3674 0c78 FFF7FEFF 		bl	__aeabi_i2d
 3675 0c7c 0022     		movs	r2, #0
 3676 0c7e 7B4B     		ldr	r3, .L152+24
 3677 0c80 FFF7FEFF 		bl	__aeabi_ddiv
 3678 0c84 0200     		movs	r2, r0
 3679 0c86 0B00     		movs	r3, r1
 3680 0c88 2800     		movs	r0, r5
 3681 0c8a 3100     		movs	r1, r6
 3682 0c8c FFF7FEFF 		bl	__aeabi_dmul
 3683 0c90 0200     		movs	r2, r0
 3684 0c92 0B00     		movs	r3, r1
 3685 0c94 1000     		movs	r0, r2
 3686 0c96 1900     		movs	r1, r3
 3687 0c98 FFF7FEFF 		bl	__aeabi_d2f
 3688 0c9c 011C     		adds	r1, r0, #0
 3689 0c9e 724A     		ldr	r2, .L152+20
 3690 0ca0 2300     		movs	r3, r4
 3691 0ca2 DB00     		lsls	r3, r3, #3
 3692 0ca4 1B19     		adds	r3, r3, r4
 3693 0ca6 DB00     		lsls	r3, r3, #3
 3694 0ca8 D318     		adds	r3, r2, r3
 3695 0caa 2033     		adds	r3, r3, #32
 3696 0cac 1960     		str	r1, [r3]
 3697              	.L92:
 758:runtime.c     ****                 
 759:runtime.c     ****             }
 760:runtime.c     ****         }
 761:runtime.c     ****         if(startRegister ==MODBUS_ALARM1_ASC_REG){
ARM GAS  C:\Users\alexport\AppData\Local\Temp\cc5NLpBH.s 			page 80


 3698              		.loc 1 761 0
 3699 0cae 1623     		movs	r3, #22
 3700 0cb0 0822     		movs	r2, #8
 3701 0cb2 9446     		mov	ip, r2
 3702 0cb4 BC44     		add	ip, ip, r7
 3703 0cb6 6344     		add	r3, r3, ip
 3704 0cb8 1B88     		ldrh	r3, [r3]
 3705 0cba 252B     		cmp	r3, #37
 3706 0cbc 47D1     		bne	.L93
 762:runtime.c     ****             if(dev>0){
 3707              		.loc 1 762 0
 3708 0cbe 1323     		movs	r3, #19
 3709 0cc0 0822     		movs	r2, #8
 3710 0cc2 9446     		mov	ip, r2
 3711 0cc4 BC44     		add	ip, ip, r7
 3712 0cc6 6344     		add	r3, r3, ip
 3713 0cc8 1B78     		ldrb	r3, [r3]
 3714 0cca 002B     		cmp	r3, #0
 3715 0ccc 3FD0     		beq	.L93
 763:runtime.c     ****                 runtime_CtrlSensor(dev-1 , SENSOR_ALARM1_ASC_REG, data);   
 3716              		.loc 1 763 0
 3717 0cce 1323     		movs	r3, #19
 3718 0cd0 0822     		movs	r2, #8
 3719 0cd2 9446     		mov	ip, r2
 3720 0cd4 BC44     		add	ip, ip, r7
 3721 0cd6 6344     		add	r3, r3, ip
 3722 0cd8 1B78     		ldrb	r3, [r3]
 3723 0cda 013B     		subs	r3, r3, #1
 3724 0cdc D8B2     		uxtb	r0, r3
 3725 0cde 2623     		movs	r3, #38
 3726 0ce0 0822     		movs	r2, #8
 3727 0ce2 9446     		mov	ip, r2
 3728 0ce4 BC44     		add	ip, ip, r7
 3729 0ce6 6344     		add	r3, r3, ip
 3730 0ce8 1B88     		ldrh	r3, [r3]
 3731 0cea 1A00     		movs	r2, r3
 3732 0cec 4821     		movs	r1, #72
 3733 0cee FFF7FEFF 		bl	runtime_CtrlSensor
 764:runtime.c     ****                 runtime_CtrlSensor(dev-1 , SENSOR_SYS_REMOTE_REG, RUNTIME_SMART_SENSOR_SYS_REMOTE_S
 3734              		.loc 1 764 0
 3735 0cf2 1323     		movs	r3, #19
 3736 0cf4 0822     		movs	r2, #8
 3737 0cf6 9446     		mov	ip, r2
 3738 0cf8 BC44     		add	ip, ip, r7
 3739 0cfa 6344     		add	r3, r3, ip
 3740 0cfc 1B78     		ldrb	r3, [r3]
 3741 0cfe 013B     		subs	r3, r3, #1
 3742 0d00 DBB2     		uxtb	r3, r3
 3743 0d02 3022     		movs	r2, #48
 3744 0d04 1421     		movs	r1, #20
 3745 0d06 1800     		movs	r0, r3
 3746 0d08 FFF7FEFF 		bl	runtime_CtrlSensor
 765:runtime.c     ****                 sensor_status[dev-1].alarm1asc = ARRtoINT16(sensor[dev-1],ALARM1ASCMSB);
 3747              		.loc 1 765 0
 3748 0d0c 1323     		movs	r3, #19
 3749 0d0e 0822     		movs	r2, #8
 3750 0d10 9446     		mov	ip, r2
ARM GAS  C:\Users\alexport\AppData\Local\Temp\cc5NLpBH.s 			page 81


 3751 0d12 BC44     		add	ip, ip, r7
 3752 0d14 6344     		add	r3, r3, ip
 3753 0d16 1B78     		ldrb	r3, [r3]
 3754 0d18 5A1E     		subs	r2, r3, #1
 3755 0d1a 1323     		movs	r3, #19
 3756 0d1c 0821     		movs	r1, #8
 3757 0d1e 8C46     		mov	ip, r1
 3758 0d20 BC44     		add	ip, ip, r7
 3759 0d22 6344     		add	r3, r3, ip
 3760 0d24 1B78     		ldrb	r3, [r3]
 3761 0d26 591E     		subs	r1, r3, #1
 3762 0d28 4A48     		ldr	r0, .L152
 3763 0d2a 4D24     		movs	r4, #77
 3764 0d2c 0B00     		movs	r3, r1
 3765 0d2e 1B01     		lsls	r3, r3, #4
 3766 0d30 5B1A     		subs	r3, r3, r1
 3767 0d32 DB00     		lsls	r3, r3, #3
 3768 0d34 C318     		adds	r3, r0, r3
 3769 0d36 1B19     		adds	r3, r3, r4
 3770 0d38 1C78     		ldrb	r4, [r3]
 3771 0d3a 4B49     		ldr	r1, .L152+20
 3772 0d3c 2620     		movs	r0, #38
 3773 0d3e 1300     		movs	r3, r2
 3774 0d40 DB00     		lsls	r3, r3, #3
 3775 0d42 9B18     		adds	r3, r3, r2
 3776 0d44 DB00     		lsls	r3, r3, #3
 3777 0d46 CB18     		adds	r3, r1, r3
 3778 0d48 1B18     		adds	r3, r3, r0
 3779 0d4a 221C     		adds	r2, r4, #0
 3780 0d4c 1A70     		strb	r2, [r3]
 3781              	.L93:
 766:runtime.c     ****                 //UpdateSensorStatus(dev-1);
 767:runtime.c     ****                 
 768:runtime.c     ****             }
 769:runtime.c     ****         }
 770:runtime.c     ****         if(startRegister ==MODBUS_ALARM2_REG){
 3782              		.loc 1 770 0
 3783 0d4e 1623     		movs	r3, #22
 3784 0d50 0822     		movs	r2, #8
 3785 0d52 9446     		mov	ip, r2
 3786 0d54 BC44     		add	ip, ip, r7
 3787 0d56 6344     		add	r3, r3, ip
 3788 0d58 1B88     		ldrh	r3, [r3]
 3789 0d5a 262B     		cmp	r3, #38
 3790 0d5c 00D0     		beq	.LCB3299
 3791 0d5e 92E0     		b	.L94	@long jump
 3792              	.LCB3299:
 771:runtime.c     ****             if(dev>0){
 3793              		.loc 1 771 0
 3794 0d60 1323     		movs	r3, #19
 3795 0d62 0822     		movs	r2, #8
 3796 0d64 9446     		mov	ip, r2
 3797 0d66 BC44     		add	ip, ip, r7
 3798 0d68 6344     		add	r3, r3, ip
 3799 0d6a 1B78     		ldrb	r3, [r3]
 3800 0d6c 002B     		cmp	r3, #0
 3801 0d6e 00D1     		bne	.LCB3307
ARM GAS  C:\Users\alexport\AppData\Local\Temp\cc5NLpBH.s 			page 82


 3802 0d70 89E0     		b	.L94	@long jump
 3803              	.LCB3307:
 772:runtime.c     ****                 runtime_CtrlSensor(dev-1 , SENSOR_ALARM2_REG, data);   
 3804              		.loc 1 772 0
 3805 0d72 1323     		movs	r3, #19
 3806 0d74 0822     		movs	r2, #8
 3807 0d76 9446     		mov	ip, r2
 3808 0d78 BC44     		add	ip, ip, r7
 3809 0d7a 6344     		add	r3, r3, ip
 3810 0d7c 1B78     		ldrb	r3, [r3]
 3811 0d7e 013B     		subs	r3, r3, #1
 3812 0d80 D8B2     		uxtb	r0, r3
 3813 0d82 2623     		movs	r3, #38
 3814 0d84 0822     		movs	r2, #8
 3815 0d86 9446     		mov	ip, r2
 3816 0d88 BC44     		add	ip, ip, r7
 3817 0d8a 6344     		add	r3, r3, ip
 3818 0d8c 1B88     		ldrh	r3, [r3]
 3819 0d8e 1A00     		movs	r2, r3
 3820 0d90 4A21     		movs	r1, #74
 3821 0d92 FFF7FEFF 		bl	runtime_CtrlSensor
 773:runtime.c     ****                 runtime_CtrlSensor(dev-1 , SENSOR_SYS_REMOTE_REG, RUNTIME_SMART_SENSOR_SYS_REMOTE_S
 3822              		.loc 1 773 0
 3823 0d96 1323     		movs	r3, #19
 3824 0d98 0822     		movs	r2, #8
 3825 0d9a 9446     		mov	ip, r2
 3826 0d9c BC44     		add	ip, ip, r7
 3827 0d9e 6344     		add	r3, r3, ip
 3828 0da0 1B78     		ldrb	r3, [r3]
 3829 0da2 013B     		subs	r3, r3, #1
 3830 0da4 DBB2     		uxtb	r3, r3
 3831 0da6 3022     		movs	r2, #48
 3832 0da8 1421     		movs	r1, #20
 3833 0daa 1800     		movs	r0, r3
 3834 0dac FFF7FEFF 		bl	runtime_CtrlSensor
 774:runtime.c     ****                 sensor_status[dev-1].alarm2val= data;
 3835              		.loc 1 774 0
 3836 0db0 1323     		movs	r3, #19
 3837 0db2 0822     		movs	r2, #8
 3838 0db4 9446     		mov	ip, r2
 3839 0db6 BC44     		add	ip, ip, r7
 3840 0db8 6344     		add	r3, r3, ip
 3841 0dba 1B78     		ldrb	r3, [r3]
 3842 0dbc 5A1E     		subs	r2, r3, #1
 3843 0dbe 2A49     		ldr	r1, .L152+20
 3844 0dc0 1300     		movs	r3, r2
 3845 0dc2 DB00     		lsls	r3, r3, #3
 3846 0dc4 9B18     		adds	r3, r3, r2
 3847 0dc6 DB00     		lsls	r3, r3, #3
 3848 0dc8 CB18     		adds	r3, r1, r3
 3849 0dca 2833     		adds	r3, r3, #40
 3850 0dcc 2622     		movs	r2, #38
 3851 0dce 0821     		movs	r1, #8
 3852 0dd0 8C46     		mov	ip, r1
 3853 0dd2 BC44     		add	ip, ip, r7
 3854 0dd4 6244     		add	r2, r2, ip
 3855 0dd6 1288     		ldrh	r2, [r2]
ARM GAS  C:\Users\alexport\AppData\Local\Temp\cc5NLpBH.s 			page 83


 3856 0dd8 1A80     		strh	r2, [r3]
 775:runtime.c     ****                 sensor_status[dev-1].alarm2fval =  sensor_status[dev-1].fullScaleRange * (sensor_st
 3857              		.loc 1 775 0
 3858 0dda 1323     		movs	r3, #19
 3859 0ddc 0822     		movs	r2, #8
 3860 0dde 9446     		mov	ip, r2
 3861 0de0 BC44     		add	ip, ip, r7
 3862 0de2 6344     		add	r3, r3, ip
 3863 0de4 1B78     		ldrb	r3, [r3]
 3864 0de6 5C1E     		subs	r4, r3, #1
 3865 0de8 1323     		movs	r3, #19
 3866 0dea 0822     		movs	r2, #8
 3867 0dec 9446     		mov	ip, r2
 3868 0dee BC44     		add	ip, ip, r7
 3869 0df0 6344     		add	r3, r3, ip
 3870 0df2 1B78     		ldrb	r3, [r3]
 3871 0df4 5A1E     		subs	r2, r3, #1
 3872 0df6 1C49     		ldr	r1, .L152+20
 3873 0df8 1300     		movs	r3, r2
 3874 0dfa DB00     		lsls	r3, r3, #3
 3875 0dfc 9B18     		adds	r3, r3, r2
 3876 0dfe DB00     		lsls	r3, r3, #3
 3877 0e00 CB18     		adds	r3, r1, r3
 3878 0e02 0433     		adds	r3, r3, #4
 3879 0e04 1B68     		ldr	r3, [r3]
 3880 0e06 1800     		movs	r0, r3
 3881 0e08 FFF7FEFF 		bl	__aeabi_ui2d
 3882 0e0c 0500     		movs	r5, r0
 3883 0e0e 0E00     		movs	r6, r1
 3884 0e10 1323     		movs	r3, #19
 3885 0e12 0822     		movs	r2, #8
 3886 0e14 9446     		mov	ip, r2
 3887 0e16 BC44     		add	ip, ip, r7
 3888 0e18 6344     		add	r3, r3, ip
 3889 0e1a 1B78     		ldrb	r3, [r3]
 3890 0e1c 5A1E     		subs	r2, r3, #1
 3891 0e1e 1249     		ldr	r1, .L152+20
 3892 0e20 1300     		movs	r3, r2
 3893 0e22 DB00     		lsls	r3, r3, #3
 3894 0e24 9B18     		adds	r3, r3, r2
 3895 0e26 DB00     		lsls	r3, r3, #3
 3896 0e28 CB18     		adds	r3, r1, r3
 3897 0e2a 2833     		adds	r3, r3, #40
 3898 0e2c 1B88     		ldrh	r3, [r3]
 3899 0e2e 1800     		movs	r0, r3
 3900 0e30 FFF7FEFF 		bl	__aeabi_i2d
 3901 0e34 0022     		movs	r2, #0
 3902 0e36 0D4B     		ldr	r3, .L152+24
 3903 0e38 FFF7FEFF 		bl	__aeabi_ddiv
 3904 0e3c 0200     		movs	r2, r0
 3905 0e3e 0B00     		movs	r3, r1
 3906 0e40 2800     		movs	r0, r5
 3907 0e42 3100     		movs	r1, r6
 3908 0e44 FFF7FEFF 		bl	__aeabi_dmul
 3909 0e48 0200     		movs	r2, r0
 3910 0e4a 0B00     		movs	r3, r1
 3911 0e4c 1000     		movs	r0, r2
ARM GAS  C:\Users\alexport\AppData\Local\Temp\cc5NLpBH.s 			page 84


 3912 0e4e 1900     		movs	r1, r3
 3913 0e50 0EE0     		b	.L153
 3914              	.L154:
 3915 0e52 C046     		.align	2
 3916              	.L152:
 3917 0e54 00000000 		.word	sensor
 3918 0e58 00000000 		.word	modbus_txBuffer
 3919 0e5c 00000000 		.word	mySlaveAddr
 3920 0e60 00000000 		.word	bytesIn
 3921 0e64 00000000 		.word	modbus_rxBuffer
 3922 0e68 00000000 		.word	sensor_status
 3923 0e6c 0088C340 		.word	1086556160
 3924              	.L153:
 3925 0e70 FFF7FEFF 		bl	__aeabi_d2f
 3926 0e74 011C     		adds	r1, r0, #0
 3927 0e76 EB4A     		ldr	r2, .L155
 3928 0e78 2300     		movs	r3, r4
 3929 0e7a DB00     		lsls	r3, r3, #3
 3930 0e7c 1B19     		adds	r3, r3, r4
 3931 0e7e DB00     		lsls	r3, r3, #3
 3932 0e80 D318     		adds	r3, r2, r3
 3933 0e82 2C33     		adds	r3, r3, #44
 3934 0e84 1960     		str	r1, [r3]
 3935              	.L94:
 776:runtime.c     ****                 
 777:runtime.c     ****             }
 778:runtime.c     ****         }
 779:runtime.c     ****         if(startRegister ==MODBUS_ALARM2_ASC_REG){
 3936              		.loc 1 779 0
 3937 0e86 1623     		movs	r3, #22
 3938 0e88 0822     		movs	r2, #8
 3939 0e8a 9446     		mov	ip, r2
 3940 0e8c BC44     		add	ip, ip, r7
 3941 0e8e 6344     		add	r3, r3, ip
 3942 0e90 1B88     		ldrh	r3, [r3]
 3943 0e92 272B     		cmp	r3, #39
 3944 0e94 47D1     		bne	.L95
 780:runtime.c     ****             if(dev>0){
 3945              		.loc 1 780 0
 3946 0e96 1323     		movs	r3, #19
 3947 0e98 0822     		movs	r2, #8
 3948 0e9a 9446     		mov	ip, r2
 3949 0e9c BC44     		add	ip, ip, r7
 3950 0e9e 6344     		add	r3, r3, ip
 3951 0ea0 1B78     		ldrb	r3, [r3]
 3952 0ea2 002B     		cmp	r3, #0
 3953 0ea4 3FD0     		beq	.L95
 781:runtime.c     ****                 runtime_CtrlSensor(dev-1 , SENSOR_ALARM2_ASC_REG, data);  
 3954              		.loc 1 781 0
 3955 0ea6 1323     		movs	r3, #19
 3956 0ea8 0822     		movs	r2, #8
 3957 0eaa 9446     		mov	ip, r2
 3958 0eac BC44     		add	ip, ip, r7
 3959 0eae 6344     		add	r3, r3, ip
 3960 0eb0 1B78     		ldrb	r3, [r3]
 3961 0eb2 013B     		subs	r3, r3, #1
 3962 0eb4 D8B2     		uxtb	r0, r3
ARM GAS  C:\Users\alexport\AppData\Local\Temp\cc5NLpBH.s 			page 85


 3963 0eb6 2623     		movs	r3, #38
 3964 0eb8 0822     		movs	r2, #8
 3965 0eba 9446     		mov	ip, r2
 3966 0ebc BC44     		add	ip, ip, r7
 3967 0ebe 6344     		add	r3, r3, ip
 3968 0ec0 1B88     		ldrh	r3, [r3]
 3969 0ec2 1A00     		movs	r2, r3
 3970 0ec4 4C21     		movs	r1, #76
 3971 0ec6 FFF7FEFF 		bl	runtime_CtrlSensor
 782:runtime.c     ****                 runtime_CtrlSensor(dev-1 , SENSOR_SYS_REMOTE_REG, RUNTIME_SMART_SENSOR_SYS_REMOTE_S
 3972              		.loc 1 782 0
 3973 0eca 1323     		movs	r3, #19
 3974 0ecc 0822     		movs	r2, #8
 3975 0ece 9446     		mov	ip, r2
 3976 0ed0 BC44     		add	ip, ip, r7
 3977 0ed2 6344     		add	r3, r3, ip
 3978 0ed4 1B78     		ldrb	r3, [r3]
 3979 0ed6 013B     		subs	r3, r3, #1
 3980 0ed8 DBB2     		uxtb	r3, r3
 3981 0eda 3022     		movs	r2, #48
 3982 0edc 1421     		movs	r1, #20
 3983 0ede 1800     		movs	r0, r3
 3984 0ee0 FFF7FEFF 		bl	runtime_CtrlSensor
 783:runtime.c     ****                 sensor_status[dev-1].alarm1asc = ARRtoINT16(sensor[dev-1],ALARM1ASCMSB);
 3985              		.loc 1 783 0
 3986 0ee4 1323     		movs	r3, #19
 3987 0ee6 0822     		movs	r2, #8
 3988 0ee8 9446     		mov	ip, r2
 3989 0eea BC44     		add	ip, ip, r7
 3990 0eec 6344     		add	r3, r3, ip
 3991 0eee 1B78     		ldrb	r3, [r3]
 3992 0ef0 5A1E     		subs	r2, r3, #1
 3993 0ef2 1323     		movs	r3, #19
 3994 0ef4 0821     		movs	r1, #8
 3995 0ef6 8C46     		mov	ip, r1
 3996 0ef8 BC44     		add	ip, ip, r7
 3997 0efa 6344     		add	r3, r3, ip
 3998 0efc 1B78     		ldrb	r3, [r3]
 3999 0efe 591E     		subs	r1, r3, #1
 4000 0f00 C948     		ldr	r0, .L155+4
 4001 0f02 4D24     		movs	r4, #77
 4002 0f04 0B00     		movs	r3, r1
 4003 0f06 1B01     		lsls	r3, r3, #4
 4004 0f08 5B1A     		subs	r3, r3, r1
 4005 0f0a DB00     		lsls	r3, r3, #3
 4006 0f0c C318     		adds	r3, r0, r3
 4007 0f0e 1B19     		adds	r3, r3, r4
 4008 0f10 1C78     		ldrb	r4, [r3]
 4009 0f12 C449     		ldr	r1, .L155
 4010 0f14 2620     		movs	r0, #38
 4011 0f16 1300     		movs	r3, r2
 4012 0f18 DB00     		lsls	r3, r3, #3
 4013 0f1a 9B18     		adds	r3, r3, r2
 4014 0f1c DB00     		lsls	r3, r3, #3
 4015 0f1e CB18     		adds	r3, r1, r3
 4016 0f20 1B18     		adds	r3, r3, r0
 4017 0f22 221C     		adds	r2, r4, #0
ARM GAS  C:\Users\alexport\AppData\Local\Temp\cc5NLpBH.s 			page 86


 4018 0f24 1A70     		strb	r2, [r3]
 4019              	.L95:
 784:runtime.c     ****                 //UpdateSensorStatus(dev-1);
 785:runtime.c     ****             }
 786:runtime.c     ****         }
 787:runtime.c     ****         if(startRegister ==MODBUS_ALARM3_REG){
 4020              		.loc 1 787 0
 4021 0f26 1623     		movs	r3, #22
 4022 0f28 0822     		movs	r2, #8
 4023 0f2a 9446     		mov	ip, r2
 4024 0f2c BC44     		add	ip, ip, r7
 4025 0f2e 6344     		add	r3, r3, ip
 4026 0f30 1B88     		ldrh	r3, [r3]
 4027 0f32 282B     		cmp	r3, #40
 4028 0f34 00D0     		beq	.LCB3527
 4029 0f36 81E0     		b	.L96	@long jump
 4030              	.LCB3527:
 788:runtime.c     ****             if(dev>0){
 4031              		.loc 1 788 0
 4032 0f38 1323     		movs	r3, #19
 4033 0f3a 0822     		movs	r2, #8
 4034 0f3c 9446     		mov	ip, r2
 4035 0f3e BC44     		add	ip, ip, r7
 4036 0f40 6344     		add	r3, r3, ip
 4037 0f42 1B78     		ldrb	r3, [r3]
 4038 0f44 002B     		cmp	r3, #0
 4039 0f46 79D0     		beq	.L96
 789:runtime.c     ****                 runtime_CtrlSensor(dev-1 , SENSOR_ALARM3_REG, data);  
 4040              		.loc 1 789 0
 4041 0f48 1323     		movs	r3, #19
 4042 0f4a 0822     		movs	r2, #8
 4043 0f4c 9446     		mov	ip, r2
 4044 0f4e BC44     		add	ip, ip, r7
 4045 0f50 6344     		add	r3, r3, ip
 4046 0f52 1B78     		ldrb	r3, [r3]
 4047 0f54 013B     		subs	r3, r3, #1
 4048 0f56 D8B2     		uxtb	r0, r3
 4049 0f58 2623     		movs	r3, #38
 4050 0f5a 0822     		movs	r2, #8
 4051 0f5c 9446     		mov	ip, r2
 4052 0f5e BC44     		add	ip, ip, r7
 4053 0f60 6344     		add	r3, r3, ip
 4054 0f62 1B88     		ldrh	r3, [r3]
 4055 0f64 1A00     		movs	r2, r3
 4056 0f66 4E21     		movs	r1, #78
 4057 0f68 FFF7FEFF 		bl	runtime_CtrlSensor
 790:runtime.c     ****                 runtime_CtrlSensor(dev-1 , SENSOR_SYS_REMOTE_REG, RUNTIME_SMART_SENSOR_SYS_REMOTE_S
 4058              		.loc 1 790 0
 4059 0f6c 1323     		movs	r3, #19
 4060 0f6e 0822     		movs	r2, #8
 4061 0f70 9446     		mov	ip, r2
 4062 0f72 BC44     		add	ip, ip, r7
 4063 0f74 6344     		add	r3, r3, ip
 4064 0f76 1B78     		ldrb	r3, [r3]
 4065 0f78 013B     		subs	r3, r3, #1
 4066 0f7a DBB2     		uxtb	r3, r3
 4067 0f7c 3022     		movs	r2, #48
ARM GAS  C:\Users\alexport\AppData\Local\Temp\cc5NLpBH.s 			page 87


 4068 0f7e 1421     		movs	r1, #20
 4069 0f80 1800     		movs	r0, r3
 4070 0f82 FFF7FEFF 		bl	runtime_CtrlSensor
 791:runtime.c     ****                 sensor_status[dev-1].alarm3val= data;
 4071              		.loc 1 791 0
 4072 0f86 1323     		movs	r3, #19
 4073 0f88 0822     		movs	r2, #8
 4074 0f8a 9446     		mov	ip, r2
 4075 0f8c BC44     		add	ip, ip, r7
 4076 0f8e 6344     		add	r3, r3, ip
 4077 0f90 1B78     		ldrb	r3, [r3]
 4078 0f92 5A1E     		subs	r2, r3, #1
 4079 0f94 A349     		ldr	r1, .L155
 4080 0f96 1300     		movs	r3, r2
 4081 0f98 DB00     		lsls	r3, r3, #3
 4082 0f9a 9B18     		adds	r3, r3, r2
 4083 0f9c DB00     		lsls	r3, r3, #3
 4084 0f9e CB18     		adds	r3, r1, r3
 4085 0fa0 3433     		adds	r3, r3, #52
 4086 0fa2 2622     		movs	r2, #38
 4087 0fa4 0821     		movs	r1, #8
 4088 0fa6 8C46     		mov	ip, r1
 4089 0fa8 BC44     		add	ip, ip, r7
 4090 0faa 6244     		add	r2, r2, ip
 4091 0fac 1288     		ldrh	r2, [r2]
 4092 0fae 1A80     		strh	r2, [r3]
 792:runtime.c     ****                 sensor_status[dev-1].alarm3fval =  sensor_status[dev-1].fullScaleRange * (sensor_st
 4093              		.loc 1 792 0
 4094 0fb0 1323     		movs	r3, #19
 4095 0fb2 0822     		movs	r2, #8
 4096 0fb4 9446     		mov	ip, r2
 4097 0fb6 BC44     		add	ip, ip, r7
 4098 0fb8 6344     		add	r3, r3, ip
 4099 0fba 1B78     		ldrb	r3, [r3]
 4100 0fbc 5C1E     		subs	r4, r3, #1
 4101 0fbe 1323     		movs	r3, #19
 4102 0fc0 0822     		movs	r2, #8
 4103 0fc2 9446     		mov	ip, r2
 4104 0fc4 BC44     		add	ip, ip, r7
 4105 0fc6 6344     		add	r3, r3, ip
 4106 0fc8 1B78     		ldrb	r3, [r3]
 4107 0fca 5A1E     		subs	r2, r3, #1
 4108 0fcc 9549     		ldr	r1, .L155
 4109 0fce 1300     		movs	r3, r2
 4110 0fd0 DB00     		lsls	r3, r3, #3
 4111 0fd2 9B18     		adds	r3, r3, r2
 4112 0fd4 DB00     		lsls	r3, r3, #3
 4113 0fd6 CB18     		adds	r3, r1, r3
 4114 0fd8 0433     		adds	r3, r3, #4
 4115 0fda 1B68     		ldr	r3, [r3]
 4116 0fdc 1800     		movs	r0, r3
 4117 0fde FFF7FEFF 		bl	__aeabi_ui2d
 4118 0fe2 0500     		movs	r5, r0
 4119 0fe4 0E00     		movs	r6, r1
 4120 0fe6 1323     		movs	r3, #19
 4121 0fe8 0822     		movs	r2, #8
 4122 0fea 9446     		mov	ip, r2
ARM GAS  C:\Users\alexport\AppData\Local\Temp\cc5NLpBH.s 			page 88


 4123 0fec BC44     		add	ip, ip, r7
 4124 0fee 6344     		add	r3, r3, ip
 4125 0ff0 1B78     		ldrb	r3, [r3]
 4126 0ff2 5A1E     		subs	r2, r3, #1
 4127 0ff4 8B49     		ldr	r1, .L155
 4128 0ff6 1300     		movs	r3, r2
 4129 0ff8 DB00     		lsls	r3, r3, #3
 4130 0ffa 9B18     		adds	r3, r3, r2
 4131 0ffc DB00     		lsls	r3, r3, #3
 4132 0ffe CB18     		adds	r3, r1, r3
 4133 1000 3433     		adds	r3, r3, #52
 4134 1002 1B88     		ldrh	r3, [r3]
 4135 1004 1800     		movs	r0, r3
 4136 1006 FFF7FEFF 		bl	__aeabi_i2d
 4137 100a 0022     		movs	r2, #0
 4138 100c 874B     		ldr	r3, .L155+8
 4139 100e FFF7FEFF 		bl	__aeabi_ddiv
 4140 1012 0200     		movs	r2, r0
 4141 1014 0B00     		movs	r3, r1
 4142 1016 2800     		movs	r0, r5
 4143 1018 3100     		movs	r1, r6
 4144 101a FFF7FEFF 		bl	__aeabi_dmul
 4145 101e 0200     		movs	r2, r0
 4146 1020 0B00     		movs	r3, r1
 4147 1022 1000     		movs	r0, r2
 4148 1024 1900     		movs	r1, r3
 4149 1026 FFF7FEFF 		bl	__aeabi_d2f
 4150 102a 011C     		adds	r1, r0, #0
 4151 102c 7D4A     		ldr	r2, .L155
 4152 102e 2300     		movs	r3, r4
 4153 1030 DB00     		lsls	r3, r3, #3
 4154 1032 1B19     		adds	r3, r3, r4
 4155 1034 DB00     		lsls	r3, r3, #3
 4156 1036 D318     		adds	r3, r2, r3
 4157 1038 3833     		adds	r3, r3, #56
 4158 103a 1960     		str	r1, [r3]
 4159              	.L96:
 793:runtime.c     ****             }
 794:runtime.c     ****         }
 795:runtime.c     ****         if(startRegister ==MODBUS_ALARM3_ASC_REG){
 4160              		.loc 1 795 0
 4161 103c 1623     		movs	r3, #22
 4162 103e 0822     		movs	r2, #8
 4163 1040 9446     		mov	ip, r2
 4164 1042 BC44     		add	ip, ip, r7
 4165 1044 6344     		add	r3, r3, ip
 4166 1046 1B88     		ldrh	r3, [r3]
 4167 1048 292B     		cmp	r3, #41
 4168 104a 47D1     		bne	.L97
 796:runtime.c     ****             if(dev>0){
 4169              		.loc 1 796 0
 4170 104c 1323     		movs	r3, #19
 4171 104e 0822     		movs	r2, #8
 4172 1050 9446     		mov	ip, r2
 4173 1052 BC44     		add	ip, ip, r7
 4174 1054 6344     		add	r3, r3, ip
 4175 1056 1B78     		ldrb	r3, [r3]
ARM GAS  C:\Users\alexport\AppData\Local\Temp\cc5NLpBH.s 			page 89


 4176 1058 002B     		cmp	r3, #0
 4177 105a 3FD0     		beq	.L97
 797:runtime.c     ****                 runtime_CtrlSensor(dev-1 , SENSOR_ALARM3_ASC_REG, data);   
 4178              		.loc 1 797 0
 4179 105c 1323     		movs	r3, #19
 4180 105e 0822     		movs	r2, #8
 4181 1060 9446     		mov	ip, r2
 4182 1062 BC44     		add	ip, ip, r7
 4183 1064 6344     		add	r3, r3, ip
 4184 1066 1B78     		ldrb	r3, [r3]
 4185 1068 013B     		subs	r3, r3, #1
 4186 106a D8B2     		uxtb	r0, r3
 4187 106c 2623     		movs	r3, #38
 4188 106e 0822     		movs	r2, #8
 4189 1070 9446     		mov	ip, r2
 4190 1072 BC44     		add	ip, ip, r7
 4191 1074 6344     		add	r3, r3, ip
 4192 1076 1B88     		ldrh	r3, [r3]
 4193 1078 1A00     		movs	r2, r3
 4194 107a 5021     		movs	r1, #80
 4195 107c FFF7FEFF 		bl	runtime_CtrlSensor
 798:runtime.c     ****                 runtime_CtrlSensor(dev-1 , SENSOR_SYS_REMOTE_REG, RUNTIME_SMART_SENSOR_SYS_REMOTE_S
 4196              		.loc 1 798 0
 4197 1080 1323     		movs	r3, #19
 4198 1082 0822     		movs	r2, #8
 4199 1084 9446     		mov	ip, r2
 4200 1086 BC44     		add	ip, ip, r7
 4201 1088 6344     		add	r3, r3, ip
 4202 108a 1B78     		ldrb	r3, [r3]
 4203 108c 013B     		subs	r3, r3, #1
 4204 108e DBB2     		uxtb	r3, r3
 4205 1090 3022     		movs	r2, #48
 4206 1092 1421     		movs	r1, #20
 4207 1094 1800     		movs	r0, r3
 4208 1096 FFF7FEFF 		bl	runtime_CtrlSensor
 799:runtime.c     ****                 sensor_status[dev-1].alarm1asc = ARRtoINT16(sensor[dev-1],ALARM1ASCMSB);
 4209              		.loc 1 799 0
 4210 109a 1323     		movs	r3, #19
 4211 109c 0822     		movs	r2, #8
 4212 109e 9446     		mov	ip, r2
 4213 10a0 BC44     		add	ip, ip, r7
 4214 10a2 6344     		add	r3, r3, ip
 4215 10a4 1B78     		ldrb	r3, [r3]
 4216 10a6 5A1E     		subs	r2, r3, #1
 4217 10a8 1323     		movs	r3, #19
 4218 10aa 0821     		movs	r1, #8
 4219 10ac 8C46     		mov	ip, r1
 4220 10ae BC44     		add	ip, ip, r7
 4221 10b0 6344     		add	r3, r3, ip
 4222 10b2 1B78     		ldrb	r3, [r3]
 4223 10b4 591E     		subs	r1, r3, #1
 4224 10b6 5C48     		ldr	r0, .L155+4
 4225 10b8 4D24     		movs	r4, #77
 4226 10ba 0B00     		movs	r3, r1
 4227 10bc 1B01     		lsls	r3, r3, #4
 4228 10be 5B1A     		subs	r3, r3, r1
 4229 10c0 DB00     		lsls	r3, r3, #3
ARM GAS  C:\Users\alexport\AppData\Local\Temp\cc5NLpBH.s 			page 90


 4230 10c2 C318     		adds	r3, r0, r3
 4231 10c4 1B19     		adds	r3, r3, r4
 4232 10c6 1C78     		ldrb	r4, [r3]
 4233 10c8 5649     		ldr	r1, .L155
 4234 10ca 2620     		movs	r0, #38
 4235 10cc 1300     		movs	r3, r2
 4236 10ce DB00     		lsls	r3, r3, #3
 4237 10d0 9B18     		adds	r3, r3, r2
 4238 10d2 DB00     		lsls	r3, r3, #3
 4239 10d4 CB18     		adds	r3, r1, r3
 4240 10d6 1B18     		adds	r3, r3, r0
 4241 10d8 221C     		adds	r2, r4, #0
 4242 10da 1A70     		strb	r2, [r3]
 4243              	.L97:
 800:runtime.c     ****                 //UpdateSensorStatus(dev-1);
 801:runtime.c     ****             }
 802:runtime.c     ****         }
 803:runtime.c     ****         if(startRegister ==MODBUS_CAL_LEVEL_REG){
 4244              		.loc 1 803 0
 4245 10dc 1623     		movs	r3, #22
 4246 10de 0822     		movs	r2, #8
 4247 10e0 9446     		mov	ip, r2
 4248 10e2 BC44     		add	ip, ip, r7
 4249 10e4 6344     		add	r3, r3, ip
 4250 10e6 1B88     		ldrh	r3, [r3]
 4251 10e8 2B2B     		cmp	r3, #43
 4252 10ea 26D1     		bne	.L98
 804:runtime.c     ****             if(dev>0){
 4253              		.loc 1 804 0
 4254 10ec 1323     		movs	r3, #19
 4255 10ee 0822     		movs	r2, #8
 4256 10f0 9446     		mov	ip, r2
 4257 10f2 BC44     		add	ip, ip, r7
 4258 10f4 6344     		add	r3, r3, ip
 4259 10f6 1B78     		ldrb	r3, [r3]
 4260 10f8 002B     		cmp	r3, #0
 4261 10fa 1ED0     		beq	.L98
 805:runtime.c     ****                 runtime_CtrlSensor(dev-1 , SENSOR_CAL_LEVEL_REG, data);  
 4262              		.loc 1 805 0
 4263 10fc 1323     		movs	r3, #19
 4264 10fe 0822     		movs	r2, #8
 4265 1100 9446     		mov	ip, r2
 4266 1102 BC44     		add	ip, ip, r7
 4267 1104 6344     		add	r3, r3, ip
 4268 1106 1B78     		ldrb	r3, [r3]
 4269 1108 013B     		subs	r3, r3, #1
 4270 110a D8B2     		uxtb	r0, r3
 4271 110c 2623     		movs	r3, #38
 4272 110e 0822     		movs	r2, #8
 4273 1110 9446     		mov	ip, r2
 4274 1112 BC44     		add	ip, ip, r7
 4275 1114 6344     		add	r3, r3, ip
 4276 1116 1B88     		ldrh	r3, [r3]
 4277 1118 1A00     		movs	r2, r3
 4278 111a 5421     		movs	r1, #84
 4279 111c FFF7FEFF 		bl	runtime_CtrlSensor
 806:runtime.c     ****                 runtime_CtrlSensor(dev-1 , SENSOR_SYS_REMOTE_REG, RUNTIME_SMART_SENSOR_SYS_REMOTE_S
ARM GAS  C:\Users\alexport\AppData\Local\Temp\cc5NLpBH.s 			page 91


 4280              		.loc 1 806 0
 4281 1120 1323     		movs	r3, #19
 4282 1122 0822     		movs	r2, #8
 4283 1124 9446     		mov	ip, r2
 4284 1126 BC44     		add	ip, ip, r7
 4285 1128 6344     		add	r3, r3, ip
 4286 112a 1B78     		ldrb	r3, [r3]
 4287 112c 013B     		subs	r3, r3, #1
 4288 112e DBB2     		uxtb	r3, r3
 4289 1130 3022     		movs	r2, #48
 4290 1132 1421     		movs	r1, #20
 4291 1134 1800     		movs	r0, r3
 4292 1136 FFF7FEFF 		bl	runtime_CtrlSensor
 4293              	.L98:
 807:runtime.c     ****                 //UpdateSensorStatus(dev-1);
 808:runtime.c     ****             }
 809:runtime.c     ****         }
 810:runtime.c     ****         if(startRegister ==MODBUS_RESP_FACTOR_REG){
 4294              		.loc 1 810 0
 4295 113a 1623     		movs	r3, #22
 4296 113c 0822     		movs	r2, #8
 4297 113e 9446     		mov	ip, r2
 4298 1140 BC44     		add	ip, ip, r7
 4299 1142 6344     		add	r3, r3, ip
 4300 1144 1B88     		ldrh	r3, [r3]
 4301 1146 2C2B     		cmp	r3, #44
 4302 1148 26D1     		bne	.L99
 811:runtime.c     ****             if(dev>0){
 4303              		.loc 1 811 0
 4304 114a 1323     		movs	r3, #19
 4305 114c 0822     		movs	r2, #8
 4306 114e 9446     		mov	ip, r2
 4307 1150 BC44     		add	ip, ip, r7
 4308 1152 6344     		add	r3, r3, ip
 4309 1154 1B78     		ldrb	r3, [r3]
 4310 1156 002B     		cmp	r3, #0
 4311 1158 1ED0     		beq	.L99
 812:runtime.c     ****                 runtime_CtrlSensor(dev-1 , SENSOR_RESP_FACTOR_REG, data);  
 4312              		.loc 1 812 0
 4313 115a 1323     		movs	r3, #19
 4314 115c 0822     		movs	r2, #8
 4315 115e 9446     		mov	ip, r2
 4316 1160 BC44     		add	ip, ip, r7
 4317 1162 6344     		add	r3, r3, ip
 4318 1164 1B78     		ldrb	r3, [r3]
 4319 1166 013B     		subs	r3, r3, #1
 4320 1168 D8B2     		uxtb	r0, r3
 4321 116a 2623     		movs	r3, #38
 4322 116c 0822     		movs	r2, #8
 4323 116e 9446     		mov	ip, r2
 4324 1170 BC44     		add	ip, ip, r7
 4325 1172 6344     		add	r3, r3, ip
 4326 1174 1B88     		ldrh	r3, [r3]
 4327 1176 1A00     		movs	r2, r3
 4328 1178 5621     		movs	r1, #86
 4329 117a FFF7FEFF 		bl	runtime_CtrlSensor
 813:runtime.c     ****                 runtime_CtrlSensor(dev-1 , SENSOR_SYS_REMOTE_REG, RUNTIME_SMART_SENSOR_SYS_REMOTE_S
ARM GAS  C:\Users\alexport\AppData\Local\Temp\cc5NLpBH.s 			page 92


 4330              		.loc 1 813 0
 4331 117e 1323     		movs	r3, #19
 4332 1180 0822     		movs	r2, #8
 4333 1182 9446     		mov	ip, r2
 4334 1184 BC44     		add	ip, ip, r7
 4335 1186 6344     		add	r3, r3, ip
 4336 1188 1B78     		ldrb	r3, [r3]
 4337 118a 013B     		subs	r3, r3, #1
 4338 118c DBB2     		uxtb	r3, r3
 4339 118e 3022     		movs	r2, #48
 4340 1190 1421     		movs	r1, #20
 4341 1192 1800     		movs	r0, r3
 4342 1194 FFF7FEFF 		bl	runtime_CtrlSensor
 4343              	.L99:
 814:runtime.c     ****                 //UpdateSensorStatus(dev-1);
 815:runtime.c     ****             }
 816:runtime.c     ****         }
 817:runtime.c     ****         if(startRegister ==MODBUS_ZERO_CAL_DATE_REG){
 4344              		.loc 1 817 0
 4345 1198 1623     		movs	r3, #22
 4346 119a 0822     		movs	r2, #8
 4347 119c 9446     		mov	ip, r2
 4348 119e BC44     		add	ip, ip, r7
 4349 11a0 6344     		add	r3, r3, ip
 4350 11a2 1B88     		ldrh	r3, [r3]
 4351 11a4 0D2B     		cmp	r3, #13
 4352 11a6 56D1     		bne	.L100
 818:runtime.c     ****             if(dev>0){
 4353              		.loc 1 818 0
 4354 11a8 1323     		movs	r3, #19
 4355 11aa 0822     		movs	r2, #8
 4356 11ac 9446     		mov	ip, r2
 4357 11ae BC44     		add	ip, ip, r7
 4358 11b0 6344     		add	r3, r3, ip
 4359 11b2 1B78     		ldrb	r3, [r3]
 4360 11b4 002B     		cmp	r3, #0
 4361 11b6 1ED0     		beq	.L101
 819:runtime.c     ****                 runtime_CtrlSensor(dev-1 , SENSOR_ZER_CAL_DATE_REG, data);  
 4362              		.loc 1 819 0
 4363 11b8 1323     		movs	r3, #19
 4364 11ba 0822     		movs	r2, #8
 4365 11bc 9446     		mov	ip, r2
 4366 11be BC44     		add	ip, ip, r7
 4367 11c0 6344     		add	r3, r3, ip
 4368 11c2 1B78     		ldrb	r3, [r3]
 4369 11c4 013B     		subs	r3, r3, #1
 4370 11c6 D8B2     		uxtb	r0, r3
 4371 11c8 2623     		movs	r3, #38
 4372 11ca 0822     		movs	r2, #8
 4373 11cc 9446     		mov	ip, r2
 4374 11ce BC44     		add	ip, ip, r7
 4375 11d0 6344     		add	r3, r3, ip
 4376 11d2 1B88     		ldrh	r3, [r3]
 4377 11d4 1A00     		movs	r2, r3
 4378 11d6 1821     		movs	r1, #24
 4379 11d8 FFF7FEFF 		bl	runtime_CtrlSensor
 820:runtime.c     ****                 runtime_CtrlSensor(dev-1 , SENSOR_SYS_REMOTE_REG, RUNTIME_SMART_SENSOR_SYS_REMOTE_S
ARM GAS  C:\Users\alexport\AppData\Local\Temp\cc5NLpBH.s 			page 93


 4380              		.loc 1 820 0
 4381 11dc 1323     		movs	r3, #19
 4382 11de 0822     		movs	r2, #8
 4383 11e0 9446     		mov	ip, r2
 4384 11e2 BC44     		add	ip, ip, r7
 4385 11e4 6344     		add	r3, r3, ip
 4386 11e6 1B78     		ldrb	r3, [r3]
 4387 11e8 013B     		subs	r3, r3, #1
 4388 11ea DBB2     		uxtb	r3, r3
 4389 11ec 3022     		movs	r2, #48
 4390 11ee 1421     		movs	r1, #20
 4391 11f0 1800     		movs	r0, r3
 4392 11f2 FFF7FEFF 		bl	runtime_CtrlSensor
 4393              	.L101:
 821:runtime.c     ****             }
 822:runtime.c     **** #ifndef SINGLE_SENSOR_SYSTEM                   
 823:runtime.c     ****                     sprintf(log_txt,"%02d/%02d/%02d at %02d:%02d CH%d ZERO CAL",date_time.month, da
 4394              		.loc 1 823 0
 4395 11f6 0E4B     		ldr	r3, .L155+12
 4396 11f8 5B79     		ldrb	r3, [r3, #5]
 4397 11fa 1E00     		movs	r6, r3
 4398 11fc 0C4B     		ldr	r3, .L155+12
 4399 11fe 1B79     		ldrb	r3, [r3, #4]
 4400 1200 7B60     		str	r3, [r7, #4]
 4401 1202 0B4B     		ldr	r3, .L155+12
 4402 1204 9B79     		ldrb	r3, [r3, #6]
 4403 1206 1A00     		movs	r2, r3
 4404 1208 094B     		ldr	r3, .L155+12
 4405 120a 9B78     		ldrb	r3, [r3, #2]
 4406 120c 1C00     		movs	r4, r3
 4407 120e 084B     		ldr	r3, .L155+12
 4408 1210 5B78     		ldrb	r3, [r3, #1]
 4409 1212 1D00     		movs	r5, r3
 4410 1214 1321     		movs	r1, #19
 4411 1216 0823     		movs	r3, #8
 4412 1218 FB18     		adds	r3, r7, r3
 4413 121a 5B18     		adds	r3, r3, r1
 4414 121c 1B78     		ldrb	r3, [r3]
 4415 121e 0549     		ldr	r1, .L155+16
 4416 1220 0AE0     		b	.L156
 4417              	.L157:
 4418 1222 C046     		.align	2
 4419              	.L155:
 4420 1224 00000000 		.word	sensor_status
 4421 1228 00000000 		.word	sensor
 4422 122c 0088C340 		.word	1086556160
 4423 1230 00000000 		.word	date_time
 4424 1234 28000000 		.word	.LC54
 4425              	.L156:
 4426 1238 CE48     		ldr	r0, .L158
 4427 123a 0393     		str	r3, [sp, #12]
 4428 123c 0295     		str	r5, [sp, #8]
 4429 123e 0194     		str	r4, [sp, #4]
 4430 1240 0092     		str	r2, [sp]
 4431 1242 7B68     		ldr	r3, [r7, #4]
 4432 1244 3200     		movs	r2, r6
 4433 1246 FFF7FEFF 		bl	sprintf
ARM GAS  C:\Users\alexport\AppData\Local\Temp\cc5NLpBH.s 			page 94


 824:runtime.c     **** #else
 825:runtime.c     ****                     sprintf(log_txt,"%02d/%02d/%02d at %02d:%02d ZERO CAL",date_time.month, date_ti
 826:runtime.c     **** #endif
 827:runtime.c     ****                 SaveLogEntry(&log_last_entry_idx, log_txt);
 4434              		.loc 1 827 0
 4435 124a CA4A     		ldr	r2, .L158
 4436 124c CA4B     		ldr	r3, .L158+4
 4437 124e 1100     		movs	r1, r2
 4438 1250 1800     		movs	r0, r3
 4439 1252 FFF7FEFF 		bl	SaveLogEntry
 4440              	.L100:
 828:runtime.c     ****         }
 829:runtime.c     ****         if(startRegister ==MODBUS_SPAN_CAL_DATE_REG){
 4441              		.loc 1 829 0
 4442 1256 1623     		movs	r3, #22
 4443 1258 0822     		movs	r2, #8
 4444 125a 9446     		mov	ip, r2
 4445 125c BC44     		add	ip, ip, r7
 4446 125e 6344     		add	r3, r3, ip
 4447 1260 1B88     		ldrh	r3, [r3]
 4448 1262 0E2B     		cmp	r3, #14
 4449 1264 4AD1     		bne	.L102
 830:runtime.c     ****             if(dev>0){
 4450              		.loc 1 830 0
 4451 1266 1323     		movs	r3, #19
 4452 1268 0822     		movs	r2, #8
 4453 126a 9446     		mov	ip, r2
 4454 126c BC44     		add	ip, ip, r7
 4455 126e 6344     		add	r3, r3, ip
 4456 1270 1B78     		ldrb	r3, [r3]
 4457 1272 002B     		cmp	r3, #0
 4458 1274 1ED0     		beq	.L103
 831:runtime.c     ****                 runtime_CtrlSensor(dev-1 , SENSOR_SPAN_CAL_DATE_REG, data);  
 4459              		.loc 1 831 0
 4460 1276 1323     		movs	r3, #19
 4461 1278 0822     		movs	r2, #8
 4462 127a 9446     		mov	ip, r2
 4463 127c BC44     		add	ip, ip, r7
 4464 127e 6344     		add	r3, r3, ip
 4465 1280 1B78     		ldrb	r3, [r3]
 4466 1282 013B     		subs	r3, r3, #1
 4467 1284 D8B2     		uxtb	r0, r3
 4468 1286 2623     		movs	r3, #38
 4469 1288 0822     		movs	r2, #8
 4470 128a 9446     		mov	ip, r2
 4471 128c BC44     		add	ip, ip, r7
 4472 128e 6344     		add	r3, r3, ip
 4473 1290 1B88     		ldrh	r3, [r3]
 4474 1292 1A00     		movs	r2, r3
 4475 1294 1A21     		movs	r1, #26
 4476 1296 FFF7FEFF 		bl	runtime_CtrlSensor
 832:runtime.c     ****                 runtime_CtrlSensor(dev-1 , SENSOR_SYS_REMOTE_REG, RUNTIME_SMART_SENSOR_SYS_REMOTE_S
 4477              		.loc 1 832 0
 4478 129a 1323     		movs	r3, #19
 4479 129c 0822     		movs	r2, #8
 4480 129e 9446     		mov	ip, r2
 4481 12a0 BC44     		add	ip, ip, r7
ARM GAS  C:\Users\alexport\AppData\Local\Temp\cc5NLpBH.s 			page 95


 4482 12a2 6344     		add	r3, r3, ip
 4483 12a4 1B78     		ldrb	r3, [r3]
 4484 12a6 013B     		subs	r3, r3, #1
 4485 12a8 DBB2     		uxtb	r3, r3
 4486 12aa 3022     		movs	r2, #48
 4487 12ac 1421     		movs	r1, #20
 4488 12ae 1800     		movs	r0, r3
 4489 12b0 FFF7FEFF 		bl	runtime_CtrlSensor
 4490              	.L103:
 833:runtime.c     ****             }
 834:runtime.c     **** #ifndef SINGLE_SENSOR_SYSTEM                   
 835:runtime.c     ****                     sprintf(log_txt,"%02d/%02d/%02d at %02d:%02d CH%d SPAN CAL",date_time.month, da
 4491              		.loc 1 835 0
 4492 12b4 B14B     		ldr	r3, .L158+8
 4493 12b6 5B79     		ldrb	r3, [r3, #5]
 4494 12b8 1E00     		movs	r6, r3
 4495 12ba B04B     		ldr	r3, .L158+8
 4496 12bc 1B79     		ldrb	r3, [r3, #4]
 4497 12be 7B60     		str	r3, [r7, #4]
 4498 12c0 AE4B     		ldr	r3, .L158+8
 4499 12c2 9B79     		ldrb	r3, [r3, #6]
 4500 12c4 1A00     		movs	r2, r3
 4501 12c6 AD4B     		ldr	r3, .L158+8
 4502 12c8 9B78     		ldrb	r3, [r3, #2]
 4503 12ca 1C00     		movs	r4, r3
 4504 12cc AB4B     		ldr	r3, .L158+8
 4505 12ce 5B78     		ldrb	r3, [r3, #1]
 4506 12d0 1D00     		movs	r5, r3
 4507 12d2 1321     		movs	r1, #19
 4508 12d4 0823     		movs	r3, #8
 4509 12d6 FB18     		adds	r3, r7, r3
 4510 12d8 5B18     		adds	r3, r3, r1
 4511 12da 1B78     		ldrb	r3, [r3]
 4512 12dc A849     		ldr	r1, .L158+12
 4513 12de A548     		ldr	r0, .L158
 4514 12e0 0393     		str	r3, [sp, #12]
 4515 12e2 0295     		str	r5, [sp, #8]
 4516 12e4 0194     		str	r4, [sp, #4]
 4517 12e6 0092     		str	r2, [sp]
 4518 12e8 7B68     		ldr	r3, [r7, #4]
 4519 12ea 3200     		movs	r2, r6
 4520 12ec FFF7FEFF 		bl	sprintf
 836:runtime.c     **** #else
 837:runtime.c     ****                     sprintf(log_txt,"%02d/%02d/%02d at %02d:%02d ZERO CAL",date_time.month, date_ti
 838:runtime.c     **** #endif
 839:runtime.c     ****                 SaveLogEntry(&log_last_entry_idx, log_txt);
 4521              		.loc 1 839 0
 4522 12f0 A04A     		ldr	r2, .L158
 4523 12f2 A14B     		ldr	r3, .L158+4
 4524 12f4 1100     		movs	r1, r2
 4525 12f6 1800     		movs	r0, r3
 4526 12f8 FFF7FEFF 		bl	SaveLogEntry
 4527              	.L102:
 840:runtime.c     ****         }
 841:runtime.c     ****         
 842:runtime.c     ****         if(dev==0){
 4528              		.loc 1 842 0
ARM GAS  C:\Users\alexport\AppData\Local\Temp\cc5NLpBH.s 			page 96


 4529 12fc 1323     		movs	r3, #19
 4530 12fe 0822     		movs	r2, #8
 4531 1300 9446     		mov	ip, r2
 4532 1302 BC44     		add	ip, ip, r7
 4533 1304 6344     		add	r3, r3, ip
 4534 1306 1B78     		ldrb	r3, [r3]
 4535 1308 002B     		cmp	r3, #0
 4536 130a 00D0     		beq	.LCB4015
 4537 130c F5E0     		b	.L104	@long jump
 4538              	.LCB4015:
 843:runtime.c     ****             if(startRegister ==MODBUS_ADDRESS_REG){
 4539              		.loc 1 843 0
 4540 130e 1623     		movs	r3, #22
 4541 1310 0822     		movs	r2, #8
 4542 1312 9446     		mov	ip, r2
 4543 1314 BC44     		add	ip, ip, r7
 4544 1316 6344     		add	r3, r3, ip
 4545 1318 1B88     		ldrh	r3, [r3]
 4546 131a 022B     		cmp	r3, #2
 4547 131c 0DD1     		bne	.L105
 844:runtime.c     ****                 // Setting My Modbus address
 845:runtime.c     ****                 mySlaveAddr = data;
 4548              		.loc 1 845 0
 4549 131e 2623     		movs	r3, #38
 4550 1320 0822     		movs	r2, #8
 4551 1322 9446     		mov	ip, r2
 4552 1324 BC44     		add	ip, ip, r7
 4553 1326 6344     		add	r3, r3, ip
 4554 1328 1B88     		ldrh	r3, [r3]
 4555 132a DAB2     		uxtb	r2, r3
 4556 132c 954B     		ldr	r3, .L158+16
 4557 132e 1A70     		strb	r2, [r3]
 846:runtime.c     ****                 EEPROM_SetMyAddress(&mySlaveAddr);
 4558              		.loc 1 846 0
 4559 1330 944B     		ldr	r3, .L158+16
 4560 1332 1800     		movs	r0, r3
 4561 1334 FFF7FEFF 		bl	EEPROM_SetMyAddress
 4562 1338 DFE0     		b	.L104
 4563              	.L105:
 847:runtime.c     ****             }
 848:runtime.c     **** 
 849:runtime.c     ****             else if (startRegister ==MODBUS_SLEEP_PERIOD_REG){
 4564              		.loc 1 849 0
 4565 133a 1623     		movs	r3, #22
 4566 133c 0822     		movs	r2, #8
 4567 133e 9446     		mov	ip, r2
 4568 1340 BC44     		add	ip, ip, r7
 4569 1342 6344     		add	r3, r3, ip
 4570 1344 1B88     		ldrh	r3, [r3]
 4571 1346 032B     		cmp	r3, #3
 4572 1348 34D1     		bne	.L106
 850:runtime.c     ****                 // Setting I2C Period
 851:runtime.c     ****                 if(data<MINIMAL_SLEEP_PERIOD) 
 4573              		.loc 1 851 0
 4574 134a 2623     		movs	r3, #38
 4575 134c 0822     		movs	r2, #8
 4576 134e 9446     		mov	ip, r2
ARM GAS  C:\Users\alexport\AppData\Local\Temp\cc5NLpBH.s 			page 97


 4577 1350 BC44     		add	ip, ip, r7
 4578 1352 6344     		add	r3, r3, ip
 4579 1354 1B88     		ldrh	r3, [r3]
 4580 1356 8C4A     		ldr	r2, .L158+20
 4581 1358 9342     		cmp	r3, r2
 4582 135a 06D8     		bhi	.L107
 852:runtime.c     ****                     data=0;
 4583              		.loc 1 852 0
 4584 135c 2623     		movs	r3, #38
 4585 135e 0822     		movs	r2, #8
 4586 1360 9446     		mov	ip, r2
 4587 1362 BC44     		add	ip, ip, r7
 4588 1364 6344     		add	r3, r3, ip
 4589 1366 0022     		movs	r2, #0
 4590 1368 1A80     		strh	r2, [r3]
 4591              	.L107:
 853:runtime.c     ****                 sleepPeriod = data;
 4592              		.loc 1 853 0
 4593 136a 2623     		movs	r3, #38
 4594 136c 0822     		movs	r2, #8
 4595 136e 9446     		mov	ip, r2
 4596 1370 BC44     		add	ip, ip, r7
 4597 1372 6344     		add	r3, r3, ip
 4598 1374 1A88     		ldrh	r2, [r3]
 4599 1376 854B     		ldr	r3, .L158+24
 4600 1378 1A60     		str	r2, [r3]
 854:runtime.c     ****                 sleepEnable = (sleepPeriod>MINIMAL_SLEEP_PERIOD)? 1:0;
 4601              		.loc 1 854 0
 4602 137a 844B     		ldr	r3, .L158+24
 4603 137c 1B68     		ldr	r3, [r3]
 4604 137e 844A     		ldr	r2, .L158+28
 4605 1380 9A42     		cmp	r2, r3
 4606 1382 9B41     		sbcs	r3, r3, r3
 4607 1384 5B42     		rsbs	r3, r3, #0
 4608 1386 DBB2     		uxtb	r3, r3
 4609 1388 1A00     		movs	r2, r3
 4610 138a 824B     		ldr	r3, .L158+32
 4611 138c 1A70     		strb	r2, [r3]
 855:runtime.c     ****                 EEPROM_SetSleepPeriod(data);
 4612              		.loc 1 855 0
 4613 138e 2623     		movs	r3, #38
 4614 1390 0822     		movs	r2, #8
 4615 1392 9446     		mov	ip, r2
 4616 1394 BC44     		add	ip, ip, r7
 4617 1396 6344     		add	r3, r3, ip
 4618 1398 1B88     		ldrh	r3, [r3]
 4619 139a 1800     		movs	r0, r3
 4620 139c FFF7FEFF 		bl	EEPROM_SetSleepPeriod
 856:runtime.c     ****                 SetSleepPeriod(data);
 4621              		.loc 1 856 0
 4622 13a0 2623     		movs	r3, #38
 4623 13a2 0822     		movs	r2, #8
 4624 13a4 9446     		mov	ip, r2
 4625 13a6 BC44     		add	ip, ip, r7
 4626 13a8 6344     		add	r3, r3, ip
 4627 13aa 1B88     		ldrh	r3, [r3]
 4628 13ac 1800     		movs	r0, r3
ARM GAS  C:\Users\alexport\AppData\Local\Temp\cc5NLpBH.s 			page 98


 4629 13ae FFF7FEFF 		bl	SetSleepPeriod
 4630 13b2 A2E0     		b	.L104
 4631              	.L106:
 857:runtime.c     ****             }
 858:runtime.c     ****             else if (startRegister ==MODBUS_MONTH_REG){
 4632              		.loc 1 858 0
 4633 13b4 1623     		movs	r3, #22
 4634 13b6 0822     		movs	r2, #8
 4635 13b8 9446     		mov	ip, r2
 4636 13ba BC44     		add	ip, ip, r7
 4637 13bc 6344     		add	r3, r3, ip
 4638 13be 1B88     		ldrh	r3, [r3]
 4639 13c0 0A2B     		cmp	r3, #10
 4640 13c2 1FD1     		bne	.L108
 859:runtime.c     ****                 if((data>12)||(data==0))return;
 4641              		.loc 1 859 0
 4642 13c4 2623     		movs	r3, #38
 4643 13c6 0822     		movs	r2, #8
 4644 13c8 9446     		mov	ip, r2
 4645 13ca BC44     		add	ip, ip, r7
 4646 13cc 6344     		add	r3, r3, ip
 4647 13ce 1B88     		ldrh	r3, [r3]
 4648 13d0 0C2B     		cmp	r3, #12
 4649 13d2 00D9     		bls	.LCB4118
 4650 13d4 5EE1     		b	.L139	@long jump
 4651              	.LCB4118:
 4652              		.loc 1 859 0 is_stmt 0 discriminator 1
 4653 13d6 2623     		movs	r3, #38
 4654 13d8 0822     		movs	r2, #8
 4655 13da 9446     		mov	ip, r2
 4656 13dc BC44     		add	ip, ip, r7
 4657 13de 6344     		add	r3, r3, ip
 4658 13e0 1B88     		ldrh	r3, [r3]
 4659 13e2 002B     		cmp	r3, #0
 4660 13e4 00D1     		bne	.LCB4126
 4661 13e6 55E1     		b	.L139	@long jump
 4662              	.LCB4126:
 860:runtime.c     ****                 date_time.month=data;
 4663              		.loc 1 860 0 is_stmt 1
 4664 13e8 2623     		movs	r3, #38
 4665 13ea 0822     		movs	r2, #8
 4666 13ec 9446     		mov	ip, r2
 4667 13ee BC44     		add	ip, ip, r7
 4668 13f0 6344     		add	r3, r3, ip
 4669 13f2 1B88     		ldrh	r3, [r3]
 4670 13f4 DAB2     		uxtb	r2, r3
 4671 13f6 614B     		ldr	r3, .L158+8
 4672 13f8 5A71     		strb	r2, [r3, #5]
 861:runtime.c     ****                 DS3231_SetDateTime(&date_time);
 4673              		.loc 1 861 0
 4674 13fa 604B     		ldr	r3, .L158+8
 4675 13fc 1800     		movs	r0, r3
 4676 13fe FFF7FEFF 		bl	DS3231_SetDateTime
 4677 1402 7AE0     		b	.L104
 4678              	.L108:
 862:runtime.c     ****             }
 863:runtime.c     ****             else if (startRegister ==MODBUS_DAY_REG){
ARM GAS  C:\Users\alexport\AppData\Local\Temp\cc5NLpBH.s 			page 99


 4679              		.loc 1 863 0
 4680 1404 1623     		movs	r3, #22
 4681 1406 0822     		movs	r2, #8
 4682 1408 9446     		mov	ip, r2
 4683 140a BC44     		add	ip, ip, r7
 4684 140c 6344     		add	r3, r3, ip
 4685 140e 1B88     		ldrh	r3, [r3]
 4686 1410 0B2B     		cmp	r3, #11
 4687 1412 16D1     		bne	.L111
 864:runtime.c     ****                 if(data>31)return;
 4688              		.loc 1 864 0
 4689 1414 2623     		movs	r3, #38
 4690 1416 0822     		movs	r2, #8
 4691 1418 9446     		mov	ip, r2
 4692 141a BC44     		add	ip, ip, r7
 4693 141c 6344     		add	r3, r3, ip
 4694 141e 1B88     		ldrh	r3, [r3]
 4695 1420 1F2B     		cmp	r3, #31
 4696 1422 00D9     		bls	.LCB4158
 4697 1424 38E1     		b	.L140	@long jump
 4698              	.LCB4158:
 865:runtime.c     ****                 date_time.day=data;
 4699              		.loc 1 865 0
 4700 1426 2623     		movs	r3, #38
 4701 1428 0822     		movs	r2, #8
 4702 142a 9446     		mov	ip, r2
 4703 142c BC44     		add	ip, ip, r7
 4704 142e 6344     		add	r3, r3, ip
 4705 1430 1B88     		ldrh	r3, [r3]
 4706 1432 DAB2     		uxtb	r2, r3
 4707 1434 514B     		ldr	r3, .L158+8
 4708 1436 1A71     		strb	r2, [r3, #4]
 866:runtime.c     ****                 DS3231_SetDateTime(&date_time);
 4709              		.loc 1 866 0
 4710 1438 504B     		ldr	r3, .L158+8
 4711 143a 1800     		movs	r0, r3
 4712 143c FFF7FEFF 		bl	DS3231_SetDateTime
 4713 1440 5BE0     		b	.L104
 4714              	.L111:
 867:runtime.c     ****             }
 868:runtime.c     ****             
 869:runtime.c     ****             else if (startRegister ==MODBUS_YEAR_REG){
 4715              		.loc 1 869 0
 4716 1442 1623     		movs	r3, #22
 4717 1444 0822     		movs	r2, #8
 4718 1446 9446     		mov	ip, r2
 4719 1448 BC44     		add	ip, ip, r7
 4720 144a 6344     		add	r3, r3, ip
 4721 144c 1B88     		ldrh	r3, [r3]
 4722 144e 0C2B     		cmp	r3, #12
 4723 1450 16D1     		bne	.L113
 870:runtime.c     ****                 if(data>99)return;
 4724              		.loc 1 870 0
 4725 1452 2623     		movs	r3, #38
 4726 1454 0822     		movs	r2, #8
 4727 1456 9446     		mov	ip, r2
 4728 1458 BC44     		add	ip, ip, r7
ARM GAS  C:\Users\alexport\AppData\Local\Temp\cc5NLpBH.s 			page 100


 4729 145a 6344     		add	r3, r3, ip
 4730 145c 1B88     		ldrh	r3, [r3]
 4731 145e 632B     		cmp	r3, #99
 4732 1460 00D9     		bls	.LCB4190
 4733 1462 1BE1     		b	.L141	@long jump
 4734              	.LCB4190:
 871:runtime.c     ****                 date_time.year=data;
 4735              		.loc 1 871 0
 4736 1464 2623     		movs	r3, #38
 4737 1466 0822     		movs	r2, #8
 4738 1468 9446     		mov	ip, r2
 4739 146a BC44     		add	ip, ip, r7
 4740 146c 6344     		add	r3, r3, ip
 4741 146e 1B88     		ldrh	r3, [r3]
 4742 1470 DAB2     		uxtb	r2, r3
 4743 1472 424B     		ldr	r3, .L158+8
 4744 1474 9A71     		strb	r2, [r3, #6]
 872:runtime.c     ****                 DS3231_SetDateTime(&date_time);
 4745              		.loc 1 872 0
 4746 1476 414B     		ldr	r3, .L158+8
 4747 1478 1800     		movs	r0, r3
 4748 147a FFF7FEFF 		bl	DS3231_SetDateTime
 4749 147e 3CE0     		b	.L104
 4750              	.L113:
 873:runtime.c     ****             }
 874:runtime.c     ****             else if (startRegister ==MODBUS_HOURS_REG){
 4751              		.loc 1 874 0
 4752 1480 1623     		movs	r3, #22
 4753 1482 0822     		movs	r2, #8
 4754 1484 9446     		mov	ip, r2
 4755 1486 BC44     		add	ip, ip, r7
 4756 1488 6344     		add	r3, r3, ip
 4757 148a 1B88     		ldrh	r3, [r3]
 4758 148c 0D2B     		cmp	r3, #13
 4759 148e 16D1     		bne	.L115
 875:runtime.c     ****                 if(data>23)return;
 4760              		.loc 1 875 0
 4761 1490 2623     		movs	r3, #38
 4762 1492 0822     		movs	r2, #8
 4763 1494 9446     		mov	ip, r2
 4764 1496 BC44     		add	ip, ip, r7
 4765 1498 6344     		add	r3, r3, ip
 4766 149a 1B88     		ldrh	r3, [r3]
 4767 149c 172B     		cmp	r3, #23
 4768 149e 00D9     		bls	.LCB4222
 4769 14a0 FEE0     		b	.L142	@long jump
 4770              	.LCB4222:
 876:runtime.c     ****                 date_time.hours=data;
 4771              		.loc 1 876 0
 4772 14a2 2623     		movs	r3, #38
 4773 14a4 0822     		movs	r2, #8
 4774 14a6 9446     		mov	ip, r2
 4775 14a8 BC44     		add	ip, ip, r7
 4776 14aa 6344     		add	r3, r3, ip
 4777 14ac 1B88     		ldrh	r3, [r3]
 4778 14ae DAB2     		uxtb	r2, r3
 4779 14b0 324B     		ldr	r3, .L158+8
ARM GAS  C:\Users\alexport\AppData\Local\Temp\cc5NLpBH.s 			page 101


 4780 14b2 9A70     		strb	r2, [r3, #2]
 877:runtime.c     ****                 DS3231_SetDateTime(&date_time);
 4781              		.loc 1 877 0
 4782 14b4 314B     		ldr	r3, .L158+8
 4783 14b6 1800     		movs	r0, r3
 4784 14b8 FFF7FEFF 		bl	DS3231_SetDateTime
 4785 14bc 1DE0     		b	.L104
 4786              	.L115:
 878:runtime.c     ****             }
 879:runtime.c     ****             else if (startRegister ==MODBUS_MINUTES_REG){
 4787              		.loc 1 879 0
 4788 14be 1623     		movs	r3, #22
 4789 14c0 0822     		movs	r2, #8
 4790 14c2 9446     		mov	ip, r2
 4791 14c4 BC44     		add	ip, ip, r7
 4792 14c6 6344     		add	r3, r3, ip
 4793 14c8 1B88     		ldrh	r3, [r3]
 4794 14ca 0E2B     		cmp	r3, #14
 4795 14cc 15D1     		bne	.L104
 880:runtime.c     ****                 if(data>59)return;
 4796              		.loc 1 880 0
 4797 14ce 2623     		movs	r3, #38
 4798 14d0 0822     		movs	r2, #8
 4799 14d2 9446     		mov	ip, r2
 4800 14d4 BC44     		add	ip, ip, r7
 4801 14d6 6344     		add	r3, r3, ip
 4802 14d8 1B88     		ldrh	r3, [r3]
 4803 14da 3B2B     		cmp	r3, #59
 4804 14dc 00D9     		bls	.LCB4254
 4805 14de E1E0     		b	.L143	@long jump
 4806              	.LCB4254:
 881:runtime.c     ****                 date_time.minutes=data;
 4807              		.loc 1 881 0
 4808 14e0 2623     		movs	r3, #38
 4809 14e2 0822     		movs	r2, #8
 4810 14e4 9446     		mov	ip, r2
 4811 14e6 BC44     		add	ip, ip, r7
 4812 14e8 6344     		add	r3, r3, ip
 4813 14ea 1B88     		ldrh	r3, [r3]
 4814 14ec DAB2     		uxtb	r2, r3
 4815 14ee 234B     		ldr	r3, .L158+8
 4816 14f0 5A70     		strb	r2, [r3, #1]
 882:runtime.c     ****                 DS3231_SetDateTime(&date_time);
 4817              		.loc 1 882 0
 4818 14f2 224B     		ldr	r3, .L158+8
 4819 14f4 1800     		movs	r0, r3
 4820 14f6 FFF7FEFF 		bl	DS3231_SetDateTime
 4821              	.L104:
 883:runtime.c     ****             }
 884:runtime.c     ****         }
 885:runtime.c     ****         // Send Response to Modbus Master
 886:runtime.c     ****         modbusWriteResponse(mySlaveAddr, modbusCommand , startRegister, data);
 4822              		.loc 1 886 0
 4823 14fa 224B     		ldr	r3, .L158+16
 4824 14fc 1878     		ldrb	r0, [r3]
 4825 14fe 2623     		movs	r3, #38
 4826 1500 0822     		movs	r2, #8
ARM GAS  C:\Users\alexport\AppData\Local\Temp\cc5NLpBH.s 			page 102


 4827 1502 9446     		mov	ip, r2
 4828 1504 BC44     		add	ip, ip, r7
 4829 1506 6344     		add	r3, r3, ip
 4830 1508 1C88     		ldrh	r4, [r3]
 4831 150a 1623     		movs	r3, #22
 4832 150c 0822     		movs	r2, #8
 4833 150e 9446     		mov	ip, r2
 4834 1510 BC44     		add	ip, ip, r7
 4835 1512 6344     		add	r3, r3, ip
 4836 1514 1A88     		ldrh	r2, [r3]
 4837 1516 1923     		movs	r3, #25
 4838 1518 0821     		movs	r1, #8
 4839 151a 8C46     		mov	ip, r1
 4840 151c BC44     		add	ip, ip, r7
 4841 151e 6344     		add	r3, r3, ip
 4842 1520 1978     		ldrb	r1, [r3]
 4843 1522 2300     		movs	r3, r4
 4844 1524 FFF7FEFF 		bl	modbusWriteResponse
 4845              	.L90:
 887:runtime.c     ****     }
 888:runtime.c     ****     
 889:runtime.c     ****     
 890:runtime.c     ****     
 891:runtime.c     ****     if(MODBUS_WRITE_xREGS_CMD == modbusCommand){
 4846              		.loc 1 891 0
 4847 1528 1923     		movs	r3, #25
 4848 152a 0822     		movs	r2, #8
 4849 152c 9446     		mov	ip, r2
 4850 152e BC44     		add	ip, ip, r7
 4851 1530 6344     		add	r3, r3, ip
 4852 1532 1B78     		ldrb	r3, [r3]
 4853 1534 102B     		cmp	r3, #16
 4854 1536 00D0     		beq	.LCB4300
 4855 1538 B6E0     		b	.L144	@long jump
 4856              	.LCB4300:
 4857              	.LBB6:
 892:runtime.c     ****         bytesIn =0;
 4858              		.loc 1 892 0
 4859 153a 174B     		ldr	r3, .L158+36
 4860 153c 0022     		movs	r2, #0
 4861 153e 1A70     		strb	r2, [r3]
 893:runtime.c     ****         uint8_t tmp[4];  
 894:runtime.c     ****         
 895:runtime.c     ****         if(dev==0){
 4862              		.loc 1 895 0
 4863 1540 1323     		movs	r3, #19
 4864 1542 0822     		movs	r2, #8
 4865 1544 9446     		mov	ip, r2
 4866 1546 BC44     		add	ip, ip, r7
 4867 1548 6344     		add	r3, r3, ip
 4868 154a 1B78     		ldrb	r3, [r3]
 4869 154c 002B     		cmp	r3, #0
 4870 154e 00D0     		beq	.LCB4312
 4871 1550 AAE0     		b	.L144	@long jump
 4872              	.LCB4312:
 896:runtime.c     ****             if(startRegister ==MODBUS_LATITUDE_REG){
 4873              		.loc 1 896 0
ARM GAS  C:\Users\alexport\AppData\Local\Temp\cc5NLpBH.s 			page 103


 4874 1552 1623     		movs	r3, #22
 4875 1554 0822     		movs	r2, #8
 4876 1556 9446     		mov	ip, r2
 4877 1558 BC44     		add	ip, ip, r7
 4878 155a 6344     		add	r3, r3, ip
 4879 155c 1B88     		ldrh	r3, [r3]
 4880 155e 052B     		cmp	r3, #5
 4881 1560 51D1     		bne	.L120
 4882              	.LBB7:
 897:runtime.c     ****                 for(uint8_t i=0;i< sizeof(float);i++)
 4883              		.loc 1 897 0
 4884 1562 1F23     		movs	r3, #31
 4885 1564 0822     		movs	r2, #8
 4886 1566 9446     		mov	ip, r2
 4887 1568 BC44     		add	ip, ip, r7
 4888 156a 6344     		add	r3, r3, ip
 4889 156c 0022     		movs	r2, #0
 4890 156e 1A70     		strb	r2, [r3]
 4891 1570 35E0     		b	.L121
 4892              	.L159:
 4893 1572 C046     		.align	2
 4894              	.L158:
 4895 1574 00000000 		.word	log_txt
 4896 1578 00000000 		.word	log_last_entry_idx
 4897 157c 00000000 		.word	date_time
 4898 1580 54000000 		.word	.LC58
 4899 1584 00000000 		.word	mySlaveAddr
 4900 1588 0F270000 		.word	9999
 4901 158c 00000000 		.word	sleepPeriod
 4902 1590 10270000 		.word	10000
 4903 1594 00000000 		.word	sleepEnable
 4904 1598 00000000 		.word	bytesIn
 4905              	.L122:
 898:runtime.c     ****                     tmp[3-i]=modbus_rxBuffer[7+i];
 4906              		.loc 1 898 0 discriminator 3
 4907 159c 1F23     		movs	r3, #31
 4908 159e 0822     		movs	r2, #8
 4909 15a0 9446     		mov	ip, r2
 4910 15a2 BC44     		add	ip, ip, r7
 4911 15a4 6344     		add	r3, r3, ip
 4912 15a6 1B78     		ldrb	r3, [r3]
 4913 15a8 0322     		movs	r2, #3
 4914 15aa D31A     		subs	r3, r2, r3
 4915 15ac 1F22     		movs	r2, #31
 4916 15ae 0821     		movs	r1, #8
 4917 15b0 8C46     		mov	ip, r1
 4918 15b2 BC44     		add	ip, ip, r7
 4919 15b4 6244     		add	r2, r2, ip
 4920 15b6 1278     		ldrb	r2, [r2]
 4921 15b8 0732     		adds	r2, r2, #7
 4922 15ba 3D49     		ldr	r1, .L160
 4923 15bc 895C     		ldrb	r1, [r1, r2]
 4924 15be 0C22     		movs	r2, #12
 4925 15c0 BA18     		adds	r2, r7, r2
 4926 15c2 D154     		strb	r1, [r2, r3]
 897:runtime.c     ****                 for(uint8_t i=0;i< sizeof(float);i++)
 4927              		.loc 1 897 0 discriminator 3
ARM GAS  C:\Users\alexport\AppData\Local\Temp\cc5NLpBH.s 			page 104


 4928 15c4 1F23     		movs	r3, #31
 4929 15c6 0822     		movs	r2, #8
 4930 15c8 9446     		mov	ip, r2
 4931 15ca BC44     		add	ip, ip, r7
 4932 15cc 6344     		add	r3, r3, ip
 4933 15ce 1A78     		ldrb	r2, [r3]
 4934 15d0 1F23     		movs	r3, #31
 4935 15d2 0821     		movs	r1, #8
 4936 15d4 8C46     		mov	ip, r1
 4937 15d6 BC44     		add	ip, ip, r7
 4938 15d8 6344     		add	r3, r3, ip
 4939 15da 0132     		adds	r2, r2, #1
 4940 15dc 1A70     		strb	r2, [r3]
 4941              	.L121:
 897:runtime.c     ****                 for(uint8_t i=0;i< sizeof(float);i++)
 4942              		.loc 1 897 0 is_stmt 0 discriminator 1
 4943 15de 1F23     		movs	r3, #31
 4944 15e0 0822     		movs	r2, #8
 4945 15e2 9446     		mov	ip, r2
 4946 15e4 BC44     		add	ip, ip, r7
 4947 15e6 6344     		add	r3, r3, ip
 4948 15e8 1B78     		ldrb	r3, [r3]
 4949 15ea 032B     		cmp	r3, #3
 4950 15ec D6D9     		bls	.L122
 4951              	.LBE7:
 899:runtime.c     ****                 memcpy(&flatitude, tmp, 4); 
 4952              		.loc 1 899 0 is_stmt 1
 4953 15ee 0C23     		movs	r3, #12
 4954 15f0 F918     		adds	r1, r7, r3
 4955 15f2 304B     		ldr	r3, .L160+4
 4956 15f4 0422     		movs	r2, #4
 4957 15f6 1800     		movs	r0, r3
 4958 15f8 FFF7FEFF 		bl	memcpy
 900:runtime.c     ****                 EEPROM_SaveGPSLat(flatitude);
 4959              		.loc 1 900 0
 4960 15fc 2D4B     		ldr	r3, .L160+4
 4961 15fe 1B68     		ldr	r3, [r3]
 4962 1600 181C     		adds	r0, r3, #0
 4963 1602 FFF7FEFF 		bl	EEPROM_SaveGPSLat
 4964              	.L120:
 901:runtime.c     ****             }
 902:runtime.c     ****             if(startRegister ==MODBUS_LONGITUDE_REG){
 4965              		.loc 1 902 0
 4966 1606 1623     		movs	r3, #22
 4967 1608 0822     		movs	r2, #8
 4968 160a 9446     		mov	ip, r2
 4969 160c BC44     		add	ip, ip, r7
 4970 160e 6344     		add	r3, r3, ip
 4971 1610 1B88     		ldrh	r3, [r3]
 4972 1612 072B     		cmp	r3, #7
 4973 1614 48D1     		bne	.L144
 4974              	.LBB8:
 903:runtime.c     ****                 for(uint8_t i=0;i< sizeof(float);i++)
 4975              		.loc 1 903 0
 4976 1616 1E23     		movs	r3, #30
 4977 1618 0822     		movs	r2, #8
 4978 161a 9446     		mov	ip, r2
ARM GAS  C:\Users\alexport\AppData\Local\Temp\cc5NLpBH.s 			page 105


 4979 161c BC44     		add	ip, ip, r7
 4980 161e 6344     		add	r3, r3, ip
 4981 1620 0022     		movs	r2, #0
 4982 1622 1A70     		strb	r2, [r3]
 4983 1624 20E0     		b	.L123
 4984              	.L124:
 904:runtime.c     ****                     tmp[3-i]=modbus_rxBuffer[7+i];
 4985              		.loc 1 904 0 discriminator 3
 4986 1626 1E23     		movs	r3, #30
 4987 1628 0822     		movs	r2, #8
 4988 162a 9446     		mov	ip, r2
 4989 162c BC44     		add	ip, ip, r7
 4990 162e 6344     		add	r3, r3, ip
 4991 1630 1B78     		ldrb	r3, [r3]
 4992 1632 0322     		movs	r2, #3
 4993 1634 D31A     		subs	r3, r2, r3
 4994 1636 1E22     		movs	r2, #30
 4995 1638 0821     		movs	r1, #8
 4996 163a 8C46     		mov	ip, r1
 4997 163c BC44     		add	ip, ip, r7
 4998 163e 6244     		add	r2, r2, ip
 4999 1640 1278     		ldrb	r2, [r2]
 5000 1642 0732     		adds	r2, r2, #7
 5001 1644 1A49     		ldr	r1, .L160
 5002 1646 895C     		ldrb	r1, [r1, r2]
 5003 1648 0C22     		movs	r2, #12
 5004 164a BA18     		adds	r2, r7, r2
 5005 164c D154     		strb	r1, [r2, r3]
 903:runtime.c     ****                 for(uint8_t i=0;i< sizeof(float);i++)
 5006              		.loc 1 903 0 discriminator 3
 5007 164e 1E23     		movs	r3, #30
 5008 1650 0822     		movs	r2, #8
 5009 1652 9446     		mov	ip, r2
 5010 1654 BC44     		add	ip, ip, r7
 5011 1656 6344     		add	r3, r3, ip
 5012 1658 1A78     		ldrb	r2, [r3]
 5013 165a 1E23     		movs	r3, #30
 5014 165c 0821     		movs	r1, #8
 5015 165e 8C46     		mov	ip, r1
 5016 1660 BC44     		add	ip, ip, r7
 5017 1662 6344     		add	r3, r3, ip
 5018 1664 0132     		adds	r2, r2, #1
 5019 1666 1A70     		strb	r2, [r3]
 5020              	.L123:
 903:runtime.c     ****                 for(uint8_t i=0;i< sizeof(float);i++)
 5021              		.loc 1 903 0 is_stmt 0 discriminator 1
 5022 1668 1E23     		movs	r3, #30
 5023 166a 0822     		movs	r2, #8
 5024 166c 9446     		mov	ip, r2
 5025 166e BC44     		add	ip, ip, r7
 5026 1670 6344     		add	r3, r3, ip
 5027 1672 1B78     		ldrb	r3, [r3]
 5028 1674 032B     		cmp	r3, #3
 5029 1676 D6D9     		bls	.L124
 5030              	.LBE8:
 905:runtime.c     ****                 memcpy(&flongitude, tmp, 4); 
 5031              		.loc 1 905 0 is_stmt 1
ARM GAS  C:\Users\alexport\AppData\Local\Temp\cc5NLpBH.s 			page 106


 5032 1678 0C23     		movs	r3, #12
 5033 167a F918     		adds	r1, r7, r3
 5034 167c 0E4B     		ldr	r3, .L160+8
 5035 167e 0422     		movs	r2, #4
 5036 1680 1800     		movs	r0, r3
 5037 1682 FFF7FEFF 		bl	memcpy
 906:runtime.c     ****                 EEPROM_SaveGPSLong(flongitude);
 5038              		.loc 1 906 0
 5039 1686 0C4B     		ldr	r3, .L160+8
 5040 1688 1B68     		ldr	r3, [r3]
 5041 168a 181C     		adds	r0, r3, #0
 5042 168c FFF7FEFF 		bl	EEPROM_SaveGPSLong
 5043              	.LBE6:
 907:runtime.c     ****             }
 908:runtime.c     ****             
 909:runtime.c     ****             
 910:runtime.c     ****         }
 911:runtime.c     ****     }
 912:runtime.c     ****     
 913:runtime.c     ****     return;    
 5044              		.loc 1 913 0
 5045 1690 C046     		nop
 5046 1692 09E0     		b	.L144
 5047              	.L139:
 859:runtime.c     ****                 date_time.month=data;
 5048              		.loc 1 859 0
 5049 1694 C046     		nop
 5050 1696 08E0     		b	.L48
 5051              	.L140:
 864:runtime.c     ****                 date_time.day=data;
 5052              		.loc 1 864 0
 5053 1698 C046     		nop
 5054 169a 06E0     		b	.L48
 5055              	.L141:
 870:runtime.c     ****                 date_time.year=data;
 5056              		.loc 1 870 0
 5057 169c C046     		nop
 5058 169e 04E0     		b	.L48
 5059              	.L142:
 875:runtime.c     ****                 date_time.hours=data;
 5060              		.loc 1 875 0
 5061 16a0 C046     		nop
 5062 16a2 02E0     		b	.L48
 5063              	.L143:
 880:runtime.c     ****                 date_time.minutes=data;
 5064              		.loc 1 880 0
 5065 16a4 C046     		nop
 5066 16a6 00E0     		b	.L48
 5067              	.L144:
 5068              		.loc 1 913 0
 5069 16a8 C046     		nop
 5070              	.L48:
 914:runtime.c     **** }
 5071              		.loc 1 914 0
 5072 16aa BD46     		mov	sp, r7
 5073 16ac 0DB0     		add	sp, sp, #52
 5074              		@ sp needed
ARM GAS  C:\Users\alexport\AppData\Local\Temp\cc5NLpBH.s 			page 107


 5075 16ae F0BD     		pop	{r4, r5, r6, r7, pc}
 5076              	.L161:
 5077              		.align	2
 5078              	.L160:
 5079 16b0 00000000 		.word	modbus_rxBuffer
 5080 16b4 00000000 		.word	flatitude
 5081 16b8 00000000 		.word	flongitude
 5082              		.cfi_endproc
 5083              	.LFE43:
 5084              		.size	runtime_ProcessRequest, .-runtime_ProcessRequest
 5085              		.section	.text.GoToSleep,"ax",%progbits
 5086              		.align	2
 5087              		.global	GoToSleep
 5088              		.code	16
 5089              		.thumb_func
 5090              		.type	GoToSleep, %function
 5091              	GoToSleep:
 5092              	.LFB44:
 915:runtime.c     **** 
 916:runtime.c     **** 
 917:runtime.c     **** 
 918:runtime.c     **** 
 919:runtime.c     **** 
 920:runtime.c     **** 
 921:runtime.c     **** 
 922:runtime.c     **** 
 923:runtime.c     **** void GoToSleep(){
 5093              		.loc 1 923 0
 5094              		.cfi_startproc
 5095              		@ args = 0, pretend = 0, frame = 0
 5096              		@ frame_needed = 1, uses_anonymous_args = 0
 5097 0000 80B5     		push	{r7, lr}
 5098              		.cfi_def_cfa_offset 8
 5099              		.cfi_offset 7, -8
 5100              		.cfi_offset 14, -4
 5101 0002 00AF     		add	r7, sp, #0
 5102              		.cfi_def_cfa_register 7
 924:runtime.c     ****     bytesIn=0;
 5103              		.loc 1 924 0
 5104 0004 124B     		ldr	r3, .L163
 5105 0006 0022     		movs	r2, #0
 5106 0008 1A70     		strb	r2, [r3]
 925:runtime.c     ****     deepSleep=1;
 5107              		.loc 1 925 0
 5108 000a 124B     		ldr	r3, .L163+4
 5109 000c 0122     		movs	r2, #1
 5110 000e 1A70     		strb	r2, [r3]
 926:runtime.c     ****     
 927:runtime.c     ****     
 928:runtime.c     ****     ModbusUART_Sleep();
 5111              		.loc 1 928 0
 5112 0010 FFF7FEFF 		bl	ModbusUART_Sleep
 929:runtime.c     ****     system_SetLed(0, SYSTEM_LED_OFF, 0, 0);
 5113              		.loc 1 929 0
 5114 0014 0023     		movs	r3, #0
 5115 0016 0022     		movs	r2, #0
 5116 0018 0021     		movs	r1, #0
ARM GAS  C:\Users\alexport\AppData\Local\Temp\cc5NLpBH.s 			page 108


 5117 001a 0020     		movs	r0, #0
 5118 001c FFF7FEFF 		bl	system_SetLed
 930:runtime.c     ****     LED_Update();
 5119              		.loc 1 930 0
 5120 0020 FFF7FEFF 		bl	LED_Update
 931:runtime.c     ****     
 932:runtime.c     ****     //Nextion_ClearScreen();
 933:runtime.c     ****     //CyDelay(400);
 934:runtime.c     ****     Nextion_Sleep();
 5121              		.loc 1 934 0
 5122 0024 FFF7FEFF 		bl	Nextion_Sleep
 935:runtime.c     ****     
 936:runtime.c     ****     //Nextion_DeepSleep(); // Wake up from Deep Sleep can be made by touching display , it doesnt w
 937:runtime.c     ****     //CyDelay(400);
 938:runtime.c     ****     
 939:runtime.c     ****     wasSleeping=1;
 5123              		.loc 1 939 0
 5124 0028 0B4B     		ldr	r3, .L163+8
 5125 002a 0122     		movs	r2, #1
 5126 002c 1A70     		strb	r2, [r3]
 940:runtime.c     ****     CyDelay(5);
 5127              		.loc 1 940 0
 5128 002e 0520     		movs	r0, #5
 5129 0030 FFF7FEFF 		bl	CyDelay
 941:runtime.c     ****     CySysPmDeepSleep();
 5130              		.loc 1 941 0
 5131 0034 FFF7FEFF 		bl	CySysPmDeepSleep
 942:runtime.c     ****     
 943:runtime.c     ****     ModbusUART_Wakeup();
 5132              		.loc 1 943 0
 5133 0038 FFF7FEFF 		bl	ModbusUART_Wakeup
 944:runtime.c     ****     
 945:runtime.c     ****     Nextion_WakeUp();
 5134              		.loc 1 945 0
 5135 003c FFF7FEFF 		bl	Nextion_WakeUp
 946:runtime.c     ****     //Nextion_DeepSleepWakeUp();
 947:runtime.c     ****     
 948:runtime.c     ****     GoRealtime(ch2Active);
 5136              		.loc 1 948 0
 5137 0040 064B     		ldr	r3, .L163+12
 5138 0042 1B78     		ldrb	r3, [r3]
 5139 0044 1800     		movs	r0, r3
 5140 0046 FFF7FEFF 		bl	GoRealtime
 949:runtime.c     ****     
 950:runtime.c     ****     
 951:runtime.c     ****     //RS232UART_RestoreConfig() ;
 952:runtime.c     ****     //RS232UART_Wakeup();
 953:runtime.c     ****     
 954:runtime.c     **** }
 5141              		.loc 1 954 0
 5142 004a C046     		nop
 5143 004c BD46     		mov	sp, r7
 5144              		@ sp needed
 5145 004e 80BD     		pop	{r7, pc}
 5146              	.L164:
 5147              		.align	2
 5148              	.L163:
ARM GAS  C:\Users\alexport\AppData\Local\Temp\cc5NLpBH.s 			page 109


 5149 0050 00000000 		.word	bytesIn
 5150 0054 00000000 		.word	deepSleep
 5151 0058 00000000 		.word	wasSleeping
 5152 005c 00000000 		.word	ch2Active
 5153              		.cfi_endproc
 5154              	.LFE44:
 5155              		.size	GoToSleep, .-GoToSleep
 5156              		.section	.text.LEDShow,"ax",%progbits
 5157              		.align	2
 5158              		.global	LEDShow
 5159              		.code	16
 5160              		.thumb_func
 5161              		.type	LEDShow, %function
 5162              	LEDShow:
 5163              	.LFB45:
 955:runtime.c     **** 
 956:runtime.c     **** void LEDShow(void){
 5164              		.loc 1 956 0
 5165              		.cfi_startproc
 5166              		@ args = 0, pretend = 0, frame = 0
 5167              		@ frame_needed = 1, uses_anonymous_args = 0
 5168 0000 80B5     		push	{r7, lr}
 5169              		.cfi_def_cfa_offset 8
 5170              		.cfi_offset 7, -8
 5171              		.cfi_offset 14, -4
 5172 0002 00AF     		add	r7, sp, #0
 5173              		.cfi_def_cfa_register 7
 957:runtime.c     ****     //LED_Write(deepSleep);
 958:runtime.c     **** }
 5174              		.loc 1 958 0
 5175 0004 C046     		nop
 5176 0006 BD46     		mov	sp, r7
 5177              		@ sp needed
