ARM GAS  C:\Users\alexport\AppData\Local\Temp\ccr3ZDs0.s 			page 1


   1              		.syntax unified
   2              		.cpu cortex-m0
   3              		.fpu softvfp
   4              		.eabi_attribute 20, 1
   5              		.eabi_attribute 21, 1
   6              		.eabi_attribute 23, 3
   7              		.eabi_attribute 24, 1
   8              		.eabi_attribute 25, 1
   9              		.eabi_attribute 26, 1
  10              		.eabi_attribute 30, 6
  11              		.eabi_attribute 34, 0
  12              		.eabi_attribute 18, 4
  13              		.thumb
  14              		.syntax unified
  15              		.file	"sgable.c"
  16              		.text
  17              	.Ltext0:
  18              		.cfi_sections	.debug_frame
  19              		.comm	at24cs01SnUpper,8,8
  20              		.comm	at24cs01SnLower,8,8
  21              		.comm	adfeSerialNumber,16,4
  22              		.comm	ad12ResultBuff,4,4
  23              		.comm	Sensor,264,8
  24              		.comm	myBatteryNotify,4,4
  25              		.comm	cecPacket,50,4
  26              		.comm	cecPacketIndex,2,2
  27              		.comm	cecPacketEnd,2,2
  28              		.comm	cecCrcHigh,1,1
  29              		.comm	cecCrcLow,1,1
  30              		.comm	modbusPacket,20,4
  31              		.comm	modbusPacketIndex,2,2
  32              		.comm	modbusPacketEnd,2,2
  33              		.comm	mbFloatValue,4,4
  34              		.comm	mbInt16Value,2,2
  35              		.comm	sysTopSwitch,1,1
  36              		.comm	sysBottomSwitch,1,1
  37              		.comm	Time,24,4
  38              		.comm	System,192,8
  39              		.global	__aeabi_f2iz
  40              		.global	__aeabi_i2f
  41              		.global	__aeabi_fcmpeq
  42              		.section	.text.updateOurBleData,"ax",%progbits
  43              		.align	2
  44              		.global	updateOurBleData
  45              		.code	16
  46              		.thumb_func
  47              		.type	updateOurBleData, %function
  48              	updateOurBleData:
  49              	.LFB35:
  50              		.file 1 "..\\..\\..\\..\\..\\WORK\\1N4 Transmitter\\SA-100_2339_05_1N4.cydsn\\sgable.c"
   1:..\..\..\..\..\WORK\1N4 Transmitter\SA-100_2339_05_1N4.cydsn/sgable.c **** /* ========================================
   2:..\..\..\..\..\WORK\1N4 Transmitter\SA-100_2339_05_1N4.cydsn/sgable.c ****  *
   3:..\..\..\..\..\WORK\1N4 Transmitter\SA-100_2339_05_1N4.cydsn/sgable.c ****  * Copyright SAFEGUARD ANALYTICS, 2017
   4:..\..\..\..\..\WORK\1N4 Transmitter\SA-100_2339_05_1N4.cydsn/sgable.c ****  * All Rights Reserved
   5:..\..\..\..\..\WORK\1N4 Transmitter\SA-100_2339_05_1N4.cydsn/sgable.c ****  * UNPUBLISHED, LICENSED SOFTWARE.
   6:..\..\..\..\..\WORK\1N4 Transmitter\SA-100_2339_05_1N4.cydsn/sgable.c ****  *
   7:..\..\..\..\..\WORK\1N4 Transmitter\SA-100_2339_05_1N4.cydsn/sgable.c ****  * CONFIDENTIAL AND PROPRIETARY INFORMATION
ARM GAS  C:\Users\alexport\AppData\Local\Temp\ccr3ZDs0.s 			page 2


   8:..\..\..\..\..\WORK\1N4 Transmitter\SA-100_2339_05_1N4.cydsn/sgable.c ****  * WHICH IS THE PROPERTY OF SAFEGUARD ANALYTICS.
   9:..\..\..\..\..\WORK\1N4 Transmitter\SA-100_2339_05_1N4.cydsn/sgable.c ****  *
  10:..\..\..\..\..\WORK\1N4 Transmitter\SA-100_2339_05_1N4.cydsn/sgable.c ****  * ========================================
  11:..\..\..\..\..\WORK\1N4 Transmitter\SA-100_2339_05_1N4.cydsn/sgable.c **** */
  12:..\..\..\..\..\WORK\1N4 Transmitter\SA-100_2339_05_1N4.cydsn/sgable.c **** #include "system.h"
  13:..\..\..\..\..\WORK\1N4 Transmitter\SA-100_2339_05_1N4.cydsn/sgable.c **** #include "sgable.h"
  14:..\..\..\..\..\WORK\1N4 Transmitter\SA-100_2339_05_1N4.cydsn/sgable.c **** #include "rgb.h"
  15:..\..\..\..\..\WORK\1N4 Transmitter\SA-100_2339_05_1N4.cydsn/sgable.c **** /***************************************
  16:..\..\..\..\..\WORK\1N4 Transmitter\SA-100_2339_05_1N4.cydsn/sgable.c **** *            Variabeles
  17:..\..\..\..\..\WORK\1N4 Transmitter\SA-100_2339_05_1N4.cydsn/sgable.c **** ****************************************/
  18:..\..\..\..\..\WORK\1N4 Transmitter\SA-100_2339_05_1N4.cydsn/sgable.c **** 
  19:..\..\..\..\..\WORK\1N4 Transmitter\SA-100_2339_05_1N4.cydsn/sgable.c **** /* RAM variables */
  20:..\..\..\..\..\WORK\1N4 Transmitter\SA-100_2339_05_1N4.cydsn/sgable.c **** 
  21:..\..\..\..\..\WORK\1N4 Transmitter\SA-100_2339_05_1N4.cydsn/sgable.c **** 
  22:..\..\..\..\..\WORK\1N4 Transmitter\SA-100_2339_05_1N4.cydsn/sgable.c **** /* ROM variables */
  23:..\..\..\..\..\WORK\1N4 Transmitter\SA-100_2339_05_1N4.cydsn/sgable.c **** 
  24:..\..\..\..\..\WORK\1N4 Transmitter\SA-100_2339_05_1N4.cydsn/sgable.c **** 
  25:..\..\..\..\..\WORK\1N4 Transmitter\SA-100_2339_05_1N4.cydsn/sgable.c **** /*******************************************************************************
  26:..\..\..\..\..\WORK\1N4 Transmitter\SA-100_2339_05_1N4.cydsn/sgable.c **** * Function Name: FUNCTION
  27:..\..\..\..\..\WORK\1N4 Transmitter\SA-100_2339_05_1N4.cydsn/sgable.c **** ********************************************************************************
  28:..\..\..\..\..\WORK\1N4 Transmitter\SA-100_2339_05_1N4.cydsn/sgable.c **** *
  29:..\..\..\..\..\WORK\1N4 Transmitter\SA-100_2339_05_1N4.cydsn/sgable.c **** * Summary:
  30:..\..\..\..\..\WORK\1N4 Transmitter\SA-100_2339_05_1N4.cydsn/sgable.c **** *  
  31:..\..\..\..\..\WORK\1N4 Transmitter\SA-100_2339_05_1N4.cydsn/sgable.c **** *  
  32:..\..\..\..\..\WORK\1N4 Transmitter\SA-100_2339_05_1N4.cydsn/sgable.c **** *
  33:..\..\..\..\..\WORK\1N4 Transmitter\SA-100_2339_05_1N4.cydsn/sgable.c **** * Parameters:
  34:..\..\..\..\..\WORK\1N4 Transmitter\SA-100_2339_05_1N4.cydsn/sgable.c **** *  None
  35:..\..\..\..\..\WORK\1N4 Transmitter\SA-100_2339_05_1N4.cydsn/sgable.c **** *
  36:..\..\..\..\..\WORK\1N4 Transmitter\SA-100_2339_05_1N4.cydsn/sgable.c **** * Return:
  37:..\..\..\..\..\WORK\1N4 Transmitter\SA-100_2339_05_1N4.cydsn/sgable.c **** *  None
  38:..\..\..\..\..\WORK\1N4 Transmitter\SA-100_2339_05_1N4.cydsn/sgable.c **** *
  39:..\..\..\..\..\WORK\1N4 Transmitter\SA-100_2339_05_1N4.cydsn/sgable.c **** *******************************************************************************/
  40:..\..\..\..\..\WORK\1N4 Transmitter\SA-100_2339_05_1N4.cydsn/sgable.c **** /*******************************************************************************
  41:..\..\..\..\..\WORK\1N4 Transmitter\SA-100_2339_05_1N4.cydsn/sgable.c **** * Function Name: updateOurId
  42:..\..\..\..\..\WORK\1N4 Transmitter\SA-100_2339_05_1N4.cydsn/sgable.c **** ********************************************************************************
  43:..\..\..\..\..\WORK\1N4 Transmitter\SA-100_2339_05_1N4.cydsn/sgable.c **** */
  44:..\..\..\..\..\WORK\1N4 Transmitter\SA-100_2339_05_1N4.cydsn/sgable.c **** void updateOurBleData()
  45:..\..\..\..\..\WORK\1N4 Transmitter\SA-100_2339_05_1N4.cydsn/sgable.c **** {
  51              		.loc 1 45 0
  52              		.cfi_startproc
  53              		@ args = 0, pretend = 0, frame = 16
  54              		@ frame_needed = 1, uses_anonymous_args = 0
  55 0000 90B5     		push	{r4, r7, lr}
  56              		.cfi_def_cfa_offset 12
  57              		.cfi_offset 4, -12
  58              		.cfi_offset 7, -8
  59              		.cfi_offset 14, -4
  60 0002 85B0     		sub	sp, sp, #20
  61              		.cfi_def_cfa_offset 32
  62 0004 00AF     		add	r7, sp, #0
  63              		.cfi_def_cfa_register 7
  46:..\..\..\..\..\WORK\1N4 Transmitter\SA-100_2339_05_1N4.cydsn/sgable.c ****     CYBLE_GATTS_HANDLE_VALUE_NTF_T tempHandle;
  47:..\..\..\..\..\WORK\1N4 Transmitter\SA-100_2339_05_1N4.cydsn/sgable.c ****     int16 ReadingCast;
  48:..\..\..\..\..\WORK\1N4 Transmitter\SA-100_2339_05_1N4.cydsn/sgable.c **** 
  49:..\..\..\..\..\WORK\1N4 Transmitter\SA-100_2339_05_1N4.cydsn/sgable.c ****     if( CyBle_GetState() != CYBLE_STATE_CONNECTED ) return;
  64              		.loc 1 49 0
  65 0006 ED4B     		ldr	r3, .L24
ARM GAS  C:\Users\alexport\AppData\Local\Temp\ccr3ZDs0.s 			page 3


  66 0008 1B78     		ldrb	r3, [r3]
  67 000a 022B     		cmp	r3, #2
  68 000c 01D0     		beq	.LCB16
  69 000e 00F061FC 		bl	.L23	@far jump
  70              	.LCB16:
  50:..\..\..\..\..\WORK\1N4 Transmitter\SA-100_2339_05_1N4.cydsn/sgable.c **** 
  51:..\..\..\..\..\WORK\1N4 Transmitter\SA-100_2339_05_1N4.cydsn/sgable.c ****     /* Update sys remote control value */
  52:..\..\..\..\..\WORK\1N4 Transmitter\SA-100_2339_05_1N4.cydsn/sgable.c ****     tempHandle.attrHandle = CYBLE_SGA1_SYS_REMOTE_CHAR_HANDLE;
  71              		.loc 1 52 0
  72 0012 3B00     		movs	r3, r7
  73 0014 1222     		movs	r2, #18
  74 0016 1A81     		strh	r2, [r3, #8]
  53:..\..\..\..\..\WORK\1N4 Transmitter\SA-100_2339_05_1N4.cydsn/sgable.c ****     tempHandle.value.val = (uint8*)&System.BleControl;
  75              		.loc 1 53 0
  76 0018 3B00     		movs	r3, r7
  77 001a E94A     		ldr	r2, .L24+4
  78 001c 1A60     		str	r2, [r3]
  54:..\..\..\..\..\WORK\1N4 Transmitter\SA-100_2339_05_1N4.cydsn/sgable.c ****     tempHandle.value.len = 1;
  79              		.loc 1 54 0
  80 001e 3B00     		movs	r3, r7
  81 0020 0122     		movs	r2, #1
  82 0022 9A80     		strh	r2, [r3, #4]
  55:..\..\..\..\..\WORK\1N4 Transmitter\SA-100_2339_05_1N4.cydsn/sgable.c ****     CyBle_GattsWriteAttributeValue(&tempHandle,0,&cyBle_connHandle,0);
  83              		.loc 1 55 0
  84 0024 E74A     		ldr	r2, .L24+8
  85 0026 3800     		movs	r0, r7
  86 0028 0023     		movs	r3, #0
  87 002a 0021     		movs	r1, #0
  88 002c FFF7FEFF 		bl	CyBle_GattsWriteAttributeValue
  56:..\..\..\..\..\WORK\1N4 Transmitter\SA-100_2339_05_1N4.cydsn/sgable.c ****     /* If notifications have been requested for remote control value */
  57:..\..\..\..\..\WORK\1N4 Transmitter\SA-100_2339_05_1N4.cydsn/sgable.c ****     if( System.BleNotifyControl && ( System.BleControl != System.BleControlPrevious ) )
  89              		.loc 1 57 0
  90 0030 E34B     		ldr	r3, .L24+4
  91 0032 5B79     		ldrb	r3, [r3, #5]
  92 0034 002B     		cmp	r3, #0
  93 0036 18D0     		beq	.L4
  94              		.loc 1 57 0 is_stmt 0 discriminator 1
  95 0038 E14B     		ldr	r3, .L24+4
  96 003a 1A78     		ldrb	r2, [r3]
  97 003c E04B     		ldr	r3, .L24+4
  98 003e 5B78     		ldrb	r3, [r3, #1]
  99 0040 9A42     		cmp	r2, r3
 100 0042 12D0     		beq	.L4
  58:..\..\..\..\..\WORK\1N4 Transmitter\SA-100_2339_05_1N4.cydsn/sgable.c ****     {
  59:..\..\..\..\..\WORK\1N4 Transmitter\SA-100_2339_05_1N4.cydsn/sgable.c ****         CyBle_GattsNotification( cyBle_connHandle, &tempHandle );               /* Notify the clien
 101              		.loc 1 59 0 is_stmt 1
 102 0044 3900     		movs	r1, r7
 103 0046 DF4B     		ldr	r3, .L24+8
 104 0048 1A78     		ldrb	r2, [r3]
 105 004a 5B78     		ldrb	r3, [r3, #1]
 106 004c 1B02     		lsls	r3, r3, #8
 107 004e 1A43     		orrs	r2, r3
 108 0050 0023     		movs	r3, #0
 109 0052 1204     		lsls	r2, r2, #16
 110 0054 120C     		lsrs	r2, r2, #16
 111 0056 1B0C     		lsrs	r3, r3, #16
 112 0058 1B04     		lsls	r3, r3, #16
ARM GAS  C:\Users\alexport\AppData\Local\Temp\ccr3ZDs0.s 			page 4


 113 005a 1343     		orrs	r3, r2
 114 005c 1800     		movs	r0, r3
 115 005e FFF7FEFF 		bl	CyBle_GattsNotification
  60:..\..\..\..\..\WORK\1N4 Transmitter\SA-100_2339_05_1N4.cydsn/sgable.c ****         System.BleControlPrevious = System.BleControl;
 116              		.loc 1 60 0
 117 0062 D74B     		ldr	r3, .L24+4
 118 0064 1A78     		ldrb	r2, [r3]
 119 0066 D64B     		ldr	r3, .L24+4
 120 0068 5A70     		strb	r2, [r3, #1]
 121              	.L4:
  61:..\..\..\..\..\WORK\1N4 Transmitter\SA-100_2339_05_1N4.cydsn/sgable.c ****     }
  62:..\..\..\..\..\WORK\1N4 Transmitter\SA-100_2339_05_1N4.cydsn/sgable.c **** 
  63:..\..\..\..\..\WORK\1N4 Transmitter\SA-100_2339_05_1N4.cydsn/sgable.c ****     /* Update sys gas reading value */
  64:..\..\..\..\..\WORK\1N4 Transmitter\SA-100_2339_05_1N4.cydsn/sgable.c ****     tempHandle.attrHandle = CYBLE_SGA1_SYS_READING_CHAR_HANDLE;
 122              		.loc 1 64 0
 123 006a 3B00     		movs	r3, r7
 124 006c 1622     		movs	r2, #22
 125 006e 1A81     		strh	r2, [r3, #8]
  65:..\..\..\..\..\WORK\1N4 Transmitter\SA-100_2339_05_1N4.cydsn/sgable.c ****     tempHandle.value.val = (uint8*)&Sensor.Reading;
 126              		.loc 1 65 0
 127 0070 3B00     		movs	r3, r7
 128 0072 D54A     		ldr	r2, .L24+12
 129 0074 1A60     		str	r2, [r3]
  66:..\..\..\..\..\WORK\1N4 Transmitter\SA-100_2339_05_1N4.cydsn/sgable.c ****     tempHandle.value.len = 2;
 130              		.loc 1 66 0
 131 0076 3B00     		movs	r3, r7
 132 0078 0222     		movs	r2, #2
 133 007a 9A80     		strh	r2, [r3, #4]
  67:..\..\..\..\..\WORK\1N4 Transmitter\SA-100_2339_05_1N4.cydsn/sgable.c ****     CyBle_GattsWriteAttributeValue(&tempHandle,0,&cyBle_connHandle,0);
 134              		.loc 1 67 0
 135 007c D14A     		ldr	r2, .L24+8
 136 007e 3800     		movs	r0, r7
 137 0080 0023     		movs	r3, #0
 138 0082 0021     		movs	r1, #0
 139 0084 FFF7FEFF 		bl	CyBle_GattsWriteAttributeValue
  68:..\..\..\..\..\WORK\1N4 Transmitter\SA-100_2339_05_1N4.cydsn/sgable.c ****     /* If notifications have been requested for Sensor Reading */
  69:..\..\..\..\..\WORK\1N4 Transmitter\SA-100_2339_05_1N4.cydsn/sgable.c ****     if( System.BleNotifyReading && ( Sensor.Reading != Sensor.ReadingPrevious ) )
 140              		.loc 1 69 0
 141 0088 CD4B     		ldr	r3, .L24+4
 142 008a 9B78     		ldrb	r3, [r3, #2]
 143 008c 002B     		cmp	r3, #0
 144 008e 1BD0     		beq	.L5
 145              		.loc 1 69 0 is_stmt 0 discriminator 1
 146 0090 CE4B     		ldr	r3, .L24+16
 147 0092 1022     		movs	r2, #16
 148 0094 9A5E     		ldrsh	r2, [r3, r2]
 149 0096 CD4B     		ldr	r3, .L24+16
 150 0098 1221     		movs	r1, #18
 151 009a 5B5E     		ldrsh	r3, [r3, r1]
 152 009c 9A42     		cmp	r2, r3
 153 009e 13D0     		beq	.L5
  70:..\..\..\..\..\WORK\1N4 Transmitter\SA-100_2339_05_1N4.cydsn/sgable.c ****     {
  71:..\..\..\..\..\WORK\1N4 Transmitter\SA-100_2339_05_1N4.cydsn/sgable.c ****         CyBle_GattsNotification( cyBle_connHandle, &tempHandle );               /* Notify the clien
 154              		.loc 1 71 0 is_stmt 1
 155 00a0 3900     		movs	r1, r7
 156 00a2 C84B     		ldr	r3, .L24+8
 157 00a4 1A78     		ldrb	r2, [r3]
ARM GAS  C:\Users\alexport\AppData\Local\Temp\ccr3ZDs0.s 			page 5


 158 00a6 5B78     		ldrb	r3, [r3, #1]
 159 00a8 1B02     		lsls	r3, r3, #8
 160 00aa 1A43     		orrs	r2, r3
 161 00ac 0023     		movs	r3, #0
 162 00ae 1204     		lsls	r2, r2, #16
 163 00b0 120C     		lsrs	r2, r2, #16
 164 00b2 1B0C     		lsrs	r3, r3, #16
 165 00b4 1B04     		lsls	r3, r3, #16
 166 00b6 1343     		orrs	r3, r2
 167 00b8 1800     		movs	r0, r3
 168 00ba FFF7FEFF 		bl	CyBle_GattsNotification
  72:..\..\..\..\..\WORK\1N4 Transmitter\SA-100_2339_05_1N4.cydsn/sgable.c ****         Sensor.ReadingPrevious = Sensor.Reading;
 169              		.loc 1 72 0
 170 00be C34B     		ldr	r3, .L24+16
 171 00c0 1022     		movs	r2, #16
 172 00c2 9A5E     		ldrsh	r2, [r3, r2]
 173 00c4 C14B     		ldr	r3, .L24+16
 174 00c6 5A82     		strh	r2, [r3, #18]
 175              	.L5:
  73:..\..\..\..\..\WORK\1N4 Transmitter\SA-100_2339_05_1N4.cydsn/sgable.c ****     }
  74:..\..\..\..\..\WORK\1N4 Transmitter\SA-100_2339_05_1N4.cydsn/sgable.c **** 
  75:..\..\..\..\..\WORK\1N4 Transmitter\SA-100_2339_05_1N4.cydsn/sgable.c ****     /* Update sys remote test status value */ /* This is for bluetooth app testing */
  76:..\..\..\..\..\WORK\1N4 Transmitter\SA-100_2339_05_1N4.cydsn/sgable.c **** //    tempHandle.attrHandle = CYBLE_SGA1_SYS_STATUS_CHAR_HANDLE;
  77:..\..\..\..\..\WORK\1N4 Transmitter\SA-100_2339_05_1N4.cydsn/sgable.c **** //    tempHandle.value.val = (uint8*)&System.TestStatus;
  78:..\..\..\..\..\WORK\1N4 Transmitter\SA-100_2339_05_1N4.cydsn/sgable.c **** //    tempHandle.value.len = 2;
  79:..\..\..\..\..\WORK\1N4 Transmitter\SA-100_2339_05_1N4.cydsn/sgable.c **** //    CyBle_GattsWriteAttributeValue(&tempHandle,0,&cyBle_connHandle,0);
  80:..\..\..\..\..\WORK\1N4 Transmitter\SA-100_2339_05_1N4.cydsn/sgable.c ****     /* If notifications have been requested for Sensor Status */
  81:..\..\..\..\..\WORK\1N4 Transmitter\SA-100_2339_05_1N4.cydsn/sgable.c **** //    if( System.BleNotifyStatus && ( System.TestStatus != System.TestStatusPrevious ) )
  82:..\..\..\..\..\WORK\1N4 Transmitter\SA-100_2339_05_1N4.cydsn/sgable.c **** //    {
  83:..\..\..\..\..\WORK\1N4 Transmitter\SA-100_2339_05_1N4.cydsn/sgable.c **** //        CyBle_GattsNotification( cyBle_connHandle, &tempHandle );               /* Notify the cli
  84:..\..\..\..\..\WORK\1N4 Transmitter\SA-100_2339_05_1N4.cydsn/sgable.c **** //        System.TestStatusPrevious = System.TestStatus;
  85:..\..\..\..\..\WORK\1N4 Transmitter\SA-100_2339_05_1N4.cydsn/sgable.c **** //    }
  86:..\..\..\..\..\WORK\1N4 Transmitter\SA-100_2339_05_1N4.cydsn/sgable.c **** 
  87:..\..\..\..\..\WORK\1N4 Transmitter\SA-100_2339_05_1N4.cydsn/sgable.c ****     /* Update sys remote status value */
  88:..\..\..\..\..\WORK\1N4 Transmitter\SA-100_2339_05_1N4.cydsn/sgable.c ****     tempHandle.attrHandle = CYBLE_SGA1_SYS_STATUS_CHAR_HANDLE;
 176              		.loc 1 88 0
 177 00c8 3B00     		movs	r3, r7
 178 00ca 1A22     		movs	r2, #26
 179 00cc 1A81     		strh	r2, [r3, #8]
  89:..\..\..\..\..\WORK\1N4 Transmitter\SA-100_2339_05_1N4.cydsn/sgable.c ****     tempHandle.value.val = (uint8*)&System.Status;
 180              		.loc 1 89 0
 181 00ce 3B00     		movs	r3, r7
 182 00d0 BF4A     		ldr	r2, .L24+20
 183 00d2 1A60     		str	r2, [r3]
  90:..\..\..\..\..\WORK\1N4 Transmitter\SA-100_2339_05_1N4.cydsn/sgable.c ****     tempHandle.value.len = 2;
 184              		.loc 1 90 0
 185 00d4 3B00     		movs	r3, r7
 186 00d6 0222     		movs	r2, #2
 187 00d8 9A80     		strh	r2, [r3, #4]
  91:..\..\..\..\..\WORK\1N4 Transmitter\SA-100_2339_05_1N4.cydsn/sgable.c ****     CyBle_GattsWriteAttributeValue(&tempHandle,0,&cyBle_connHandle,0);
 188              		.loc 1 91 0
 189 00da BA4A     		ldr	r2, .L24+8
 190 00dc 3800     		movs	r0, r7
 191 00de 0023     		movs	r3, #0
 192 00e0 0021     		movs	r1, #0
 193 00e2 FFF7FEFF 		bl	CyBle_GattsWriteAttributeValue
  92:..\..\..\..\..\WORK\1N4 Transmitter\SA-100_2339_05_1N4.cydsn/sgable.c ****     /* If notifications have been requested for Sensor Status */
ARM GAS  C:\Users\alexport\AppData\Local\Temp\ccr3ZDs0.s 			page 6


  93:..\..\..\..\..\WORK\1N4 Transmitter\SA-100_2339_05_1N4.cydsn/sgable.c ****     if( System.BleNotifyStatus && ( System.Status != System.StatusPrevious ) )
 194              		.loc 1 93 0
 195 00e6 B64B     		ldr	r3, .L24+4
 196 00e8 DB78     		ldrb	r3, [r3, #3]
 197 00ea 002B     		cmp	r3, #0
 198 00ec 18D0     		beq	.L6
 199              		.loc 1 93 0 is_stmt 0 discriminator 1
 200 00ee B44B     		ldr	r3, .L24+4
 201 00f0 5A8B     		ldrh	r2, [r3, #26]
 202 00f2 B34B     		ldr	r3, .L24+4
 203 00f4 9B8B     		ldrh	r3, [r3, #28]
 204 00f6 9A42     		cmp	r2, r3
 205 00f8 12D0     		beq	.L6
  94:..\..\..\..\..\WORK\1N4 Transmitter\SA-100_2339_05_1N4.cydsn/sgable.c ****     {
  95:..\..\..\..\..\WORK\1N4 Transmitter\SA-100_2339_05_1N4.cydsn/sgable.c ****         CyBle_GattsNotification( cyBle_connHandle, &tempHandle );               /* Notify the clien
 206              		.loc 1 95 0 is_stmt 1
 207 00fa 3900     		movs	r1, r7
 208 00fc B14B     		ldr	r3, .L24+8
 209 00fe 1A78     		ldrb	r2, [r3]
 210 0100 5B78     		ldrb	r3, [r3, #1]
 211 0102 1B02     		lsls	r3, r3, #8
 212 0104 1A43     		orrs	r2, r3
 213 0106 0023     		movs	r3, #0
 214 0108 1204     		lsls	r2, r2, #16
 215 010a 120C     		lsrs	r2, r2, #16
 216 010c 1B0C     		lsrs	r3, r3, #16
 217 010e 1B04     		lsls	r3, r3, #16
 218 0110 1343     		orrs	r3, r2
 219 0112 1800     		movs	r0, r3
 220 0114 FFF7FEFF 		bl	CyBle_GattsNotification
  96:..\..\..\..\..\WORK\1N4 Transmitter\SA-100_2339_05_1N4.cydsn/sgable.c ****         System.StatusPrevious = System.Status;
 221              		.loc 1 96 0
 222 0118 A94B     		ldr	r3, .L24+4
 223 011a 5A8B     		ldrh	r2, [r3, #26]
 224 011c A84B     		ldr	r3, .L24+4
 225 011e 9A83     		strh	r2, [r3, #28]
 226              	.L6:
  97:..\..\..\..\..\WORK\1N4 Transmitter\SA-100_2339_05_1N4.cydsn/sgable.c ****     }
  98:..\..\..\..\..\WORK\1N4 Transmitter\SA-100_2339_05_1N4.cydsn/sgable.c **** 
  99:..\..\..\..\..\WORK\1N4 Transmitter\SA-100_2339_05_1N4.cydsn/sgable.c ****     /* Update CAN Channel value */
 100:..\..\..\..\..\WORK\1N4 Transmitter\SA-100_2339_05_1N4.cydsn/sgable.c ****     tempHandle.attrHandle = CYBLE_SGA1_SYS_CAN_CHAN_CHAR_HANDLE;
 227              		.loc 1 100 0
 228 0120 3B00     		movs	r3, r7
 229 0122 1E22     		movs	r2, #30
 230 0124 1A81     		strh	r2, [r3, #8]
 101:..\..\..\..\..\WORK\1N4 Transmitter\SA-100_2339_05_1N4.cydsn/sgable.c ****     tempHandle.value.val = (uint8*)&System.CanChannel;//&Sensor.CountsHalfScale;
 231              		.loc 1 101 0
 232 0126 3B00     		movs	r3, r7
 233 0128 AA4A     		ldr	r2, .L24+24
 234 012a 1A60     		str	r2, [r3]
 102:..\..\..\..\..\WORK\1N4 Transmitter\SA-100_2339_05_1N4.cydsn/sgable.c ****     tempHandle.value.len = 1;
 235              		.loc 1 102 0
 236 012c 3B00     		movs	r3, r7
 237 012e 0122     		movs	r2, #1
 238 0130 9A80     		strh	r2, [r3, #4]
 103:..\..\..\..\..\WORK\1N4 Transmitter\SA-100_2339_05_1N4.cydsn/sgable.c ****     CyBle_GattsWriteAttributeValue(&tempHandle,0,&cyBle_connHandle,0);
 239              		.loc 1 103 0
ARM GAS  C:\Users\alexport\AppData\Local\Temp\ccr3ZDs0.s 			page 7


 240 0132 A44A     		ldr	r2, .L24+8
 241 0134 3800     		movs	r0, r7
 242 0136 0023     		movs	r3, #0
 243 0138 0021     		movs	r1, #0
 244 013a FFF7FEFF 		bl	CyBle_GattsWriteAttributeValue
 104:..\..\..\..\..\WORK\1N4 Transmitter\SA-100_2339_05_1N4.cydsn/sgable.c **** 
 105:..\..\..\..\..\WORK\1N4 Transmitter\SA-100_2339_05_1N4.cydsn/sgable.c ****     /* Update CAN Node ID value */
 106:..\..\..\..\..\WORK\1N4 Transmitter\SA-100_2339_05_1N4.cydsn/sgable.c ****     tempHandle.attrHandle = CYBLE_SGA1_SYS_CAN_ID_CHAR_HANDLE;
 245              		.loc 1 106 0
 246 013e 3B00     		movs	r3, r7
 247 0140 2122     		movs	r2, #33
 248 0142 1A81     		strh	r2, [r3, #8]
 107:..\..\..\..\..\WORK\1N4 Transmitter\SA-100_2339_05_1N4.cydsn/sgable.c ****     tempHandle.value.val = (uint8*)&System.CanNodeId;
 249              		.loc 1 107 0
 250 0144 3B00     		movs	r3, r7
 251 0146 A44A     		ldr	r2, .L24+28
 252 0148 1A60     		str	r2, [r3]
 108:..\..\..\..\..\WORK\1N4 Transmitter\SA-100_2339_05_1N4.cydsn/sgable.c ****     tempHandle.value.len = 1;
 253              		.loc 1 108 0
 254 014a 3B00     		movs	r3, r7
 255 014c 0122     		movs	r2, #1
 256 014e 9A80     		strh	r2, [r3, #4]
 109:..\..\..\..\..\WORK\1N4 Transmitter\SA-100_2339_05_1N4.cydsn/sgable.c ****     CyBle_GattsWriteAttributeValue(&tempHandle,0,&cyBle_connHandle,0);
 257              		.loc 1 109 0
 258 0150 9C4A     		ldr	r2, .L24+8
 259 0152 3800     		movs	r0, r7
 260 0154 0023     		movs	r3, #0
 261 0156 0021     		movs	r1, #0
 262 0158 FFF7FEFF 		bl	CyBle_GattsWriteAttributeValue
 110:..\..\..\..\..\WORK\1N4 Transmitter\SA-100_2339_05_1N4.cydsn/sgable.c **** 
 111:..\..\..\..\..\WORK\1N4 Transmitter\SA-100_2339_05_1N4.cydsn/sgable.c ****     /* Update SYS_CAL_LOOP value */
 112:..\..\..\..\..\WORK\1N4 Transmitter\SA-100_2339_05_1N4.cydsn/sgable.c ****     tempHandle.attrHandle = CYBLE_SGA1_SYS_CAL_LOOP_CHAR_HANDLE;
 263              		.loc 1 112 0
 264 015c 3B00     		movs	r3, r7
 265 015e 2422     		movs	r2, #36
 266 0160 1A81     		strh	r2, [r3, #8]
 113:..\..\..\..\..\WORK\1N4 Transmitter\SA-100_2339_05_1N4.cydsn/sgable.c ****     tempHandle.value.val = (uint8*)&System.BleCalLoop;
 267              		.loc 1 113 0
 268 0162 3B00     		movs	r3, r7
 269 0164 9D4A     		ldr	r2, .L24+32
 270 0166 1A60     		str	r2, [r3]
 114:..\..\..\..\..\WORK\1N4 Transmitter\SA-100_2339_05_1N4.cydsn/sgable.c ****     tempHandle.value.len = 2;
 271              		.loc 1 114 0
 272 0168 3B00     		movs	r3, r7
 273 016a 0222     		movs	r2, #2
 274 016c 9A80     		strh	r2, [r3, #4]
 115:..\..\..\..\..\WORK\1N4 Transmitter\SA-100_2339_05_1N4.cydsn/sgable.c ****     CyBle_GattsWriteAttributeValue(&tempHandle,0,&cyBle_connHandle,0);
 275              		.loc 1 115 0
 276 016e 954A     		ldr	r2, .L24+8
 277 0170 3800     		movs	r0, r7
 278 0172 0023     		movs	r3, #0
 279 0174 0021     		movs	r1, #0
 280 0176 FFF7FEFF 		bl	CyBle_GattsWriteAttributeValue
 116:..\..\..\..\..\WORK\1N4 Transmitter\SA-100_2339_05_1N4.cydsn/sgable.c **** 
 117:..\..\..\..\..\WORK\1N4 Transmitter\SA-100_2339_05_1N4.cydsn/sgable.c ****     /* Update SYS_ADC value */
 118:..\..\..\..\..\WORK\1N4 Transmitter\SA-100_2339_05_1N4.cydsn/sgable.c ****     tempHandle.attrHandle = CYBLE_SGA1_SYS_ADC_CHAR_HANDLE;
 281              		.loc 1 118 0
ARM GAS  C:\Users\alexport\AppData\Local\Temp\ccr3ZDs0.s 			page 8


 282 017a 3B00     		movs	r3, r7
 283 017c 2722     		movs	r2, #39
 284 017e 1A81     		strh	r2, [r3, #8]
 119:..\..\..\..\..\WORK\1N4 Transmitter\SA-100_2339_05_1N4.cydsn/sgable.c ****     tempHandle.value.val = (uint8*)&System.AdcCounts;
 285              		.loc 1 119 0
 286 0180 3B00     		movs	r3, r7
 287 0182 974A     		ldr	r2, .L24+36
 288 0184 1A60     		str	r2, [r3]
 120:..\..\..\..\..\WORK\1N4 Transmitter\SA-100_2339_05_1N4.cydsn/sgable.c ****     tempHandle.value.len = 2;
 289              		.loc 1 120 0
 290 0186 3B00     		movs	r3, r7
 291 0188 0222     		movs	r2, #2
 292 018a 9A80     		strh	r2, [r3, #4]
 121:..\..\..\..\..\WORK\1N4 Transmitter\SA-100_2339_05_1N4.cydsn/sgable.c ****     CyBle_GattsWriteAttributeValue(&tempHandle,0,&cyBle_connHandle,0);
 293              		.loc 1 121 0
 294 018c 8D4A     		ldr	r2, .L24+8
 295 018e 3800     		movs	r0, r7
 296 0190 0023     		movs	r3, #0
 297 0192 0021     		movs	r1, #0
 298 0194 FFF7FEFF 		bl	CyBle_GattsWriteAttributeValue
 122:..\..\..\..\..\WORK\1N4 Transmitter\SA-100_2339_05_1N4.cydsn/sgable.c ****     /* If notifications have been requested for AdcCounts */
 123:..\..\..\..\..\WORK\1N4 Transmitter\SA-100_2339_05_1N4.cydsn/sgable.c ****     if( System.BleNotifyAdcCounts && ( System.AdcCounts != System.AdcCountsPrevious ) )
 299              		.loc 1 123 0
 300 0198 894B     		ldr	r3, .L24+4
 301 019a 9B7C     		ldrb	r3, [r3, #18]
 302 019c 002B     		cmp	r3, #0
 303 019e 18D0     		beq	.L7
 304              		.loc 1 123 0 is_stmt 0 discriminator 1
 305 01a0 874B     		ldr	r3, .L24+4
 306 01a2 DA8A     		ldrh	r2, [r3, #22]
 307 01a4 864B     		ldr	r3, .L24+4
 308 01a6 1B8B     		ldrh	r3, [r3, #24]
 309 01a8 9A42     		cmp	r2, r3
 310 01aa 12D0     		beq	.L7
 124:..\..\..\..\..\WORK\1N4 Transmitter\SA-100_2339_05_1N4.cydsn/sgable.c ****     {
 125:..\..\..\..\..\WORK\1N4 Transmitter\SA-100_2339_05_1N4.cydsn/sgable.c ****         CyBle_GattsNotification( cyBle_connHandle, &tempHandle );               /* Notify the clien
 311              		.loc 1 125 0 is_stmt 1
 312 01ac 3900     		movs	r1, r7
 313 01ae 854B     		ldr	r3, .L24+8
 314 01b0 1A78     		ldrb	r2, [r3]
 315 01b2 5B78     		ldrb	r3, [r3, #1]
 316 01b4 1B02     		lsls	r3, r3, #8
 317 01b6 1A43     		orrs	r2, r3
 318 01b8 0023     		movs	r3, #0
 319 01ba 1204     		lsls	r2, r2, #16
 320 01bc 120C     		lsrs	r2, r2, #16
 321 01be 1B0C     		lsrs	r3, r3, #16
 322 01c0 1B04     		lsls	r3, r3, #16
 323 01c2 1343     		orrs	r3, r2
 324 01c4 1800     		movs	r0, r3
 325 01c6 FFF7FEFF 		bl	CyBle_GattsNotification
 126:..\..\..\..\..\WORK\1N4 Transmitter\SA-100_2339_05_1N4.cydsn/sgable.c ****         System.AdcCountsPrevious = System.AdcCounts;
 326              		.loc 1 126 0
 327 01ca 7D4B     		ldr	r3, .L24+4
 328 01cc DA8A     		ldrh	r2, [r3, #22]
 329 01ce 7C4B     		ldr	r3, .L24+4
 330 01d0 1A83     		strh	r2, [r3, #24]
ARM GAS  C:\Users\alexport\AppData\Local\Temp\ccr3ZDs0.s 			page 9


 331              	.L7:
 127:..\..\..\..\..\WORK\1N4 Transmitter\SA-100_2339_05_1N4.cydsn/sgable.c ****     }
 128:..\..\..\..\..\WORK\1N4 Transmitter\SA-100_2339_05_1N4.cydsn/sgable.c **** 
 129:..\..\..\..\..\WORK\1N4 Transmitter\SA-100_2339_05_1N4.cydsn/sgable.c ****     /* Update SYS_ALERT_1 value */
 130:..\..\..\..\..\WORK\1N4 Transmitter\SA-100_2339_05_1N4.cydsn/sgable.c ****     tempHandle.attrHandle = CYBLE_SGA1_SYS_ALERT_1_CHAR_HANDLE;
 332              		.loc 1 130 0
 333 01d2 3B00     		movs	r3, r7
 334 01d4 2B22     		movs	r2, #43
 335 01d6 1A81     		strh	r2, [r3, #8]
 131:..\..\..\..\..\WORK\1N4 Transmitter\SA-100_2339_05_1N4.cydsn/sgable.c ****     tempHandle.value.val = (uint8*)&Sensor.Alert1;
 336              		.loc 1 131 0
 337 01d8 3B00     		movs	r3, r7
 338 01da 824A     		ldr	r2, .L24+40
 339 01dc 1A60     		str	r2, [r3]
 132:..\..\..\..\..\WORK\1N4 Transmitter\SA-100_2339_05_1N4.cydsn/sgable.c ****     tempHandle.value.len = 2;
 340              		.loc 1 132 0
 341 01de 3B00     		movs	r3, r7
 342 01e0 0222     		movs	r2, #2
 343 01e2 9A80     		strh	r2, [r3, #4]
 133:..\..\..\..\..\WORK\1N4 Transmitter\SA-100_2339_05_1N4.cydsn/sgable.c ****     CyBle_GattsWriteAttributeValue(&tempHandle,0,&cyBle_connHandle,0);
 344              		.loc 1 133 0
 345 01e4 774A     		ldr	r2, .L24+8
 346 01e6 3800     		movs	r0, r7
 347 01e8 0023     		movs	r3, #0
 348 01ea 0021     		movs	r1, #0
 349 01ec FFF7FEFF 		bl	CyBle_GattsWriteAttributeValue
 134:..\..\..\..\..\WORK\1N4 Transmitter\SA-100_2339_05_1N4.cydsn/sgable.c **** 
 135:..\..\..\..\..\WORK\1N4 Transmitter\SA-100_2339_05_1N4.cydsn/sgable.c ****     /* Update SYS_ALERT_2 value */
 136:..\..\..\..\..\WORK\1N4 Transmitter\SA-100_2339_05_1N4.cydsn/sgable.c ****     tempHandle.attrHandle = CYBLE_SGA1_SYS_ALERT_2_CHAR_HANDLE;
 350              		.loc 1 136 0
 351 01f0 3B00     		movs	r3, r7
 352 01f2 2E22     		movs	r2, #46
 353 01f4 1A81     		strh	r2, [r3, #8]
 137:..\..\..\..\..\WORK\1N4 Transmitter\SA-100_2339_05_1N4.cydsn/sgable.c ****     tempHandle.value.val = (uint8*)&Sensor.Alert2;
 354              		.loc 1 137 0
 355 01f6 3B00     		movs	r3, r7
 356 01f8 7B4A     		ldr	r2, .L24+44
 357 01fa 1A60     		str	r2, [r3]
 138:..\..\..\..\..\WORK\1N4 Transmitter\SA-100_2339_05_1N4.cydsn/sgable.c ****     tempHandle.value.len = 2;
 358              		.loc 1 138 0
 359 01fc 3B00     		movs	r3, r7
 360 01fe 0222     		movs	r2, #2
 361 0200 9A80     		strh	r2, [r3, #4]
 139:..\..\..\..\..\WORK\1N4 Transmitter\SA-100_2339_05_1N4.cydsn/sgable.c ****     CyBle_GattsWriteAttributeValue(&tempHandle,0,&cyBle_connHandle,0);
 362              		.loc 1 139 0
 363 0202 704A     		ldr	r2, .L24+8
 364 0204 3800     		movs	r0, r7
 365 0206 0023     		movs	r3, #0
 366 0208 0021     		movs	r1, #0
 367 020a FFF7FEFF 		bl	CyBle_GattsWriteAttributeValue
 140:..\..\..\..\..\WORK\1N4 Transmitter\SA-100_2339_05_1N4.cydsn/sgable.c **** 
 141:..\..\..\..\..\WORK\1N4 Transmitter\SA-100_2339_05_1N4.cydsn/sgable.c ****     /* Update SYS_ALERT_1_ASC value */
 142:..\..\..\..\..\WORK\1N4 Transmitter\SA-100_2339_05_1N4.cydsn/sgable.c ****     tempHandle.attrHandle = CYBLE_SGA1_SYS_ALERT_1_ASC_CHAR_HANDLE;
 368              		.loc 1 142 0
 369 020e 3B00     		movs	r3, r7
 370 0210 3122     		movs	r2, #49
 371 0212 1A81     		strh	r2, [r3, #8]
ARM GAS  C:\Users\alexport\AppData\Local\Temp\ccr3ZDs0.s 			page 10


 143:..\..\..\..\..\WORK\1N4 Transmitter\SA-100_2339_05_1N4.cydsn/sgable.c ****     tempHandle.value.val = (uint8*)&Sensor.Alert1Ascending;
 372              		.loc 1 143 0
 373 0214 3B00     		movs	r3, r7
 374 0216 754A     		ldr	r2, .L24+48
 375 0218 1A60     		str	r2, [r3]
 144:..\..\..\..\..\WORK\1N4 Transmitter\SA-100_2339_05_1N4.cydsn/sgable.c ****     tempHandle.value.len = 2;
 376              		.loc 1 144 0
 377 021a 3B00     		movs	r3, r7
 378 021c 0222     		movs	r2, #2
 379 021e 9A80     		strh	r2, [r3, #4]
 145:..\..\..\..\..\WORK\1N4 Transmitter\SA-100_2339_05_1N4.cydsn/sgable.c ****     CyBle_GattsWriteAttributeValue(&tempHandle,0,&cyBle_connHandle,0);
 380              		.loc 1 145 0
 381 0220 684A     		ldr	r2, .L24+8
 382 0222 3800     		movs	r0, r7
 383 0224 0023     		movs	r3, #0
 384 0226 0021     		movs	r1, #0
 385 0228 FFF7FEFF 		bl	CyBle_GattsWriteAttributeValue
 146:..\..\..\..\..\WORK\1N4 Transmitter\SA-100_2339_05_1N4.cydsn/sgable.c **** 
 147:..\..\..\..\..\WORK\1N4 Transmitter\SA-100_2339_05_1N4.cydsn/sgable.c ****     /* Update SYS_ALERT_2_ASC value */
 148:..\..\..\..\..\WORK\1N4 Transmitter\SA-100_2339_05_1N4.cydsn/sgable.c ****     tempHandle.attrHandle = CYBLE_SGA1_SYS_ALERT_2_ASC_CHAR_HANDLE;
 386              		.loc 1 148 0
 387 022c 3B00     		movs	r3, r7
 388 022e 3422     		movs	r2, #52
 389 0230 1A81     		strh	r2, [r3, #8]
 149:..\..\..\..\..\WORK\1N4 Transmitter\SA-100_2339_05_1N4.cydsn/sgable.c ****     tempHandle.value.val = (uint8*)&Sensor.Alert2Ascending;
 390              		.loc 1 149 0
 391 0232 3B00     		movs	r3, r7
 392 0234 6E4A     		ldr	r2, .L24+52
 393 0236 1A60     		str	r2, [r3]
 150:..\..\..\..\..\WORK\1N4 Transmitter\SA-100_2339_05_1N4.cydsn/sgable.c ****     tempHandle.value.len = 2;
 394              		.loc 1 150 0
 395 0238 3B00     		movs	r3, r7
 396 023a 0222     		movs	r2, #2
 397 023c 9A80     		strh	r2, [r3, #4]
 151:..\..\..\..\..\WORK\1N4 Transmitter\SA-100_2339_05_1N4.cydsn/sgable.c ****     CyBle_GattsWriteAttributeValue(&tempHandle,0,&cyBle_connHandle,0);
 398              		.loc 1 151 0
 399 023e 614A     		ldr	r2, .L24+8
 400 0240 3800     		movs	r0, r7
 401 0242 0023     		movs	r3, #0
 402 0244 0021     		movs	r1, #0
 403 0246 FFF7FEFF 		bl	CyBle_GattsWriteAttributeValue
 152:..\..\..\..\..\WORK\1N4 Transmitter\SA-100_2339_05_1N4.cydsn/sgable.c **** 
 153:..\..\..\..\..\WORK\1N4 Transmitter\SA-100_2339_05_1N4.cydsn/sgable.c ****     /* Update SYS_FRACTIONAL value */
 154:..\..\..\..\..\WORK\1N4 Transmitter\SA-100_2339_05_1N4.cydsn/sgable.c ****     tempHandle.attrHandle = CYBLE_SGA1_SYS_FRACTIONAL_CHAR_HANDLE;
 404              		.loc 1 154 0
 405 024a 3B00     		movs	r3, r7
 406 024c 3722     		movs	r2, #55
 407 024e 1A81     		strh	r2, [r3, #8]
 155:..\..\..\..\..\WORK\1N4 Transmitter\SA-100_2339_05_1N4.cydsn/sgable.c ****     tempHandle.value.val = (uint8*)&Sensor.Fractional;
 408              		.loc 1 155 0
 409 0250 3B00     		movs	r3, r7
 410 0252 684A     		ldr	r2, .L24+56
 411 0254 1A60     		str	r2, [r3]
 156:..\..\..\..\..\WORK\1N4 Transmitter\SA-100_2339_05_1N4.cydsn/sgable.c ****     tempHandle.value.len = 2;
 412              		.loc 1 156 0
 413 0256 3B00     		movs	r3, r7
 414 0258 0222     		movs	r2, #2
ARM GAS  C:\Users\alexport\AppData\Local\Temp\ccr3ZDs0.s 			page 11


 415 025a 9A80     		strh	r2, [r3, #4]
 157:..\..\..\..\..\WORK\1N4 Transmitter\SA-100_2339_05_1N4.cydsn/sgable.c ****     CyBle_GattsWriteAttributeValue(&tempHandle,0,&cyBle_connHandle,0);
 416              		.loc 1 157 0
 417 025c 594A     		ldr	r2, .L24+8
 418 025e 3800     		movs	r0, r7
 419 0260 0023     		movs	r3, #0
 420 0262 0021     		movs	r1, #0
 421 0264 FFF7FEFF 		bl	CyBle_GattsWriteAttributeValue
 158:..\..\..\..\..\WORK\1N4 Transmitter\SA-100_2339_05_1N4.cydsn/sgable.c **** 
 159:..\..\..\..\..\WORK\1N4 Transmitter\SA-100_2339_05_1N4.cydsn/sgable.c ****     /* Update PIN value */
 160:..\..\..\..\..\WORK\1N4 Transmitter\SA-100_2339_05_1N4.cydsn/sgable.c ****     tempHandle.attrHandle = CYBLE_SGA2_PIN_CHAR_HANDLE;
 422              		.loc 1 160 0
 423 0268 3B00     		movs	r3, r7
 424 026a 4E22     		movs	r2, #78
 425 026c 1A81     		strh	r2, [r3, #8]
 161:..\..\..\..\..\WORK\1N4 Transmitter\SA-100_2339_05_1N4.cydsn/sgable.c ****     tempHandle.value.val = (uint8*)&System.Pin;
 426              		.loc 1 161 0
 427 026e 3B00     		movs	r3, r7
 428 0270 614A     		ldr	r2, .L24+60
 429 0272 1A60     		str	r2, [r3]
 162:..\..\..\..\..\WORK\1N4 Transmitter\SA-100_2339_05_1N4.cydsn/sgable.c ****     tempHandle.value.len = 4;
 430              		.loc 1 162 0
 431 0274 3B00     		movs	r3, r7
 432 0276 0422     		movs	r2, #4
 433 0278 9A80     		strh	r2, [r3, #4]
 163:..\..\..\..\..\WORK\1N4 Transmitter\SA-100_2339_05_1N4.cydsn/sgable.c ****     CyBle_GattsWriteAttributeValue(&tempHandle,0,&cyBle_connHandle,0);
 434              		.loc 1 163 0
 435 027a 524A     		ldr	r2, .L24+8
 436 027c 3800     		movs	r0, r7
 437 027e 0023     		movs	r3, #0
 438 0280 0021     		movs	r1, #0
 439 0282 FFF7FEFF 		bl	CyBle_GattsWriteAttributeValue
 164:..\..\..\..\..\WORK\1N4 Transmitter\SA-100_2339_05_1N4.cydsn/sgable.c **** 
 165:..\..\..\..\..\WORK\1N4 Transmitter\SA-100_2339_05_1N4.cydsn/sgable.c ****     /* Update SENSOR_TYPE value ( This is actually mfg ) */
 166:..\..\..\..\..\WORK\1N4 Transmitter\SA-100_2339_05_1N4.cydsn/sgable.c ****     tempHandle.attrHandle = CYBLE_SGA2_SENSOR_TYPE_CHAR_HANDLE;
 440              		.loc 1 166 0
 441 0286 3B00     		movs	r3, r7
 442 0288 5122     		movs	r2, #81
 443 028a 1A81     		strh	r2, [r3, #8]
 167:..\..\..\..\..\WORK\1N4 Transmitter\SA-100_2339_05_1N4.cydsn/sgable.c ****     tempHandle.value.val = (uint8*)&Sensor.Mfg;
 444              		.loc 1 167 0
 445 028c 3B00     		movs	r3, r7
 446 028e 5B4A     		ldr	r2, .L24+64
 447 0290 1A60     		str	r2, [r3]
 168:..\..\..\..\..\WORK\1N4 Transmitter\SA-100_2339_05_1N4.cydsn/sgable.c ****     tempHandle.value.len = 1;
 448              		.loc 1 168 0
 449 0292 3B00     		movs	r3, r7
 450 0294 0122     		movs	r2, #1
 451 0296 9A80     		strh	r2, [r3, #4]
 169:..\..\..\..\..\WORK\1N4 Transmitter\SA-100_2339_05_1N4.cydsn/sgable.c ****     CyBle_GattsWriteAttributeValue(&tempHandle,0,&cyBle_connHandle,0);
 452              		.loc 1 169 0
 453 0298 4A4A     		ldr	r2, .L24+8
 454 029a 3800     		movs	r0, r7
 455 029c 0023     		movs	r3, #0
 456 029e 0021     		movs	r1, #0
 457 02a0 FFF7FEFF 		bl	CyBle_GattsWriteAttributeValue
 170:..\..\..\..\..\WORK\1N4 Transmitter\SA-100_2339_05_1N4.cydsn/sgable.c **** 
ARM GAS  C:\Users\alexport\AppData\Local\Temp\ccr3ZDs0.s 			page 12


 171:..\..\..\..\..\WORK\1N4 Transmitter\SA-100_2339_05_1N4.cydsn/sgable.c ****     /* Update gas range value */
 172:..\..\..\..\..\WORK\1N4 Transmitter\SA-100_2339_05_1N4.cydsn/sgable.c ****     tempHandle.attrHandle = CYBLE_SGA2_SENSOR_RANGE_CHAR_HANDLE;
 458              		.loc 1 172 0
 459 02a4 3B00     		movs	r3, r7
 460 02a6 5422     		movs	r2, #84
 461 02a8 1A81     		strh	r2, [r3, #8]
 173:..\..\..\..\..\WORK\1N4 Transmitter\SA-100_2339_05_1N4.cydsn/sgable.c ****     tempHandle.value.val = (uint8*)&Sensor.Range;
 462              		.loc 1 173 0
 463 02aa 3B00     		movs	r3, r7
 464 02ac 544A     		ldr	r2, .L24+68
 465 02ae 1A60     		str	r2, [r3]
 174:..\..\..\..\..\WORK\1N4 Transmitter\SA-100_2339_05_1N4.cydsn/sgable.c ****     tempHandle.value.len = 2;
 466              		.loc 1 174 0
 467 02b0 3B00     		movs	r3, r7
 468 02b2 0222     		movs	r2, #2
 469 02b4 9A80     		strh	r2, [r3, #4]
 175:..\..\..\..\..\WORK\1N4 Transmitter\SA-100_2339_05_1N4.cydsn/sgable.c ****     CyBle_GattsWriteAttributeValue(&tempHandle,0,&cyBle_connHandle,0);
 470              		.loc 1 175 0
 471 02b6 434A     		ldr	r2, .L24+8
 472 02b8 3800     		movs	r0, r7
 473 02ba 0023     		movs	r3, #0
 474 02bc 0021     		movs	r1, #0
 475 02be FFF7FEFF 		bl	CyBle_GattsWriteAttributeValue
 176:..\..\..\..\..\WORK\1N4 Transmitter\SA-100_2339_05_1N4.cydsn/sgable.c **** 
 177:..\..\..\..\..\WORK\1N4 Transmitter\SA-100_2339_05_1N4.cydsn/sgable.c ****     /* Update SENSOR_NOTE value */
 178:..\..\..\..\..\WORK\1N4 Transmitter\SA-100_2339_05_1N4.cydsn/sgable.c ****     tempHandle.attrHandle = CYBLE_SGA2_SENSOR_GAS_NOTE_CHAR_HANDLE;
 476              		.loc 1 178 0
 477 02c2 3B00     		movs	r3, r7
 478 02c4 5722     		movs	r2, #87
 479 02c6 1A81     		strh	r2, [r3, #8]
 179:..\..\..\..\..\WORK\1N4 Transmitter\SA-100_2339_05_1N4.cydsn/sgable.c ****     tempHandle.value.val = (uint8*)&Sensor.GasNote;
 480              		.loc 1 179 0
 481 02c8 3B00     		movs	r3, r7
 482 02ca 4E4A     		ldr	r2, .L24+72
 483 02cc 1A60     		str	r2, [r3]
 180:..\..\..\..\..\WORK\1N4 Transmitter\SA-100_2339_05_1N4.cydsn/sgable.c ****     tempHandle.value.len = 10;
 484              		.loc 1 180 0
 485 02ce 3B00     		movs	r3, r7
 486 02d0 0A22     		movs	r2, #10
 487 02d2 9A80     		strh	r2, [r3, #4]
 181:..\..\..\..\..\WORK\1N4 Transmitter\SA-100_2339_05_1N4.cydsn/sgable.c ****     CyBle_GattsWriteAttributeValue(&tempHandle,0,&cyBle_connHandle,0);
 488              		.loc 1 181 0
 489 02d4 3B4A     		ldr	r2, .L24+8
 490 02d6 3800     		movs	r0, r7
 491 02d8 0023     		movs	r3, #0
 492 02da 0021     		movs	r1, #0
 493 02dc FFF7FEFF 		bl	CyBle_GattsWriteAttributeValue
 182:..\..\..\..\..\WORK\1N4 Transmitter\SA-100_2339_05_1N4.cydsn/sgable.c **** 
 183:..\..\..\..\..\WORK\1N4 Transmitter\SA-100_2339_05_1N4.cydsn/sgable.c ****     /* Update SENSOR_TAG value */
 184:..\..\..\..\..\WORK\1N4 Transmitter\SA-100_2339_05_1N4.cydsn/sgable.c ****     tempHandle.attrHandle = CYBLE_SGA2_SENSOR_TAG_CHAR_HANDLE;
 494              		.loc 1 184 0
 495 02e0 3B00     		movs	r3, r7
 496 02e2 5A22     		movs	r2, #90
 497 02e4 1A81     		strh	r2, [r3, #8]
 185:..\..\..\..\..\WORK\1N4 Transmitter\SA-100_2339_05_1N4.cydsn/sgable.c ****     tempHandle.value.val = (uint8*)&System.SensorTag;
 498              		.loc 1 185 0
 499 02e6 3B00     		movs	r3, r7
ARM GAS  C:\Users\alexport\AppData\Local\Temp\ccr3ZDs0.s 			page 13


 500 02e8 474A     		ldr	r2, .L24+76
 501 02ea 1A60     		str	r2, [r3]
 186:..\..\..\..\..\WORK\1N4 Transmitter\SA-100_2339_05_1N4.cydsn/sgable.c ****     tempHandle.value.len = SENSOR_TAG_LENGTH;
 502              		.loc 1 186 0
 503 02ec 3B00     		movs	r3, r7
 504 02ee 1422     		movs	r2, #20
 505 02f0 9A80     		strh	r2, [r3, #4]
 187:..\..\..\..\..\WORK\1N4 Transmitter\SA-100_2339_05_1N4.cydsn/sgable.c ****     CyBle_GattsWriteAttributeValue(&tempHandle,0,&cyBle_connHandle,0);
 506              		.loc 1 187 0
 507 02f2 344A     		ldr	r2, .L24+8
 508 02f4 3800     		movs	r0, r7
 509 02f6 0023     		movs	r3, #0
 510 02f8 0021     		movs	r1, #0
 511 02fa FFF7FEFF 		bl	CyBle_GattsWriteAttributeValue
 188:..\..\..\..\..\WORK\1N4 Transmitter\SA-100_2339_05_1N4.cydsn/sgable.c **** 
 189:..\..\..\..\..\WORK\1N4 Transmitter\SA-100_2339_05_1N4.cydsn/sgable.c ****     /* Update temperature */
 190:..\..\..\..\..\WORK\1N4 Transmitter\SA-100_2339_05_1N4.cydsn/sgable.c ****     tempHandle.attrHandle = CYBLE_SGA2_SENSOR_TEMPERATURE_CHAR_HANDLE;
 512              		.loc 1 190 0
 513 02fe 3B00     		movs	r3, r7
 514 0300 5D22     		movs	r2, #93
 515 0302 1A81     		strh	r2, [r3, #8]
 191:..\..\..\..\..\WORK\1N4 Transmitter\SA-100_2339_05_1N4.cydsn/sgable.c ****     tempHandle.value.val = (uint8*)&Sensor.Temperature;
 516              		.loc 1 191 0
 517 0304 3B00     		movs	r3, r7
 518 0306 414A     		ldr	r2, .L24+80
 519 0308 1A60     		str	r2, [r3]
 192:..\..\..\..\..\WORK\1N4 Transmitter\SA-100_2339_05_1N4.cydsn/sgable.c ****     tempHandle.value.len = 1;
 520              		.loc 1 192 0
 521 030a 3B00     		movs	r3, r7
 522 030c 0122     		movs	r2, #1
 523 030e 9A80     		strh	r2, [r3, #4]
 193:..\..\..\..\..\WORK\1N4 Transmitter\SA-100_2339_05_1N4.cydsn/sgable.c ****     CyBle_GattsWriteAttributeValue(&tempHandle,0,&cyBle_connHandle,0);
 524              		.loc 1 193 0
 525 0310 2C4A     		ldr	r2, .L24+8
 526 0312 3800     		movs	r0, r7
 527 0314 0023     		movs	r3, #0
 528 0316 0021     		movs	r1, #0
 529 0318 FFF7FEFF 		bl	CyBle_GattsWriteAttributeValue
 194:..\..\..\..\..\WORK\1N4 Transmitter\SA-100_2339_05_1N4.cydsn/sgable.c ****     /* If notifications have been requested for Sensor CalLevel */
 195:..\..\..\..\..\WORK\1N4 Transmitter\SA-100_2339_05_1N4.cydsn/sgable.c ****     if( System.BleNotifyTemperature && ( Sensor.Temperature != Sensor.TemperaturePrevious ) )
 530              		.loc 1 195 0
 531 031c 284B     		ldr	r3, .L24+4
 532 031e 9B79     		ldrb	r3, [r3, #6]
 533 0320 002B     		cmp	r3, #0
 534 0322 1CD0     		beq	.L8
 535              		.loc 1 195 0 is_stmt 0 discriminator 1
 536 0324 294B     		ldr	r3, .L24+16
 537 0326 2A22     		movs	r2, #42
 538 0328 9A56     		ldrsb	r2, [r3, r2]
 539 032a 284B     		ldr	r3, .L24+16
 540 032c 2B21     		movs	r1, #43
 541 032e 5B56     		ldrsb	r3, [r3, r1]
 542 0330 9A42     		cmp	r2, r3
 543 0332 14D0     		beq	.L8
 196:..\..\..\..\..\WORK\1N4 Transmitter\SA-100_2339_05_1N4.cydsn/sgable.c ****     {
 197:..\..\..\..\..\WORK\1N4 Transmitter\SA-100_2339_05_1N4.cydsn/sgable.c ****         CyBle_GattsNotification( cyBle_connHandle, &tempHandle );               /* Notify the clien
 544              		.loc 1 197 0 is_stmt 1
ARM GAS  C:\Users\alexport\AppData\Local\Temp\ccr3ZDs0.s 			page 14


 545 0334 3900     		movs	r1, r7
 546 0336 234B     		ldr	r3, .L24+8
 547 0338 1A78     		ldrb	r2, [r3]
 548 033a 5B78     		ldrb	r3, [r3, #1]
 549 033c 1B02     		lsls	r3, r3, #8
 550 033e 1A43     		orrs	r2, r3
 551 0340 0023     		movs	r3, #0
 552 0342 1204     		lsls	r2, r2, #16
 553 0344 120C     		lsrs	r2, r2, #16
 554 0346 1B0C     		lsrs	r3, r3, #16
 555 0348 1B04     		lsls	r3, r3, #16
 556 034a 1343     		orrs	r3, r2
 557 034c 1800     		movs	r0, r3
 558 034e FFF7FEFF 		bl	CyBle_GattsNotification
 198:..\..\..\..\..\WORK\1N4 Transmitter\SA-100_2339_05_1N4.cydsn/sgable.c ****         Sensor.TemperaturePrevious = Sensor.Temperature;
 559              		.loc 1 198 0
 560 0352 1E4B     		ldr	r3, .L24+16
 561 0354 2A22     		movs	r2, #42
 562 0356 9956     		ldrsb	r1, [r3, r2]
 563 0358 1C4B     		ldr	r3, .L24+16
 564 035a 2B22     		movs	r2, #43
 565 035c 9954     		strb	r1, [r3, r2]
 566              	.L8:
 199:..\..\..\..\..\WORK\1N4 Transmitter\SA-100_2339_05_1N4.cydsn/sgable.c ****     }
 200:..\..\..\..\..\WORK\1N4 Transmitter\SA-100_2339_05_1N4.cydsn/sgable.c **** 
 201:..\..\..\..\..\WORK\1N4 Transmitter\SA-100_2339_05_1N4.cydsn/sgable.c ****     /* Update SENSOR_CAL_LEVEL value */
 202:..\..\..\..\..\WORK\1N4 Transmitter\SA-100_2339_05_1N4.cydsn/sgable.c ****     tempHandle.attrHandle = CYBLE_SGA2_SENSOR_CAL_LEVEL_CHAR_HANDLE;
 567              		.loc 1 202 0
 568 035e 3B00     		movs	r3, r7
 569 0360 6122     		movs	r2, #97
 570 0362 1A81     		strh	r2, [r3, #8]
 203:..\..\..\..\..\WORK\1N4 Transmitter\SA-100_2339_05_1N4.cydsn/sgable.c ****     tempHandle.value.val = (uint8*)&Sensor.CalLevel;
 571              		.loc 1 203 0
 572 0364 3B00     		movs	r3, r7
 573 0366 2A4A     		ldr	r2, .L24+84
 574 0368 1A60     		str	r2, [r3]
 204:..\..\..\..\..\WORK\1N4 Transmitter\SA-100_2339_05_1N4.cydsn/sgable.c ****     tempHandle.value.len = 2;
 575              		.loc 1 204 0
 576 036a 3B00     		movs	r3, r7
 577 036c 0222     		movs	r2, #2
 578 036e 9A80     		strh	r2, [r3, #4]
 205:..\..\..\..\..\WORK\1N4 Transmitter\SA-100_2339_05_1N4.cydsn/sgable.c ****     CyBle_GattsWriteAttributeValue(&tempHandle,0,&cyBle_connHandle,0);
 579              		.loc 1 205 0
 580 0370 144A     		ldr	r2, .L24+8
 581 0372 3800     		movs	r0, r7
 582 0374 0023     		movs	r3, #0
 583 0376 0021     		movs	r1, #0
 584 0378 FFF7FEFF 		bl	CyBle_GattsWriteAttributeValue
 206:..\..\..\..\..\WORK\1N4 Transmitter\SA-100_2339_05_1N4.cydsn/sgable.c ****     /* If notifications have been requested for Sensor CalLevel */
 207:..\..\..\..\..\WORK\1N4 Transmitter\SA-100_2339_05_1N4.cydsn/sgable.c ****     if( System.BleNotifyCalLevel && ( Sensor.CalLevel != Sensor.CalLevelPrevious ) )
 585              		.loc 1 207 0
 586 037c 104B     		ldr	r3, .L24+4
 587 037e 1B7A     		ldrb	r3, [r3, #8]
 588 0380 002B     		cmp	r3, #0
 589 0382 49D0     		beq	.L9
 590              		.loc 1 207 0 is_stmt 0 discriminator 1
 591 0384 114B     		ldr	r3, .L24+16
ARM GAS  C:\Users\alexport\AppData\Local\Temp\ccr3ZDs0.s 			page 15


 592 0386 3822     		movs	r2, #56
 593 0388 9A5E     		ldrsh	r2, [r3, r2]
 594 038a 104B     		ldr	r3, .L24+16
 595 038c 3A21     		movs	r1, #58
 596 038e 5B5E     		ldrsh	r3, [r3, r1]
 597 0390 9A42     		cmp	r2, r3
 598 0392 41D0     		beq	.L9
 208:..\..\..\..\..\WORK\1N4 Transmitter\SA-100_2339_05_1N4.cydsn/sgable.c ****     {
 209:..\..\..\..\..\WORK\1N4 Transmitter\SA-100_2339_05_1N4.cydsn/sgable.c ****         CyBle_GattsNotification( cyBle_connHandle, &tempHandle );               /* Notify the clien
 599              		.loc 1 209 0 is_stmt 1
 600 0394 3900     		movs	r1, r7
 601 0396 0B4B     		ldr	r3, .L24+8
 602 0398 1A78     		ldrb	r2, [r3]
 603 039a 5B78     		ldrb	r3, [r3, #1]
 604 039c 1B02     		lsls	r3, r3, #8
 605 039e 1A43     		orrs	r2, r3
 606 03a0 0023     		movs	r3, #0
 607 03a2 1204     		lsls	r2, r2, #16
 608 03a4 120C     		lsrs	r2, r2, #16
 609 03a6 1B0C     		lsrs	r3, r3, #16
 610 03a8 1B04     		lsls	r3, r3, #16
 611 03aa 1343     		orrs	r3, r2
 612 03ac 1800     		movs	r0, r3
 613 03ae FFF7FEFF 		bl	CyBle_GattsNotification
 210:..\..\..\..\..\WORK\1N4 Transmitter\SA-100_2339_05_1N4.cydsn/sgable.c ****         Sensor.CalLevelPrevious = Sensor.CalLevel;
 614              		.loc 1 210 0
 615 03b2 064B     		ldr	r3, .L24+16
 616 03b4 3822     		movs	r2, #56
 617 03b6 9A5E     		ldrsh	r2, [r3, r2]
 618 03b8 2CE0     		b	.L25
 619              	.L26:
 620 03ba C046     		.align	2
 621              	.L24:
 622 03bc 00000000 		.word	cyBle_state
 623 03c0 00000000 		.word	System
 624 03c4 00000000 		.word	cyBle_connHandle
 625 03c8 10000000 		.word	Sensor+16
 626 03cc 00000000 		.word	Sensor
 627 03d0 1A000000 		.word	System+26
 628 03d4 81000000 		.word	System+129
 629 03d8 80000000 		.word	System+128
 630 03dc 84000000 		.word	System+132
 631 03e0 16000000 		.word	System+22
 632 03e4 58000000 		.word	Sensor+88
 633 03e8 5A000000 		.word	Sensor+90
 634 03ec 5C000000 		.word	Sensor+92
 635 03f0 5E000000 		.word	Sensor+94
 636 03f4 02010000 		.word	Sensor+258
 637 03f8 B2000000 		.word	System+178
 638 03fc 0F000000 		.word	Sensor+15
 639 0400 E4000000 		.word	Sensor+228
 640 0404 E6000000 		.word	Sensor+230
 641 0408 86000000 		.word	System+134
 642 040c 2A000000 		.word	Sensor+42
 643 0410 38000000 		.word	Sensor+56
 644              	.L25:
 645 0414 E44B     		ldr	r3, .L27
ARM GAS  C:\Users\alexport\AppData\Local\Temp\ccr3ZDs0.s 			page 16


 646 0416 5A87     		strh	r2, [r3, #58]
 647              	.L9:
 211:..\..\..\..\..\WORK\1N4 Transmitter\SA-100_2339_05_1N4.cydsn/sgable.c ****     }
 212:..\..\..\..\..\WORK\1N4 Transmitter\SA-100_2339_05_1N4.cydsn/sgable.c **** 
 213:..\..\..\..\..\WORK\1N4 Transmitter\SA-100_2339_05_1N4.cydsn/sgable.c ****     /* Update CAL_Z_COUNTS value */
 214:..\..\..\..\..\WORK\1N4 Transmitter\SA-100_2339_05_1N4.cydsn/sgable.c ****     tempHandle.attrHandle = CYBLE_SGA2_CAL_Z_COUNTS_CHAR_HANDLE;
 648              		.loc 1 214 0
 649 0418 3B00     		movs	r3, r7
 650 041a 6522     		movs	r2, #101
 651 041c 1A81     		strh	r2, [r3, #8]
 215:..\..\..\..\..\WORK\1N4 Transmitter\SA-100_2339_05_1N4.cydsn/sgable.c ****     tempHandle.value.val = (uint8*)&System.CalZCounts;
 652              		.loc 1 215 0
 653 041e 3B00     		movs	r3, r7
 654 0420 E24A     		ldr	r2, .L27+4
 655 0422 1A60     		str	r2, [r3]
 216:..\..\..\..\..\WORK\1N4 Transmitter\SA-100_2339_05_1N4.cydsn/sgable.c ****     tempHandle.value.len = 2;
 656              		.loc 1 216 0
 657 0424 3B00     		movs	r3, r7
 658 0426 0222     		movs	r2, #2
 659 0428 9A80     		strh	r2, [r3, #4]
 217:..\..\..\..\..\WORK\1N4 Transmitter\SA-100_2339_05_1N4.cydsn/sgable.c ****     CyBle_GattsWriteAttributeValue(&tempHandle,0,&cyBle_connHandle,0);
 660              		.loc 1 217 0
 661 042a E14A     		ldr	r2, .L27+8
 662 042c 3800     		movs	r0, r7
 663 042e 0023     		movs	r3, #0
 664 0430 0021     		movs	r1, #0
 665 0432 FFF7FEFF 		bl	CyBle_GattsWriteAttributeValue
 218:..\..\..\..\..\WORK\1N4 Transmitter\SA-100_2339_05_1N4.cydsn/sgable.c **** 
 219:..\..\..\..\..\WORK\1N4 Transmitter\SA-100_2339_05_1N4.cydsn/sgable.c ****     /* Update CAL_ZERO_ERROR value */
 220:..\..\..\..\..\WORK\1N4 Transmitter\SA-100_2339_05_1N4.cydsn/sgable.c ****     tempHandle.attrHandle = CYBLE_SGA2_CAL_ZERO_ERROR_CHAR_HANDLE;
 666              		.loc 1 220 0
 667 0436 3B00     		movs	r3, r7
 668 0438 6C22     		movs	r2, #108
 669 043a 1A81     		strh	r2, [r3, #8]
 221:..\..\..\..\..\WORK\1N4 Transmitter\SA-100_2339_05_1N4.cydsn/sgable.c ****     tempHandle.value.val = (uint8*)&System.CalZeroError;
 670              		.loc 1 221 0
 671 043c 3B00     		movs	r3, r7
 672 043e DD4A     		ldr	r2, .L27+12
 673 0440 1A60     		str	r2, [r3]
 222:..\..\..\..\..\WORK\1N4 Transmitter\SA-100_2339_05_1N4.cydsn/sgable.c ****     tempHandle.value.len = 1;
 674              		.loc 1 222 0
 675 0442 3B00     		movs	r3, r7
 676 0444 0122     		movs	r2, #1
 677 0446 9A80     		strh	r2, [r3, #4]
 223:..\..\..\..\..\WORK\1N4 Transmitter\SA-100_2339_05_1N4.cydsn/sgable.c ****     CyBle_GattsWriteAttributeValue(&tempHandle,0,&cyBle_connHandle,0);
 678              		.loc 1 223 0
 679 0448 D94A     		ldr	r2, .L27+8
 680 044a 3800     		movs	r0, r7
 681 044c 0023     		movs	r3, #0
 682 044e 0021     		movs	r1, #0
 683 0450 FFF7FEFF 		bl	CyBle_GattsWriteAttributeValue
 224:..\..\..\..\..\WORK\1N4 Transmitter\SA-100_2339_05_1N4.cydsn/sgable.c ****     /* If notifications have been requested for System.CalZeroError */
 225:..\..\..\..\..\WORK\1N4 Transmitter\SA-100_2339_05_1N4.cydsn/sgable.c ****     if( System.BleNotifyCalZeroError && ( System.CalZeroError != System.CalZeroErrorPrevious ) )
 684              		.loc 1 225 0
 685 0454 D84B     		ldr	r3, .L27+16
 686 0456 DB7A     		ldrb	r3, [r3, #11]
 687 0458 002B     		cmp	r3, #0
ARM GAS  C:\Users\alexport\AppData\Local\Temp\ccr3ZDs0.s 			page 17


 688 045a 1CD0     		beq	.L10
 689              		.loc 1 225 0 is_stmt 0 discriminator 1
 690 045c D64B     		ldr	r3, .L27+16
 691 045e A222     		movs	r2, #162
 692 0460 9A5C     		ldrb	r2, [r3, r2]
 693 0462 D54B     		ldr	r3, .L27+16
 694 0464 A321     		movs	r1, #163
 695 0466 5B5C     		ldrb	r3, [r3, r1]
 696 0468 9A42     		cmp	r2, r3
 697 046a 14D0     		beq	.L10
 226:..\..\..\..\..\WORK\1N4 Transmitter\SA-100_2339_05_1N4.cydsn/sgable.c ****     {
 227:..\..\..\..\..\WORK\1N4 Transmitter\SA-100_2339_05_1N4.cydsn/sgable.c ****         CyBle_GattsNotification( cyBle_connHandle, &tempHandle );               /* Notify the clien
 698              		.loc 1 227 0 is_stmt 1
 699 046c 3900     		movs	r1, r7
 700 046e D04B     		ldr	r3, .L27+8
 701 0470 1A78     		ldrb	r2, [r3]
 702 0472 5B78     		ldrb	r3, [r3, #1]
 703 0474 1B02     		lsls	r3, r3, #8
 704 0476 1A43     		orrs	r2, r3
 705 0478 0023     		movs	r3, #0
 706 047a 1204     		lsls	r2, r2, #16
 707 047c 120C     		lsrs	r2, r2, #16
 708 047e 1B0C     		lsrs	r3, r3, #16
 709 0480 1B04     		lsls	r3, r3, #16
 710 0482 1343     		orrs	r3, r2
 711 0484 1800     		movs	r0, r3
 712 0486 FFF7FEFF 		bl	CyBle_GattsNotification
 228:..\..\..\..\..\WORK\1N4 Transmitter\SA-100_2339_05_1N4.cydsn/sgable.c ****         System.CalZeroErrorPrevious = System.CalZeroError;
 713              		.loc 1 228 0
 714 048a CB4B     		ldr	r3, .L27+16
 715 048c A222     		movs	r2, #162
 716 048e 995C     		ldrb	r1, [r3, r2]
 717 0490 C94B     		ldr	r3, .L27+16
 718 0492 A322     		movs	r2, #163
 719 0494 9954     		strb	r1, [r3, r2]
 720              	.L10:
 229:..\..\..\..\..\WORK\1N4 Transmitter\SA-100_2339_05_1N4.cydsn/sgable.c ****     }
 230:..\..\..\..\..\WORK\1N4 Transmitter\SA-100_2339_05_1N4.cydsn/sgable.c **** 
 231:..\..\..\..\..\WORK\1N4 Transmitter\SA-100_2339_05_1N4.cydsn/sgable.c ****     /* Update CAL_STEP value */
 232:..\..\..\..\..\WORK\1N4 Transmitter\SA-100_2339_05_1N4.cydsn/sgable.c ****     tempHandle.attrHandle = CYBLE_SGA2_CAL_STEP_CHAR_HANDLE;
 721              		.loc 1 232 0
 722 0496 3B00     		movs	r3, r7
 723 0498 7022     		movs	r2, #112
 724 049a 1A81     		strh	r2, [r3, #8]
 233:..\..\..\..\..\WORK\1N4 Transmitter\SA-100_2339_05_1N4.cydsn/sgable.c ****     tempHandle.value.val = (uint8*)&System.CalStep;
 725              		.loc 1 233 0
 726 049c 3B00     		movs	r3, r7
 727 049e C74A     		ldr	r2, .L27+20
 728 04a0 1A60     		str	r2, [r3]
 234:..\..\..\..\..\WORK\1N4 Transmitter\SA-100_2339_05_1N4.cydsn/sgable.c ****     tempHandle.value.len = 1;
 729              		.loc 1 234 0
 730 04a2 3B00     		movs	r3, r7
 731 04a4 0122     		movs	r2, #1
 732 04a6 9A80     		strh	r2, [r3, #4]
 235:..\..\..\..\..\WORK\1N4 Transmitter\SA-100_2339_05_1N4.cydsn/sgable.c ****     CyBle_GattsWriteAttributeValue(&tempHandle,0,&cyBle_connHandle,0);
 733              		.loc 1 235 0
 734 04a8 C14A     		ldr	r2, .L27+8
ARM GAS  C:\Users\alexport\AppData\Local\Temp\ccr3ZDs0.s 			page 18


 735 04aa 3800     		movs	r0, r7
 736 04ac 0023     		movs	r3, #0
 737 04ae 0021     		movs	r1, #0
 738 04b0 FFF7FEFF 		bl	CyBle_GattsWriteAttributeValue
 236:..\..\..\..\..\WORK\1N4 Transmitter\SA-100_2339_05_1N4.cydsn/sgable.c ****     /* If notifications have been requested for Sensor Life */
 237:..\..\..\..\..\WORK\1N4 Transmitter\SA-100_2339_05_1N4.cydsn/sgable.c ****     if( System.BleNotifyCalStep && ( System.CalStep != System.CalStepPrevious ) )
 739              		.loc 1 237 0
 740 04b4 C04B     		ldr	r3, .L27+16
 741 04b6 1B7B     		ldrb	r3, [r3, #12]
 742 04b8 002B     		cmp	r3, #0
 743 04ba 1CD0     		beq	.L11
 744              		.loc 1 237 0 is_stmt 0 discriminator 1
 745 04bc BE4B     		ldr	r3, .L27+16
 746 04be A422     		movs	r2, #164
 747 04c0 9A5C     		ldrb	r2, [r3, r2]
 748 04c2 BD4B     		ldr	r3, .L27+16
 749 04c4 A521     		movs	r1, #165
 750 04c6 5B5C     		ldrb	r3, [r3, r1]
 751 04c8 9A42     		cmp	r2, r3
 752 04ca 14D0     		beq	.L11
 238:..\..\..\..\..\WORK\1N4 Transmitter\SA-100_2339_05_1N4.cydsn/sgable.c ****     {
 239:..\..\..\..\..\WORK\1N4 Transmitter\SA-100_2339_05_1N4.cydsn/sgable.c ****         CyBle_GattsNotification( cyBle_connHandle, &tempHandle );               /* Notify the clien
 753              		.loc 1 239 0 is_stmt 1
 754 04cc 3900     		movs	r1, r7
 755 04ce B84B     		ldr	r3, .L27+8
 756 04d0 1A78     		ldrb	r2, [r3]
 757 04d2 5B78     		ldrb	r3, [r3, #1]
 758 04d4 1B02     		lsls	r3, r3, #8
 759 04d6 1A43     		orrs	r2, r3
 760 04d8 0023     		movs	r3, #0
 761 04da 1204     		lsls	r2, r2, #16
 762 04dc 120C     		lsrs	r2, r2, #16
 763 04de 1B0C     		lsrs	r3, r3, #16
 764 04e0 1B04     		lsls	r3, r3, #16
 765 04e2 1343     		orrs	r3, r2
 766 04e4 1800     		movs	r0, r3
 767 04e6 FFF7FEFF 		bl	CyBle_GattsNotification
 240:..\..\..\..\..\WORK\1N4 Transmitter\SA-100_2339_05_1N4.cydsn/sgable.c ****         System.CalStepPrevious = System.CalStep;
 768              		.loc 1 240 0
 769 04ea B34B     		ldr	r3, .L27+16
 770 04ec A422     		movs	r2, #164
 771 04ee 995C     		ldrb	r1, [r3, r2]
 772 04f0 B14B     		ldr	r3, .L27+16
 773 04f2 A522     		movs	r2, #165
 774 04f4 9954     		strb	r1, [r3, r2]
 775              	.L11:
 241:..\..\..\..\..\WORK\1N4 Transmitter\SA-100_2339_05_1N4.cydsn/sgable.c ****     }
 242:..\..\..\..\..\WORK\1N4 Transmitter\SA-100_2339_05_1N4.cydsn/sgable.c **** 
 243:..\..\..\..\..\WORK\1N4 Transmitter\SA-100_2339_05_1N4.cydsn/sgable.c ****     /* Update CAL_SPEED value */
 244:..\..\..\..\..\WORK\1N4 Transmitter\SA-100_2339_05_1N4.cydsn/sgable.c ****     tempHandle.attrHandle = CYBLE_SGA2_CAL_SPEED_CHAR_HANDLE;
 776              		.loc 1 244 0
 777 04f6 3B00     		movs	r3, r7
 778 04f8 7422     		movs	r2, #116
 779 04fa 1A81     		strh	r2, [r3, #8]
 245:..\..\..\..\..\WORK\1N4 Transmitter\SA-100_2339_05_1N4.cydsn/sgable.c ****     tempHandle.value.val = (uint8*)&System.CalSpeed;
 780              		.loc 1 245 0
 781 04fc 3B00     		movs	r3, r7
ARM GAS  C:\Users\alexport\AppData\Local\Temp\ccr3ZDs0.s 			page 19


 782 04fe B04A     		ldr	r2, .L27+24
 783 0500 1A60     		str	r2, [r3]
 246:..\..\..\..\..\WORK\1N4 Transmitter\SA-100_2339_05_1N4.cydsn/sgable.c ****     tempHandle.value.len = 2;
 784              		.loc 1 246 0
 785 0502 3B00     		movs	r3, r7
 786 0504 0222     		movs	r2, #2
 787 0506 9A80     		strh	r2, [r3, #4]
 247:..\..\..\..\..\WORK\1N4 Transmitter\SA-100_2339_05_1N4.cydsn/sgable.c ****     CyBle_GattsWriteAttributeValue(&tempHandle,0,&cyBle_connHandle,0);
 788              		.loc 1 247 0
 789 0508 A94A     		ldr	r2, .L27+8
 790 050a 3800     		movs	r0, r7
 791 050c 0023     		movs	r3, #0
 792 050e 0021     		movs	r1, #0
 793 0510 FFF7FEFF 		bl	CyBle_GattsWriteAttributeValue
 248:..\..\..\..\..\WORK\1N4 Transmitter\SA-100_2339_05_1N4.cydsn/sgable.c ****     /* If notifications have been requested for System.CalSpeed */
 249:..\..\..\..\..\WORK\1N4 Transmitter\SA-100_2339_05_1N4.cydsn/sgable.c ****     if( System.BleNotifyCalSpeed && ( System.CalSpeed != System.CalSpeedPrevious ) )
 794              		.loc 1 249 0
 795 0514 A84B     		ldr	r3, .L27+16
 796 0516 5B7B     		ldrb	r3, [r3, #13]
 797 0518 002B     		cmp	r3, #0
 798 051a 1CD0     		beq	.L12
 799              		.loc 1 249 0 is_stmt 0 discriminator 1
 800 051c A64B     		ldr	r3, .L27+16
 801 051e A622     		movs	r2, #166
 802 0520 9A5A     		ldrh	r2, [r3, r2]
 803 0522 A54B     		ldr	r3, .L27+16
 804 0524 A821     		movs	r1, #168
 805 0526 5B5A     		ldrh	r3, [r3, r1]
 806 0528 9A42     		cmp	r2, r3
 807 052a 14D0     		beq	.L12
 250:..\..\..\..\..\WORK\1N4 Transmitter\SA-100_2339_05_1N4.cydsn/sgable.c ****     {
 251:..\..\..\..\..\WORK\1N4 Transmitter\SA-100_2339_05_1N4.cydsn/sgable.c ****         CyBle_GattsNotification( cyBle_connHandle, &tempHandle );               /* Notify the clien
 808              		.loc 1 251 0 is_stmt 1
 809 052c 3900     		movs	r1, r7
 810 052e A04B     		ldr	r3, .L27+8
 811 0530 1A78     		ldrb	r2, [r3]
 812 0532 5B78     		ldrb	r3, [r3, #1]
 813 0534 1B02     		lsls	r3, r3, #8
 814 0536 1A43     		orrs	r2, r3
 815 0538 0023     		movs	r3, #0
 816 053a 1204     		lsls	r2, r2, #16
 817 053c 120C     		lsrs	r2, r2, #16
 818 053e 1B0C     		lsrs	r3, r3, #16
 819 0540 1B04     		lsls	r3, r3, #16
 820 0542 1343     		orrs	r3, r2
 821 0544 1800     		movs	r0, r3
 822 0546 FFF7FEFF 		bl	CyBle_GattsNotification
 252:..\..\..\..\..\WORK\1N4 Transmitter\SA-100_2339_05_1N4.cydsn/sgable.c ****         System.CalSpeedPrevious = System.CalSpeed;
 823              		.loc 1 252 0
 824 054a 9B4B     		ldr	r3, .L27+16
 825 054c A622     		movs	r2, #166
 826 054e 995A     		ldrh	r1, [r3, r2]
 827 0550 994B     		ldr	r3, .L27+16
 828 0552 A822     		movs	r2, #168
 829 0554 9952     		strh	r1, [r3, r2]
 830              	.L12:
 253:..\..\..\..\..\WORK\1N4 Transmitter\SA-100_2339_05_1N4.cydsn/sgable.c ****     }
ARM GAS  C:\Users\alexport\AppData\Local\Temp\ccr3ZDs0.s 			page 20


 254:..\..\..\..\..\WORK\1N4 Transmitter\SA-100_2339_05_1N4.cydsn/sgable.c **** 
 255:..\..\..\..\..\WORK\1N4 Transmitter\SA-100_2339_05_1N4.cydsn/sgable.c ****     /* Update CAL_AS_FOUND value */
 256:..\..\..\..\..\WORK\1N4 Transmitter\SA-100_2339_05_1N4.cydsn/sgable.c ****     tempHandle.attrHandle = CYBLE_SGA2_CAL_AS_FOUND_CHAR_HANDLE;
 831              		.loc 1 256 0
 832 0556 3B00     		movs	r3, r7
 833 0558 7822     		movs	r2, #120
 834 055a 1A81     		strh	r2, [r3, #8]
 257:..\..\..\..\..\WORK\1N4 Transmitter\SA-100_2339_05_1N4.cydsn/sgable.c ****     tempHandle.value.val = (uint8*)&System.CalAsFound;
 835              		.loc 1 257 0
 836 055c 3B00     		movs	r3, r7
 837 055e 994A     		ldr	r2, .L27+28
 838 0560 1A60     		str	r2, [r3]
 258:..\..\..\..\..\WORK\1N4 Transmitter\SA-100_2339_05_1N4.cydsn/sgable.c ****     tempHandle.value.len = 1;
 839              		.loc 1 258 0
 840 0562 3B00     		movs	r3, r7
 841 0564 0122     		movs	r2, #1
 842 0566 9A80     		strh	r2, [r3, #4]
 259:..\..\..\..\..\WORK\1N4 Transmitter\SA-100_2339_05_1N4.cydsn/sgable.c ****     CyBle_GattsWriteAttributeValue(&tempHandle,0,&cyBle_connHandle,0);
 843              		.loc 1 259 0
 844 0568 914A     		ldr	r2, .L27+8
 845 056a 3800     		movs	r0, r7
 846 056c 0023     		movs	r3, #0
 847 056e 0021     		movs	r1, #0
 848 0570 FFF7FEFF 		bl	CyBle_GattsWriteAttributeValue
 260:..\..\..\..\..\WORK\1N4 Transmitter\SA-100_2339_05_1N4.cydsn/sgable.c ****     /* If notifications have been requested for System.CalAsFound */
 261:..\..\..\..\..\WORK\1N4 Transmitter\SA-100_2339_05_1N4.cydsn/sgable.c ****     if( System.BleNotifyCalAsFound && ( System.CalAsFound != System.CalAsFoundPrevious ) )
 849              		.loc 1 261 0
 850 0574 904B     		ldr	r3, .L27+16
 851 0576 5B7A     		ldrb	r3, [r3, #9]
 852 0578 002B     		cmp	r3, #0
 853 057a 1CD0     		beq	.L13
 854              		.loc 1 261 0 is_stmt 0 discriminator 1
 855 057c 8E4B     		ldr	r3, .L27+16
 856 057e 9A22     		movs	r2, #154
 857 0580 9A56     		ldrsb	r2, [r3, r2]
 858 0582 8D4B     		ldr	r3, .L27+16
 859 0584 9B21     		movs	r1, #155
 860 0586 5B56     		ldrsb	r3, [r3, r1]
 861 0588 9A42     		cmp	r2, r3
 862 058a 14D0     		beq	.L13
 262:..\..\..\..\..\WORK\1N4 Transmitter\SA-100_2339_05_1N4.cydsn/sgable.c ****     {
 263:..\..\..\..\..\WORK\1N4 Transmitter\SA-100_2339_05_1N4.cydsn/sgable.c ****         CyBle_GattsNotification( cyBle_connHandle, &tempHandle );               /* Notify the clien
 863              		.loc 1 263 0 is_stmt 1
 864 058c 3900     		movs	r1, r7
 865 058e 884B     		ldr	r3, .L27+8
 866 0590 1A78     		ldrb	r2, [r3]
 867 0592 5B78     		ldrb	r3, [r3, #1]
 868 0594 1B02     		lsls	r3, r3, #8
 869 0596 1A43     		orrs	r2, r3
 870 0598 0023     		movs	r3, #0
 871 059a 1204     		lsls	r2, r2, #16
 872 059c 120C     		lsrs	r2, r2, #16
 873 059e 1B0C     		lsrs	r3, r3, #16
 874 05a0 1B04     		lsls	r3, r3, #16
 875 05a2 1343     		orrs	r3, r2
 876 05a4 1800     		movs	r0, r3
 877 05a6 FFF7FEFF 		bl	CyBle_GattsNotification
ARM GAS  C:\Users\alexport\AppData\Local\Temp\ccr3ZDs0.s 			page 21


 264:..\..\..\..\..\WORK\1N4 Transmitter\SA-100_2339_05_1N4.cydsn/sgable.c ****         System.CalAsFoundPrevious = System.CalAsFound;
 878              		.loc 1 264 0
 879 05aa 834B     		ldr	r3, .L27+16
 880 05ac 9A22     		movs	r2, #154
 881 05ae 9956     		ldrsb	r1, [r3, r2]
 882 05b0 814B     		ldr	r3, .L27+16
 883 05b2 9B22     		movs	r2, #155
 884 05b4 9954     		strb	r1, [r3, r2]
 885              	.L13:
 265:..\..\..\..\..\WORK\1N4 Transmitter\SA-100_2339_05_1N4.cydsn/sgable.c ****     }
 266:..\..\..\..\..\WORK\1N4 Transmitter\SA-100_2339_05_1N4.cydsn/sgable.c **** 
 267:..\..\..\..\..\WORK\1N4 Transmitter\SA-100_2339_05_1N4.cydsn/sgable.c ****     /* Update CAL_ADJUSTED value */
 268:..\..\..\..\..\WORK\1N4 Transmitter\SA-100_2339_05_1N4.cydsn/sgable.c ****     tempHandle.attrHandle = CYBLE_SGA2_CAL_ADJUSTED_CHAR_HANDLE;
 886              		.loc 1 268 0
 887 05b6 3B00     		movs	r3, r7
 888 05b8 7C22     		movs	r2, #124
 889 05ba 1A81     		strh	r2, [r3, #8]
 269:..\..\..\..\..\WORK\1N4 Transmitter\SA-100_2339_05_1N4.cydsn/sgable.c ****     tempHandle.value.val = (uint8*)&System.CalAdjusted;
 890              		.loc 1 269 0
 891 05bc 3B00     		movs	r3, r7
 892 05be 824A     		ldr	r2, .L27+32
 893 05c0 1A60     		str	r2, [r3]
 270:..\..\..\..\..\WORK\1N4 Transmitter\SA-100_2339_05_1N4.cydsn/sgable.c ****     tempHandle.value.len = 1;
 894              		.loc 1 270 0
 895 05c2 3B00     		movs	r3, r7
 896 05c4 0122     		movs	r2, #1
 897 05c6 9A80     		strh	r2, [r3, #4]
 271:..\..\..\..\..\WORK\1N4 Transmitter\SA-100_2339_05_1N4.cydsn/sgable.c ****     CyBle_GattsWriteAttributeValue(&tempHandle,0,&cyBle_connHandle,0);
 898              		.loc 1 271 0
 899 05c8 794A     		ldr	r2, .L27+8
 900 05ca 3800     		movs	r0, r7
 901 05cc 0023     		movs	r3, #0
 902 05ce 0021     		movs	r1, #0
 903 05d0 FFF7FEFF 		bl	CyBle_GattsWriteAttributeValue
 272:..\..\..\..\..\WORK\1N4 Transmitter\SA-100_2339_05_1N4.cydsn/sgable.c ****     /* If notifications have been requested for System.CalAsFound */
 273:..\..\..\..\..\WORK\1N4 Transmitter\SA-100_2339_05_1N4.cydsn/sgable.c ****     if( System.BleNotifyCalAdjusted && ( System.CalAdjusted != System.CalAdjustedPrevious ) )
 904              		.loc 1 273 0
 905 05d4 784B     		ldr	r3, .L27+16
 906 05d6 9B7A     		ldrb	r3, [r3, #10]
 907 05d8 002B     		cmp	r3, #0
 908 05da 1CD0     		beq	.L14
 909              		.loc 1 273 0 is_stmt 0 discriminator 1
 910 05dc 764B     		ldr	r3, .L27+16
 911 05de 9C22     		movs	r2, #156
 912 05e0 9A56     		ldrsb	r2, [r3, r2]
 913 05e2 754B     		ldr	r3, .L27+16
 914 05e4 9D21     		movs	r1, #157
 915 05e6 5B56     		ldrsb	r3, [r3, r1]
 916 05e8 9A42     		cmp	r2, r3
 917 05ea 14D0     		beq	.L14
 274:..\..\..\..\..\WORK\1N4 Transmitter\SA-100_2339_05_1N4.cydsn/sgable.c ****     {
 275:..\..\..\..\..\WORK\1N4 Transmitter\SA-100_2339_05_1N4.cydsn/sgable.c ****         CyBle_GattsNotification( cyBle_connHandle, &tempHandle );               /* Notify the clien
 918              		.loc 1 275 0 is_stmt 1
 919 05ec 3900     		movs	r1, r7
 920 05ee 704B     		ldr	r3, .L27+8
 921 05f0 1A78     		ldrb	r2, [r3]
 922 05f2 5B78     		ldrb	r3, [r3, #1]
ARM GAS  C:\Users\alexport\AppData\Local\Temp\ccr3ZDs0.s 			page 22


 923 05f4 1B02     		lsls	r3, r3, #8
 924 05f6 1A43     		orrs	r2, r3
 925 05f8 0023     		movs	r3, #0
 926 05fa 1204     		lsls	r2, r2, #16
 927 05fc 120C     		lsrs	r2, r2, #16
 928 05fe 1B0C     		lsrs	r3, r3, #16
 929 0600 1B04     		lsls	r3, r3, #16
 930 0602 1343     		orrs	r3, r2
 931 0604 1800     		movs	r0, r3
 932 0606 FFF7FEFF 		bl	CyBle_GattsNotification
 276:..\..\..\..\..\WORK\1N4 Transmitter\SA-100_2339_05_1N4.cydsn/sgable.c ****         System.CalAdjustedPrevious = System.CalAdjusted;
 933              		.loc 1 276 0
 934 060a 6B4B     		ldr	r3, .L27+16
 935 060c 9C22     		movs	r2, #156
 936 060e 9956     		ldrsb	r1, [r3, r2]
 937 0610 694B     		ldr	r3, .L27+16
 938 0612 9D22     		movs	r2, #157
 939 0614 9954     		strb	r1, [r3, r2]
 940              	.L14:
 277:..\..\..\..\..\WORK\1N4 Transmitter\SA-100_2339_05_1N4.cydsn/sgable.c ****     }
 278:..\..\..\..\..\WORK\1N4 Transmitter\SA-100_2339_05_1N4.cydsn/sgable.c **** 
 279:..\..\..\..\..\WORK\1N4 Transmitter\SA-100_2339_05_1N4.cydsn/sgable.c ****     /* Update CAL_COUNTS value */
 280:..\..\..\..\..\WORK\1N4 Transmitter\SA-100_2339_05_1N4.cydsn/sgable.c ****     tempHandle.attrHandle = CYBLE_SGA2_CAL_COUNTS_CHAR_HANDLE;
 941              		.loc 1 280 0
 942 0616 3B00     		movs	r3, r7
 943 0618 8022     		movs	r2, #128
 944 061a 1A81     		strh	r2, [r3, #8]
 281:..\..\..\..\..\WORK\1N4 Transmitter\SA-100_2339_05_1N4.cydsn/sgable.c ****     tempHandle.value.val = (uint8*)&System.CalCounts;
 945              		.loc 1 281 0
 946 061c 3B00     		movs	r3, r7
 947 061e 6B4A     		ldr	r2, .L27+36
 948 0620 1A60     		str	r2, [r3]
 282:..\..\..\..\..\WORK\1N4 Transmitter\SA-100_2339_05_1N4.cydsn/sgable.c ****     tempHandle.value.len = 2;
 949              		.loc 1 282 0
 950 0622 3B00     		movs	r3, r7
 951 0624 0222     		movs	r2, #2
 952 0626 9A80     		strh	r2, [r3, #4]
 283:..\..\..\..\..\WORK\1N4 Transmitter\SA-100_2339_05_1N4.cydsn/sgable.c ****     CyBle_GattsWriteAttributeValue(&tempHandle,0,&cyBle_connHandle,0);
 953              		.loc 1 283 0
 954 0628 614A     		ldr	r2, .L27+8
 955 062a 3800     		movs	r0, r7
 956 062c 0023     		movs	r3, #0
 957 062e 0021     		movs	r1, #0
 958 0630 FFF7FEFF 		bl	CyBle_GattsWriteAttributeValue
 284:..\..\..\..\..\WORK\1N4 Transmitter\SA-100_2339_05_1N4.cydsn/sgable.c **** 
 285:..\..\..\..\..\WORK\1N4 Transmitter\SA-100_2339_05_1N4.cydsn/sgable.c ****     /* Update SENSOR_LIFE value */
 286:..\..\..\..\..\WORK\1N4 Transmitter\SA-100_2339_05_1N4.cydsn/sgable.c ****     tempHandle.attrHandle = CYBLE_SGA2_SENSOR_LIFE_CHAR_HANDLE;
 959              		.loc 1 286 0
 960 0634 3B00     		movs	r3, r7
 961 0636 8322     		movs	r2, #131
 962 0638 1A81     		strh	r2, [r3, #8]
 287:..\..\..\..\..\WORK\1N4 Transmitter\SA-100_2339_05_1N4.cydsn/sgable.c ****     tempHandle.value.val = (uint8*)&Sensor.Life;
 963              		.loc 1 287 0
 964 063a 3B00     		movs	r3, r7
 965 063c 644A     		ldr	r2, .L27+40
 966 063e 1A60     		str	r2, [r3]
 288:..\..\..\..\..\WORK\1N4 Transmitter\SA-100_2339_05_1N4.cydsn/sgable.c ****     tempHandle.value.len = 1;
ARM GAS  C:\Users\alexport\AppData\Local\Temp\ccr3ZDs0.s 			page 23


 967              		.loc 1 288 0
 968 0640 3B00     		movs	r3, r7
 969 0642 0122     		movs	r2, #1
 970 0644 9A80     		strh	r2, [r3, #4]
 289:..\..\..\..\..\WORK\1N4 Transmitter\SA-100_2339_05_1N4.cydsn/sgable.c ****     CyBle_GattsWriteAttributeValue(&tempHandle,0,&cyBle_connHandle,0);
 971              		.loc 1 289 0
 972 0646 5A4A     		ldr	r2, .L27+8
 973 0648 3800     		movs	r0, r7
 974 064a 0023     		movs	r3, #0
 975 064c 0021     		movs	r1, #0
 976 064e FFF7FEFF 		bl	CyBle_GattsWriteAttributeValue
 290:..\..\..\..\..\WORK\1N4 Transmitter\SA-100_2339_05_1N4.cydsn/sgable.c ****     /* If notifications have been requested for Sensor Life */
 291:..\..\..\..\..\WORK\1N4 Transmitter\SA-100_2339_05_1N4.cydsn/sgable.c ****     if( System.BleNotifyLife && ( Sensor.Life != Sensor.LifePrevious ) )
 977              		.loc 1 291 0
 978 0652 594B     		ldr	r3, .L27+16
 979 0654 DB79     		ldrb	r3, [r3, #7]
 980 0656 002B     		cmp	r3, #0
 981 0658 1CD0     		beq	.L15
 982              		.loc 1 291 0 is_stmt 0 discriminator 1
 983 065a 534B     		ldr	r3, .L27
 984 065c 2822     		movs	r2, #40
 985 065e 9A56     		ldrsb	r2, [r3, r2]
 986 0660 514B     		ldr	r3, .L27
 987 0662 2921     		movs	r1, #41
 988 0664 5B56     		ldrsb	r3, [r3, r1]
 989 0666 9A42     		cmp	r2, r3
 990 0668 14D0     		beq	.L15
 292:..\..\..\..\..\WORK\1N4 Transmitter\SA-100_2339_05_1N4.cydsn/sgable.c ****     {
 293:..\..\..\..\..\WORK\1N4 Transmitter\SA-100_2339_05_1N4.cydsn/sgable.c ****         CyBle_GattsNotification( cyBle_connHandle, &tempHandle );               /* Notify the clien
 991              		.loc 1 293 0 is_stmt 1
 992 066a 3900     		movs	r1, r7
 993 066c 504B     		ldr	r3, .L27+8
 994 066e 1A78     		ldrb	r2, [r3]
 995 0670 5B78     		ldrb	r3, [r3, #1]
 996 0672 1B02     		lsls	r3, r3, #8
 997 0674 1A43     		orrs	r2, r3
 998 0676 0023     		movs	r3, #0
 999 0678 1204     		lsls	r2, r2, #16
 1000 067a 120C     		lsrs	r2, r2, #16
 1001 067c 1B0C     		lsrs	r3, r3, #16
 1002 067e 1B04     		lsls	r3, r3, #16
 1003 0680 1343     		orrs	r3, r2
 1004 0682 1800     		movs	r0, r3
 1005 0684 FFF7FEFF 		bl	CyBle_GattsNotification
 294:..\..\..\..\..\WORK\1N4 Transmitter\SA-100_2339_05_1N4.cydsn/sgable.c ****         Sensor.LifePrevious = Sensor.Life;
 1006              		.loc 1 294 0
 1007 0688 474B     		ldr	r3, .L27
 1008 068a 2822     		movs	r2, #40
 1009 068c 9956     		ldrsb	r1, [r3, r2]
 1010 068e 464B     		ldr	r3, .L27
 1011 0690 2922     		movs	r2, #41
 1012 0692 9954     		strb	r1, [r3, r2]
 1013              	.L15:
 295:..\..\..\..\..\WORK\1N4 Transmitter\SA-100_2339_05_1N4.cydsn/sgable.c ****     }
 296:..\..\..\..\..\WORK\1N4 Transmitter\SA-100_2339_05_1N4.cydsn/sgable.c **** 
 297:..\..\..\..\..\WORK\1N4 Transmitter\SA-100_2339_05_1N4.cydsn/sgable.c ****     /* Update CAL_CLEARING value */
 298:..\..\..\..\..\WORK\1N4 Transmitter\SA-100_2339_05_1N4.cydsn/sgable.c ****     tempHandle.attrHandle = CYBLE_SGA2_CAL_CLEARING_CHAR_HANDLE;
ARM GAS  C:\Users\alexport\AppData\Local\Temp\ccr3ZDs0.s 			page 24


 1014              		.loc 1 298 0
 1015 0694 3B00     		movs	r3, r7
 1016 0696 8722     		movs	r2, #135
 1017 0698 1A81     		strh	r2, [r3, #8]
 299:..\..\..\..\..\WORK\1N4 Transmitter\SA-100_2339_05_1N4.cydsn/sgable.c ****     tempHandle.value.val = (uint8*)&System.CalClearing;
 1018              		.loc 1 299 0
 1019 069a 3B00     		movs	r3, r7
 1020 069c 4D4A     		ldr	r2, .L27+44
 1021 069e 1A60     		str	r2, [r3]
 300:..\..\..\..\..\WORK\1N4 Transmitter\SA-100_2339_05_1N4.cydsn/sgable.c ****     tempHandle.value.len = 2;
 1022              		.loc 1 300 0
 1023 06a0 3B00     		movs	r3, r7
 1024 06a2 0222     		movs	r2, #2
 1025 06a4 9A80     		strh	r2, [r3, #4]
 301:..\..\..\..\..\WORK\1N4 Transmitter\SA-100_2339_05_1N4.cydsn/sgable.c ****     CyBle_GattsWriteAttributeValue(&tempHandle,0,&cyBle_connHandle,0);
 1026              		.loc 1 301 0
 1027 06a6 424A     		ldr	r2, .L27+8
 1028 06a8 3800     		movs	r0, r7
 1029 06aa 0023     		movs	r3, #0
 1030 06ac 0021     		movs	r1, #0
 1031 06ae FFF7FEFF 		bl	CyBle_GattsWriteAttributeValue
 302:..\..\..\..\..\WORK\1N4 Transmitter\SA-100_2339_05_1N4.cydsn/sgable.c ****     /* If notifications have been requested for Sensor CalClearing */
 303:..\..\..\..\..\WORK\1N4 Transmitter\SA-100_2339_05_1N4.cydsn/sgable.c ****     if( System.BleNotifyCalClearing && ( System.CalClearing != System.CalClearingPrevious ) )
 1032              		.loc 1 303 0
 1033 06b2 414B     		ldr	r3, .L27+16
 1034 06b4 9B7B     		ldrb	r3, [r3, #14]
 1035 06b6 002B     		cmp	r3, #0
 1036 06b8 1CD0     		beq	.L16
 1037              		.loc 1 303 0 is_stmt 0 discriminator 1
 1038 06ba 3F4B     		ldr	r3, .L27+16
 1039 06bc AC22     		movs	r2, #172
 1040 06be 9A5A     		ldrh	r2, [r3, r2]
 1041 06c0 3D4B     		ldr	r3, .L27+16
 1042 06c2 AE21     		movs	r1, #174
 1043 06c4 5B5A     		ldrh	r3, [r3, r1]
 1044 06c6 9A42     		cmp	r2, r3
 1045 06c8 14D0     		beq	.L16
 304:..\..\..\..\..\WORK\1N4 Transmitter\SA-100_2339_05_1N4.cydsn/sgable.c ****     {
 305:..\..\..\..\..\WORK\1N4 Transmitter\SA-100_2339_05_1N4.cydsn/sgable.c ****         CyBle_GattsNotification( cyBle_connHandle, &tempHandle );               /* Notify the clien
 1046              		.loc 1 305 0 is_stmt 1
 1047 06ca 3900     		movs	r1, r7
 1048 06cc 384B     		ldr	r3, .L27+8
 1049 06ce 1A78     		ldrb	r2, [r3]
 1050 06d0 5B78     		ldrb	r3, [r3, #1]
 1051 06d2 1B02     		lsls	r3, r3, #8
 1052 06d4 1A43     		orrs	r2, r3
 1053 06d6 0023     		movs	r3, #0
 1054 06d8 1204     		lsls	r2, r2, #16
 1055 06da 120C     		lsrs	r2, r2, #16
 1056 06dc 1B0C     		lsrs	r3, r3, #16
 1057 06de 1B04     		lsls	r3, r3, #16
 1058 06e0 1343     		orrs	r3, r2
 1059 06e2 1800     		movs	r0, r3
 1060 06e4 FFF7FEFF 		bl	CyBle_GattsNotification
 306:..\..\..\..\..\WORK\1N4 Transmitter\SA-100_2339_05_1N4.cydsn/sgable.c ****         System.CalClearingPrevious = System.CalClearing;
 1061              		.loc 1 306 0
 1062 06e8 334B     		ldr	r3, .L27+16
ARM GAS  C:\Users\alexport\AppData\Local\Temp\ccr3ZDs0.s 			page 25


 1063 06ea AC22     		movs	r2, #172
 1064 06ec 995A     		ldrh	r1, [r3, r2]
 1065 06ee 324B     		ldr	r3, .L27+16
 1066 06f0 AE22     		movs	r2, #174
 1067 06f2 9952     		strh	r1, [r3, r2]
 1068              	.L16:
 307:..\..\..\..\..\WORK\1N4 Transmitter\SA-100_2339_05_1N4.cydsn/sgable.c ****     }
 308:..\..\..\..\..\WORK\1N4 Transmitter\SA-100_2339_05_1N4.cydsn/sgable.c **** 
 309:..\..\..\..\..\WORK\1N4 Transmitter\SA-100_2339_05_1N4.cydsn/sgable.c ****     /* Update CAL_SPAN_ERROR value */
 310:..\..\..\..\..\WORK\1N4 Transmitter\SA-100_2339_05_1N4.cydsn/sgable.c ****     tempHandle.attrHandle = CYBLE_SGA2_CAL_SPAN_ERROR_CHAR_HANDLE;
 1069              		.loc 1 310 0
 1070 06f4 3B00     		movs	r3, r7
 1071 06f6 8B22     		movs	r2, #139
 1072 06f8 1A81     		strh	r2, [r3, #8]
 311:..\..\..\..\..\WORK\1N4 Transmitter\SA-100_2339_05_1N4.cydsn/sgable.c ****     tempHandle.value.val = (uint8*)&System.CalSpanError;
 1073              		.loc 1 311 0
 1074 06fa 3B00     		movs	r3, r7
 1075 06fc 364A     		ldr	r2, .L27+48
 1076 06fe 1A60     		str	r2, [r3]
 312:..\..\..\..\..\WORK\1N4 Transmitter\SA-100_2339_05_1N4.cydsn/sgable.c ****     tempHandle.value.len = 1;
 1077              		.loc 1 312 0
 1078 0700 3B00     		movs	r3, r7
 1079 0702 0122     		movs	r2, #1
 1080 0704 9A80     		strh	r2, [r3, #4]
 313:..\..\..\..\..\WORK\1N4 Transmitter\SA-100_2339_05_1N4.cydsn/sgable.c ****     CyBle_GattsWriteAttributeValue(&tempHandle,0,&cyBle_connHandle,0);
 1081              		.loc 1 313 0
 1082 0706 2A4A     		ldr	r2, .L27+8
 1083 0708 3800     		movs	r0, r7
 1084 070a 0023     		movs	r3, #0
 1085 070c 0021     		movs	r1, #0
 1086 070e FFF7FEFF 		bl	CyBle_GattsWriteAttributeValue
 314:..\..\..\..\..\WORK\1N4 Transmitter\SA-100_2339_05_1N4.cydsn/sgable.c ****     /* If notifications have been requested for System.CalSpanError */
 315:..\..\..\..\..\WORK\1N4 Transmitter\SA-100_2339_05_1N4.cydsn/sgable.c ****     if( System.BleNotifyCalSpanError && ( System.CalSpanError != System.CalSpanErrorPrevious ) )
 1087              		.loc 1 315 0
 1088 0712 294B     		ldr	r3, .L27+16
 1089 0714 DB7B     		ldrb	r3, [r3, #15]
 1090 0716 002B     		cmp	r3, #0
 1091 0718 1CD0     		beq	.L17
 1092              		.loc 1 315 0 is_stmt 0 discriminator 1
 1093 071a 274B     		ldr	r3, .L27+16
 1094 071c B022     		movs	r2, #176
 1095 071e 9A5C     		ldrb	r2, [r3, r2]
 1096 0720 254B     		ldr	r3, .L27+16
 1097 0722 B121     		movs	r1, #177
 1098 0724 5B5C     		ldrb	r3, [r3, r1]
 1099 0726 9A42     		cmp	r2, r3
 1100 0728 14D0     		beq	.L17
 316:..\..\..\..\..\WORK\1N4 Transmitter\SA-100_2339_05_1N4.cydsn/sgable.c ****     {
 317:..\..\..\..\..\WORK\1N4 Transmitter\SA-100_2339_05_1N4.cydsn/sgable.c ****         CyBle_GattsNotification( cyBle_connHandle, &tempHandle );               /* Notify the clien
 1101              		.loc 1 317 0 is_stmt 1
 1102 072a 3900     		movs	r1, r7
 1103 072c 204B     		ldr	r3, .L27+8
 1104 072e 1A78     		ldrb	r2, [r3]
 1105 0730 5B78     		ldrb	r3, [r3, #1]
 1106 0732 1B02     		lsls	r3, r3, #8
 1107 0734 1A43     		orrs	r2, r3
 1108 0736 0023     		movs	r3, #0
ARM GAS  C:\Users\alexport\AppData\Local\Temp\ccr3ZDs0.s 			page 26


 1109 0738 1204     		lsls	r2, r2, #16
 1110 073a 120C     		lsrs	r2, r2, #16
 1111 073c 1B0C     		lsrs	r3, r3, #16
 1112 073e 1B04     		lsls	r3, r3, #16
 1113 0740 1343     		orrs	r3, r2
 1114 0742 1800     		movs	r0, r3
 1115 0744 FFF7FEFF 		bl	CyBle_GattsNotification
 318:..\..\..\..\..\WORK\1N4 Transmitter\SA-100_2339_05_1N4.cydsn/sgable.c ****         System.CalSpanErrorPrevious = System.CalSpanError;
 1116              		.loc 1 318 0
 1117 0748 1B4B     		ldr	r3, .L27+16
 1118 074a B022     		movs	r2, #176
 1119 074c 995C     		ldrb	r1, [r3, r2]
 1120 074e 1A4B     		ldr	r3, .L27+16
 1121 0750 B122     		movs	r2, #177
 1122 0752 9954     		strb	r1, [r3, r2]
 1123              	.L17:
 319:..\..\..\..\..\WORK\1N4 Transmitter\SA-100_2339_05_1N4.cydsn/sgable.c ****     }
 320:..\..\..\..\..\WORK\1N4 Transmitter\SA-100_2339_05_1N4.cydsn/sgable.c **** 
 321:..\..\..\..\..\WORK\1N4 Transmitter\SA-100_2339_05_1N4.cydsn/sgable.c ****     /* Update CALIBRATION_STATUS value */
 322:..\..\..\..\..\WORK\1N4 Transmitter\SA-100_2339_05_1N4.cydsn/sgable.c ****     tempHandle.attrHandle = CYBLE_SGA2_CALIBRATION_STATUS_CHAR_HANDLE;
 1124              		.loc 1 322 0
 1125 0754 3B00     		movs	r3, r7
 1126 0756 8F22     		movs	r2, #143
 1127 0758 1A81     		strh	r2, [r3, #8]
 323:..\..\..\..\..\WORK\1N4 Transmitter\SA-100_2339_05_1N4.cydsn/sgable.c ****     tempHandle.value.val = (uint8*)&System.CalibrationStatus;
 1128              		.loc 1 323 0
 1129 075a 3B00     		movs	r3, r7
 1130 075c 1F4A     		ldr	r2, .L27+52
 1131 075e 1A60     		str	r2, [r3]
 324:..\..\..\..\..\WORK\1N4 Transmitter\SA-100_2339_05_1N4.cydsn/sgable.c ****     tempHandle.value.len = 1;
 1132              		.loc 1 324 0
 1133 0760 3B00     		movs	r3, r7
 1134 0762 0122     		movs	r2, #1
 1135 0764 9A80     		strh	r2, [r3, #4]
 325:..\..\..\..\..\WORK\1N4 Transmitter\SA-100_2339_05_1N4.cydsn/sgable.c ****     CyBle_GattsWriteAttributeValue(&tempHandle,0,&cyBle_connHandle,0);
 1136              		.loc 1 325 0
 1137 0766 124A     		ldr	r2, .L27+8
 1138 0768 3800     		movs	r0, r7
 1139 076a 0023     		movs	r3, #0
 1140 076c 0021     		movs	r1, #0
 1141 076e FFF7FEFF 		bl	CyBle_GattsWriteAttributeValue
 326:..\..\..\..\..\WORK\1N4 Transmitter\SA-100_2339_05_1N4.cydsn/sgable.c ****     /* If notifications have been requested for System.CalibrationStatus */
 327:..\..\..\..\..\WORK\1N4 Transmitter\SA-100_2339_05_1N4.cydsn/sgable.c ****     if( System.BleNotifyCalibrationStatus && ( System.CalibrationStatus != System.CalibrationStatus
 1142              		.loc 1 327 0
 1143 0772 114B     		ldr	r3, .L27+16
 1144 0774 5B7C     		ldrb	r3, [r3, #17]
 1145 0776 002B     		cmp	r3, #0
 1146 0778 3AD0     		beq	.L18
 1147              		.loc 1 327 0 is_stmt 0 discriminator 1
 1148 077a 0F4B     		ldr	r3, .L27+16
 1149 077c 9E22     		movs	r2, #158
 1150 077e 9A5C     		ldrb	r2, [r3, r2]
 1151 0780 0D4B     		ldr	r3, .L27+16
 1152 0782 9F21     		movs	r1, #159
 1153 0784 5B5C     		ldrb	r3, [r3, r1]
 1154 0786 9A42     		cmp	r2, r3
 1155 0788 32D0     		beq	.L18
ARM GAS  C:\Users\alexport\AppData\Local\Temp\ccr3ZDs0.s 			page 27


 328:..\..\..\..\..\WORK\1N4 Transmitter\SA-100_2339_05_1N4.cydsn/sgable.c ****     {
 329:..\..\..\..\..\WORK\1N4 Transmitter\SA-100_2339_05_1N4.cydsn/sgable.c ****         CyBle_GattsNotification( cyBle_connHandle, &tempHandle );               /* Notify the clien
 1156              		.loc 1 329 0 is_stmt 1
 1157 078a 3900     		movs	r1, r7
 1158 078c 084B     		ldr	r3, .L27+8
 1159 078e 1A78     		ldrb	r2, [r3]
 1160 0790 5B78     		ldrb	r3, [r3, #1]
 1161 0792 1B02     		lsls	r3, r3, #8
 1162 0794 1A43     		orrs	r2, r3
 1163 0796 0023     		movs	r3, #0
 1164 0798 1204     		lsls	r2, r2, #16
 1165 079a 120C     		lsrs	r2, r2, #16
 1166 079c 1B0C     		lsrs	r3, r3, #16
 1167 079e 1B04     		lsls	r3, r3, #16
 1168 07a0 1343     		orrs	r3, r2
 1169 07a2 1800     		movs	r0, r3
 1170 07a4 1CE0     		b	.L28
 1171              	.L29:
 1172 07a6 C046     		.align	2
 1173              	.L27:
 1174 07a8 00000000 		.word	Sensor
 1175 07ac A0000000 		.word	System+160
 1176 07b0 00000000 		.word	cyBle_connHandle
 1177 07b4 A2000000 		.word	System+162
 1178 07b8 00000000 		.word	System
 1179 07bc A4000000 		.word	System+164
 1180 07c0 A6000000 		.word	System+166
 1181 07c4 9A000000 		.word	System+154
 1182 07c8 9C000000 		.word	System+156
 1183 07cc AA000000 		.word	System+170
 1184 07d0 28000000 		.word	Sensor+40
 1185 07d4 AC000000 		.word	System+172
 1186 07d8 B0000000 		.word	System+176
 1187 07dc 9E000000 		.word	System+158
 1188              	.L28:
 1189 07e0 FFF7FEFF 		bl	CyBle_GattsNotification
 330:..\..\..\..\..\WORK\1N4 Transmitter\SA-100_2339_05_1N4.cydsn/sgable.c ****         System.CalibrationStatusPrevious = System.CalibrationStatus;
 1190              		.loc 1 330 0
 1191 07e4 3D4B     		ldr	r3, .L30
 1192 07e6 9E22     		movs	r2, #158
 1193 07e8 995C     		ldrb	r1, [r3, r2]
 1194 07ea 3C4B     		ldr	r3, .L30
 1195 07ec 9F22     		movs	r2, #159
 1196 07ee 9954     		strb	r1, [r3, r2]
 1197              	.L18:
 331:..\..\..\..\..\WORK\1N4 Transmitter\SA-100_2339_05_1N4.cydsn/sgable.c ****     }
 332:..\..\..\..\..\WORK\1N4 Transmitter\SA-100_2339_05_1N4.cydsn/sgable.c ****     /* Update READING_SCALED value */
 333:..\..\..\..\..\WORK\1N4 Transmitter\SA-100_2339_05_1N4.cydsn/sgable.c ****     ReadingCast = (int16)Sensor.ReadingScaled;
 1198              		.loc 1 333 0
 1199 07f0 3B4B     		ldr	r3, .L30+4
 1200 07f2 1B6A     		ldr	r3, [r3, #32]
 1201 07f4 0E22     		movs	r2, #14
 1202 07f6 BC18     		adds	r4, r7, r2
 1203 07f8 181C     		adds	r0, r3, #0
 1204 07fa FFF7FEFF 		bl	__aeabi_f2iz
 1205 07fe 0300     		movs	r3, r0
 1206 0800 2380     		strh	r3, [r4]
ARM GAS  C:\Users\alexport\AppData\Local\Temp\ccr3ZDs0.s 			page 28


 334:..\..\..\..\..\WORK\1N4 Transmitter\SA-100_2339_05_1N4.cydsn/sgable.c ****     Sensor.ReadingScaled = (float)ReadingCast;
 1207              		.loc 1 334 0
 1208 0802 0E23     		movs	r3, #14
 1209 0804 FB18     		adds	r3, r7, r3
 1210 0806 0022     		movs	r2, #0
 1211 0808 9B5E     		ldrsh	r3, [r3, r2]
 1212 080a 1800     		movs	r0, r3
 1213 080c FFF7FEFF 		bl	__aeabi_i2f
 1214 0810 021C     		adds	r2, r0, #0
 1215 0812 334B     		ldr	r3, .L30+4
 1216 0814 1A62     		str	r2, [r3, #32]
 335:..\..\..\..\..\WORK\1N4 Transmitter\SA-100_2339_05_1N4.cydsn/sgable.c ****     tempHandle.attrHandle = CYBLE_SGA2_READING_SCALED_CHAR_HANDLE;
 1217              		.loc 1 335 0
 1218 0816 3B00     		movs	r3, r7
 1219 0818 9322     		movs	r2, #147
 1220 081a 1A81     		strh	r2, [r3, #8]
 336:..\..\..\..\..\WORK\1N4 Transmitter\SA-100_2339_05_1N4.cydsn/sgable.c ****     tempHandle.value.val = (uint8*)&Sensor.ReadingScaled;
 1221              		.loc 1 336 0
 1222 081c 3B00     		movs	r3, r7
 1223 081e 314A     		ldr	r2, .L30+8
 1224 0820 1A60     		str	r2, [r3]
 337:..\..\..\..\..\WORK\1N4 Transmitter\SA-100_2339_05_1N4.cydsn/sgable.c ****     tempHandle.value.len = 4;
 1225              		.loc 1 337 0
 1226 0822 3B00     		movs	r3, r7
 1227 0824 0422     		movs	r2, #4
 1228 0826 9A80     		strh	r2, [r3, #4]
 338:..\..\..\..\..\WORK\1N4 Transmitter\SA-100_2339_05_1N4.cydsn/sgable.c ****     CyBle_GattsWriteAttributeValue(&tempHandle,0,&cyBle_connHandle,0);
 1229              		.loc 1 338 0
 1230 0828 2F4A     		ldr	r2, .L30+12
 1231 082a 3800     		movs	r0, r7
 1232 082c 0023     		movs	r3, #0
 1233 082e 0021     		movs	r1, #0
 1234 0830 FFF7FEFF 		bl	CyBle_GattsWriteAttributeValue
 339:..\..\..\..\..\WORK\1N4 Transmitter\SA-100_2339_05_1N4.cydsn/sgable.c ****     /* If notifications have been requested for Sensor.ReadingScaled */
 340:..\..\..\..\..\WORK\1N4 Transmitter\SA-100_2339_05_1N4.cydsn/sgable.c ****     if( System.BleNotifyReadingScaled && ( Sensor.ReadingScaled != Sensor.ReadingScaledPrevious ) )
 1235              		.loc 1 340 0
 1236 0834 294B     		ldr	r3, .L30
 1237 0836 1B7C     		ldrb	r3, [r3, #16]
 1238 0838 002B     		cmp	r3, #0
 1239 083a 1CD0     		beq	.L19
 1240              		.loc 1 340 0 is_stmt 0 discriminator 1
 1241 083c 284B     		ldr	r3, .L30+4
 1242 083e 1A6A     		ldr	r2, [r3, #32]
 1243 0840 274B     		ldr	r3, .L30+4
 1244 0842 5B6A     		ldr	r3, [r3, #36]
 1245 0844 191C     		adds	r1, r3, #0
 1246 0846 101C     		adds	r0, r2, #0
 1247 0848 FFF7FEFF 		bl	__aeabi_fcmpeq
 1248 084c 031E     		subs	r3, r0, #0
 1249 084e 12D1     		bne	.L19
 341:..\..\..\..\..\WORK\1N4 Transmitter\SA-100_2339_05_1N4.cydsn/sgable.c ****     {
 342:..\..\..\..\..\WORK\1N4 Transmitter\SA-100_2339_05_1N4.cydsn/sgable.c ****         CyBle_GattsNotification( cyBle_connHandle, &tempHandle );               /* Notify the clien
 1250              		.loc 1 342 0 is_stmt 1
 1251 0850 3900     		movs	r1, r7
 1252 0852 254B     		ldr	r3, .L30+12
 1253 0854 1A78     		ldrb	r2, [r3]
 1254 0856 5B78     		ldrb	r3, [r3, #1]
ARM GAS  C:\Users\alexport\AppData\Local\Temp\ccr3ZDs0.s 			page 29


 1255 0858 1B02     		lsls	r3, r3, #8
 1256 085a 1A43     		orrs	r2, r3
 1257 085c 0023     		movs	r3, #0
 1258 085e 1204     		lsls	r2, r2, #16
 1259 0860 120C     		lsrs	r2, r2, #16
 1260 0862 1B0C     		lsrs	r3, r3, #16
 1261 0864 1B04     		lsls	r3, r3, #16
 1262 0866 1343     		orrs	r3, r2
 1263 0868 1800     		movs	r0, r3
 1264 086a FFF7FEFF 		bl	CyBle_GattsNotification
 343:..\..\..\..\..\WORK\1N4 Transmitter\SA-100_2339_05_1N4.cydsn/sgable.c ****         Sensor.ReadingScaledPrevious = Sensor.ReadingScaled;
 1265              		.loc 1 343 0
 1266 086e 1C4B     		ldr	r3, .L30+4
 1267 0870 1A6A     		ldr	r2, [r3, #32]
 1268 0872 1B4B     		ldr	r3, .L30+4
 1269 0874 5A62     		str	r2, [r3, #36]
 1270              	.L19:
 344:..\..\..\..\..\WORK\1N4 Transmitter\SA-100_2339_05_1N4.cydsn/sgable.c ****     }
 345:..\..\..\..\..\WORK\1N4 Transmitter\SA-100_2339_05_1N4.cydsn/sgable.c **** 
 346:..\..\..\..\..\WORK\1N4 Transmitter\SA-100_2339_05_1N4.cydsn/sgable.c ****     /* Update ALERT_STATUS value */
 347:..\..\..\..\..\WORK\1N4 Transmitter\SA-100_2339_05_1N4.cydsn/sgable.c ****     tempHandle.attrHandle = CYBLE_SGA2_ALERT_STATUS_CHAR_HANDLE;
 1271              		.loc 1 347 0
 1272 0876 3B00     		movs	r3, r7
 1273 0878 9722     		movs	r2, #151
 1274 087a 1A81     		strh	r2, [r3, #8]
 348:..\..\..\..\..\WORK\1N4 Transmitter\SA-100_2339_05_1N4.cydsn/sgable.c ****     tempHandle.value.val = (uint8*)&System.AlertStatus;
 1275              		.loc 1 348 0
 1276 087c 3B00     		movs	r3, r7
 1277 087e 1B4A     		ldr	r2, .L30+16
 1278 0880 1A60     		str	r2, [r3]
 349:..\..\..\..\..\WORK\1N4 Transmitter\SA-100_2339_05_1N4.cydsn/sgable.c ****     tempHandle.value.len = 1;
 1279              		.loc 1 349 0
 1280 0882 3B00     		movs	r3, r7
 1281 0884 0122     		movs	r2, #1
 1282 0886 9A80     		strh	r2, [r3, #4]
 350:..\..\..\..\..\WORK\1N4 Transmitter\SA-100_2339_05_1N4.cydsn/sgable.c ****     CyBle_GattsWriteAttributeValue(&tempHandle,0,&cyBle_connHandle,0);
 1283              		.loc 1 350 0
 1284 0888 174A     		ldr	r2, .L30+12
 1285 088a 3800     		movs	r0, r7
 1286 088c 0023     		movs	r3, #0
 1287 088e 0021     		movs	r1, #0
 1288 0890 FFF7FEFF 		bl	CyBle_GattsWriteAttributeValue
 351:..\..\..\..\..\WORK\1N4 Transmitter\SA-100_2339_05_1N4.cydsn/sgable.c ****     /* If notifications have been requested for System.AlertStatus */
 352:..\..\..\..\..\WORK\1N4 Transmitter\SA-100_2339_05_1N4.cydsn/sgable.c ****     if( System.BleNotifyAlertStatus && ( System.AlertStatus != System.AlertStatusPrevious ) )
 1289              		.loc 1 352 0
 1290 0894 114B     		ldr	r3, .L30
 1291 0896 1B79     		ldrb	r3, [r3, #4]
 1292 0898 002B     		cmp	r3, #0
 1293 089a 1CD0     		beq	.L1
 1294              		.loc 1 352 0 is_stmt 0 discriminator 1
 1295 089c 0F4B     		ldr	r3, .L30
 1296 089e 9A7F     		ldrb	r2, [r3, #30]
 1297 08a0 0E4B     		ldr	r3, .L30
 1298 08a2 2021     		movs	r1, #32
 1299 08a4 5B5C     		ldrb	r3, [r3, r1]
 1300 08a6 9A42     		cmp	r2, r3
 1301 08a8 15D0     		beq	.L1
ARM GAS  C:\Users\alexport\AppData\Local\Temp\ccr3ZDs0.s 			page 30


 353:..\..\..\..\..\WORK\1N4 Transmitter\SA-100_2339_05_1N4.cydsn/sgable.c ****     {
 354:..\..\..\..\..\WORK\1N4 Transmitter\SA-100_2339_05_1N4.cydsn/sgable.c ****         CyBle_GattsNotification( cyBle_connHandle, &tempHandle );               /* Notify the clien
 1302              		.loc 1 354 0 is_stmt 1
 1303 08aa 3900     		movs	r1, r7
 1304 08ac 0E4B     		ldr	r3, .L30+12
 1305 08ae 1A78     		ldrb	r2, [r3]
 1306 08b0 5B78     		ldrb	r3, [r3, #1]
 1307 08b2 1B02     		lsls	r3, r3, #8
 1308 08b4 1A43     		orrs	r2, r3
 1309 08b6 0023     		movs	r3, #0
 1310 08b8 1204     		lsls	r2, r2, #16
 1311 08ba 120C     		lsrs	r2, r2, #16
 1312 08bc 1B0C     		lsrs	r3, r3, #16
 1313 08be 1B04     		lsls	r3, r3, #16
 1314 08c0 1343     		orrs	r3, r2
 1315 08c2 1800     		movs	r0, r3
 1316 08c4 FFF7FEFF 		bl	CyBle_GattsNotification
 355:..\..\..\..\..\WORK\1N4 Transmitter\SA-100_2339_05_1N4.cydsn/sgable.c ****         System.AlertStatusPrevious = System.AlertStatus;
 1317              		.loc 1 355 0
 1318 08c8 044B     		ldr	r3, .L30
 1319 08ca 997F     		ldrb	r1, [r3, #30]
 1320 08cc 034B     		ldr	r3, .L30
 1321 08ce 2022     		movs	r2, #32
 1322 08d0 9954     		strb	r1, [r3, r2]
 1323 08d2 00E0     		b	.L1
 1324              	.L23:
  49:..\..\..\..\..\WORK\1N4 Transmitter\SA-100_2339_05_1N4.cydsn/sgable.c **** 
 1325              		.loc 1 49 0
 1326 08d4 C046     		nop
 1327              	.L1:
 356:..\..\..\..\..\WORK\1N4 Transmitter\SA-100_2339_05_1N4.cydsn/sgable.c ****     }
 357:..\..\..\..\..\WORK\1N4 Transmitter\SA-100_2339_05_1N4.cydsn/sgable.c **** 
 358:..\..\..\..\..\WORK\1N4 Transmitter\SA-100_2339_05_1N4.cydsn/sgable.c **** }
 1328              		.loc 1 358 0
 1329 08d6 BD46     		mov	sp, r7
 1330 08d8 05B0     		add	sp, sp, #20
 1331              		@ sp needed
 1332 08da 90BD     		pop	{r4, r7, pc}
 1333              	.L31:
 1334              		.align	2
 1335              	.L30:
 1336 08dc 00000000 		.word	System
 1337 08e0 00000000 		.word	Sensor
 1338 08e4 20000000 		.word	Sensor+32
 1339 08e8 00000000 		.word	cyBle_connHandle
 1340 08ec 1E000000 		.word	System+30
 1341              		.cfi_endproc
 1342              	.LFE35:
 1343              		.size	updateOurBleData, .-updateOurBleData
 1344              		.section	.text.Stack_Handler,"ax",%progbits
 1345              		.align	2
 1346              		.global	Stack_Handler
 1347              		.code	16
 1348              		.thumb_func
 1349              		.type	Stack_Handler, %function
 1350              	Stack_Handler:
 1351              	.LFB36:
ARM GAS  C:\Users\alexport\AppData\Local\Temp\ccr3ZDs0.s 			page 31


 359:..\..\..\..\..\WORK\1N4 Transmitter\SA-100_2339_05_1N4.cydsn/sgable.c **** 
 360:..\..\..\..\..\WORK\1N4 Transmitter\SA-100_2339_05_1N4.cydsn/sgable.c **** /*******************************************************************************
 361:..\..\..\..\..\WORK\1N4 Transmitter\SA-100_2339_05_1N4.cydsn/sgable.c **** * Function Name: Stack_Handler
 362:..\..\..\..\..\WORK\1N4 Transmitter\SA-100_2339_05_1N4.cydsn/sgable.c **** ********************************************************************************
 363:..\..\..\..\..\WORK\1N4 Transmitter\SA-100_2339_05_1N4.cydsn/sgable.c **** * Summary:
 364:..\..\..\..\..\WORK\1N4 Transmitter\SA-100_2339_05_1N4.cydsn/sgable.c **** *  Stack handler for BLE communications.
 365:..\..\..\..\..\WORK\1N4 Transmitter\SA-100_2339_05_1N4.cydsn/sgable.c **** * 
 366:..\..\..\..\..\WORK\1N4 Transmitter\SA-100_2339_05_1N4.cydsn/sgable.c **** * Parameters:
 367:..\..\..\..\..\WORK\1N4 Transmitter\SA-100_2339_05_1N4.cydsn/sgable.c **** *  eventCode
 368:..\..\..\..\..\WORK\1N4 Transmitter\SA-100_2339_05_1N4.cydsn/sgable.c **** *  eventParam
 369:..\..\..\..\..\WORK\1N4 Transmitter\SA-100_2339_05_1N4.cydsn/sgable.c **** *
 370:..\..\..\..\..\WORK\1N4 Transmitter\SA-100_2339_05_1N4.cydsn/sgable.c **** * Return:
 371:..\..\..\..\..\WORK\1N4 Transmitter\SA-100_2339_05_1N4.cydsn/sgable.c **** *  None
 372:..\..\..\..\..\WORK\1N4 Transmitter\SA-100_2339_05_1N4.cydsn/sgable.c **** *
 373:..\..\..\..\..\WORK\1N4 Transmitter\SA-100_2339_05_1N4.cydsn/sgable.c **** *******************************************************************************/
 374:..\..\..\..\..\WORK\1N4 Transmitter\SA-100_2339_05_1N4.cydsn/sgable.c **** void Stack_Handler( uint32 eventCode, void *eventParam )
 375:..\..\..\..\..\WORK\1N4 Transmitter\SA-100_2339_05_1N4.cydsn/sgable.c **** {
 1352              		.loc 1 375 0
 1353              		.cfi_startproc
 1354              		@ args = 0, pretend = 0, frame = 16
 1355              		@ frame_needed = 1, uses_anonymous_args = 0
 1356 0000 80B5     		push	{r7, lr}
 1357              		.cfi_def_cfa_offset 8
 1358              		.cfi_offset 7, -8
 1359              		.cfi_offset 14, -4
 1360 0002 84B0     		sub	sp, sp, #16
 1361              		.cfi_def_cfa_offset 24
 1362 0004 00AF     		add	r7, sp, #0
 1363              		.cfi_def_cfa_register 7
 1364 0006 7860     		str	r0, [r7, #4]
 1365 0008 3960     		str	r1, [r7]
 376:..\..\..\..\..\WORK\1N4 Transmitter\SA-100_2339_05_1N4.cydsn/sgable.c ****     CYBLE_GATTS_WRITE_REQ_PARAM_T *wrReqParam;    
 377:..\..\..\..\..\WORK\1N4 Transmitter\SA-100_2339_05_1N4.cydsn/sgable.c **** 
 378:..\..\..\..\..\WORK\1N4 Transmitter\SA-100_2339_05_1N4.cydsn/sgable.c ****     switch( eventCode )                                                         /* Handle any BLE e
 1366              		.loc 1 378 0
 1367 000a 7B68     		ldr	r3, [r7, #4]
 1368 000c 282B     		cmp	r3, #40
 1369 000e 16D0     		beq	.L34
 1370 0010 03D8     		bhi	.L35
 1371 0012 012B     		cmp	r3, #1
 1372 0014 07D0     		beq	.L36
 379:..\..\..\..\..\WORK\1N4 Transmitter\SA-100_2339_05_1N4.cydsn/sgable.c ****     {
 380:..\..\..\..\..\WORK\1N4 Transmitter\SA-100_2339_05_1N4.cydsn/sgable.c ****         case CYBLE_EVT_STACK_ON:                                                /* Handle BLE stack
 381:..\..\..\..\..\WORK\1N4 Transmitter\SA-100_2339_05_1N4.cydsn/sgable.c ****             /* Mandatory events to be handled by BLE application code */
 382:..\..\..\..\..\WORK\1N4 Transmitter\SA-100_2339_05_1N4.cydsn/sgable.c ****             /* Enable the Skyworks SE2438T PA/LNA */
 383:..\..\..\..\..\WORK\1N4 Transmitter\SA-100_2339_05_1N4.cydsn/sgable.c ****             CSD_Write(1);
 384:..\..\..\..\..\WORK\1N4 Transmitter\SA-100_2339_05_1N4.cydsn/sgable.c ****             CPS_Write(1);
 385:..\..\..\..\..\WORK\1N4 Transmitter\SA-100_2339_05_1N4.cydsn/sgable.c ****             /* Configure the Link Layer to automatically switch PA control pin P3[2] and LNA contro
 386:..\..\..\..\..\WORK\1N4 Transmitter\SA-100_2339_05_1N4.cydsn/sgable.c ****             CY_SET_XTND_REG32((void CYFAR *)(CYREG_BLE_BLESS_RF_CONFIG), 0x0331);
 387:..\..\..\..\..\WORK\1N4 Transmitter\SA-100_2339_05_1N4.cydsn/sgable.c ****             CY_SET_XTND_REG32((void CYFAR *)(CYREG_SRSS_TST_DDFT_CTRL), 0x80000302);
 388:..\..\..\..\..\WORK\1N4 Transmitter\SA-100_2339_05_1N4.cydsn/sgable.c ****         case CYBLE_EVT_GAP_DEVICE_DISCONNECTED:                                 /* Handle BLE disco
 389:..\..\..\..\..\WORK\1N4 Transmitter\SA-100_2339_05_1N4.cydsn/sgable.c ****             CyBle_GappStartAdvertisement( CYBLE_ADVERTISING_FAST );             /* Start advertisin
 390:..\..\..\..\..\WORK\1N4 Transmitter\SA-100_2339_05_1N4.cydsn/sgable.c ****             if( System.BleInAuxCalState == TRUE ) System.BleControl = 0;        /* In loop cal or o
 391:..\..\..\..\..\WORK\1N4 Transmitter\SA-100_2339_05_1N4.cydsn/sgable.c ****             break;
 392:..\..\..\..\..\WORK\1N4 Transmitter\SA-100_2339_05_1N4.cydsn/sgable.c ****         case CYBLE_EVT_GATT_CONNECT_IND:                                        /* Handle BLE conne
 393:..\..\..\..\..\WORK\1N4 Transmitter\SA-100_2339_05_1N4.cydsn/sgable.c ****             updateOurBleData();                                                 /* Update the GATT 
 394:..\..\..\..\..\WORK\1N4 Transmitter\SA-100_2339_05_1N4.cydsn/sgable.c ****             break;
ARM GAS  C:\Users\alexport\AppData\Local\Temp\ccr3ZDs0.s 			page 32


 395:..\..\..\..\..\WORK\1N4 Transmitter\SA-100_2339_05_1N4.cydsn/sgable.c ****         case CYBLE_EVT_GATTS_WRITE_REQ:                                           /* Handle a write
 396:..\..\..\..\..\WORK\1N4 Transmitter\SA-100_2339_05_1N4.cydsn/sgable.c ****             wrReqParam = (CYBLE_GATTS_WRITE_REQ_PARAM_T *) eventParam;          /* Get the attribut
 397:..\..\..\..\..\WORK\1N4 Transmitter\SA-100_2339_05_1N4.cydsn/sgable.c **** 
 398:..\..\..\..\..\WORK\1N4 Transmitter\SA-100_2339_05_1N4.cydsn/sgable.c ****             /* Requests to write variables */
 399:..\..\..\..\..\WORK\1N4 Transmitter\SA-100_2339_05_1N4.cydsn/sgable.c ****             /* It's our sgaBleRemote variable */            
 400:..\..\..\..\..\WORK\1N4 Transmitter\SA-100_2339_05_1N4.cydsn/sgable.c ****             if(wrReqParam->handleValPair.attrHandle == CYBLE_SGA1_SYS_REMOTE_CHAR_HANDLE)
 401:..\..\..\..\..\WORK\1N4 Transmitter\SA-100_2339_05_1N4.cydsn/sgable.c ****             {
 402:..\..\..\..\..\WORK\1N4 Transmitter\SA-100_2339_05_1N4.cydsn/sgable.c ****                 /* Only update and respond if the write to the GATT Database is allowed */
 403:..\..\..\..\..\WORK\1N4 Transmitter\SA-100_2339_05_1N4.cydsn/sgable.c ****                 if(CYBLE_GATT_ERR_NONE == CyBle_GattsWriteAttributeValue(&wrReqParam->handleValPair
 404:..\..\..\..\..\WORK\1N4 Transmitter\SA-100_2339_05_1N4.cydsn/sgable.c ****                 {
 405:..\..\..\..\..\WORK\1N4 Transmitter\SA-100_2339_05_1N4.cydsn/sgable.c ****                     System.BleControl = wrReqParam->handleValPair.value.val[0];      /* Update our 
 406:..\..\..\..\..\WORK\1N4 Transmitter\SA-100_2339_05_1N4.cydsn/sgable.c ****                     CyBle_GattsWriteRsp(cyBle_connHandle);                      /* respond to the c
 407:..\..\..\..\..\WORK\1N4 Transmitter\SA-100_2339_05_1N4.cydsn/sgable.c ****                 }
 408:..\..\..\..\..\WORK\1N4 Transmitter\SA-100_2339_05_1N4.cydsn/sgable.c ****             }
 409:..\..\..\..\..\WORK\1N4 Transmitter\SA-100_2339_05_1N4.cydsn/sgable.c ****             /* It's our CAN Node ID variable */            
 410:..\..\..\..\..\WORK\1N4 Transmitter\SA-100_2339_05_1N4.cydsn/sgable.c ****             if(wrReqParam->handleValPair.attrHandle == CYBLE_SGA1_SYS_CAN_ID_CHAR_HANDLE)
 411:..\..\..\..\..\WORK\1N4 Transmitter\SA-100_2339_05_1N4.cydsn/sgable.c ****             {
 412:..\..\..\..\..\WORK\1N4 Transmitter\SA-100_2339_05_1N4.cydsn/sgable.c ****                 /* Only update and respond if the write to the GATT Database is allowed */
 413:..\..\..\..\..\WORK\1N4 Transmitter\SA-100_2339_05_1N4.cydsn/sgable.c ****                 if(CYBLE_GATT_ERR_NONE == CyBle_GattsWriteAttributeValue(&wrReqParam->handleValPair
 414:..\..\..\..\..\WORK\1N4 Transmitter\SA-100_2339_05_1N4.cydsn/sgable.c ****                 {
 415:..\..\..\..\..\WORK\1N4 Transmitter\SA-100_2339_05_1N4.cydsn/sgable.c ****                     System.CanNodeId = wrReqParam->handleValPair.value.val[0];  /* Update our local
 416:..\..\..\..\..\WORK\1N4 Transmitter\SA-100_2339_05_1N4.cydsn/sgable.c ****                     CyBle_GattsWriteRsp(cyBle_connHandle);                      /* respond to the c
 417:..\..\..\..\..\WORK\1N4 Transmitter\SA-100_2339_05_1N4.cydsn/sgable.c ****                     //FM24VN10_Write_8( SYS_I2C_FRAM_ADDR_B0, SYS_EE8_CAN_NODE_ID, System.CanNodeId
 418:..\..\..\..\..\WORK\1N4 Transmitter\SA-100_2339_05_1N4.cydsn/sgable.c ****                     //if( SA100_I2C_INSTALLED ) SA100I2C_Write_8( SA100_CEC_I2C_ADDR, SA100_I2C_Can
 419:..\..\..\..\..\WORK\1N4 Transmitter\SA-100_2339_05_1N4.cydsn/sgable.c ****                     //SA100CEC_Write_8( CEC_OD_SYS_U8_CANNodeID, 0, System.CanNodeId );
 420:..\..\..\..\..\WORK\1N4 Transmitter\SA-100_2339_05_1N4.cydsn/sgable.c ****                     //SA100CEC_Reset( CEC_RESET_COMMS );
 421:..\..\..\..\..\WORK\1N4 Transmitter\SA-100_2339_05_1N4.cydsn/sgable.c ****                 }
 422:..\..\..\..\..\WORK\1N4 Transmitter\SA-100_2339_05_1N4.cydsn/sgable.c ****             }
 423:..\..\..\..\..\WORK\1N4 Transmitter\SA-100_2339_05_1N4.cydsn/sgable.c ****             /* It's our CAN Channel variable */            
 424:..\..\..\..\..\WORK\1N4 Transmitter\SA-100_2339_05_1N4.cydsn/sgable.c ****             if(wrReqParam->handleValPair.attrHandle == CYBLE_SGA1_SYS_CAN_CHAN_CHAR_HANDLE)
 425:..\..\..\..\..\WORK\1N4 Transmitter\SA-100_2339_05_1N4.cydsn/sgable.c ****             {
 426:..\..\..\..\..\WORK\1N4 Transmitter\SA-100_2339_05_1N4.cydsn/sgable.c ****                 /* Only update and respond if the write to the GATT Database is allowed */
 427:..\..\..\..\..\WORK\1N4 Transmitter\SA-100_2339_05_1N4.cydsn/sgable.c ****                 if(CYBLE_GATT_ERR_NONE == CyBle_GattsWriteAttributeValue(&wrReqParam->handleValPair
 428:..\..\..\..\..\WORK\1N4 Transmitter\SA-100_2339_05_1N4.cydsn/sgable.c ****                 {
 429:..\..\..\..\..\WORK\1N4 Transmitter\SA-100_2339_05_1N4.cydsn/sgable.c ****                     System.CanChannel = wrReqParam->handleValPair.value.val[0];  /* Update our loca
 430:..\..\..\..\..\WORK\1N4 Transmitter\SA-100_2339_05_1N4.cydsn/sgable.c ****                     CyBle_GattsWriteRsp(cyBle_connHandle);                      /* respond to the c
 431:..\..\..\..\..\WORK\1N4 Transmitter\SA-100_2339_05_1N4.cydsn/sgable.c ****                     //FM24VN10_Write_8( SYS_I2C_FRAM_ADDR_B0, SYS_EE8_CAN_CHANNEL, System.CanChanne
 432:..\..\..\..\..\WORK\1N4 Transmitter\SA-100_2339_05_1N4.cydsn/sgable.c ****                     //if( SA100_I2C_INSTALLED ) SA100I2C_Write_8( SA100_CEC_I2C_ADDR, SA100_I2C_Can
 433:..\..\..\..\..\WORK\1N4 Transmitter\SA-100_2339_05_1N4.cydsn/sgable.c ****                     //SA100CEC_Write_8( CEC_OD_SYS_U8_channel, 0, System.CanChannel );
 434:..\..\..\..\..\WORK\1N4 Transmitter\SA-100_2339_05_1N4.cydsn/sgable.c ****                     //SA100CEC_Reset( CEC_RESET_COMMS );
 435:..\..\..\..\..\WORK\1N4 Transmitter\SA-100_2339_05_1N4.cydsn/sgable.c ****                 }
 436:..\..\..\..\..\WORK\1N4 Transmitter\SA-100_2339_05_1N4.cydsn/sgable.c ****             }
 437:..\..\..\..\..\WORK\1N4 Transmitter\SA-100_2339_05_1N4.cydsn/sgable.c ****             /* It's our ALERT_1 variable */            
 438:..\..\..\..\..\WORK\1N4 Transmitter\SA-100_2339_05_1N4.cydsn/sgable.c ****             if(wrReqParam->handleValPair.attrHandle == CYBLE_SGA1_SYS_ALERT_1_CHAR_HANDLE)
 439:..\..\..\..\..\WORK\1N4 Transmitter\SA-100_2339_05_1N4.cydsn/sgable.c ****             {
 440:..\..\..\..\..\WORK\1N4 Transmitter\SA-100_2339_05_1N4.cydsn/sgable.c ****                 /* Only update and respond if the write to the GATT Database is allowed */
 441:..\..\..\..\..\WORK\1N4 Transmitter\SA-100_2339_05_1N4.cydsn/sgable.c ****                 if(CYBLE_GATT_ERR_NONE == CyBle_GattsWriteAttributeValue(&wrReqParam->handleValPair
 442:..\..\..\..\..\WORK\1N4 Transmitter\SA-100_2339_05_1N4.cydsn/sgable.c ****                 {
 443:..\..\..\..\..\WORK\1N4 Transmitter\SA-100_2339_05_1N4.cydsn/sgable.c ****                     Sensor.Alert1 = wrReqParam->handleValPair.value.val[1];  /* Update our local co
 444:..\..\..\..\..\WORK\1N4 Transmitter\SA-100_2339_05_1N4.cydsn/sgable.c ****                     Sensor.Alert1 <<=8;
 445:..\..\..\..\..\WORK\1N4 Transmitter\SA-100_2339_05_1N4.cydsn/sgable.c ****                     Sensor.Alert1 |= wrReqParam->handleValPair.value.val[0];  /* Update our local c
 446:..\..\..\..\..\WORK\1N4 Transmitter\SA-100_2339_05_1N4.cydsn/sgable.c ****                     CyBle_GattsWriteRsp(cyBle_connHandle);                      /* respond to the c
 447:..\..\..\..\..\WORK\1N4 Transmitter\SA-100_2339_05_1N4.cydsn/sgable.c ****                     //if( SA100_I2C_INSTALLED ) SA100I2C_Write_8( SA100_CEC_I2C_ADDR, SA100_I2C_Ale
 448:..\..\..\..\..\WORK\1N4 Transmitter\SA-100_2339_05_1N4.cydsn/sgable.c ****                     //SA100CEC_Write_16( CEC_OD_ALL_U16_alert1, 0, Sensor.Alert1 );
 449:..\..\..\..\..\WORK\1N4 Transmitter\SA-100_2339_05_1N4.cydsn/sgable.c ****                     switch( Sensor.Type )
 450:..\..\..\..\..\WORK\1N4 Transmitter\SA-100_2339_05_1N4.cydsn/sgable.c ****                     {
 451:..\..\..\..\..\WORK\1N4 Transmitter\SA-100_2339_05_1N4.cydsn/sgable.c ****                         case SENSOR_TYPE_CBEAD:
ARM GAS  C:\Users\alexport\AppData\Local\Temp\ccr3ZDs0.s 			page 33


 452:..\..\..\..\..\WORK\1N4 Transmitter\SA-100_2339_05_1N4.cydsn/sgable.c ****                            // AT24CS01_Write_16( CBEAD_I2C_EEPROM_ADDR, CBEAD_EE16_FACT_ALERT_1, Se
 453:..\..\..\..\..\WORK\1N4 Transmitter\SA-100_2339_05_1N4.cydsn/sgable.c ****                         break;
 454:..\..\..\..\..\WORK\1N4 Transmitter\SA-100_2339_05_1N4.cydsn/sgable.c ****                         case SENSOR_TYPE_ECHEM:
 455:..\..\..\..\..\WORK\1N4 Transmitter\SA-100_2339_05_1N4.cydsn/sgable.c ****                             //AT24CS01_Write_16( ECHEM_I2C_EEPROM_ADDR, ECHEM_EE16_FACT_ALERT_1, Se
 456:..\..\..\..\..\WORK\1N4 Transmitter\SA-100_2339_05_1N4.cydsn/sgable.c ****                         break;
 457:..\..\..\..\..\WORK\1N4 Transmitter\SA-100_2339_05_1N4.cydsn/sgable.c ****                         case SENSOR_TYPE_IR:
 458:..\..\..\..\..\WORK\1N4 Transmitter\SA-100_2339_05_1N4.cydsn/sgable.c **** //                            if( SysPingI2cSlave( IR_I2C_EEPROM_ADDR ) == 0 )
 459:..\..\..\..\..\WORK\1N4 Transmitter\SA-100_2339_05_1N4.cydsn/sgable.c **** //                            {
 460:..\..\..\..\..\WORK\1N4 Transmitter\SA-100_2339_05_1N4.cydsn/sgable.c **** //                                AT24CS01_Write_16( IR_I2C_EEPROM_ADDR, IR_EE16_FACT_ALERT_1, Sens
 461:..\..\..\..\..\WORK\1N4 Transmitter\SA-100_2339_05_1N4.cydsn/sgable.c **** //                            }
 462:..\..\..\..\..\WORK\1N4 Transmitter\SA-100_2339_05_1N4.cydsn/sgable.c ****                             break;
 463:..\..\..\..\..\WORK\1N4 Transmitter\SA-100_2339_05_1N4.cydsn/sgable.c ****                         default:
 464:..\..\..\..\..\WORK\1N4 Transmitter\SA-100_2339_05_1N4.cydsn/sgable.c ****                         break;
 465:..\..\..\..\..\WORK\1N4 Transmitter\SA-100_2339_05_1N4.cydsn/sgable.c ****                     }
 466:..\..\..\..\..\WORK\1N4 Transmitter\SA-100_2339_05_1N4.cydsn/sgable.c ****                 }
 467:..\..\..\..\..\WORK\1N4 Transmitter\SA-100_2339_05_1N4.cydsn/sgable.c ****             }
 468:..\..\..\..\..\WORK\1N4 Transmitter\SA-100_2339_05_1N4.cydsn/sgable.c ****             /* It's our ALERT_2 variable */            
 469:..\..\..\..\..\WORK\1N4 Transmitter\SA-100_2339_05_1N4.cydsn/sgable.c ****             if(wrReqParam->handleValPair.attrHandle == CYBLE_SGA1_SYS_ALERT_2_CHAR_HANDLE)
 470:..\..\..\..\..\WORK\1N4 Transmitter\SA-100_2339_05_1N4.cydsn/sgable.c ****             {
 471:..\..\..\..\..\WORK\1N4 Transmitter\SA-100_2339_05_1N4.cydsn/sgable.c ****                 /* Only update and respond if the write to the GATT Database is allowed */
 472:..\..\..\..\..\WORK\1N4 Transmitter\SA-100_2339_05_1N4.cydsn/sgable.c ****                 if(CYBLE_GATT_ERR_NONE == CyBle_GattsWriteAttributeValue(&wrReqParam->handleValPair
 473:..\..\..\..\..\WORK\1N4 Transmitter\SA-100_2339_05_1N4.cydsn/sgable.c ****                 {
 474:..\..\..\..\..\WORK\1N4 Transmitter\SA-100_2339_05_1N4.cydsn/sgable.c ****                     Sensor.Alert2 = wrReqParam->handleValPair.value.val[1];  /* Update our local co
 475:..\..\..\..\..\WORK\1N4 Transmitter\SA-100_2339_05_1N4.cydsn/sgable.c ****                     Sensor.Alert2 <<=8;
 476:..\..\..\..\..\WORK\1N4 Transmitter\SA-100_2339_05_1N4.cydsn/sgable.c ****                     Sensor.Alert2 |= wrReqParam->handleValPair.value.val[0];  /* Update our local c
 477:..\..\..\..\..\WORK\1N4 Transmitter\SA-100_2339_05_1N4.cydsn/sgable.c ****                     CyBle_GattsWriteRsp(cyBle_connHandle);                      /* respond to the c
 478:..\..\..\..\..\WORK\1N4 Transmitter\SA-100_2339_05_1N4.cydsn/sgable.c ****                     //if( SA100_I2C_INSTALLED ) SA100I2C_Write_8( SA100_CEC_I2C_ADDR, SA100_I2C_Ale
 479:..\..\..\..\..\WORK\1N4 Transmitter\SA-100_2339_05_1N4.cydsn/sgable.c ****                     //SA100CEC_Write_16( CEC_OD_ALL_U16_alert2, 0, Sensor.Alert2 );
 480:..\..\..\..\..\WORK\1N4 Transmitter\SA-100_2339_05_1N4.cydsn/sgable.c ****                     switch( Sensor.Type )
 481:..\..\..\..\..\WORK\1N4 Transmitter\SA-100_2339_05_1N4.cydsn/sgable.c ****                     {
 482:..\..\..\..\..\WORK\1N4 Transmitter\SA-100_2339_05_1N4.cydsn/sgable.c ****                         case SENSOR_TYPE_CBEAD:
 483:..\..\..\..\..\WORK\1N4 Transmitter\SA-100_2339_05_1N4.cydsn/sgable.c ****                             //AT24CS01_Write_16( CBEAD_I2C_EEPROM_ADDR, CBEAD_EE16_FACT_ALERT_2, Se
 484:..\..\..\..\..\WORK\1N4 Transmitter\SA-100_2339_05_1N4.cydsn/sgable.c ****                         break;
 485:..\..\..\..\..\WORK\1N4 Transmitter\SA-100_2339_05_1N4.cydsn/sgable.c ****                         case SENSOR_TYPE_ECHEM:
 486:..\..\..\..\..\WORK\1N4 Transmitter\SA-100_2339_05_1N4.cydsn/sgable.c ****                            // AT24CS01_Write_16( ECHEM_I2C_EEPROM_ADDR, ECHEM_EE16_FACT_ALERT_2, Se
 487:..\..\..\..\..\WORK\1N4 Transmitter\SA-100_2339_05_1N4.cydsn/sgable.c ****                         break;
 488:..\..\..\..\..\WORK\1N4 Transmitter\SA-100_2339_05_1N4.cydsn/sgable.c ****                         case SENSOR_TYPE_IR:
 489:..\..\..\..\..\WORK\1N4 Transmitter\SA-100_2339_05_1N4.cydsn/sgable.c **** //                            if( SysPingI2cSlave( IR_I2C_EEPROM_ADDR ) == 0 )
 490:..\..\..\..\..\WORK\1N4 Transmitter\SA-100_2339_05_1N4.cydsn/sgable.c **** //                            {
 491:..\..\..\..\..\WORK\1N4 Transmitter\SA-100_2339_05_1N4.cydsn/sgable.c **** //                                AT24CS01_Write_16( IR_I2C_EEPROM_ADDR, IR_EE16_FACT_ALERT_2, Sens
 492:..\..\..\..\..\WORK\1N4 Transmitter\SA-100_2339_05_1N4.cydsn/sgable.c **** //                            }
 493:..\..\..\..\..\WORK\1N4 Transmitter\SA-100_2339_05_1N4.cydsn/sgable.c ****                             break;
 494:..\..\..\..\..\WORK\1N4 Transmitter\SA-100_2339_05_1N4.cydsn/sgable.c ****                         default:
 495:..\..\..\..\..\WORK\1N4 Transmitter\SA-100_2339_05_1N4.cydsn/sgable.c ****                         break;
 496:..\..\..\..\..\WORK\1N4 Transmitter\SA-100_2339_05_1N4.cydsn/sgable.c ****                     }
 497:..\..\..\..\..\WORK\1N4 Transmitter\SA-100_2339_05_1N4.cydsn/sgable.c ****                 }
 498:..\..\..\..\..\WORK\1N4 Transmitter\SA-100_2339_05_1N4.cydsn/sgable.c ****             }
 499:..\..\..\..\..\WORK\1N4 Transmitter\SA-100_2339_05_1N4.cydsn/sgable.c ****             /* It's our ALERT_1_ASC variable */            
 500:..\..\..\..\..\WORK\1N4 Transmitter\SA-100_2339_05_1N4.cydsn/sgable.c ****             if(wrReqParam->handleValPair.attrHandle == CYBLE_SGA1_SYS_ALERT_1_ASC_CHAR_HANDLE)
 501:..\..\..\..\..\WORK\1N4 Transmitter\SA-100_2339_05_1N4.cydsn/sgable.c ****             {
 502:..\..\..\..\..\WORK\1N4 Transmitter\SA-100_2339_05_1N4.cydsn/sgable.c ****                 /* Only update and respond if the write to the GATT Database is allowed */
 503:..\..\..\..\..\WORK\1N4 Transmitter\SA-100_2339_05_1N4.cydsn/sgable.c ****                 if(CYBLE_GATT_ERR_NONE == CyBle_GattsWriteAttributeValue(&wrReqParam->handleValPair
 504:..\..\..\..\..\WORK\1N4 Transmitter\SA-100_2339_05_1N4.cydsn/sgable.c ****                 {
 505:..\..\..\..\..\WORK\1N4 Transmitter\SA-100_2339_05_1N4.cydsn/sgable.c ****                     Sensor.Alert1Ascending = wrReqParam->handleValPair.value.val[1];  /* Update our
 506:..\..\..\..\..\WORK\1N4 Transmitter\SA-100_2339_05_1N4.cydsn/sgable.c ****                     Sensor.Alert1Ascending <<=8;
 507:..\..\..\..\..\WORK\1N4 Transmitter\SA-100_2339_05_1N4.cydsn/sgable.c ****                     Sensor.Alert1Ascending |= wrReqParam->handleValPair.value.val[0];  /* Update ou
 508:..\..\..\..\..\WORK\1N4 Transmitter\SA-100_2339_05_1N4.cydsn/sgable.c ****                     CyBle_GattsWriteRsp(cyBle_connHandle);                      /* respond to the c
ARM GAS  C:\Users\alexport\AppData\Local\Temp\ccr3ZDs0.s 			page 34


 509:..\..\..\..\..\WORK\1N4 Transmitter\SA-100_2339_05_1N4.cydsn/sgable.c ****                     //if( SA100_I2C_INSTALLED ) SA100I2C_Write_16( SA100_CEC_I2C_ADDR, SA100_I2C_Al
 510:..\..\..\..\..\WORK\1N4 Transmitter\SA-100_2339_05_1N4.cydsn/sgable.c ****                     switch( Sensor.Type )
 511:..\..\..\..\..\WORK\1N4 Transmitter\SA-100_2339_05_1N4.cydsn/sgable.c ****                     {
 512:..\..\..\..\..\WORK\1N4 Transmitter\SA-100_2339_05_1N4.cydsn/sgable.c ****                         case SENSOR_TYPE_CBEAD:
 513:..\..\..\..\..\WORK\1N4 Transmitter\SA-100_2339_05_1N4.cydsn/sgable.c ****                             //AT24CS01_Write_16( CBEAD_I2C_EEPROM_ADDR, CBEAD_EE16_ALERT1_ASC_LOC, 
 514:..\..\..\..\..\WORK\1N4 Transmitter\SA-100_2339_05_1N4.cydsn/sgable.c ****                         break;
 515:..\..\..\..\..\WORK\1N4 Transmitter\SA-100_2339_05_1N4.cydsn/sgable.c ****                         case SENSOR_TYPE_ECHEM:
 516:..\..\..\..\..\WORK\1N4 Transmitter\SA-100_2339_05_1N4.cydsn/sgable.c ****                             //AT24CS01_Write_16( ECHEM_I2C_EEPROM_ADDR, ECHEM_EE16_ALERT1_ASC_LOC, 
 517:..\..\..\..\..\WORK\1N4 Transmitter\SA-100_2339_05_1N4.cydsn/sgable.c ****                         break;
 518:..\..\..\..\..\WORK\1N4 Transmitter\SA-100_2339_05_1N4.cydsn/sgable.c ****                         case SENSOR_TYPE_IR:
 519:..\..\..\..\..\WORK\1N4 Transmitter\SA-100_2339_05_1N4.cydsn/sgable.c **** //                            if( SysPingI2cSlave( IR_I2C_EEPROM_ADDR ) == 0 )
 520:..\..\..\..\..\WORK\1N4 Transmitter\SA-100_2339_05_1N4.cydsn/sgable.c **** //                            {
 521:..\..\..\..\..\WORK\1N4 Transmitter\SA-100_2339_05_1N4.cydsn/sgable.c **** //                                //AT24CS01_Write_16( IR_I2C_EEPROM_ADDR, IR_EE16_ALERT1_ASC_LOC, 
 522:..\..\..\..\..\WORK\1N4 Transmitter\SA-100_2339_05_1N4.cydsn/sgable.c **** //                            }
 523:..\..\..\..\..\WORK\1N4 Transmitter\SA-100_2339_05_1N4.cydsn/sgable.c ****                             break;
 524:..\..\..\..\..\WORK\1N4 Transmitter\SA-100_2339_05_1N4.cydsn/sgable.c ****                         default:
 525:..\..\..\..\..\WORK\1N4 Transmitter\SA-100_2339_05_1N4.cydsn/sgable.c ****                         break;
 526:..\..\..\..\..\WORK\1N4 Transmitter\SA-100_2339_05_1N4.cydsn/sgable.c ****                     }
 527:..\..\..\..\..\WORK\1N4 Transmitter\SA-100_2339_05_1N4.cydsn/sgable.c ****                 }
 528:..\..\..\..\..\WORK\1N4 Transmitter\SA-100_2339_05_1N4.cydsn/sgable.c ****             }
 529:..\..\..\..\..\WORK\1N4 Transmitter\SA-100_2339_05_1N4.cydsn/sgable.c ****             /* It's our ALERT_2_ASC variable */            
 530:..\..\..\..\..\WORK\1N4 Transmitter\SA-100_2339_05_1N4.cydsn/sgable.c ****             if(wrReqParam->handleValPair.attrHandle == CYBLE_SGA1_SYS_ALERT_2_ASC_CHAR_HANDLE)
 531:..\..\..\..\..\WORK\1N4 Transmitter\SA-100_2339_05_1N4.cydsn/sgable.c ****             {
 532:..\..\..\..\..\WORK\1N4 Transmitter\SA-100_2339_05_1N4.cydsn/sgable.c ****                 /* Only update and respond if the write to the GATT Database is allowed */
 533:..\..\..\..\..\WORK\1N4 Transmitter\SA-100_2339_05_1N4.cydsn/sgable.c ****                 if(CYBLE_GATT_ERR_NONE == CyBle_GattsWriteAttributeValue(&wrReqParam->handleValPair
 534:..\..\..\..\..\WORK\1N4 Transmitter\SA-100_2339_05_1N4.cydsn/sgable.c ****                 {
 535:..\..\..\..\..\WORK\1N4 Transmitter\SA-100_2339_05_1N4.cydsn/sgable.c ****                     Sensor.Alert2Ascending = wrReqParam->handleValPair.value.val[1];  /* Update our
 536:..\..\..\..\..\WORK\1N4 Transmitter\SA-100_2339_05_1N4.cydsn/sgable.c ****                     Sensor.Alert2Ascending <<=8;
 537:..\..\..\..\..\WORK\1N4 Transmitter\SA-100_2339_05_1N4.cydsn/sgable.c ****                     Sensor.Alert2Ascending |= wrReqParam->handleValPair.value.val[0];  /* Update ou
 538:..\..\..\..\..\WORK\1N4 Transmitter\SA-100_2339_05_1N4.cydsn/sgable.c ****                     CyBle_GattsWriteRsp(cyBle_connHandle);                      /* respond to the c
 539:..\..\..\..\..\WORK\1N4 Transmitter\SA-100_2339_05_1N4.cydsn/sgable.c ****                     //if( SA100_I2C_INSTALLED ) SA100I2C_Write_16( SA100_CEC_I2C_ADDR, SA100_I2C_Al
 540:..\..\..\..\..\WORK\1N4 Transmitter\SA-100_2339_05_1N4.cydsn/sgable.c ****                     switch( Sensor.Type )
 541:..\..\..\..\..\WORK\1N4 Transmitter\SA-100_2339_05_1N4.cydsn/sgable.c ****                     {
 542:..\..\..\..\..\WORK\1N4 Transmitter\SA-100_2339_05_1N4.cydsn/sgable.c ****                         case SENSOR_TYPE_CBEAD:
 543:..\..\..\..\..\WORK\1N4 Transmitter\SA-100_2339_05_1N4.cydsn/sgable.c ****                             //AT24CS01_Write_16( CBEAD_I2C_EEPROM_ADDR, CBEAD_EE16_ALERT2_ASC_LOC, 
 544:..\..\..\..\..\WORK\1N4 Transmitter\SA-100_2339_05_1N4.cydsn/sgable.c ****                         break;
 545:..\..\..\..\..\WORK\1N4 Transmitter\SA-100_2339_05_1N4.cydsn/sgable.c ****                         case SENSOR_TYPE_ECHEM:
 546:..\..\..\..\..\WORK\1N4 Transmitter\SA-100_2339_05_1N4.cydsn/sgable.c ****                             //AT24CS01_Write_16( ECHEM_I2C_EEPROM_ADDR, ECHEM_EE16_ALERT2_ASC_LOC, 
 547:..\..\..\..\..\WORK\1N4 Transmitter\SA-100_2339_05_1N4.cydsn/sgable.c ****                         break;
 548:..\..\..\..\..\WORK\1N4 Transmitter\SA-100_2339_05_1N4.cydsn/sgable.c ****                         case SENSOR_TYPE_IR:
 549:..\..\..\..\..\WORK\1N4 Transmitter\SA-100_2339_05_1N4.cydsn/sgable.c **** //                            if( SysPingI2cSlave( IR_I2C_EEPROM_ADDR ) == 0 )
 550:..\..\..\..\..\WORK\1N4 Transmitter\SA-100_2339_05_1N4.cydsn/sgable.c **** //                            {
 551:..\..\..\..\..\WORK\1N4 Transmitter\SA-100_2339_05_1N4.cydsn/sgable.c **** //                                AT24CS01_Write_16( IR_I2C_EEPROM_ADDR, IR_EE16_ALERT2_ASC_LOC, Se
 552:..\..\..\..\..\WORK\1N4 Transmitter\SA-100_2339_05_1N4.cydsn/sgable.c **** //                            }
 553:..\..\..\..\..\WORK\1N4 Transmitter\SA-100_2339_05_1N4.cydsn/sgable.c ****                             break;
 554:..\..\..\..\..\WORK\1N4 Transmitter\SA-100_2339_05_1N4.cydsn/sgable.c ****                         default:
 555:..\..\..\..\..\WORK\1N4 Transmitter\SA-100_2339_05_1N4.cydsn/sgable.c ****                         break;
 556:..\..\..\..\..\WORK\1N4 Transmitter\SA-100_2339_05_1N4.cydsn/sgable.c ****                     }
 557:..\..\..\..\..\WORK\1N4 Transmitter\SA-100_2339_05_1N4.cydsn/sgable.c ****                 }
 558:..\..\..\..\..\WORK\1N4 Transmitter\SA-100_2339_05_1N4.cydsn/sgable.c ****             }
 559:..\..\..\..\..\WORK\1N4 Transmitter\SA-100_2339_05_1N4.cydsn/sgable.c ****             /* It's our PIN variable */            
 560:..\..\..\..\..\WORK\1N4 Transmitter\SA-100_2339_05_1N4.cydsn/sgable.c ****             if(wrReqParam->handleValPair.attrHandle == CYBLE_SGA2_PIN_CHAR_HANDLE)
 561:..\..\..\..\..\WORK\1N4 Transmitter\SA-100_2339_05_1N4.cydsn/sgable.c ****             {
 562:..\..\..\..\..\WORK\1N4 Transmitter\SA-100_2339_05_1N4.cydsn/sgable.c ****                 /* Only update and respond if the write to the GATT Database is allowed */
 563:..\..\..\..\..\WORK\1N4 Transmitter\SA-100_2339_05_1N4.cydsn/sgable.c ****                 if(CYBLE_GATT_ERR_NONE == CyBle_GattsWriteAttributeValue(&wrReqParam->handleValPair
 564:..\..\..\..\..\WORK\1N4 Transmitter\SA-100_2339_05_1N4.cydsn/sgable.c ****                 {
 565:..\..\..\..\..\WORK\1N4 Transmitter\SA-100_2339_05_1N4.cydsn/sgable.c ****                     for( uint8 i = 0; i < 4; i++ )
ARM GAS  C:\Users\alexport\AppData\Local\Temp\ccr3ZDs0.s 			page 35


 566:..\..\..\..\..\WORK\1N4 Transmitter\SA-100_2339_05_1N4.cydsn/sgable.c ****                     {
 567:..\..\..\..\..\WORK\1N4 Transmitter\SA-100_2339_05_1N4.cydsn/sgable.c ****                         System.Pin[i] = wrReqParam->handleValPair.value.val[i];  /* Update our loca
 568:..\..\..\..\..\WORK\1N4 Transmitter\SA-100_2339_05_1N4.cydsn/sgable.c ****                     }
 569:..\..\..\..\..\WORK\1N4 Transmitter\SA-100_2339_05_1N4.cydsn/sgable.c ****                     CyBle_GattsWriteRsp(cyBle_connHandle);                      /* respond to the c
 570:..\..\..\..\..\WORK\1N4 Transmitter\SA-100_2339_05_1N4.cydsn/sgable.c ****                     //SysSaveSystemPinString();
 571:..\..\..\..\..\WORK\1N4 Transmitter\SA-100_2339_05_1N4.cydsn/sgable.c ****                     //if( SA100_I2C_INSTALLED ) SA100I2C_Write_String( SA100_CEC_I2C_ADDR, SA100_I2
 572:..\..\..\..\..\WORK\1N4 Transmitter\SA-100_2339_05_1N4.cydsn/sgable.c ****                     //SA100CEC_Write_String( CEC_OD_BLE_STR_bluetoothPIN_4_, 0, System.Pin, 4 );
 573:..\..\..\..\..\WORK\1N4 Transmitter\SA-100_2339_05_1N4.cydsn/sgable.c **** 
 574:..\..\..\..\..\WORK\1N4 Transmitter\SA-100_2339_05_1N4.cydsn/sgable.c ****                 }
 575:..\..\..\..\..\WORK\1N4 Transmitter\SA-100_2339_05_1N4.cydsn/sgable.c ****             }
 576:..\..\..\..\..\WORK\1N4 Transmitter\SA-100_2339_05_1N4.cydsn/sgable.c ****             /* It's our SENSOR_TAG variable */            
 577:..\..\..\..\..\WORK\1N4 Transmitter\SA-100_2339_05_1N4.cydsn/sgable.c ****             if(wrReqParam->handleValPair.attrHandle == CYBLE_SGA2_SENSOR_TAG_CHAR_HANDLE)
 578:..\..\..\..\..\WORK\1N4 Transmitter\SA-100_2339_05_1N4.cydsn/sgable.c ****             {
 579:..\..\..\..\..\WORK\1N4 Transmitter\SA-100_2339_05_1N4.cydsn/sgable.c ****                 /* Only update and respond if the write to the GATT Database is allowed */
 580:..\..\..\..\..\WORK\1N4 Transmitter\SA-100_2339_05_1N4.cydsn/sgable.c ****                 if(CYBLE_GATT_ERR_NONE == CyBle_GattsWriteAttributeValue(&wrReqParam->handleValPair
 581:..\..\..\..\..\WORK\1N4 Transmitter\SA-100_2339_05_1N4.cydsn/sgable.c ****                 {
 582:..\..\..\..\..\WORK\1N4 Transmitter\SA-100_2339_05_1N4.cydsn/sgable.c ****                     for( uint8 i = 0; i < SENSOR_TAG_LENGTH; i++ )
 583:..\..\..\..\..\WORK\1N4 Transmitter\SA-100_2339_05_1N4.cydsn/sgable.c ****                     {
 584:..\..\..\..\..\WORK\1N4 Transmitter\SA-100_2339_05_1N4.cydsn/sgable.c ****                         System.SensorTag[i] = wrReqParam->handleValPair.value.val[i];  /* Update ou
 585:..\..\..\..\..\WORK\1N4 Transmitter\SA-100_2339_05_1N4.cydsn/sgable.c ****                     }
 586:..\..\..\..\..\WORK\1N4 Transmitter\SA-100_2339_05_1N4.cydsn/sgable.c ****                     CyBle_GattsWriteRsp(cyBle_connHandle);                      /* respond to the c
 587:..\..\..\..\..\WORK\1N4 Transmitter\SA-100_2339_05_1N4.cydsn/sgable.c ****                     //SysSaveSensorTagString();
 588:..\..\..\..\..\WORK\1N4 Transmitter\SA-100_2339_05_1N4.cydsn/sgable.c ****                     //if( SA100_I2C_INSTALLED ) SA100I2C_Write_String( SA100_CEC_I2C_ADDR, SA100_I2
 589:..\..\..\..\..\WORK\1N4 Transmitter\SA-100_2339_05_1N4.cydsn/sgable.c ****                     //SA100CEC_Write_String( CEC_OD_BLE_STR_sensorTag_20_, 0, System.SensorTag, 20 
 590:..\..\..\..\..\WORK\1N4 Transmitter\SA-100_2339_05_1N4.cydsn/sgable.c ****                 }
 591:..\..\..\..\..\WORK\1N4 Transmitter\SA-100_2339_05_1N4.cydsn/sgable.c ****             }
 592:..\..\..\..\..\WORK\1N4 Transmitter\SA-100_2339_05_1N4.cydsn/sgable.c ****             /* It's our SENSOR_CAL_LEVEL variable */            
 593:..\..\..\..\..\WORK\1N4 Transmitter\SA-100_2339_05_1N4.cydsn/sgable.c ****             if(wrReqParam->handleValPair.attrHandle == CYBLE_SGA2_SENSOR_CAL_LEVEL_CHAR_HANDLE)
 594:..\..\..\..\..\WORK\1N4 Transmitter\SA-100_2339_05_1N4.cydsn/sgable.c ****             {
 595:..\..\..\..\..\WORK\1N4 Transmitter\SA-100_2339_05_1N4.cydsn/sgable.c ****                 /* Only update and respond if the write to the GATT Database is allowed */
 596:..\..\..\..\..\WORK\1N4 Transmitter\SA-100_2339_05_1N4.cydsn/sgable.c ****                 if(CYBLE_GATT_ERR_NONE == CyBle_GattsWriteAttributeValue(&wrReqParam->handleValPair
 597:..\..\..\..\..\WORK\1N4 Transmitter\SA-100_2339_05_1N4.cydsn/sgable.c ****                 {
 598:..\..\..\..\..\WORK\1N4 Transmitter\SA-100_2339_05_1N4.cydsn/sgable.c ****                     Sensor.CalLevel = wrReqParam->handleValPair.value.val[1];  /* Update our local 
 599:..\..\..\..\..\WORK\1N4 Transmitter\SA-100_2339_05_1N4.cydsn/sgable.c ****                     Sensor.CalLevel <<=8;
 600:..\..\..\..\..\WORK\1N4 Transmitter\SA-100_2339_05_1N4.cydsn/sgable.c ****                     Sensor.CalLevel |= wrReqParam->handleValPair.value.val[0];  /* Update our local
 601:..\..\..\..\..\WORK\1N4 Transmitter\SA-100_2339_05_1N4.cydsn/sgable.c ****                     CyBle_GattsWriteRsp(cyBle_connHandle);                      /* respond to the c
 602:..\..\..\..\..\WORK\1N4 Transmitter\SA-100_2339_05_1N4.cydsn/sgable.c ****                     //if( SA100_I2C_INSTALLED ) SA100I2C_Write_16( SA100_CEC_I2C_ADDR, SA100_I2C_Ca
 603:..\..\..\..\..\WORK\1N4 Transmitter\SA-100_2339_05_1N4.cydsn/sgable.c ****                     //SA100CEC_Write_16( CEC_OD_ALL_U16_calibrationLevel, 0, Sensor.CalLevel );
 604:..\..\..\..\..\WORK\1N4 Transmitter\SA-100_2339_05_1N4.cydsn/sgable.c ****                     switch( Sensor.Type )
 605:..\..\..\..\..\WORK\1N4 Transmitter\SA-100_2339_05_1N4.cydsn/sgable.c ****                     {
 606:..\..\..\..\..\WORK\1N4 Transmitter\SA-100_2339_05_1N4.cydsn/sgable.c ****                         case SENSOR_TYPE_CBEAD:
 607:..\..\..\..\..\WORK\1N4 Transmitter\SA-100_2339_05_1N4.cydsn/sgable.c ****                             //AT24CS01_Write_16( CBEAD_I2C_EEPROM_ADDR, CBEAD_EE16_FACT_CAL_LEVEL, 
 608:..\..\..\..\..\WORK\1N4 Transmitter\SA-100_2339_05_1N4.cydsn/sgable.c ****                         break;
 609:..\..\..\..\..\WORK\1N4 Transmitter\SA-100_2339_05_1N4.cydsn/sgable.c ****                         case SENSOR_TYPE_ECHEM:
 610:..\..\..\..\..\WORK\1N4 Transmitter\SA-100_2339_05_1N4.cydsn/sgable.c ****                             //AT24CS01_Write_16( ECHEM_I2C_EEPROM_ADDR, ECHEM_EE16_FACT_CAL_LEVEL, 
 611:..\..\..\..\..\WORK\1N4 Transmitter\SA-100_2339_05_1N4.cydsn/sgable.c ****                         break;
 612:..\..\..\..\..\WORK\1N4 Transmitter\SA-100_2339_05_1N4.cydsn/sgable.c ****                         case SENSOR_TYPE_IR:
 613:..\..\..\..\..\WORK\1N4 Transmitter\SA-100_2339_05_1N4.cydsn/sgable.c ****                             //while( ModbusMasterWrite_f32( IR_CalibrationGasLevel, (float)Sensor.C
 614:..\..\..\..\..\WORK\1N4 Transmitter\SA-100_2339_05_1N4.cydsn/sgable.c **** //                            if( SysPingI2cSlave( IR_I2C_EEPROM_ADDR ) == 0 )
 615:..\..\..\..\..\WORK\1N4 Transmitter\SA-100_2339_05_1N4.cydsn/sgable.c **** //                            {
 616:..\..\..\..\..\WORK\1N4 Transmitter\SA-100_2339_05_1N4.cydsn/sgable.c **** //                                AT24CS01_Write_16( IR_I2C_EEPROM_ADDR, IR_EE16_FACT_CAL_LEVEL, Se
 617:..\..\..\..\..\WORK\1N4 Transmitter\SA-100_2339_05_1N4.cydsn/sgable.c **** //                            }
 618:..\..\..\..\..\WORK\1N4 Transmitter\SA-100_2339_05_1N4.cydsn/sgable.c ****                             break;
 619:..\..\..\..\..\WORK\1N4 Transmitter\SA-100_2339_05_1N4.cydsn/sgable.c ****                         default:
 620:..\..\..\..\..\WORK\1N4 Transmitter\SA-100_2339_05_1N4.cydsn/sgable.c ****                         break;
 621:..\..\..\..\..\WORK\1N4 Transmitter\SA-100_2339_05_1N4.cydsn/sgable.c ****                     }
 622:..\..\..\..\..\WORK\1N4 Transmitter\SA-100_2339_05_1N4.cydsn/sgable.c ****                 }                    
ARM GAS  C:\Users\alexport\AppData\Local\Temp\ccr3ZDs0.s 			page 36


 623:..\..\..\..\..\WORK\1N4 Transmitter\SA-100_2339_05_1N4.cydsn/sgable.c ****             }
 624:..\..\..\..\..\WORK\1N4 Transmitter\SA-100_2339_05_1N4.cydsn/sgable.c ****             /* It's our CAL LOOP Channel variable */            
 625:..\..\..\..\..\WORK\1N4 Transmitter\SA-100_2339_05_1N4.cydsn/sgable.c ****             if(wrReqParam->handleValPair.attrHandle == CYBLE_SGA1_SYS_CAL_LOOP_CHAR_HANDLE)
 626:..\..\..\..\..\WORK\1N4 Transmitter\SA-100_2339_05_1N4.cydsn/sgable.c ****             {
 627:..\..\..\..\..\WORK\1N4 Transmitter\SA-100_2339_05_1N4.cydsn/sgable.c ****                 /* Only update and respond if the write to the GATT Database is allowed */
 628:..\..\..\..\..\WORK\1N4 Transmitter\SA-100_2339_05_1N4.cydsn/sgable.c ****                 if(CYBLE_GATT_ERR_NONE == CyBle_GattsWriteAttributeValue(&wrReqParam->handleValPair
 629:..\..\..\..\..\WORK\1N4 Transmitter\SA-100_2339_05_1N4.cydsn/sgable.c ****                 {
 630:..\..\..\..\..\WORK\1N4 Transmitter\SA-100_2339_05_1N4.cydsn/sgable.c ****                     System.BleCalLoop = wrReqParam->handleValPair.value.val[1];  /* Update our loca
 631:..\..\..\..\..\WORK\1N4 Transmitter\SA-100_2339_05_1N4.cydsn/sgable.c ****                     System.BleCalLoop <<=8;
 632:..\..\..\..\..\WORK\1N4 Transmitter\SA-100_2339_05_1N4.cydsn/sgable.c ****                     System.BleCalLoop |= wrReqParam->handleValPair.value.val[0];  /* Update our loc
 633:..\..\..\..\..\WORK\1N4 Transmitter\SA-100_2339_05_1N4.cydsn/sgable.c ****                     CyBle_GattsWriteRsp(cyBle_connHandle);                      /* respond to the c
 634:..\..\..\..\..\WORK\1N4 Transmitter\SA-100_2339_05_1N4.cydsn/sgable.c ****                 }
 635:..\..\..\..\..\WORK\1N4 Transmitter\SA-100_2339_05_1N4.cydsn/sgable.c ****             }
 636:..\..\..\..\..\WORK\1N4 Transmitter\SA-100_2339_05_1N4.cydsn/sgable.c ****             /* It's our CalibrationStatus variable */            
 637:..\..\..\..\..\WORK\1N4 Transmitter\SA-100_2339_05_1N4.cydsn/sgable.c ****             if(wrReqParam->handleValPair.attrHandle == CYBLE_SGA2_CALIBRATION_STATUS_CHAR_HANDLE)
 638:..\..\..\..\..\WORK\1N4 Transmitter\SA-100_2339_05_1N4.cydsn/sgable.c ****             {
 639:..\..\..\..\..\WORK\1N4 Transmitter\SA-100_2339_05_1N4.cydsn/sgable.c ****                 /* Only update and respond if the write to the GATT Database is allowed */
 640:..\..\..\..\..\WORK\1N4 Transmitter\SA-100_2339_05_1N4.cydsn/sgable.c ****                 if(CYBLE_GATT_ERR_NONE == CyBle_GattsWriteAttributeValue(&wrReqParam->handleValPair
 641:..\..\..\..\..\WORK\1N4 Transmitter\SA-100_2339_05_1N4.cydsn/sgable.c ****                 {
 642:..\..\..\..\..\WORK\1N4 Transmitter\SA-100_2339_05_1N4.cydsn/sgable.c ****                     System.CalibrationStatus = wrReqParam->handleValPair.value.val[0];  /* Update o
 643:..\..\..\..\..\WORK\1N4 Transmitter\SA-100_2339_05_1N4.cydsn/sgable.c ****                     CyBle_GattsWriteRsp(cyBle_connHandle);                      /* respond to the c
 644:..\..\..\..\..\WORK\1N4 Transmitter\SA-100_2339_05_1N4.cydsn/sgable.c ****                 }
 645:..\..\..\..\..\WORK\1N4 Transmitter\SA-100_2339_05_1N4.cydsn/sgable.c ****             }
 646:..\..\..\..\..\WORK\1N4 Transmitter\SA-100_2339_05_1N4.cydsn/sgable.c **** 
 647:..\..\..\..\..\WORK\1N4 Transmitter\SA-100_2339_05_1N4.cydsn/sgable.c ****             /* Request for Notifications */
 648:..\..\..\..\..\WORK\1N4 Transmitter\SA-100_2339_05_1N4.cydsn/sgable.c ****             /* It's a request for notifications for our System.BleControl (SYS_REMOTE) */
 649:..\..\..\..\..\WORK\1N4 Transmitter\SA-100_2339_05_1N4.cydsn/sgable.c ****             if( wrReqParam->handleValPair.attrHandle == CYBLE_SGA1_SYS_REMOTE_CLIENT_CHARACTERISTIC
 650:..\..\..\..\..\WORK\1N4 Transmitter\SA-100_2339_05_1N4.cydsn/sgable.c ****             {
 651:..\..\..\..\..\WORK\1N4 Transmitter\SA-100_2339_05_1N4.cydsn/sgable.c ****                 CyBle_GattsWriteAttributeValue(&wrReqParam->handleValPair,0, &cyBle_connHandle, CYB
 652:..\..\..\..\..\WORK\1N4 Transmitter\SA-100_2339_05_1N4.cydsn/sgable.c ****                 System.BleNotifyControl = wrReqParam->handleValPair.value.val[0] & 0x01; /* Update 
 653:..\..\..\..\..\WORK\1N4 Transmitter\SA-100_2339_05_1N4.cydsn/sgable.c ****                 CyBle_GattsWriteRsp(cyBle_connHandle);                          /* respond to the c
 654:..\..\..\..\..\WORK\1N4 Transmitter\SA-100_2339_05_1N4.cydsn/sgable.c ****             }
 655:..\..\..\..\..\WORK\1N4 Transmitter\SA-100_2339_05_1N4.cydsn/sgable.c ****             /* It's a request for notifications for our Sensor.Reading (SYS_READING) */
 656:..\..\..\..\..\WORK\1N4 Transmitter\SA-100_2339_05_1N4.cydsn/sgable.c ****             if( wrReqParam->handleValPair.attrHandle == CYBLE_SGA1_SYS_READING_SYS_READING_CCCD_DES
 657:..\..\..\..\..\WORK\1N4 Transmitter\SA-100_2339_05_1N4.cydsn/sgable.c ****             {
 658:..\..\..\..\..\WORK\1N4 Transmitter\SA-100_2339_05_1N4.cydsn/sgable.c ****                 CyBle_GattsWriteAttributeValue(&wrReqParam->handleValPair,0, &cyBle_connHandle, CYB
 659:..\..\..\..\..\WORK\1N4 Transmitter\SA-100_2339_05_1N4.cydsn/sgable.c ****                 System.BleNotifyReading = wrReqParam->handleValPair.value.val[0] & 0x01; /* Update 
 660:..\..\..\..\..\WORK\1N4 Transmitter\SA-100_2339_05_1N4.cydsn/sgable.c ****                 CyBle_GattsWriteRsp(cyBle_connHandle);                          /* respond to the c
 661:..\..\..\..\..\WORK\1N4 Transmitter\SA-100_2339_05_1N4.cydsn/sgable.c ****             }
 662:..\..\..\..\..\WORK\1N4 Transmitter\SA-100_2339_05_1N4.cydsn/sgable.c ****             /* It's a request for notifications for our Sensor.Status (SYS_STATUS) */
 663:..\..\..\..\..\WORK\1N4 Transmitter\SA-100_2339_05_1N4.cydsn/sgable.c ****             if( wrReqParam->handleValPair.attrHandle == CYBLE_SGA1_SYS_STATUS_CLIENT_CHARACTERISTIC
 664:..\..\..\..\..\WORK\1N4 Transmitter\SA-100_2339_05_1N4.cydsn/sgable.c ****             {
 665:..\..\..\..\..\WORK\1N4 Transmitter\SA-100_2339_05_1N4.cydsn/sgable.c ****                 CyBle_GattsWriteAttributeValue(&wrReqParam->handleValPair,0, &cyBle_connHandle, CYB
 666:..\..\..\..\..\WORK\1N4 Transmitter\SA-100_2339_05_1N4.cydsn/sgable.c ****                 System.BleNotifyStatus = wrReqParam->handleValPair.value.val[0] & 0x01; /* Update l
 667:..\..\..\..\..\WORK\1N4 Transmitter\SA-100_2339_05_1N4.cydsn/sgable.c ****                 CyBle_GattsWriteRsp(cyBle_connHandle);                          /* respond to the c
 668:..\..\..\..\..\WORK\1N4 Transmitter\SA-100_2339_05_1N4.cydsn/sgable.c ****             }
 669:..\..\..\..\..\WORK\1N4 Transmitter\SA-100_2339_05_1N4.cydsn/sgable.c ****             /* It's a request for notifications for our System.AdcCounts (SYS_ADC) */
 670:..\..\..\..\..\WORK\1N4 Transmitter\SA-100_2339_05_1N4.cydsn/sgable.c ****             if( wrReqParam->handleValPair.attrHandle == CYBLE_SGA1_SYS_ADC_CLIENT_CHARACTERISTIC_CO
 671:..\..\..\..\..\WORK\1N4 Transmitter\SA-100_2339_05_1N4.cydsn/sgable.c ****             {
 672:..\..\..\..\..\WORK\1N4 Transmitter\SA-100_2339_05_1N4.cydsn/sgable.c ****                 CyBle_GattsWriteAttributeValue(&wrReqParam->handleValPair,0, &cyBle_connHandle, CYB
 673:..\..\..\..\..\WORK\1N4 Transmitter\SA-100_2339_05_1N4.cydsn/sgable.c ****                 System.BleNotifyAdcCounts = wrReqParam->handleValPair.value.val[0] & 0x01; /* Updat
 674:..\..\..\..\..\WORK\1N4 Transmitter\SA-100_2339_05_1N4.cydsn/sgable.c ****                 CyBle_GattsWriteRsp(cyBle_connHandle);                          /* respond to the c
 675:..\..\..\..\..\WORK\1N4 Transmitter\SA-100_2339_05_1N4.cydsn/sgable.c ****             }
 676:..\..\..\..\..\WORK\1N4 Transmitter\SA-100_2339_05_1N4.cydsn/sgable.c ****             /* It's a request for notifications for our Sensor.Temperature */
 677:..\..\..\..\..\WORK\1N4 Transmitter\SA-100_2339_05_1N4.cydsn/sgable.c ****             if( wrReqParam->handleValPair.attrHandle == CYBLE_SGA2_SENSOR_TEMPERATURE_CLIENT_CHARAC
 678:..\..\..\..\..\WORK\1N4 Transmitter\SA-100_2339_05_1N4.cydsn/sgable.c ****             {
 679:..\..\..\..\..\WORK\1N4 Transmitter\SA-100_2339_05_1N4.cydsn/sgable.c ****                 CyBle_GattsWriteAttributeValue(&wrReqParam->handleValPair,0, &cyBle_connHandle, CYB
ARM GAS  C:\Users\alexport\AppData\Local\Temp\ccr3ZDs0.s 			page 37


 680:..\..\..\..\..\WORK\1N4 Transmitter\SA-100_2339_05_1N4.cydsn/sgable.c ****                 System.BleNotifyTemperature = wrReqParam->handleValPair.value.val[0] & 0x01; /* Upd
 681:..\..\..\..\..\WORK\1N4 Transmitter\SA-100_2339_05_1N4.cydsn/sgable.c ****                 CyBle_GattsWriteRsp(cyBle_connHandle);                          /* respond to the c
 682:..\..\..\..\..\WORK\1N4 Transmitter\SA-100_2339_05_1N4.cydsn/sgable.c ****             }
 683:..\..\..\..\..\WORK\1N4 Transmitter\SA-100_2339_05_1N4.cydsn/sgable.c ****             /* It's a request for notifications for our Sensor.CalLevel */
 684:..\..\..\..\..\WORK\1N4 Transmitter\SA-100_2339_05_1N4.cydsn/sgable.c ****             if( wrReqParam->handleValPair.attrHandle == CYBLE_SGA2_SENSOR_CAL_LEVEL_CLIENT_CHARACTE
 685:..\..\..\..\..\WORK\1N4 Transmitter\SA-100_2339_05_1N4.cydsn/sgable.c ****             {
 686:..\..\..\..\..\WORK\1N4 Transmitter\SA-100_2339_05_1N4.cydsn/sgable.c ****                 CyBle_GattsWriteAttributeValue(&wrReqParam->handleValPair,0, &cyBle_connHandle, CYB
 687:..\..\..\..\..\WORK\1N4 Transmitter\SA-100_2339_05_1N4.cydsn/sgable.c ****                 System.BleNotifyCalLevel = wrReqParam->handleValPair.value.val[0] & 0x01; /* Update
 688:..\..\..\..\..\WORK\1N4 Transmitter\SA-100_2339_05_1N4.cydsn/sgable.c ****                 CyBle_GattsWriteRsp(cyBle_connHandle);                          /* respond to the c
 689:..\..\..\..\..\WORK\1N4 Transmitter\SA-100_2339_05_1N4.cydsn/sgable.c ****             }
 690:..\..\..\..\..\WORK\1N4 Transmitter\SA-100_2339_05_1N4.cydsn/sgable.c ****             /* It's a request for notifications for our System.CalZeroError */
 691:..\..\..\..\..\WORK\1N4 Transmitter\SA-100_2339_05_1N4.cydsn/sgable.c ****             if( wrReqParam->handleValPair.attrHandle == CYBLE_SGA2_CAL_ZERO_ERROR_CLIENT_CHARACTERI
 692:..\..\..\..\..\WORK\1N4 Transmitter\SA-100_2339_05_1N4.cydsn/sgable.c ****             {
 693:..\..\..\..\..\WORK\1N4 Transmitter\SA-100_2339_05_1N4.cydsn/sgable.c ****                 CyBle_GattsWriteAttributeValue(&wrReqParam->handleValPair,0, &cyBle_connHandle, CYB
 694:..\..\..\..\..\WORK\1N4 Transmitter\SA-100_2339_05_1N4.cydsn/sgable.c ****                 System.BleNotifyCalZeroError = wrReqParam->handleValPair.value.val[0] & 0x01; /* Up
 695:..\..\..\..\..\WORK\1N4 Transmitter\SA-100_2339_05_1N4.cydsn/sgable.c ****                 CyBle_GattsWriteRsp(cyBle_connHandle);                          /* respond to the c
 696:..\..\..\..\..\WORK\1N4 Transmitter\SA-100_2339_05_1N4.cydsn/sgable.c ****             }
 697:..\..\..\..\..\WORK\1N4 Transmitter\SA-100_2339_05_1N4.cydsn/sgable.c ****             /* It's a request for notifications for our System.CalStep */
 698:..\..\..\..\..\WORK\1N4 Transmitter\SA-100_2339_05_1N4.cydsn/sgable.c ****             if( wrReqParam->handleValPair.attrHandle == CYBLE_SGA2_CAL_STEP_CLIENT_CHARACTERISTIC_C
 699:..\..\..\..\..\WORK\1N4 Transmitter\SA-100_2339_05_1N4.cydsn/sgable.c ****             {
 700:..\..\..\..\..\WORK\1N4 Transmitter\SA-100_2339_05_1N4.cydsn/sgable.c ****                 CyBle_GattsWriteAttributeValue(&wrReqParam->handleValPair,0, &cyBle_connHandle, CYB
 701:..\..\..\..\..\WORK\1N4 Transmitter\SA-100_2339_05_1N4.cydsn/sgable.c ****                 System.BleNotifyCalStep = wrReqParam->handleValPair.value.val[0] & 0x01; /* Update 
 702:..\..\..\..\..\WORK\1N4 Transmitter\SA-100_2339_05_1N4.cydsn/sgable.c ****                 CyBle_GattsWriteRsp(cyBle_connHandle);                          /* respond to the c
 703:..\..\..\..\..\WORK\1N4 Transmitter\SA-100_2339_05_1N4.cydsn/sgable.c ****             }
 704:..\..\..\..\..\WORK\1N4 Transmitter\SA-100_2339_05_1N4.cydsn/sgable.c ****             /* It's a request for notifications for our System.CalSpeed */
 705:..\..\..\..\..\WORK\1N4 Transmitter\SA-100_2339_05_1N4.cydsn/sgable.c ****             if( wrReqParam->handleValPair.attrHandle == CYBLE_SGA2_CAL_SPEED_CLIENT_CHARACTERISTIC_
 706:..\..\..\..\..\WORK\1N4 Transmitter\SA-100_2339_05_1N4.cydsn/sgable.c ****             {
 707:..\..\..\..\..\WORK\1N4 Transmitter\SA-100_2339_05_1N4.cydsn/sgable.c ****                 CyBle_GattsWriteAttributeValue(&wrReqParam->handleValPair,0, &cyBle_connHandle, CYB
 708:..\..\..\..\..\WORK\1N4 Transmitter\SA-100_2339_05_1N4.cydsn/sgable.c ****                 System.BleNotifyCalSpeed = wrReqParam->handleValPair.value.val[0] & 0x01; /* Update
 709:..\..\..\..\..\WORK\1N4 Transmitter\SA-100_2339_05_1N4.cydsn/sgable.c ****                 CyBle_GattsWriteRsp(cyBle_connHandle);                          /* respond to the c
 710:..\..\..\..\..\WORK\1N4 Transmitter\SA-100_2339_05_1N4.cydsn/sgable.c ****             }
 711:..\..\..\..\..\WORK\1N4 Transmitter\SA-100_2339_05_1N4.cydsn/sgable.c ****             /* It's a request for notifications for our System.CalAsFound */
 712:..\..\..\..\..\WORK\1N4 Transmitter\SA-100_2339_05_1N4.cydsn/sgable.c ****             if( wrReqParam->handleValPair.attrHandle == CYBLE_SGA2_CAL_AS_FOUND_CLIENT_CHARACTERIST
 713:..\..\..\..\..\WORK\1N4 Transmitter\SA-100_2339_05_1N4.cydsn/sgable.c ****             {
 714:..\..\..\..\..\WORK\1N4 Transmitter\SA-100_2339_05_1N4.cydsn/sgable.c ****                 CyBle_GattsWriteAttributeValue(&wrReqParam->handleValPair,0, &cyBle_connHandle, CYB
 715:..\..\..\..\..\WORK\1N4 Transmitter\SA-100_2339_05_1N4.cydsn/sgable.c ****                 System.BleNotifyCalAsFound = wrReqParam->handleValPair.value.val[0] & 0x01; /* Upda
 716:..\..\..\..\..\WORK\1N4 Transmitter\SA-100_2339_05_1N4.cydsn/sgable.c ****                 CyBle_GattsWriteRsp(cyBle_connHandle);                          /* respond to the c
 717:..\..\..\..\..\WORK\1N4 Transmitter\SA-100_2339_05_1N4.cydsn/sgable.c ****             }
 718:..\..\..\..\..\WORK\1N4 Transmitter\SA-100_2339_05_1N4.cydsn/sgable.c ****             /* It's a request for notifications for our System.CalAdjusted */
 719:..\..\..\..\..\WORK\1N4 Transmitter\SA-100_2339_05_1N4.cydsn/sgable.c ****             if( wrReqParam->handleValPair.attrHandle == CYBLE_SGA2_CAL_ADJUSTED_CLIENT_CHARACTERIST
 720:..\..\..\..\..\WORK\1N4 Transmitter\SA-100_2339_05_1N4.cydsn/sgable.c ****             {
 721:..\..\..\..\..\WORK\1N4 Transmitter\SA-100_2339_05_1N4.cydsn/sgable.c ****                 CyBle_GattsWriteAttributeValue(&wrReqParam->handleValPair,0, &cyBle_connHandle, CYB
 722:..\..\..\..\..\WORK\1N4 Transmitter\SA-100_2339_05_1N4.cydsn/sgable.c ****                 System.BleNotifyCalAdjusted = wrReqParam->handleValPair.value.val[0] & 0x01; /* Upd
 723:..\..\..\..\..\WORK\1N4 Transmitter\SA-100_2339_05_1N4.cydsn/sgable.c ****                 CyBle_GattsWriteRsp(cyBle_connHandle);                          /* respond to the c
 724:..\..\..\..\..\WORK\1N4 Transmitter\SA-100_2339_05_1N4.cydsn/sgable.c ****             }
 725:..\..\..\..\..\WORK\1N4 Transmitter\SA-100_2339_05_1N4.cydsn/sgable.c ****             /* It's a request for notifications for our Sensor.Life */
 726:..\..\..\..\..\WORK\1N4 Transmitter\SA-100_2339_05_1N4.cydsn/sgable.c ****             if( wrReqParam->handleValPair.attrHandle == CYBLE_SGA2_SENSOR_LIFE_CLIENT_CHARACTERISTI
 727:..\..\..\..\..\WORK\1N4 Transmitter\SA-100_2339_05_1N4.cydsn/sgable.c ****             {
 728:..\..\..\..\..\WORK\1N4 Transmitter\SA-100_2339_05_1N4.cydsn/sgable.c ****                 CyBle_GattsWriteAttributeValue(&wrReqParam->handleValPair,0, &cyBle_connHandle, CYB
 729:..\..\..\..\..\WORK\1N4 Transmitter\SA-100_2339_05_1N4.cydsn/sgable.c ****                 System.BleNotifyLife = wrReqParam->handleValPair.value.val[0] & 0x01; /* Update loc
 730:..\..\..\..\..\WORK\1N4 Transmitter\SA-100_2339_05_1N4.cydsn/sgable.c ****                 CyBle_GattsWriteRsp(cyBle_connHandle);                          /* respond to the c
 731:..\..\..\..\..\WORK\1N4 Transmitter\SA-100_2339_05_1N4.cydsn/sgable.c ****             }
 732:..\..\..\..\..\WORK\1N4 Transmitter\SA-100_2339_05_1N4.cydsn/sgable.c ****             /* It's a request for notifications for our Sensor.CalClearing */
 733:..\..\..\..\..\WORK\1N4 Transmitter\SA-100_2339_05_1N4.cydsn/sgable.c ****             if( wrReqParam->handleValPair.attrHandle == CYBLE_SGA2_CAL_CLEARING_CLIENT_CHARACTERIST
 734:..\..\..\..\..\WORK\1N4 Transmitter\SA-100_2339_05_1N4.cydsn/sgable.c ****             {
 735:..\..\..\..\..\WORK\1N4 Transmitter\SA-100_2339_05_1N4.cydsn/sgable.c ****                 CyBle_GattsWriteAttributeValue(&wrReqParam->handleValPair,0, &cyBle_connHandle, CYB
 736:..\..\..\..\..\WORK\1N4 Transmitter\SA-100_2339_05_1N4.cydsn/sgable.c ****                 System.BleNotifyCalClearing = wrReqParam->handleValPair.value.val[0] & 0x01; /* Upd
ARM GAS  C:\Users\alexport\AppData\Local\Temp\ccr3ZDs0.s 			page 38


 737:..\..\..\..\..\WORK\1N4 Transmitter\SA-100_2339_05_1N4.cydsn/sgable.c ****                 CyBle_GattsWriteRsp(cyBle_connHandle);                          /* respond to the c
 738:..\..\..\..\..\WORK\1N4 Transmitter\SA-100_2339_05_1N4.cydsn/sgable.c ****             }
 739:..\..\..\..\..\WORK\1N4 Transmitter\SA-100_2339_05_1N4.cydsn/sgable.c ****             /* It's a request for notifications for our System.CalSpanError */
 740:..\..\..\..\..\WORK\1N4 Transmitter\SA-100_2339_05_1N4.cydsn/sgable.c ****             if( wrReqParam->handleValPair.attrHandle == CYBLE_SGA2_CAL_SPAN_ERROR_CLIENT_CHARACTERI
 741:..\..\..\..\..\WORK\1N4 Transmitter\SA-100_2339_05_1N4.cydsn/sgable.c ****             {
 742:..\..\..\..\..\WORK\1N4 Transmitter\SA-100_2339_05_1N4.cydsn/sgable.c ****                 CyBle_GattsWriteAttributeValue(&wrReqParam->handleValPair,0, &cyBle_connHandle, CYB
 743:..\..\..\..\..\WORK\1N4 Transmitter\SA-100_2339_05_1N4.cydsn/sgable.c ****                 System.BleNotifyCalSpanError = wrReqParam->handleValPair.value.val[0] & 0x01; /* Up
 744:..\..\..\..\..\WORK\1N4 Transmitter\SA-100_2339_05_1N4.cydsn/sgable.c ****                 CyBle_GattsWriteRsp(cyBle_connHandle);                          /* respond to the c
 745:..\..\..\..\..\WORK\1N4 Transmitter\SA-100_2339_05_1N4.cydsn/sgable.c ****             }
 746:..\..\..\..\..\WORK\1N4 Transmitter\SA-100_2339_05_1N4.cydsn/sgable.c ****             /* It's a request for notifications for our System.CalibrationStatus */
 747:..\..\..\..\..\WORK\1N4 Transmitter\SA-100_2339_05_1N4.cydsn/sgable.c ****             if( wrReqParam->handleValPair.attrHandle == CYBLE_SGA2_CALIBRATION_STATUS_CLIENT_CHARAC
 748:..\..\..\..\..\WORK\1N4 Transmitter\SA-100_2339_05_1N4.cydsn/sgable.c ****             {
 749:..\..\..\..\..\WORK\1N4 Transmitter\SA-100_2339_05_1N4.cydsn/sgable.c ****                 CyBle_GattsWriteAttributeValue(&wrReqParam->handleValPair,0, &cyBle_connHandle, CYB
 750:..\..\..\..\..\WORK\1N4 Transmitter\SA-100_2339_05_1N4.cydsn/sgable.c ****                 System.BleNotifyCalibrationStatus = wrReqParam->handleValPair.value.val[0] & 0x01; 
 751:..\..\..\..\..\WORK\1N4 Transmitter\SA-100_2339_05_1N4.cydsn/sgable.c ****                 CyBle_GattsWriteRsp(cyBle_connHandle);                          /* respond to the c
 752:..\..\..\..\..\WORK\1N4 Transmitter\SA-100_2339_05_1N4.cydsn/sgable.c ****             }
 753:..\..\..\..\..\WORK\1N4 Transmitter\SA-100_2339_05_1N4.cydsn/sgable.c ****             /* It's a request for notifications for our Sensor.ReadingScaled */
 754:..\..\..\..\..\WORK\1N4 Transmitter\SA-100_2339_05_1N4.cydsn/sgable.c ****             if( wrReqParam->handleValPair.attrHandle == CYBLE_SGA2_READING_SCALED_CLIENT_CHARACTERI
 755:..\..\..\..\..\WORK\1N4 Transmitter\SA-100_2339_05_1N4.cydsn/sgable.c ****             {
 756:..\..\..\..\..\WORK\1N4 Transmitter\SA-100_2339_05_1N4.cydsn/sgable.c ****                 CyBle_GattsWriteAttributeValue(&wrReqParam->handleValPair,0, &cyBle_connHandle, CYB
 757:..\..\..\..\..\WORK\1N4 Transmitter\SA-100_2339_05_1N4.cydsn/sgable.c ****                 System.BleNotifyReadingScaled = wrReqParam->handleValPair.value.val[0] & 0x01; /* U
 758:..\..\..\..\..\WORK\1N4 Transmitter\SA-100_2339_05_1N4.cydsn/sgable.c ****                 CyBle_GattsWriteRsp(cyBle_connHandle);                          /* respond to the c
 759:..\..\..\..\..\WORK\1N4 Transmitter\SA-100_2339_05_1N4.cydsn/sgable.c ****             }
 760:..\..\..\..\..\WORK\1N4 Transmitter\SA-100_2339_05_1N4.cydsn/sgable.c ****             /* It's a request for notifications for our System.AlertStatus */
 761:..\..\..\..\..\WORK\1N4 Transmitter\SA-100_2339_05_1N4.cydsn/sgable.c ****             if( wrReqParam->handleValPair.attrHandle == CYBLE_SGA2_ALERT_STATUS_CLIENT_CHARACTERIST
 762:..\..\..\..\..\WORK\1N4 Transmitter\SA-100_2339_05_1N4.cydsn/sgable.c ****             {
 763:..\..\..\..\..\WORK\1N4 Transmitter\SA-100_2339_05_1N4.cydsn/sgable.c ****                 CyBle_GattsWriteAttributeValue(&wrReqParam->handleValPair,0, &cyBle_connHandle, CYB
 764:..\..\..\..\..\WORK\1N4 Transmitter\SA-100_2339_05_1N4.cydsn/sgable.c ****                 System.BleNotifyAlertStatus = wrReqParam->handleValPair.value.val[0] & 0x01; /* Upd
 765:..\..\..\..\..\WORK\1N4 Transmitter\SA-100_2339_05_1N4.cydsn/sgable.c ****                 CyBle_GattsWriteRsp(cyBle_connHandle);                          /* respond to the c
 766:..\..\..\..\..\WORK\1N4 Transmitter\SA-100_2339_05_1N4.cydsn/sgable.c ****             }
 767:..\..\..\..\..\WORK\1N4 Transmitter\SA-100_2339_05_1N4.cydsn/sgable.c ****             break;
 768:..\..\..\..\..\WORK\1N4 Transmitter\SA-100_2339_05_1N4.cydsn/sgable.c ****         default:
 769:..\..\..\..\..\WORK\1N4 Transmitter\SA-100_2339_05_1N4.cydsn/sgable.c ****             break;
 1373              		.loc 1 769 0
 1374 0016 00F0FDFC 		bl	.L40	@ far jump
 1375              	.L35:
 378:..\..\..\..\..\WORK\1N4 Transmitter\SA-100_2339_05_1N4.cydsn/sgable.c ****     {
 1376              		.loc 1 378 0
 1377 001a 412B     		cmp	r3, #65
 1378 001c 1DD0     		beq	.L37
 1379 001e 4C2B     		cmp	r3, #76
 1380 0020 1FD0     		beq	.L38
 1381              		.loc 1 769 0
 1382 0022 00F0F7FC 		bl	.L40	@ far jump
 1383              	.L36:
 383:..\..\..\..\..\WORK\1N4 Transmitter\SA-100_2339_05_1N4.cydsn/sgable.c ****             CPS_Write(1);
 1384              		.loc 1 383 0
 1385 0026 0120     		movs	r0, #1
 1386 0028 FFF7FEFF 		bl	CSD_Write
 384:..\..\..\..\..\WORK\1N4 Transmitter\SA-100_2339_05_1N4.cydsn/sgable.c ****             /* Configure the Link Layer to automatically switch PA control pin P3[2] and LNA contro
 1387              		.loc 1 384 0
 1388 002c 0120     		movs	r0, #1
 1389 002e FFF7FEFF 		bl	CPS_Write
 386:..\..\..\..\..\WORK\1N4 Transmitter\SA-100_2339_05_1N4.cydsn/sgable.c ****             CY_SET_XTND_REG32((void CYFAR *)(CYREG_SRSS_TST_DDFT_CTRL), 0x80000302);
 1390              		.loc 1 386 0
 1391 0032 C74B     		ldr	r3, .L111
 1392 0034 C74A     		ldr	r2, .L111+4
ARM GAS  C:\Users\alexport\AppData\Local\Temp\ccr3ZDs0.s 			page 39


 1393 0036 1A60     		str	r2, [r3]
 387:..\..\..\..\..\WORK\1N4 Transmitter\SA-100_2339_05_1N4.cydsn/sgable.c ****         case CYBLE_EVT_GAP_DEVICE_DISCONNECTED:                                 /* Handle BLE disco
 1394              		.loc 1 387 0
 1395 0038 C74B     		ldr	r3, .L111+8
 1396 003a C84A     		ldr	r2, .L111+12
 1397 003c 1A60     		str	r2, [r3]
 1398              	.L34:
 389:..\..\..\..\..\WORK\1N4 Transmitter\SA-100_2339_05_1N4.cydsn/sgable.c ****             if( System.BleInAuxCalState == TRUE ) System.BleControl = 0;        /* In loop cal or o
 1399              		.loc 1 389 0
 1400 003e 0020     		movs	r0, #0
 1401 0040 FFF7FEFF 		bl	CyBle_GappStartAdvertisement
 390:..\..\..\..\..\WORK\1N4 Transmitter\SA-100_2339_05_1N4.cydsn/sgable.c ****             break;
 1402              		.loc 1 390 0
 1403 0044 C64B     		ldr	r3, .L111+16
 1404 0046 DB7C     		ldrb	r3, [r3, #19]
 1405 0048 012B     		cmp	r3, #1
 1406 004a 01D0     		beq	.LCB1164
 1407 004c 00F0DFFC 		bl	.L94	@far jump
 1408              	.LCB1164:
 390:..\..\..\..\..\WORK\1N4 Transmitter\SA-100_2339_05_1N4.cydsn/sgable.c ****             break;
 1409              		.loc 1 390 0 is_stmt 0 discriminator 1
 1410 0050 C34B     		ldr	r3, .L111+16
 1411 0052 0022     		movs	r2, #0
 1412 0054 1A70     		strb	r2, [r3]
 391:..\..\..\..\..\WORK\1N4 Transmitter\SA-100_2339_05_1N4.cydsn/sgable.c ****         case CYBLE_EVT_GATT_CONNECT_IND:                                        /* Handle BLE conne
 1413              		.loc 1 391 0 is_stmt 1 discriminator 1
 1414 0056 00F0DAFC 		bl	.L94	@ far jump
 1415              	.L37:
 393:..\..\..\..\..\WORK\1N4 Transmitter\SA-100_2339_05_1N4.cydsn/sgable.c ****             break;
 1416              		.loc 1 393 0
 1417 005a FFF7FEFF 		bl	updateOurBleData
 394:..\..\..\..\..\WORK\1N4 Transmitter\SA-100_2339_05_1N4.cydsn/sgable.c ****         case CYBLE_EVT_GATTS_WRITE_REQ:                                           /* Handle a write
 1418              		.loc 1 394 0
 1419 005e 00F0D9FC 		bl	.L40	@ far jump
 1420              	.L38:
 396:..\..\..\..\..\WORK\1N4 Transmitter\SA-100_2339_05_1N4.cydsn/sgable.c **** 
 1421              		.loc 1 396 0
 1422 0062 3B68     		ldr	r3, [r7]
 1423 0064 BB60     		str	r3, [r7, #8]
 400:..\..\..\..\..\WORK\1N4 Transmitter\SA-100_2339_05_1N4.cydsn/sgable.c ****             {
 1424              		.loc 1 400 0
 1425 0066 BB68     		ldr	r3, [r7, #8]
 1426 0068 9B89     		ldrh	r3, [r3, #12]
 1427 006a 122B     		cmp	r3, #18
 1428 006c 1BD1     		bne	.L41
 403:..\..\..\..\..\WORK\1N4 Transmitter\SA-100_2339_05_1N4.cydsn/sgable.c ****                 {
 1429              		.loc 1 403 0
 1430 006e BB68     		ldr	r3, [r7, #8]
 1431 0070 181D     		adds	r0, r3, #4
 1432 0072 BC4A     		ldr	r2, .L111+20
 1433 0074 4023     		movs	r3, #64
 1434 0076 0021     		movs	r1, #0
 1435 0078 FFF7FEFF 		bl	CyBle_GattsWriteAttributeValue
 1436 007c 031E     		subs	r3, r0, #0
 1437 007e 12D1     		bne	.L41
 405:..\..\..\..\..\WORK\1N4 Transmitter\SA-100_2339_05_1N4.cydsn/sgable.c ****                     CyBle_GattsWriteRsp(cyBle_connHandle);                      /* respond to the c
 1438              		.loc 1 405 0
ARM GAS  C:\Users\alexport\AppData\Local\Temp\ccr3ZDs0.s 			page 40


 1439 0080 BB68     		ldr	r3, [r7, #8]
 1440 0082 5B68     		ldr	r3, [r3, #4]
 1441 0084 1A78     		ldrb	r2, [r3]
 1442 0086 B64B     		ldr	r3, .L111+16
 1443 0088 1A70     		strb	r2, [r3]
 406:..\..\..\..\..\WORK\1N4 Transmitter\SA-100_2339_05_1N4.cydsn/sgable.c ****                 }
 1444              		.loc 1 406 0
 1445 008a B64B     		ldr	r3, .L111+20
 1446 008c 1A78     		ldrb	r2, [r3]
 1447 008e 5B78     		ldrb	r3, [r3, #1]
 1448 0090 1B02     		lsls	r3, r3, #8
 1449 0092 1A43     		orrs	r2, r3
 1450 0094 0023     		movs	r3, #0
 1451 0096 1204     		lsls	r2, r2, #16
 1452 0098 120C     		lsrs	r2, r2, #16
 1453 009a 1B0C     		lsrs	r3, r3, #16
 1454 009c 1B04     		lsls	r3, r3, #16
 1455 009e 1343     		orrs	r3, r2
 1456 00a0 1800     		movs	r0, r3
 1457 00a2 FFF7FEFF 		bl	CyBle_GattsWriteRsp
 1458              	.L41:
 410:..\..\..\..\..\WORK\1N4 Transmitter\SA-100_2339_05_1N4.cydsn/sgable.c ****             {
 1459              		.loc 1 410 0
 1460 00a6 BB68     		ldr	r3, [r7, #8]
 1461 00a8 9B89     		ldrh	r3, [r3, #12]
 1462 00aa 212B     		cmp	r3, #33
 1463 00ac 1CD1     		bne	.L42
 413:..\..\..\..\..\WORK\1N4 Transmitter\SA-100_2339_05_1N4.cydsn/sgable.c ****                 {
 1464              		.loc 1 413 0
 1465 00ae BB68     		ldr	r3, [r7, #8]
 1466 00b0 181D     		adds	r0, r3, #4
 1467 00b2 AC4A     		ldr	r2, .L111+20
 1468 00b4 4023     		movs	r3, #64
 1469 00b6 0021     		movs	r1, #0
 1470 00b8 FFF7FEFF 		bl	CyBle_GattsWriteAttributeValue
 1471 00bc 031E     		subs	r3, r0, #0
 1472 00be 13D1     		bne	.L42
 415:..\..\..\..\..\WORK\1N4 Transmitter\SA-100_2339_05_1N4.cydsn/sgable.c ****                     CyBle_GattsWriteRsp(cyBle_connHandle);                      /* respond to the c
 1473              		.loc 1 415 0
 1474 00c0 BB68     		ldr	r3, [r7, #8]
 1475 00c2 5B68     		ldr	r3, [r3, #4]
 1476 00c4 1978     		ldrb	r1, [r3]
 1477 00c6 A64B     		ldr	r3, .L111+16
 1478 00c8 8022     		movs	r2, #128
 1479 00ca 9954     		strb	r1, [r3, r2]
 416:..\..\..\..\..\WORK\1N4 Transmitter\SA-100_2339_05_1N4.cydsn/sgable.c ****                     //FM24VN10_Write_8( SYS_I2C_FRAM_ADDR_B0, SYS_EE8_CAN_NODE_ID, System.CanNodeId
 1480              		.loc 1 416 0
 1481 00cc A54B     		ldr	r3, .L111+20
 1482 00ce 1A78     		ldrb	r2, [r3]
 1483 00d0 5B78     		ldrb	r3, [r3, #1]
 1484 00d2 1B02     		lsls	r3, r3, #8
 1485 00d4 1A43     		orrs	r2, r3
 1486 00d6 0023     		movs	r3, #0
 1487 00d8 1204     		lsls	r2, r2, #16
 1488 00da 120C     		lsrs	r2, r2, #16
 1489 00dc 1B0C     		lsrs	r3, r3, #16
 1490 00de 1B04     		lsls	r3, r3, #16
ARM GAS  C:\Users\alexport\AppData\Local\Temp\ccr3ZDs0.s 			page 41


 1491 00e0 1343     		orrs	r3, r2
 1492 00e2 1800     		movs	r0, r3
 1493 00e4 FFF7FEFF 		bl	CyBle_GattsWriteRsp
 1494              	.L42:
 424:..\..\..\..\..\WORK\1N4 Transmitter\SA-100_2339_05_1N4.cydsn/sgable.c ****             {
 1495              		.loc 1 424 0
 1496 00e8 BB68     		ldr	r3, [r7, #8]
 1497 00ea 9B89     		ldrh	r3, [r3, #12]
 1498 00ec 1E2B     		cmp	r3, #30
 1499 00ee 1CD1     		bne	.L43
 427:..\..\..\..\..\WORK\1N4 Transmitter\SA-100_2339_05_1N4.cydsn/sgable.c ****                 {
 1500              		.loc 1 427 0
 1501 00f0 BB68     		ldr	r3, [r7, #8]
 1502 00f2 181D     		adds	r0, r3, #4
 1503 00f4 9B4A     		ldr	r2, .L111+20
 1504 00f6 4023     		movs	r3, #64
 1505 00f8 0021     		movs	r1, #0
 1506 00fa FFF7FEFF 		bl	CyBle_GattsWriteAttributeValue
 1507 00fe 031E     		subs	r3, r0, #0
 1508 0100 13D1     		bne	.L43
 429:..\..\..\..\..\WORK\1N4 Transmitter\SA-100_2339_05_1N4.cydsn/sgable.c ****                     CyBle_GattsWriteRsp(cyBle_connHandle);                      /* respond to the c
 1509              		.loc 1 429 0
 1510 0102 BB68     		ldr	r3, [r7, #8]
 1511 0104 5B68     		ldr	r3, [r3, #4]
 1512 0106 1978     		ldrb	r1, [r3]
 1513 0108 954B     		ldr	r3, .L111+16
 1514 010a 8122     		movs	r2, #129
 1515 010c 9954     		strb	r1, [r3, r2]
 430:..\..\..\..\..\WORK\1N4 Transmitter\SA-100_2339_05_1N4.cydsn/sgable.c ****                     //FM24VN10_Write_8( SYS_I2C_FRAM_ADDR_B0, SYS_EE8_CAN_CHANNEL, System.CanChanne
 1516              		.loc 1 430 0
 1517 010e 954B     		ldr	r3, .L111+20
 1518 0110 1A78     		ldrb	r2, [r3]
 1519 0112 5B78     		ldrb	r3, [r3, #1]
 1520 0114 1B02     		lsls	r3, r3, #8
 1521 0116 1A43     		orrs	r2, r3
 1522 0118 0023     		movs	r3, #0
 1523 011a 1204     		lsls	r2, r2, #16
 1524 011c 120C     		lsrs	r2, r2, #16
 1525 011e 1B0C     		lsrs	r3, r3, #16
 1526 0120 1B04     		lsls	r3, r3, #16
 1527 0122 1343     		orrs	r3, r2
 1528 0124 1800     		movs	r0, r3
 1529 0126 FFF7FEFF 		bl	CyBle_GattsWriteRsp
 1530              	.L43:
 438:..\..\..\..\..\WORK\1N4 Transmitter\SA-100_2339_05_1N4.cydsn/sgable.c ****             {
 1531              		.loc 1 438 0
 1532 012a BB68     		ldr	r3, [r7, #8]
 1533 012c 9B89     		ldrh	r3, [r3, #12]
 1534 012e 2B2B     		cmp	r3, #43
 1535 0130 40D1     		bne	.L44
 441:..\..\..\..\..\WORK\1N4 Transmitter\SA-100_2339_05_1N4.cydsn/sgable.c ****                 {
 1536              		.loc 1 441 0
 1537 0132 BB68     		ldr	r3, [r7, #8]
 1538 0134 181D     		adds	r0, r3, #4
 1539 0136 8B4A     		ldr	r2, .L111+20
 1540 0138 4023     		movs	r3, #64
 1541 013a 0021     		movs	r1, #0
ARM GAS  C:\Users\alexport\AppData\Local\Temp\ccr3ZDs0.s 			page 42


 1542 013c FFF7FEFF 		bl	CyBle_GattsWriteAttributeValue
 1543 0140 031E     		subs	r3, r0, #0
 1544 0142 37D1     		bne	.L44
 443:..\..\..\..\..\WORK\1N4 Transmitter\SA-100_2339_05_1N4.cydsn/sgable.c ****                     Sensor.Alert1 <<=8;
 1545              		.loc 1 443 0
 1546 0144 BB68     		ldr	r3, [r7, #8]
 1547 0146 5B68     		ldr	r3, [r3, #4]
 1548 0148 0133     		adds	r3, r3, #1
 1549 014a 1B78     		ldrb	r3, [r3]
 1550 014c 99B2     		uxth	r1, r3
 1551 014e 864B     		ldr	r3, .L111+24
 1552 0150 5822     		movs	r2, #88
 1553 0152 9952     		strh	r1, [r3, r2]
 444:..\..\..\..\..\WORK\1N4 Transmitter\SA-100_2339_05_1N4.cydsn/sgable.c ****                     Sensor.Alert1 |= wrReqParam->handleValPair.value.val[0];  /* Update our local c
 1554              		.loc 1 444 0
 1555 0154 844B     		ldr	r3, .L111+24
 1556 0156 5822     		movs	r2, #88
 1557 0158 9B5A     		ldrh	r3, [r3, r2]
 1558 015a 1B02     		lsls	r3, r3, #8
 1559 015c 99B2     		uxth	r1, r3
 1560 015e 824B     		ldr	r3, .L111+24
 1561 0160 5822     		movs	r2, #88
 1562 0162 9952     		strh	r1, [r3, r2]
 445:..\..\..\..\..\WORK\1N4 Transmitter\SA-100_2339_05_1N4.cydsn/sgable.c ****                     CyBle_GattsWriteRsp(cyBle_connHandle);                      /* respond to the c
 1563              		.loc 1 445 0
 1564 0164 804B     		ldr	r3, .L111+24
 1565 0166 5822     		movs	r2, #88
 1566 0168 9A5A     		ldrh	r2, [r3, r2]
 1567 016a BB68     		ldr	r3, [r7, #8]
 1568 016c 5B68     		ldr	r3, [r3, #4]
 1569 016e 1B78     		ldrb	r3, [r3]
 1570 0170 9BB2     		uxth	r3, r3
 1571 0172 1343     		orrs	r3, r2
 1572 0174 99B2     		uxth	r1, r3
 1573 0176 7C4B     		ldr	r3, .L111+24
 1574 0178 5822     		movs	r2, #88
 1575 017a 9952     		strh	r1, [r3, r2]
 446:..\..\..\..\..\WORK\1N4 Transmitter\SA-100_2339_05_1N4.cydsn/sgable.c ****                     //if( SA100_I2C_INSTALLED ) SA100I2C_Write_8( SA100_CEC_I2C_ADDR, SA100_I2C_Ale
 1576              		.loc 1 446 0
 1577 017c 794B     		ldr	r3, .L111+20
 1578 017e 1A78     		ldrb	r2, [r3]
 1579 0180 5B78     		ldrb	r3, [r3, #1]
 1580 0182 1B02     		lsls	r3, r3, #8
 1581 0184 1A43     		orrs	r2, r3
 1582 0186 0023     		movs	r3, #0
 1583 0188 1204     		lsls	r2, r2, #16
 1584 018a 120C     		lsrs	r2, r2, #16
 1585 018c 1B0C     		lsrs	r3, r3, #16
 1586 018e 1B04     		lsls	r3, r3, #16
 1587 0190 1343     		orrs	r3, r2
 1588 0192 1800     		movs	r0, r3
 1589 0194 FFF7FEFF 		bl	CyBle_GattsWriteRsp
 449:..\..\..\..\..\WORK\1N4 Transmitter\SA-100_2339_05_1N4.cydsn/sgable.c ****                     {
 1590              		.loc 1 449 0
 1591 0198 734B     		ldr	r3, .L111+24
 1592 019a 9B7B     		ldrb	r3, [r3, #14]
 1593 019c 022B     		cmp	r3, #2
ARM GAS  C:\Users\alexport\AppData\Local\Temp\ccr3ZDs0.s 			page 43


 1594 019e 04D0     		beq	.L95
 1595 01a0 032B     		cmp	r3, #3
 1596 01a2 04D0     		beq	.L96
 1597 01a4 012B     		cmp	r3, #1
 1598 01a6 04D0     		beq	.L97
 464:..\..\..\..\..\WORK\1N4 Transmitter\SA-100_2339_05_1N4.cydsn/sgable.c ****                     }
 1599              		.loc 1 464 0
 1600 01a8 04E0     		b	.L44
 1601              	.L95:
 456:..\..\..\..\..\WORK\1N4 Transmitter\SA-100_2339_05_1N4.cydsn/sgable.c ****                         case SENSOR_TYPE_IR:
 1602              		.loc 1 456 0
 1603 01aa C046     		nop
 1604 01ac 02E0     		b	.L44
 1605              	.L96:
 462:..\..\..\..\..\WORK\1N4 Transmitter\SA-100_2339_05_1N4.cydsn/sgable.c ****                         default:
 1606              		.loc 1 462 0
 1607 01ae C046     		nop
 1608 01b0 00E0     		b	.L44
 1609              	.L97:
 453:..\..\..\..\..\WORK\1N4 Transmitter\SA-100_2339_05_1N4.cydsn/sgable.c ****                         case SENSOR_TYPE_ECHEM:
 1610              		.loc 1 453 0
 1611 01b2 C046     		nop
 1612              	.L44:
 469:..\..\..\..\..\WORK\1N4 Transmitter\SA-100_2339_05_1N4.cydsn/sgable.c ****             {
 1613              		.loc 1 469 0
 1614 01b4 BB68     		ldr	r3, [r7, #8]
 1615 01b6 9B89     		ldrh	r3, [r3, #12]
 1616 01b8 2E2B     		cmp	r3, #46
 1617 01ba 40D1     		bne	.L49
 472:..\..\..\..\..\WORK\1N4 Transmitter\SA-100_2339_05_1N4.cydsn/sgable.c ****                 {
 1618              		.loc 1 472 0
 1619 01bc BB68     		ldr	r3, [r7, #8]
 1620 01be 181D     		adds	r0, r3, #4
 1621 01c0 684A     		ldr	r2, .L111+20
 1622 01c2 4023     		movs	r3, #64
 1623 01c4 0021     		movs	r1, #0
 1624 01c6 FFF7FEFF 		bl	CyBle_GattsWriteAttributeValue
 1625 01ca 031E     		subs	r3, r0, #0
 1626 01cc 37D1     		bne	.L49
 474:..\..\..\..\..\WORK\1N4 Transmitter\SA-100_2339_05_1N4.cydsn/sgable.c ****                     Sensor.Alert2 <<=8;
 1627              		.loc 1 474 0
 1628 01ce BB68     		ldr	r3, [r7, #8]
 1629 01d0 5B68     		ldr	r3, [r3, #4]
 1630 01d2 0133     		adds	r3, r3, #1
 1631 01d4 1B78     		ldrb	r3, [r3]
 1632 01d6 99B2     		uxth	r1, r3
 1633 01d8 634B     		ldr	r3, .L111+24
 1634 01da 5A22     		movs	r2, #90
 1635 01dc 9952     		strh	r1, [r3, r2]
 475:..\..\..\..\..\WORK\1N4 Transmitter\SA-100_2339_05_1N4.cydsn/sgable.c ****                     Sensor.Alert2 |= wrReqParam->handleValPair.value.val[0];  /* Update our local c
 1636              		.loc 1 475 0
 1637 01de 624B     		ldr	r3, .L111+24
 1638 01e0 5A22     		movs	r2, #90
 1639 01e2 9B5A     		ldrh	r3, [r3, r2]
 1640 01e4 1B02     		lsls	r3, r3, #8
 1641 01e6 99B2     		uxth	r1, r3
 1642 01e8 5F4B     		ldr	r3, .L111+24
ARM GAS  C:\Users\alexport\AppData\Local\Temp\ccr3ZDs0.s 			page 44


 1643 01ea 5A22     		movs	r2, #90
 1644 01ec 9952     		strh	r1, [r3, r2]
 476:..\..\..\..\..\WORK\1N4 Transmitter\SA-100_2339_05_1N4.cydsn/sgable.c ****                     CyBle_GattsWriteRsp(cyBle_connHandle);                      /* respond to the c
 1645              		.loc 1 476 0
 1646 01ee 5E4B     		ldr	r3, .L111+24
 1647 01f0 5A22     		movs	r2, #90
 1648 01f2 9A5A     		ldrh	r2, [r3, r2]
 1649 01f4 BB68     		ldr	r3, [r7, #8]
 1650 01f6 5B68     		ldr	r3, [r3, #4]
 1651 01f8 1B78     		ldrb	r3, [r3]
 1652 01fa 9BB2     		uxth	r3, r3
 1653 01fc 1343     		orrs	r3, r2
 1654 01fe 99B2     		uxth	r1, r3
 1655 0200 594B     		ldr	r3, .L111+24
 1656 0202 5A22     		movs	r2, #90
 1657 0204 9952     		strh	r1, [r3, r2]
 477:..\..\..\..\..\WORK\1N4 Transmitter\SA-100_2339_05_1N4.cydsn/sgable.c ****                     //if( SA100_I2C_INSTALLED ) SA100I2C_Write_8( SA100_CEC_I2C_ADDR, SA100_I2C_Ale
 1658              		.loc 1 477 0
 1659 0206 574B     		ldr	r3, .L111+20
 1660 0208 1A78     		ldrb	r2, [r3]
 1661 020a 5B78     		ldrb	r3, [r3, #1]
 1662 020c 1B02     		lsls	r3, r3, #8
 1663 020e 1A43     		orrs	r2, r3
 1664 0210 0023     		movs	r3, #0
 1665 0212 1204     		lsls	r2, r2, #16
 1666 0214 120C     		lsrs	r2, r2, #16
 1667 0216 1B0C     		lsrs	r3, r3, #16
 1668 0218 1B04     		lsls	r3, r3, #16
 1669 021a 1343     		orrs	r3, r2
 1670 021c 1800     		movs	r0, r3
 1671 021e FFF7FEFF 		bl	CyBle_GattsWriteRsp
 480:..\..\..\..\..\WORK\1N4 Transmitter\SA-100_2339_05_1N4.cydsn/sgable.c ****                     {
 1672              		.loc 1 480 0
 1673 0222 514B     		ldr	r3, .L111+24
 1674 0224 9B7B     		ldrb	r3, [r3, #14]
 1675 0226 022B     		cmp	r3, #2
 1676 0228 04D0     		beq	.L98
 1677 022a 032B     		cmp	r3, #3
 1678 022c 04D0     		beq	.L99
 1679 022e 012B     		cmp	r3, #1
 1680 0230 04D0     		beq	.L100
 495:..\..\..\..\..\WORK\1N4 Transmitter\SA-100_2339_05_1N4.cydsn/sgable.c ****                     }
 1681              		.loc 1 495 0
 1682 0232 04E0     		b	.L49
 1683              	.L98:
 487:..\..\..\..\..\WORK\1N4 Transmitter\SA-100_2339_05_1N4.cydsn/sgable.c ****                         case SENSOR_TYPE_IR:
 1684              		.loc 1 487 0
 1685 0234 C046     		nop
 1686 0236 02E0     		b	.L49
 1687              	.L99:
 493:..\..\..\..\..\WORK\1N4 Transmitter\SA-100_2339_05_1N4.cydsn/sgable.c ****                         default:
 1688              		.loc 1 493 0
 1689 0238 C046     		nop
 1690 023a 00E0     		b	.L49
 1691              	.L100:
 484:..\..\..\..\..\WORK\1N4 Transmitter\SA-100_2339_05_1N4.cydsn/sgable.c ****                         case SENSOR_TYPE_ECHEM:
 1692              		.loc 1 484 0
ARM GAS  C:\Users\alexport\AppData\Local\Temp\ccr3ZDs0.s 			page 45


 1693 023c C046     		nop
 1694              	.L49:
 500:..\..\..\..\..\WORK\1N4 Transmitter\SA-100_2339_05_1N4.cydsn/sgable.c ****             {
 1695              		.loc 1 500 0
 1696 023e BB68     		ldr	r3, [r7, #8]
 1697 0240 9B89     		ldrh	r3, [r3, #12]
 1698 0242 312B     		cmp	r3, #49
 1699 0244 40D1     		bne	.L54
 503:..\..\..\..\..\WORK\1N4 Transmitter\SA-100_2339_05_1N4.cydsn/sgable.c ****                 {
 1700              		.loc 1 503 0
 1701 0246 BB68     		ldr	r3, [r7, #8]
 1702 0248 181D     		adds	r0, r3, #4
 1703 024a 464A     		ldr	r2, .L111+20
 1704 024c 4023     		movs	r3, #64
 1705 024e 0021     		movs	r1, #0
 1706 0250 FFF7FEFF 		bl	CyBle_GattsWriteAttributeValue
 1707 0254 031E     		subs	r3, r0, #0
 1708 0256 37D1     		bne	.L54
 505:..\..\..\..\..\WORK\1N4 Transmitter\SA-100_2339_05_1N4.cydsn/sgable.c ****                     Sensor.Alert1Ascending <<=8;
 1709              		.loc 1 505 0
 1710 0258 BB68     		ldr	r3, [r7, #8]
 1711 025a 5B68     		ldr	r3, [r3, #4]
 1712 025c 0133     		adds	r3, r3, #1
 1713 025e 1B78     		ldrb	r3, [r3]
 1714 0260 99B2     		uxth	r1, r3
 1715 0262 414B     		ldr	r3, .L111+24
 1716 0264 5C22     		movs	r2, #92
 1717 0266 9952     		strh	r1, [r3, r2]
 506:..\..\..\..\..\WORK\1N4 Transmitter\SA-100_2339_05_1N4.cydsn/sgable.c ****                     Sensor.Alert1Ascending |= wrReqParam->handleValPair.value.val[0];  /* Update ou
 1718              		.loc 1 506 0
 1719 0268 3F4B     		ldr	r3, .L111+24
 1720 026a 5C22     		movs	r2, #92
 1721 026c 9B5A     		ldrh	r3, [r3, r2]
 1722 026e 1B02     		lsls	r3, r3, #8
 1723 0270 99B2     		uxth	r1, r3
 1724 0272 3D4B     		ldr	r3, .L111+24
 1725 0274 5C22     		movs	r2, #92
 1726 0276 9952     		strh	r1, [r3, r2]
 507:..\..\..\..\..\WORK\1N4 Transmitter\SA-100_2339_05_1N4.cydsn/sgable.c ****                     CyBle_GattsWriteRsp(cyBle_connHandle);                      /* respond to the c
 1727              		.loc 1 507 0
 1728 0278 3B4B     		ldr	r3, .L111+24
 1729 027a 5C22     		movs	r2, #92
 1730 027c 9A5A     		ldrh	r2, [r3, r2]
 1731 027e BB68     		ldr	r3, [r7, #8]
 1732 0280 5B68     		ldr	r3, [r3, #4]
 1733 0282 1B78     		ldrb	r3, [r3]
 1734 0284 9BB2     		uxth	r3, r3
 1735 0286 1343     		orrs	r3, r2
 1736 0288 99B2     		uxth	r1, r3
 1737 028a 374B     		ldr	r3, .L111+24
 1738 028c 5C22     		movs	r2, #92
 1739 028e 9952     		strh	r1, [r3, r2]
 508:..\..\..\..\..\WORK\1N4 Transmitter\SA-100_2339_05_1N4.cydsn/sgable.c ****                     //if( SA100_I2C_INSTALLED ) SA100I2C_Write_16( SA100_CEC_I2C_ADDR, SA100_I2C_Al
 1740              		.loc 1 508 0
 1741 0290 344B     		ldr	r3, .L111+20
 1742 0292 1A78     		ldrb	r2, [r3]
 1743 0294 5B78     		ldrb	r3, [r3, #1]
ARM GAS  C:\Users\alexport\AppData\Local\Temp\ccr3ZDs0.s 			page 46


 1744 0296 1B02     		lsls	r3, r3, #8
 1745 0298 1A43     		orrs	r2, r3
 1746 029a 0023     		movs	r3, #0
 1747 029c 1204     		lsls	r2, r2, #16
 1748 029e 120C     		lsrs	r2, r2, #16
 1749 02a0 1B0C     		lsrs	r3, r3, #16
 1750 02a2 1B04     		lsls	r3, r3, #16
 1751 02a4 1343     		orrs	r3, r2
 1752 02a6 1800     		movs	r0, r3
 1753 02a8 FFF7FEFF 		bl	CyBle_GattsWriteRsp
 510:..\..\..\..\..\WORK\1N4 Transmitter\SA-100_2339_05_1N4.cydsn/sgable.c ****                     {
 1754              		.loc 1 510 0
 1755 02ac 2E4B     		ldr	r3, .L111+24
 1756 02ae 9B7B     		ldrb	r3, [r3, #14]
 1757 02b0 022B     		cmp	r3, #2
 1758 02b2 04D0     		beq	.L101
 1759 02b4 032B     		cmp	r3, #3
 1760 02b6 04D0     		beq	.L102
 1761 02b8 012B     		cmp	r3, #1
 1762 02ba 04D0     		beq	.L103
 525:..\..\..\..\..\WORK\1N4 Transmitter\SA-100_2339_05_1N4.cydsn/sgable.c ****                     }
 1763              		.loc 1 525 0
 1764 02bc 04E0     		b	.L54
 1765              	.L101:
 517:..\..\..\..\..\WORK\1N4 Transmitter\SA-100_2339_05_1N4.cydsn/sgable.c ****                         case SENSOR_TYPE_IR:
 1766              		.loc 1 517 0
 1767 02be C046     		nop
 1768 02c0 02E0     		b	.L54
 1769              	.L102:
 523:..\..\..\..\..\WORK\1N4 Transmitter\SA-100_2339_05_1N4.cydsn/sgable.c ****                         default:
 1770              		.loc 1 523 0
 1771 02c2 C046     		nop
 1772 02c4 00E0     		b	.L54
 1773              	.L103:
 514:..\..\..\..\..\WORK\1N4 Transmitter\SA-100_2339_05_1N4.cydsn/sgable.c ****                         case SENSOR_TYPE_ECHEM:
 1774              		.loc 1 514 0
 1775 02c6 C046     		nop
 1776              	.L54:
 530:..\..\..\..\..\WORK\1N4 Transmitter\SA-100_2339_05_1N4.cydsn/sgable.c ****             {
 1777              		.loc 1 530 0
 1778 02c8 BB68     		ldr	r3, [r7, #8]
 1779 02ca 9B89     		ldrh	r3, [r3, #12]
 1780 02cc 342B     		cmp	r3, #52
 1781 02ce 4ED1     		bne	.L59
 533:..\..\..\..\..\WORK\1N4 Transmitter\SA-100_2339_05_1N4.cydsn/sgable.c ****                 {
 1782              		.loc 1 533 0
 1783 02d0 BB68     		ldr	r3, [r7, #8]
 1784 02d2 181D     		adds	r0, r3, #4
 1785 02d4 234A     		ldr	r2, .L111+20
 1786 02d6 4023     		movs	r3, #64
 1787 02d8 0021     		movs	r1, #0
 1788 02da FFF7FEFF 		bl	CyBle_GattsWriteAttributeValue
 1789 02de 031E     		subs	r3, r0, #0
 1790 02e0 45D1     		bne	.L59
 535:..\..\..\..\..\WORK\1N4 Transmitter\SA-100_2339_05_1N4.cydsn/sgable.c ****                     Sensor.Alert2Ascending <<=8;
 1791              		.loc 1 535 0
 1792 02e2 BB68     		ldr	r3, [r7, #8]
ARM GAS  C:\Users\alexport\AppData\Local\Temp\ccr3ZDs0.s 			page 47


 1793 02e4 5B68     		ldr	r3, [r3, #4]
 1794 02e6 0133     		adds	r3, r3, #1
 1795 02e8 1B78     		ldrb	r3, [r3]
 1796 02ea 99B2     		uxth	r1, r3
 1797 02ec 1E4B     		ldr	r3, .L111+24
 1798 02ee 5E22     		movs	r2, #94
 1799 02f0 9952     		strh	r1, [r3, r2]
 536:..\..\..\..\..\WORK\1N4 Transmitter\SA-100_2339_05_1N4.cydsn/sgable.c ****                     Sensor.Alert2Ascending |= wrReqParam->handleValPair.value.val[0];  /* Update ou
 1800              		.loc 1 536 0
 1801 02f2 1D4B     		ldr	r3, .L111+24
 1802 02f4 5E22     		movs	r2, #94
 1803 02f6 9B5A     		ldrh	r3, [r3, r2]
 1804 02f8 1B02     		lsls	r3, r3, #8
 1805 02fa 99B2     		uxth	r1, r3
 1806 02fc 1A4B     		ldr	r3, .L111+24
 1807 02fe 5E22     		movs	r2, #94
 1808 0300 9952     		strh	r1, [r3, r2]
 537:..\..\..\..\..\WORK\1N4 Transmitter\SA-100_2339_05_1N4.cydsn/sgable.c ****                     CyBle_GattsWriteRsp(cyBle_connHandle);                      /* respond to the c
 1809              		.loc 1 537 0
 1810 0302 194B     		ldr	r3, .L111+24
 1811 0304 5E22     		movs	r2, #94
 1812 0306 9A5A     		ldrh	r2, [r3, r2]
 1813 0308 BB68     		ldr	r3, [r7, #8]
 1814 030a 5B68     		ldr	r3, [r3, #4]
 1815 030c 1B78     		ldrb	r3, [r3]
 1816 030e 9BB2     		uxth	r3, r3
 1817 0310 1343     		orrs	r3, r2
 1818 0312 99B2     		uxth	r1, r3
 1819 0314 144B     		ldr	r3, .L111+24
 1820 0316 5E22     		movs	r2, #94
 1821 0318 9952     		strh	r1, [r3, r2]
 538:..\..\..\..\..\WORK\1N4 Transmitter\SA-100_2339_05_1N4.cydsn/sgable.c ****                     //if( SA100_I2C_INSTALLED ) SA100I2C_Write_16( SA100_CEC_I2C_ADDR, SA100_I2C_Al
 1822              		.loc 1 538 0
 1823 031a 124B     		ldr	r3, .L111+20
 1824 031c 1A78     		ldrb	r2, [r3]
 1825 031e 5B78     		ldrb	r3, [r3, #1]
 1826 0320 1B02     		lsls	r3, r3, #8
 1827 0322 1A43     		orrs	r2, r3
 1828 0324 0023     		movs	r3, #0
 1829 0326 1204     		lsls	r2, r2, #16
 1830 0328 120C     		lsrs	r2, r2, #16
 1831 032a 1B0C     		lsrs	r3, r3, #16
 1832 032c 1B04     		lsls	r3, r3, #16
 1833 032e 1343     		orrs	r3, r2
 1834 0330 1800     		movs	r0, r3
 1835 0332 FFF7FEFF 		bl	CyBle_GattsWriteRsp
 540:..\..\..\..\..\WORK\1N4 Transmitter\SA-100_2339_05_1N4.cydsn/sgable.c ****                     {
 1836              		.loc 1 540 0
 1837 0336 0C4B     		ldr	r3, .L111+24
 1838 0338 9B7B     		ldrb	r3, [r3, #14]
 1839 033a 022B     		cmp	r3, #2
 1840 033c 04D0     		beq	.L104
 1841 033e 032B     		cmp	r3, #3
 1842 0340 04D0     		beq	.L105
 1843 0342 012B     		cmp	r3, #1
 1844 0344 12D0     		beq	.L106
 555:..\..\..\..\..\WORK\1N4 Transmitter\SA-100_2339_05_1N4.cydsn/sgable.c ****                     }
ARM GAS  C:\Users\alexport\AppData\Local\Temp\ccr3ZDs0.s 			page 48


 1845              		.loc 1 555 0
 1846 0346 12E0     		b	.L59
 1847              	.L104:
 547:..\..\..\..\..\WORK\1N4 Transmitter\SA-100_2339_05_1N4.cydsn/sgable.c ****                         case SENSOR_TYPE_IR:
 1848              		.loc 1 547 0
 1849 0348 C046     		nop
 1850 034a 10E0     		b	.L59
 1851              	.L105:
 553:..\..\..\..\..\WORK\1N4 Transmitter\SA-100_2339_05_1N4.cydsn/sgable.c ****                         default:
 1852              		.loc 1 553 0
 1853 034c C046     		nop
 1854 034e 0EE0     		b	.L59
 1855              	.L112:
 1856              		.align	2
 1857              	.L111:
 1858 0350 60F02E40 		.word	1076818016
 1859 0354 31030000 		.word	817
 1860 0358 08000340 		.word	1073938440
 1861 035c 02030080 		.word	-2147482878
 1862 0360 00000000 		.word	System
 1863 0364 00000000 		.word	cyBle_connHandle
 1864 0368 00000000 		.word	Sensor
 1865              	.L106:
 544:..\..\..\..\..\WORK\1N4 Transmitter\SA-100_2339_05_1N4.cydsn/sgable.c ****                         case SENSOR_TYPE_ECHEM:
 1866              		.loc 1 544 0
 1867 036c C046     		nop
 1868              	.L59:
 560:..\..\..\..\..\WORK\1N4 Transmitter\SA-100_2339_05_1N4.cydsn/sgable.c ****             {
 1869              		.loc 1 560 0
 1870 036e BB68     		ldr	r3, [r7, #8]
 1871 0370 9B89     		ldrh	r3, [r3, #12]
 1872 0372 4E2B     		cmp	r3, #78
 1873 0374 37D1     		bne	.L64
 563:..\..\..\..\..\WORK\1N4 Transmitter\SA-100_2339_05_1N4.cydsn/sgable.c ****                 {
 1874              		.loc 1 563 0
 1875 0376 BB68     		ldr	r3, [r7, #8]
 1876 0378 181D     		adds	r0, r3, #4
 1877 037a 594A     		ldr	r2, .L113
 1878 037c 4023     		movs	r3, #64
 1879 037e 0021     		movs	r1, #0
 1880 0380 FFF7FEFF 		bl	CyBle_GattsWriteAttributeValue
 1881 0384 031E     		subs	r3, r0, #0
 1882 0386 2ED1     		bne	.L64
 1883              	.LBB2:
 565:..\..\..\..\..\WORK\1N4 Transmitter\SA-100_2339_05_1N4.cydsn/sgable.c ****                     {
 1884              		.loc 1 565 0
 1885 0388 0F23     		movs	r3, #15
 1886 038a FB18     		adds	r3, r7, r3
 1887 038c 0022     		movs	r2, #0
 1888 038e 1A70     		strb	r2, [r3]
 1889 0390 16E0     		b	.L65
 1890              	.L66:
 567:..\..\..\..\..\WORK\1N4 Transmitter\SA-100_2339_05_1N4.cydsn/sgable.c ****                     }
 1891              		.loc 1 567 0 discriminator 3
 1892 0392 0F23     		movs	r3, #15
 1893 0394 FB18     		adds	r3, r7, r3
 1894 0396 1A78     		ldrb	r2, [r3]
ARM GAS  C:\Users\alexport\AppData\Local\Temp\ccr3ZDs0.s 			page 49


 1895 0398 BB68     		ldr	r3, [r7, #8]
 1896 039a 5968     		ldr	r1, [r3, #4]
 1897 039c 0F23     		movs	r3, #15
 1898 039e FB18     		adds	r3, r7, r3
 1899 03a0 1B78     		ldrb	r3, [r3]
 1900 03a2 CB18     		adds	r3, r1, r3
 1901 03a4 1878     		ldrb	r0, [r3]
 1902 03a6 4F4B     		ldr	r3, .L113+4
 1903 03a8 B221     		movs	r1, #178
 1904 03aa 9B18     		adds	r3, r3, r2
 1905 03ac 5B18     		adds	r3, r3, r1
 1906 03ae 021C     		adds	r2, r0, #0
 1907 03b0 1A70     		strb	r2, [r3]
 565:..\..\..\..\..\WORK\1N4 Transmitter\SA-100_2339_05_1N4.cydsn/sgable.c ****                     {
 1908              		.loc 1 565 0 discriminator 3
 1909 03b2 0F23     		movs	r3, #15
 1910 03b4 FB18     		adds	r3, r7, r3
 1911 03b6 1A78     		ldrb	r2, [r3]
 1912 03b8 0F23     		movs	r3, #15
 1913 03ba FB18     		adds	r3, r7, r3
 1914 03bc 0132     		adds	r2, r2, #1
 1915 03be 1A70     		strb	r2, [r3]
 1916              	.L65:
 565:..\..\..\..\..\WORK\1N4 Transmitter\SA-100_2339_05_1N4.cydsn/sgable.c ****                     {
 1917              		.loc 1 565 0 is_stmt 0 discriminator 1
 1918 03c0 0F23     		movs	r3, #15
 1919 03c2 FB18     		adds	r3, r7, r3
 1920 03c4 1B78     		ldrb	r3, [r3]
 1921 03c6 032B     		cmp	r3, #3
 1922 03c8 E3D9     		bls	.L66
 1923              	.LBE2:
 569:..\..\..\..\..\WORK\1N4 Transmitter\SA-100_2339_05_1N4.cydsn/sgable.c ****                     //SysSaveSystemPinString();
 1924              		.loc 1 569 0 is_stmt 1
 1925 03ca 454B     		ldr	r3, .L113
 1926 03cc 1A78     		ldrb	r2, [r3]
 1927 03ce 5B78     		ldrb	r3, [r3, #1]
 1928 03d0 1B02     		lsls	r3, r3, #8
 1929 03d2 1A43     		orrs	r2, r3
 1930 03d4 0023     		movs	r3, #0
 1931 03d6 1204     		lsls	r2, r2, #16
 1932 03d8 120C     		lsrs	r2, r2, #16
 1933 03da 1B0C     		lsrs	r3, r3, #16
 1934 03dc 1B04     		lsls	r3, r3, #16
 1935 03de 1343     		orrs	r3, r2
 1936 03e0 1800     		movs	r0, r3
 1937 03e2 FFF7FEFF 		bl	CyBle_GattsWriteRsp
 1938              	.L64:
 577:..\..\..\..\..\WORK\1N4 Transmitter\SA-100_2339_05_1N4.cydsn/sgable.c ****             {
 1939              		.loc 1 577 0
 1940 03e6 BB68     		ldr	r3, [r7, #8]
 1941 03e8 9B89     		ldrh	r3, [r3, #12]
 1942 03ea 5A2B     		cmp	r3, #90
 1943 03ec 37D1     		bne	.L67
 580:..\..\..\..\..\WORK\1N4 Transmitter\SA-100_2339_05_1N4.cydsn/sgable.c ****                 {
 1944              		.loc 1 580 0
 1945 03ee BB68     		ldr	r3, [r7, #8]
 1946 03f0 181D     		adds	r0, r3, #4
ARM GAS  C:\Users\alexport\AppData\Local\Temp\ccr3ZDs0.s 			page 50


 1947 03f2 3B4A     		ldr	r2, .L113
 1948 03f4 4023     		movs	r3, #64
 1949 03f6 0021     		movs	r1, #0
 1950 03f8 FFF7FEFF 		bl	CyBle_GattsWriteAttributeValue
 1951 03fc 031E     		subs	r3, r0, #0
 1952 03fe 2ED1     		bne	.L67
 1953              	.LBB3:
 582:..\..\..\..\..\WORK\1N4 Transmitter\SA-100_2339_05_1N4.cydsn/sgable.c ****                     {
 1954              		.loc 1 582 0
 1955 0400 0E23     		movs	r3, #14
 1956 0402 FB18     		adds	r3, r7, r3
 1957 0404 0022     		movs	r2, #0
 1958 0406 1A70     		strb	r2, [r3]
 1959 0408 16E0     		b	.L68
 1960              	.L69:
 584:..\..\..\..\..\WORK\1N4 Transmitter\SA-100_2339_05_1N4.cydsn/sgable.c ****                     }
 1961              		.loc 1 584 0 discriminator 3
 1962 040a 0E23     		movs	r3, #14
 1963 040c FB18     		adds	r3, r7, r3
 1964 040e 1A78     		ldrb	r2, [r3]
 1965 0410 BB68     		ldr	r3, [r7, #8]
 1966 0412 5968     		ldr	r1, [r3, #4]
 1967 0414 0E23     		movs	r3, #14
 1968 0416 FB18     		adds	r3, r7, r3
 1969 0418 1B78     		ldrb	r3, [r3]
 1970 041a CB18     		adds	r3, r1, r3
 1971 041c 1878     		ldrb	r0, [r3]
 1972 041e 314B     		ldr	r3, .L113+4
 1973 0420 8621     		movs	r1, #134
 1974 0422 9B18     		adds	r3, r3, r2
 1975 0424 5B18     		adds	r3, r3, r1
 1976 0426 021C     		adds	r2, r0, #0
 1977 0428 1A70     		strb	r2, [r3]
 582:..\..\..\..\..\WORK\1N4 Transmitter\SA-100_2339_05_1N4.cydsn/sgable.c ****                     {
 1978              		.loc 1 582 0 discriminator 3
 1979 042a 0E23     		movs	r3, #14
 1980 042c FB18     		adds	r3, r7, r3
 1981 042e 1A78     		ldrb	r2, [r3]
 1982 0430 0E23     		movs	r3, #14
 1983 0432 FB18     		adds	r3, r7, r3
 1984 0434 0132     		adds	r2, r2, #1
 1985 0436 1A70     		strb	r2, [r3]
 1986              	.L68:
 582:..\..\..\..\..\WORK\1N4 Transmitter\SA-100_2339_05_1N4.cydsn/sgable.c ****                     {
 1987              		.loc 1 582 0 is_stmt 0 discriminator 1
 1988 0438 0E23     		movs	r3, #14
 1989 043a FB18     		adds	r3, r7, r3
 1990 043c 1B78     		ldrb	r3, [r3]
 1991 043e 132B     		cmp	r3, #19
 1992 0440 E3D9     		bls	.L69
 1993              	.LBE3:
 586:..\..\..\..\..\WORK\1N4 Transmitter\SA-100_2339_05_1N4.cydsn/sgable.c ****                     //SysSaveSensorTagString();
 1994              		.loc 1 586 0 is_stmt 1
 1995 0442 274B     		ldr	r3, .L113
 1996 0444 1A78     		ldrb	r2, [r3]
 1997 0446 5B78     		ldrb	r3, [r3, #1]
 1998 0448 1B02     		lsls	r3, r3, #8
ARM GAS  C:\Users\alexport\AppData\Local\Temp\ccr3ZDs0.s 			page 51


 1999 044a 1A43     		orrs	r2, r3
 2000 044c 0023     		movs	r3, #0
 2001 044e 1204     		lsls	r2, r2, #16
 2002 0450 120C     		lsrs	r2, r2, #16
 2003 0452 1B0C     		lsrs	r3, r3, #16
 2004 0454 1B04     		lsls	r3, r3, #16
 2005 0456 1343     		orrs	r3, r2
 2006 0458 1800     		movs	r0, r3
 2007 045a FFF7FEFF 		bl	CyBle_GattsWriteRsp
 2008              	.L67:
 593:..\..\..\..\..\WORK\1N4 Transmitter\SA-100_2339_05_1N4.cydsn/sgable.c ****             {
 2009              		.loc 1 593 0
 2010 045e BB68     		ldr	r3, [r7, #8]
 2011 0460 9B89     		ldrh	r3, [r3, #12]
 2012 0462 612B     		cmp	r3, #97
 2013 0464 43D1     		bne	.L70
 596:..\..\..\..\..\WORK\1N4 Transmitter\SA-100_2339_05_1N4.cydsn/sgable.c ****                 {
 2014              		.loc 1 596 0
 2015 0466 BB68     		ldr	r3, [r7, #8]
 2016 0468 181D     		adds	r0, r3, #4
 2017 046a 1D4A     		ldr	r2, .L113
 2018 046c 4023     		movs	r3, #64
 2019 046e 0021     		movs	r1, #0
 2020 0470 FFF7FEFF 		bl	CyBle_GattsWriteAttributeValue
 2021 0474 031E     		subs	r3, r0, #0
 2022 0476 3AD1     		bne	.L70
 598:..\..\..\..\..\WORK\1N4 Transmitter\SA-100_2339_05_1N4.cydsn/sgable.c ****                     Sensor.CalLevel <<=8;
 2023              		.loc 1 598 0
 2024 0478 BB68     		ldr	r3, [r7, #8]
 2025 047a 5B68     		ldr	r3, [r3, #4]
 2026 047c 0133     		adds	r3, r3, #1
 2027 047e 1B78     		ldrb	r3, [r3]
 2028 0480 1AB2     		sxth	r2, r3
 2029 0482 194B     		ldr	r3, .L113+8
 2030 0484 1A87     		strh	r2, [r3, #56]
 599:..\..\..\..\..\WORK\1N4 Transmitter\SA-100_2339_05_1N4.cydsn/sgable.c ****                     Sensor.CalLevel |= wrReqParam->handleValPair.value.val[0];  /* Update our local
 2031              		.loc 1 599 0
 2032 0486 184B     		ldr	r3, .L113+8
 2033 0488 3822     		movs	r2, #56
 2034 048a 9B5E     		ldrsh	r3, [r3, r2]
 2035 048c 1B02     		lsls	r3, r3, #8
 2036 048e 1AB2     		sxth	r2, r3
 2037 0490 154B     		ldr	r3, .L113+8
 2038 0492 1A87     		strh	r2, [r3, #56]
 600:..\..\..\..\..\WORK\1N4 Transmitter\SA-100_2339_05_1N4.cydsn/sgable.c ****                     CyBle_GattsWriteRsp(cyBle_connHandle);                      /* respond to the c
 2039              		.loc 1 600 0
 2040 0494 144B     		ldr	r3, .L113+8
 2041 0496 3822     		movs	r2, #56
 2042 0498 9A5E     		ldrsh	r2, [r3, r2]
 2043 049a BB68     		ldr	r3, [r7, #8]
 2044 049c 5B68     		ldr	r3, [r3, #4]
 2045 049e 1B78     		ldrb	r3, [r3]
 2046 04a0 1BB2     		sxth	r3, r3
 2047 04a2 1343     		orrs	r3, r2
 2048 04a4 1AB2     		sxth	r2, r3
 2049 04a6 104B     		ldr	r3, .L113+8
 2050 04a8 1A87     		strh	r2, [r3, #56]
ARM GAS  C:\Users\alexport\AppData\Local\Temp\ccr3ZDs0.s 			page 52


 601:..\..\..\..\..\WORK\1N4 Transmitter\SA-100_2339_05_1N4.cydsn/sgable.c ****                     //if( SA100_I2C_INSTALLED ) SA100I2C_Write_16( SA100_CEC_I2C_ADDR, SA100_I2C_Ca
 2051              		.loc 1 601 0
 2052 04aa 0D4B     		ldr	r3, .L113
 2053 04ac 1A78     		ldrb	r2, [r3]
 2054 04ae 5B78     		ldrb	r3, [r3, #1]
 2055 04b0 1B02     		lsls	r3, r3, #8
 2056 04b2 1A43     		orrs	r2, r3
 2057 04b4 0023     		movs	r3, #0
 2058 04b6 1204     		lsls	r2, r2, #16
 2059 04b8 120C     		lsrs	r2, r2, #16
 2060 04ba 1B0C     		lsrs	r3, r3, #16
 2061 04bc 1B04     		lsls	r3, r3, #16
 2062 04be 1343     		orrs	r3, r2
 2063 04c0 1800     		movs	r0, r3
 2064 04c2 FFF7FEFF 		bl	CyBle_GattsWriteRsp
 604:..\..\..\..\..\WORK\1N4 Transmitter\SA-100_2339_05_1N4.cydsn/sgable.c ****                     {
 2065              		.loc 1 604 0
 2066 04c6 084B     		ldr	r3, .L113+8
 2067 04c8 9B7B     		ldrb	r3, [r3, #14]
 2068 04ca 022B     		cmp	r3, #2
 2069 04cc 04D0     		beq	.L107
 2070 04ce 032B     		cmp	r3, #3
 2071 04d0 04D0     		beq	.L108
 2072 04d2 012B     		cmp	r3, #1
 2073 04d4 0AD0     		beq	.L109
 620:..\..\..\..\..\WORK\1N4 Transmitter\SA-100_2339_05_1N4.cydsn/sgable.c ****                     }
 2074              		.loc 1 620 0
 2075 04d6 0AE0     		b	.L70
 2076              	.L107:
 611:..\..\..\..\..\WORK\1N4 Transmitter\SA-100_2339_05_1N4.cydsn/sgable.c ****                         case SENSOR_TYPE_IR:
 2077              		.loc 1 611 0
 2078 04d8 C046     		nop
 2079 04da 08E0     		b	.L70
 2080              	.L108:
 618:..\..\..\..\..\WORK\1N4 Transmitter\SA-100_2339_05_1N4.cydsn/sgable.c ****                         default:
 2081              		.loc 1 618 0
 2082 04dc C046     		nop
 2083 04de 06E0     		b	.L70
 2084              	.L114:
 2085              		.align	2
 2086              	.L113:
 2087 04e0 00000000 		.word	cyBle_connHandle
 2088 04e4 00000000 		.word	System
 2089 04e8 00000000 		.word	Sensor
 2090              	.L109:
 608:..\..\..\..\..\WORK\1N4 Transmitter\SA-100_2339_05_1N4.cydsn/sgable.c ****                         case SENSOR_TYPE_ECHEM:
 2091              		.loc 1 608 0
 2092 04ec C046     		nop
 2093              	.L70:
 625:..\..\..\..\..\WORK\1N4 Transmitter\SA-100_2339_05_1N4.cydsn/sgable.c ****             {
 2094              		.loc 1 625 0
 2095 04ee BB68     		ldr	r3, [r7, #8]
 2096 04f0 9B89     		ldrh	r3, [r3, #12]
 2097 04f2 242B     		cmp	r3, #36
 2098 04f4 32D1     		bne	.L75
 628:..\..\..\..\..\WORK\1N4 Transmitter\SA-100_2339_05_1N4.cydsn/sgable.c ****                 {
 2099              		.loc 1 628 0
ARM GAS  C:\Users\alexport\AppData\Local\Temp\ccr3ZDs0.s 			page 53


 2100 04f6 BB68     		ldr	r3, [r7, #8]
 2101 04f8 181D     		adds	r0, r3, #4
 2102 04fa E74A     		ldr	r2, .L115
 2103 04fc 4023     		movs	r3, #64
 2104 04fe 0021     		movs	r1, #0
 2105 0500 FFF7FEFF 		bl	CyBle_GattsWriteAttributeValue
 2106 0504 031E     		subs	r3, r0, #0
 2107 0506 29D1     		bne	.L75
 630:..\..\..\..\..\WORK\1N4 Transmitter\SA-100_2339_05_1N4.cydsn/sgable.c ****                     System.BleCalLoop <<=8;
 2108              		.loc 1 630 0
 2109 0508 BB68     		ldr	r3, [r7, #8]
 2110 050a 5B68     		ldr	r3, [r3, #4]
 2111 050c 0133     		adds	r3, r3, #1
 2112 050e 1B78     		ldrb	r3, [r3]
 2113 0510 99B2     		uxth	r1, r3
 2114 0512 E24B     		ldr	r3, .L115+4
 2115 0514 8422     		movs	r2, #132
 2116 0516 9952     		strh	r1, [r3, r2]
 631:..\..\..\..\..\WORK\1N4 Transmitter\SA-100_2339_05_1N4.cydsn/sgable.c ****                     System.BleCalLoop |= wrReqParam->handleValPair.value.val[0];  /* Update our loc
 2117              		.loc 1 631 0
 2118 0518 E04B     		ldr	r3, .L115+4
 2119 051a 8422     		movs	r2, #132
 2120 051c 9B5A     		ldrh	r3, [r3, r2]
 2121 051e 1B02     		lsls	r3, r3, #8
 2122 0520 99B2     		uxth	r1, r3
 2123 0522 DE4B     		ldr	r3, .L115+4
 2124 0524 8422     		movs	r2, #132
 2125 0526 9952     		strh	r1, [r3, r2]
 632:..\..\..\..\..\WORK\1N4 Transmitter\SA-100_2339_05_1N4.cydsn/sgable.c ****                     CyBle_GattsWriteRsp(cyBle_connHandle);                      /* respond to the c
 2126              		.loc 1 632 0
 2127 0528 DC4B     		ldr	r3, .L115+4
 2128 052a 8422     		movs	r2, #132
 2129 052c 9A5A     		ldrh	r2, [r3, r2]
 2130 052e BB68     		ldr	r3, [r7, #8]
 2131 0530 5B68     		ldr	r3, [r3, #4]
 2132 0532 1B78     		ldrb	r3, [r3]
 2133 0534 9BB2     		uxth	r3, r3
 2134 0536 1343     		orrs	r3, r2
 2135 0538 99B2     		uxth	r1, r3
 2136 053a D84B     		ldr	r3, .L115+4
 2137 053c 8422     		movs	r2, #132
 2138 053e 9952     		strh	r1, [r3, r2]
 633:..\..\..\..\..\WORK\1N4 Transmitter\SA-100_2339_05_1N4.cydsn/sgable.c ****                 }
 2139              		.loc 1 633 0
 2140 0540 D54B     		ldr	r3, .L115
 2141 0542 1A78     		ldrb	r2, [r3]
 2142 0544 5B78     		ldrb	r3, [r3, #1]
 2143 0546 1B02     		lsls	r3, r3, #8
 2144 0548 1A43     		orrs	r2, r3
 2145 054a 0023     		movs	r3, #0
 2146 054c 1204     		lsls	r2, r2, #16
 2147 054e 120C     		lsrs	r2, r2, #16
 2148 0550 1B0C     		lsrs	r3, r3, #16
 2149 0552 1B04     		lsls	r3, r3, #16
 2150 0554 1343     		orrs	r3, r2
 2151 0556 1800     		movs	r0, r3
 2152 0558 FFF7FEFF 		bl	CyBle_GattsWriteRsp
ARM GAS  C:\Users\alexport\AppData\Local\Temp\ccr3ZDs0.s 			page 54


 2153              	.L75:
 637:..\..\..\..\..\WORK\1N4 Transmitter\SA-100_2339_05_1N4.cydsn/sgable.c ****             {
 2154              		.loc 1 637 0
 2155 055c BB68     		ldr	r3, [r7, #8]
 2156 055e 9B89     		ldrh	r3, [r3, #12]
 2157 0560 8F2B     		cmp	r3, #143
 2158 0562 1CD1     		bne	.L76
 640:..\..\..\..\..\WORK\1N4 Transmitter\SA-100_2339_05_1N4.cydsn/sgable.c ****                 {
 2159              		.loc 1 640 0
 2160 0564 BB68     		ldr	r3, [r7, #8]
 2161 0566 181D     		adds	r0, r3, #4
 2162 0568 CB4A     		ldr	r2, .L115
 2163 056a 4023     		movs	r3, #64
 2164 056c 0021     		movs	r1, #0
 2165 056e FFF7FEFF 		bl	CyBle_GattsWriteAttributeValue
 2166 0572 031E     		subs	r3, r0, #0
 2167 0574 13D1     		bne	.L76
 642:..\..\..\..\..\WORK\1N4 Transmitter\SA-100_2339_05_1N4.cydsn/sgable.c ****                     CyBle_GattsWriteRsp(cyBle_connHandle);                      /* respond to the c
 2168              		.loc 1 642 0
 2169 0576 BB68     		ldr	r3, [r7, #8]
 2170 0578 5B68     		ldr	r3, [r3, #4]
 2171 057a 1978     		ldrb	r1, [r3]
 2172 057c C74B     		ldr	r3, .L115+4
 2173 057e 9E22     		movs	r2, #158
 2174 0580 9954     		strb	r1, [r3, r2]
 643:..\..\..\..\..\WORK\1N4 Transmitter\SA-100_2339_05_1N4.cydsn/sgable.c ****                 }
 2175              		.loc 1 643 0
 2176 0582 C54B     		ldr	r3, .L115
 2177 0584 1A78     		ldrb	r2, [r3]
 2178 0586 5B78     		ldrb	r3, [r3, #1]
 2179 0588 1B02     		lsls	r3, r3, #8
 2180 058a 1A43     		orrs	r2, r3
 2181 058c 0023     		movs	r3, #0
 2182 058e 1204     		lsls	r2, r2, #16
 2183 0590 120C     		lsrs	r2, r2, #16
 2184 0592 1B0C     		lsrs	r3, r3, #16
 2185 0594 1B04     		lsls	r3, r3, #16
 2186 0596 1343     		orrs	r3, r2
 2187 0598 1800     		movs	r0, r3
 2188 059a FFF7FEFF 		bl	CyBle_GattsWriteRsp
 2189              	.L76:
 649:..\..\..\..\..\WORK\1N4 Transmitter\SA-100_2339_05_1N4.cydsn/sgable.c ****             {
 2190              		.loc 1 649 0
 2191 059e BB68     		ldr	r3, [r7, #8]
 2192 05a0 9B89     		ldrh	r3, [r3, #12]
 2193 05a2 142B     		cmp	r3, #20
 2194 05a4 1CD1     		bne	.L77
 651:..\..\..\..\..\WORK\1N4 Transmitter\SA-100_2339_05_1N4.cydsn/sgable.c ****                 System.BleNotifyControl = wrReqParam->handleValPair.value.val[0] & 0x01; /* Update 
 2195              		.loc 1 651 0
 2196 05a6 BB68     		ldr	r3, [r7, #8]
 2197 05a8 181D     		adds	r0, r3, #4
 2198 05aa BB4A     		ldr	r2, .L115
 2199 05ac 4023     		movs	r3, #64
 2200 05ae 0021     		movs	r1, #0
 2201 05b0 FFF7FEFF 		bl	CyBle_GattsWriteAttributeValue
 652:..\..\..\..\..\WORK\1N4 Transmitter\SA-100_2339_05_1N4.cydsn/sgable.c ****                 CyBle_GattsWriteRsp(cyBle_connHandle);                          /* respond to the c
 2202              		.loc 1 652 0
ARM GAS  C:\Users\alexport\AppData\Local\Temp\ccr3ZDs0.s 			page 55


 2203 05b4 BB68     		ldr	r3, [r7, #8]
 2204 05b6 5B68     		ldr	r3, [r3, #4]
 2205 05b8 1B78     		ldrb	r3, [r3]
 2206 05ba 0122     		movs	r2, #1
 2207 05bc 1340     		ands	r3, r2
 2208 05be DAB2     		uxtb	r2, r3
 2209 05c0 B64B     		ldr	r3, .L115+4
 2210 05c2 5A71     		strb	r2, [r3, #5]
 653:..\..\..\..\..\WORK\1N4 Transmitter\SA-100_2339_05_1N4.cydsn/sgable.c ****             }
 2211              		.loc 1 653 0
 2212 05c4 B44B     		ldr	r3, .L115
 2213 05c6 1A78     		ldrb	r2, [r3]
 2214 05c8 5B78     		ldrb	r3, [r3, #1]
 2215 05ca 1B02     		lsls	r3, r3, #8
 2216 05cc 1A43     		orrs	r2, r3
 2217 05ce 0023     		movs	r3, #0
 2218 05d0 1204     		lsls	r2, r2, #16
 2219 05d2 120C     		lsrs	r2, r2, #16
 2220 05d4 1B0C     		lsrs	r3, r3, #16
 2221 05d6 1B04     		lsls	r3, r3, #16
 2222 05d8 1343     		orrs	r3, r2
 2223 05da 1800     		movs	r0, r3
 2224 05dc FFF7FEFF 		bl	CyBle_GattsWriteRsp
 2225              	.L77:
 656:..\..\..\..\..\WORK\1N4 Transmitter\SA-100_2339_05_1N4.cydsn/sgable.c ****             {
 2226              		.loc 1 656 0
 2227 05e0 BB68     		ldr	r3, [r7, #8]
 2228 05e2 9B89     		ldrh	r3, [r3, #12]
 2229 05e4 182B     		cmp	r3, #24
 2230 05e6 1CD1     		bne	.L78
 658:..\..\..\..\..\WORK\1N4 Transmitter\SA-100_2339_05_1N4.cydsn/sgable.c ****                 System.BleNotifyReading = wrReqParam->handleValPair.value.val[0] & 0x01; /* Update 
 2231              		.loc 1 658 0
 2232 05e8 BB68     		ldr	r3, [r7, #8]
 2233 05ea 181D     		adds	r0, r3, #4
 2234 05ec AA4A     		ldr	r2, .L115
 2235 05ee 4023     		movs	r3, #64
 2236 05f0 0021     		movs	r1, #0
 2237 05f2 FFF7FEFF 		bl	CyBle_GattsWriteAttributeValue
 659:..\..\..\..\..\WORK\1N4 Transmitter\SA-100_2339_05_1N4.cydsn/sgable.c ****                 CyBle_GattsWriteRsp(cyBle_connHandle);                          /* respond to the c
 2238              		.loc 1 659 0
 2239 05f6 BB68     		ldr	r3, [r7, #8]
 2240 05f8 5B68     		ldr	r3, [r3, #4]
 2241 05fa 1B78     		ldrb	r3, [r3]
 2242 05fc 0122     		movs	r2, #1
 2243 05fe 1340     		ands	r3, r2
 2244 0600 DAB2     		uxtb	r2, r3
 2245 0602 A64B     		ldr	r3, .L115+4
 2246 0604 9A70     		strb	r2, [r3, #2]
 660:..\..\..\..\..\WORK\1N4 Transmitter\SA-100_2339_05_1N4.cydsn/sgable.c ****             }
 2247              		.loc 1 660 0
 2248 0606 A44B     		ldr	r3, .L115
 2249 0608 1A78     		ldrb	r2, [r3]
 2250 060a 5B78     		ldrb	r3, [r3, #1]
 2251 060c 1B02     		lsls	r3, r3, #8
 2252 060e 1A43     		orrs	r2, r3
 2253 0610 0023     		movs	r3, #0
 2254 0612 1204     		lsls	r2, r2, #16
ARM GAS  C:\Users\alexport\AppData\Local\Temp\ccr3ZDs0.s 			page 56


 2255 0614 120C     		lsrs	r2, r2, #16
 2256 0616 1B0C     		lsrs	r3, r3, #16
 2257 0618 1B04     		lsls	r3, r3, #16
 2258 061a 1343     		orrs	r3, r2
 2259 061c 1800     		movs	r0, r3
 2260 061e FFF7FEFF 		bl	CyBle_GattsWriteRsp
 2261              	.L78:
 663:..\..\..\..\..\WORK\1N4 Transmitter\SA-100_2339_05_1N4.cydsn/sgable.c ****             {
 2262              		.loc 1 663 0
 2263 0622 BB68     		ldr	r3, [r7, #8]
 2264 0624 9B89     		ldrh	r3, [r3, #12]
 2265 0626 1C2B     		cmp	r3, #28
 2266 0628 1CD1     		bne	.L79
 665:..\..\..\..\..\WORK\1N4 Transmitter\SA-100_2339_05_1N4.cydsn/sgable.c ****                 System.BleNotifyStatus = wrReqParam->handleValPair.value.val[0] & 0x01; /* Update l
 2267              		.loc 1 665 0
 2268 062a BB68     		ldr	r3, [r7, #8]
 2269 062c 181D     		adds	r0, r3, #4
 2270 062e 9A4A     		ldr	r2, .L115
 2271 0630 4023     		movs	r3, #64
 2272 0632 0021     		movs	r1, #0
 2273 0634 FFF7FEFF 		bl	CyBle_GattsWriteAttributeValue
 666:..\..\..\..\..\WORK\1N4 Transmitter\SA-100_2339_05_1N4.cydsn/sgable.c ****                 CyBle_GattsWriteRsp(cyBle_connHandle);                          /* respond to the c
 2274              		.loc 1 666 0
 2275 0638 BB68     		ldr	r3, [r7, #8]
 2276 063a 5B68     		ldr	r3, [r3, #4]
 2277 063c 1B78     		ldrb	r3, [r3]
 2278 063e 0122     		movs	r2, #1
 2279 0640 1340     		ands	r3, r2
 2280 0642 DAB2     		uxtb	r2, r3
 2281 0644 954B     		ldr	r3, .L115+4
 2282 0646 DA70     		strb	r2, [r3, #3]
 667:..\..\..\..\..\WORK\1N4 Transmitter\SA-100_2339_05_1N4.cydsn/sgable.c ****             }
 2283              		.loc 1 667 0
 2284 0648 934B     		ldr	r3, .L115
 2285 064a 1A78     		ldrb	r2, [r3]
 2286 064c 5B78     		ldrb	r3, [r3, #1]
 2287 064e 1B02     		lsls	r3, r3, #8
 2288 0650 1A43     		orrs	r2, r3
 2289 0652 0023     		movs	r3, #0
 2290 0654 1204     		lsls	r2, r2, #16
 2291 0656 120C     		lsrs	r2, r2, #16
 2292 0658 1B0C     		lsrs	r3, r3, #16
 2293 065a 1B04     		lsls	r3, r3, #16
 2294 065c 1343     		orrs	r3, r2
 2295 065e 1800     		movs	r0, r3
 2296 0660 FFF7FEFF 		bl	CyBle_GattsWriteRsp
 2297              	.L79:
 670:..\..\..\..\..\WORK\1N4 Transmitter\SA-100_2339_05_1N4.cydsn/sgable.c ****             {
 2298              		.loc 1 670 0
 2299 0664 BB68     		ldr	r3, [r7, #8]
 2300 0666 9B89     		ldrh	r3, [r3, #12]
 2301 0668 292B     		cmp	r3, #41
 2302 066a 1CD1     		bne	.L80
 672:..\..\..\..\..\WORK\1N4 Transmitter\SA-100_2339_05_1N4.cydsn/sgable.c ****                 System.BleNotifyAdcCounts = wrReqParam->handleValPair.value.val[0] & 0x01; /* Updat
 2303              		.loc 1 672 0
 2304 066c BB68     		ldr	r3, [r7, #8]
 2305 066e 181D     		adds	r0, r3, #4
ARM GAS  C:\Users\alexport\AppData\Local\Temp\ccr3ZDs0.s 			page 57


 2306 0670 894A     		ldr	r2, .L115
 2307 0672 4023     		movs	r3, #64
 2308 0674 0021     		movs	r1, #0
 2309 0676 FFF7FEFF 		bl	CyBle_GattsWriteAttributeValue
 673:..\..\..\..\..\WORK\1N4 Transmitter\SA-100_2339_05_1N4.cydsn/sgable.c ****                 CyBle_GattsWriteRsp(cyBle_connHandle);                          /* respond to the c
 2310              		.loc 1 673 0
 2311 067a BB68     		ldr	r3, [r7, #8]
 2312 067c 5B68     		ldr	r3, [r3, #4]
 2313 067e 1B78     		ldrb	r3, [r3]
 2314 0680 0122     		movs	r2, #1
 2315 0682 1340     		ands	r3, r2
 2316 0684 DAB2     		uxtb	r2, r3
 2317 0686 854B     		ldr	r3, .L115+4
 2318 0688 9A74     		strb	r2, [r3, #18]
 674:..\..\..\..\..\WORK\1N4 Transmitter\SA-100_2339_05_1N4.cydsn/sgable.c ****             }
 2319              		.loc 1 674 0
 2320 068a 834B     		ldr	r3, .L115
 2321 068c 1A78     		ldrb	r2, [r3]
 2322 068e 5B78     		ldrb	r3, [r3, #1]
 2323 0690 1B02     		lsls	r3, r3, #8
 2324 0692 1A43     		orrs	r2, r3
 2325 0694 0023     		movs	r3, #0
 2326 0696 1204     		lsls	r2, r2, #16
 2327 0698 120C     		lsrs	r2, r2, #16
 2328 069a 1B0C     		lsrs	r3, r3, #16
 2329 069c 1B04     		lsls	r3, r3, #16
 2330 069e 1343     		orrs	r3, r2
 2331 06a0 1800     		movs	r0, r3
 2332 06a2 FFF7FEFF 		bl	CyBle_GattsWriteRsp
 2333              	.L80:
 677:..\..\..\..\..\WORK\1N4 Transmitter\SA-100_2339_05_1N4.cydsn/sgable.c ****             {
 2334              		.loc 1 677 0
 2335 06a6 BB68     		ldr	r3, [r7, #8]
 2336 06a8 9B89     		ldrh	r3, [r3, #12]
 2337 06aa 5F2B     		cmp	r3, #95
 2338 06ac 1CD1     		bne	.L81
 679:..\..\..\..\..\WORK\1N4 Transmitter\SA-100_2339_05_1N4.cydsn/sgable.c ****                 System.BleNotifyTemperature = wrReqParam->handleValPair.value.val[0] & 0x01; /* Upd
 2339              		.loc 1 679 0
 2340 06ae BB68     		ldr	r3, [r7, #8]
 2341 06b0 181D     		adds	r0, r3, #4
 2342 06b2 794A     		ldr	r2, .L115
 2343 06b4 4023     		movs	r3, #64
 2344 06b6 0021     		movs	r1, #0
 2345 06b8 FFF7FEFF 		bl	CyBle_GattsWriteAttributeValue
 680:..\..\..\..\..\WORK\1N4 Transmitter\SA-100_2339_05_1N4.cydsn/sgable.c ****                 CyBle_GattsWriteRsp(cyBle_connHandle);                          /* respond to the c
 2346              		.loc 1 680 0
 2347 06bc BB68     		ldr	r3, [r7, #8]
 2348 06be 5B68     		ldr	r3, [r3, #4]
 2349 06c0 1B78     		ldrb	r3, [r3]
 2350 06c2 0122     		movs	r2, #1
 2351 06c4 1340     		ands	r3, r2
 2352 06c6 DAB2     		uxtb	r2, r3
 2353 06c8 744B     		ldr	r3, .L115+4
 2354 06ca 9A71     		strb	r2, [r3, #6]
 681:..\..\..\..\..\WORK\1N4 Transmitter\SA-100_2339_05_1N4.cydsn/sgable.c ****             }
 2355              		.loc 1 681 0
 2356 06cc 724B     		ldr	r3, .L115
ARM GAS  C:\Users\alexport\AppData\Local\Temp\ccr3ZDs0.s 			page 58


 2357 06ce 1A78     		ldrb	r2, [r3]
 2358 06d0 5B78     		ldrb	r3, [r3, #1]
 2359 06d2 1B02     		lsls	r3, r3, #8
 2360 06d4 1A43     		orrs	r2, r3
 2361 06d6 0023     		movs	r3, #0
 2362 06d8 1204     		lsls	r2, r2, #16
 2363 06da 120C     		lsrs	r2, r2, #16
 2364 06dc 1B0C     		lsrs	r3, r3, #16
 2365 06de 1B04     		lsls	r3, r3, #16
 2366 06e0 1343     		orrs	r3, r2
 2367 06e2 1800     		movs	r0, r3
 2368 06e4 FFF7FEFF 		bl	CyBle_GattsWriteRsp
 2369              	.L81:
 684:..\..\..\..\..\WORK\1N4 Transmitter\SA-100_2339_05_1N4.cydsn/sgable.c ****             {
 2370              		.loc 1 684 0
 2371 06e8 BB68     		ldr	r3, [r7, #8]
 2372 06ea 9B89     		ldrh	r3, [r3, #12]
 2373 06ec 632B     		cmp	r3, #99
 2374 06ee 1CD1     		bne	.L82
 686:..\..\..\..\..\WORK\1N4 Transmitter\SA-100_2339_05_1N4.cydsn/sgable.c ****                 System.BleNotifyCalLevel = wrReqParam->handleValPair.value.val[0] & 0x01; /* Update
 2375              		.loc 1 686 0
 2376 06f0 BB68     		ldr	r3, [r7, #8]
 2377 06f2 181D     		adds	r0, r3, #4
 2378 06f4 684A     		ldr	r2, .L115
 2379 06f6 4023     		movs	r3, #64
 2380 06f8 0021     		movs	r1, #0
 2381 06fa FFF7FEFF 		bl	CyBle_GattsWriteAttributeValue
 687:..\..\..\..\..\WORK\1N4 Transmitter\SA-100_2339_05_1N4.cydsn/sgable.c ****                 CyBle_GattsWriteRsp(cyBle_connHandle);                          /* respond to the c
 2382              		.loc 1 687 0
 2383 06fe BB68     		ldr	r3, [r7, #8]
 2384 0700 5B68     		ldr	r3, [r3, #4]
 2385 0702 1B78     		ldrb	r3, [r3]
 2386 0704 0122     		movs	r2, #1
 2387 0706 1340     		ands	r3, r2
 2388 0708 DAB2     		uxtb	r2, r3
 2389 070a 644B     		ldr	r3, .L115+4
 2390 070c 1A72     		strb	r2, [r3, #8]
 688:..\..\..\..\..\WORK\1N4 Transmitter\SA-100_2339_05_1N4.cydsn/sgable.c ****             }
 2391              		.loc 1 688 0
 2392 070e 624B     		ldr	r3, .L115
 2393 0710 1A78     		ldrb	r2, [r3]
 2394 0712 5B78     		ldrb	r3, [r3, #1]
 2395 0714 1B02     		lsls	r3, r3, #8
 2396 0716 1A43     		orrs	r2, r3
 2397 0718 0023     		movs	r3, #0
 2398 071a 1204     		lsls	r2, r2, #16
 2399 071c 120C     		lsrs	r2, r2, #16
 2400 071e 1B0C     		lsrs	r3, r3, #16
 2401 0720 1B04     		lsls	r3, r3, #16
 2402 0722 1343     		orrs	r3, r2
 2403 0724 1800     		movs	r0, r3
 2404 0726 FFF7FEFF 		bl	CyBle_GattsWriteRsp
 2405              	.L82:
 691:..\..\..\..\..\WORK\1N4 Transmitter\SA-100_2339_05_1N4.cydsn/sgable.c ****             {
 2406              		.loc 1 691 0
 2407 072a BB68     		ldr	r3, [r7, #8]
 2408 072c 9B89     		ldrh	r3, [r3, #12]
ARM GAS  C:\Users\alexport\AppData\Local\Temp\ccr3ZDs0.s 			page 59


 2409 072e 6E2B     		cmp	r3, #110
 2410 0730 1CD1     		bne	.L83
 693:..\..\..\..\..\WORK\1N4 Transmitter\SA-100_2339_05_1N4.cydsn/sgable.c ****                 System.BleNotifyCalZeroError = wrReqParam->handleValPair.value.val[0] & 0x01; /* Up
 2411              		.loc 1 693 0
 2412 0732 BB68     		ldr	r3, [r7, #8]
 2413 0734 181D     		adds	r0, r3, #4
 2414 0736 584A     		ldr	r2, .L115
 2415 0738 4023     		movs	r3, #64
 2416 073a 0021     		movs	r1, #0
 2417 073c FFF7FEFF 		bl	CyBle_GattsWriteAttributeValue
 694:..\..\..\..\..\WORK\1N4 Transmitter\SA-100_2339_05_1N4.cydsn/sgable.c ****                 CyBle_GattsWriteRsp(cyBle_connHandle);                          /* respond to the c
 2418              		.loc 1 694 0
 2419 0740 BB68     		ldr	r3, [r7, #8]
 2420 0742 5B68     		ldr	r3, [r3, #4]
 2421 0744 1B78     		ldrb	r3, [r3]
 2422 0746 0122     		movs	r2, #1
 2423 0748 1340     		ands	r3, r2
 2424 074a DAB2     		uxtb	r2, r3
 2425 074c 534B     		ldr	r3, .L115+4
 2426 074e DA72     		strb	r2, [r3, #11]
 695:..\..\..\..\..\WORK\1N4 Transmitter\SA-100_2339_05_1N4.cydsn/sgable.c ****             }
 2427              		.loc 1 695 0
 2428 0750 514B     		ldr	r3, .L115
 2429 0752 1A78     		ldrb	r2, [r3]
 2430 0754 5B78     		ldrb	r3, [r3, #1]
 2431 0756 1B02     		lsls	r3, r3, #8
 2432 0758 1A43     		orrs	r2, r3
 2433 075a 0023     		movs	r3, #0
 2434 075c 1204     		lsls	r2, r2, #16
 2435 075e 120C     		lsrs	r2, r2, #16
 2436 0760 1B0C     		lsrs	r3, r3, #16
 2437 0762 1B04     		lsls	r3, r3, #16
 2438 0764 1343     		orrs	r3, r2
 2439 0766 1800     		movs	r0, r3
 2440 0768 FFF7FEFF 		bl	CyBle_GattsWriteRsp
 2441              	.L83:
 698:..\..\..\..\..\WORK\1N4 Transmitter\SA-100_2339_05_1N4.cydsn/sgable.c ****             {
 2442              		.loc 1 698 0
 2443 076c BB68     		ldr	r3, [r7, #8]
 2444 076e 9B89     		ldrh	r3, [r3, #12]
 2445 0770 722B     		cmp	r3, #114
 2446 0772 1CD1     		bne	.L84
 700:..\..\..\..\..\WORK\1N4 Transmitter\SA-100_2339_05_1N4.cydsn/sgable.c ****                 System.BleNotifyCalStep = wrReqParam->handleValPair.value.val[0] & 0x01; /* Update 
 2447              		.loc 1 700 0
 2448 0774 BB68     		ldr	r3, [r7, #8]
 2449 0776 181D     		adds	r0, r3, #4
 2450 0778 474A     		ldr	r2, .L115
 2451 077a 4023     		movs	r3, #64
 2452 077c 0021     		movs	r1, #0
 2453 077e FFF7FEFF 		bl	CyBle_GattsWriteAttributeValue
 701:..\..\..\..\..\WORK\1N4 Transmitter\SA-100_2339_05_1N4.cydsn/sgable.c ****                 CyBle_GattsWriteRsp(cyBle_connHandle);                          /* respond to the c
 2454              		.loc 1 701 0
 2455 0782 BB68     		ldr	r3, [r7, #8]
 2456 0784 5B68     		ldr	r3, [r3, #4]
 2457 0786 1B78     		ldrb	r3, [r3]
 2458 0788 0122     		movs	r2, #1
 2459 078a 1340     		ands	r3, r2
ARM GAS  C:\Users\alexport\AppData\Local\Temp\ccr3ZDs0.s 			page 60


 2460 078c DAB2     		uxtb	r2, r3
 2461 078e 434B     		ldr	r3, .L115+4
 2462 0790 1A73     		strb	r2, [r3, #12]
 702:..\..\..\..\..\WORK\1N4 Transmitter\SA-100_2339_05_1N4.cydsn/sgable.c ****             }
 2463              		.loc 1 702 0
 2464 0792 414B     		ldr	r3, .L115
 2465 0794 1A78     		ldrb	r2, [r3]
 2466 0796 5B78     		ldrb	r3, [r3, #1]
 2467 0798 1B02     		lsls	r3, r3, #8
 2468 079a 1A43     		orrs	r2, r3
 2469 079c 0023     		movs	r3, #0
 2470 079e 1204     		lsls	r2, r2, #16
 2471 07a0 120C     		lsrs	r2, r2, #16
 2472 07a2 1B0C     		lsrs	r3, r3, #16
 2473 07a4 1B04     		lsls	r3, r3, #16
 2474 07a6 1343     		orrs	r3, r2
 2475 07a8 1800     		movs	r0, r3
 2476 07aa FFF7FEFF 		bl	CyBle_GattsWriteRsp
 2477              	.L84:
 705:..\..\..\..\..\WORK\1N4 Transmitter\SA-100_2339_05_1N4.cydsn/sgable.c ****             {
 2478              		.loc 1 705 0
 2479 07ae BB68     		ldr	r3, [r7, #8]
 2480 07b0 9B89     		ldrh	r3, [r3, #12]
 2481 07b2 762B     		cmp	r3, #118
 2482 07b4 1CD1     		bne	.L85
 707:..\..\..\..\..\WORK\1N4 Transmitter\SA-100_2339_05_1N4.cydsn/sgable.c ****                 System.BleNotifyCalSpeed = wrReqParam->handleValPair.value.val[0] & 0x01; /* Update
 2483              		.loc 1 707 0
 2484 07b6 BB68     		ldr	r3, [r7, #8]
 2485 07b8 181D     		adds	r0, r3, #4
 2486 07ba 374A     		ldr	r2, .L115
 2487 07bc 4023     		movs	r3, #64
 2488 07be 0021     		movs	r1, #0
 2489 07c0 FFF7FEFF 		bl	CyBle_GattsWriteAttributeValue
 708:..\..\..\..\..\WORK\1N4 Transmitter\SA-100_2339_05_1N4.cydsn/sgable.c ****                 CyBle_GattsWriteRsp(cyBle_connHandle);                          /* respond to the c
 2490              		.loc 1 708 0
 2491 07c4 BB68     		ldr	r3, [r7, #8]
 2492 07c6 5B68     		ldr	r3, [r3, #4]
 2493 07c8 1B78     		ldrb	r3, [r3]
 2494 07ca 0122     		movs	r2, #1
 2495 07cc 1340     		ands	r3, r2
 2496 07ce DAB2     		uxtb	r2, r3
 2497 07d0 324B     		ldr	r3, .L115+4
 2498 07d2 5A73     		strb	r2, [r3, #13]
 709:..\..\..\..\..\WORK\1N4 Transmitter\SA-100_2339_05_1N4.cydsn/sgable.c ****             }
 2499              		.loc 1 709 0
 2500 07d4 304B     		ldr	r3, .L115
 2501 07d6 1A78     		ldrb	r2, [r3]
 2502 07d8 5B78     		ldrb	r3, [r3, #1]
 2503 07da 1B02     		lsls	r3, r3, #8
 2504 07dc 1A43     		orrs	r2, r3
 2505 07de 0023     		movs	r3, #0
 2506 07e0 1204     		lsls	r2, r2, #16
 2507 07e2 120C     		lsrs	r2, r2, #16
 2508 07e4 1B0C     		lsrs	r3, r3, #16
 2509 07e6 1B04     		lsls	r3, r3, #16
 2510 07e8 1343     		orrs	r3, r2
 2511 07ea 1800     		movs	r0, r3
ARM GAS  C:\Users\alexport\AppData\Local\Temp\ccr3ZDs0.s 			page 61


 2512 07ec FFF7FEFF 		bl	CyBle_GattsWriteRsp
 2513              	.L85:
 712:..\..\..\..\..\WORK\1N4 Transmitter\SA-100_2339_05_1N4.cydsn/sgable.c ****             {
 2514              		.loc 1 712 0
 2515 07f0 BB68     		ldr	r3, [r7, #8]
 2516 07f2 9B89     		ldrh	r3, [r3, #12]
 2517 07f4 7A2B     		cmp	r3, #122
 2518 07f6 1CD1     		bne	.L86
 714:..\..\..\..\..\WORK\1N4 Transmitter\SA-100_2339_05_1N4.cydsn/sgable.c ****                 System.BleNotifyCalAsFound = wrReqParam->handleValPair.value.val[0] & 0x01; /* Upda
 2519              		.loc 1 714 0
 2520 07f8 BB68     		ldr	r3, [r7, #8]
 2521 07fa 181D     		adds	r0, r3, #4
 2522 07fc 264A     		ldr	r2, .L115
 2523 07fe 4023     		movs	r3, #64
 2524 0800 0021     		movs	r1, #0
 2525 0802 FFF7FEFF 		bl	CyBle_GattsWriteAttributeValue
 715:..\..\..\..\..\WORK\1N4 Transmitter\SA-100_2339_05_1N4.cydsn/sgable.c ****                 CyBle_GattsWriteRsp(cyBle_connHandle);                          /* respond to the c
 2526              		.loc 1 715 0
 2527 0806 BB68     		ldr	r3, [r7, #8]
 2528 0808 5B68     		ldr	r3, [r3, #4]
 2529 080a 1B78     		ldrb	r3, [r3]
 2530 080c 0122     		movs	r2, #1
 2531 080e 1340     		ands	r3, r2
 2532 0810 DAB2     		uxtb	r2, r3
 2533 0812 224B     		ldr	r3, .L115+4
 2534 0814 5A72     		strb	r2, [r3, #9]
 716:..\..\..\..\..\WORK\1N4 Transmitter\SA-100_2339_05_1N4.cydsn/sgable.c ****             }
 2535              		.loc 1 716 0
 2536 0816 204B     		ldr	r3, .L115
 2537 0818 1A78     		ldrb	r2, [r3]
 2538 081a 5B78     		ldrb	r3, [r3, #1]
 2539 081c 1B02     		lsls	r3, r3, #8
 2540 081e 1A43     		orrs	r2, r3
 2541 0820 0023     		movs	r3, #0
 2542 0822 1204     		lsls	r2, r2, #16
 2543 0824 120C     		lsrs	r2, r2, #16
 2544 0826 1B0C     		lsrs	r3, r3, #16
 2545 0828 1B04     		lsls	r3, r3, #16
 2546 082a 1343     		orrs	r3, r2
 2547 082c 1800     		movs	r0, r3
 2548 082e FFF7FEFF 		bl	CyBle_GattsWriteRsp
 2549              	.L86:
 719:..\..\..\..\..\WORK\1N4 Transmitter\SA-100_2339_05_1N4.cydsn/sgable.c ****             {
 2550              		.loc 1 719 0
 2551 0832 BB68     		ldr	r3, [r7, #8]
 2552 0834 9B89     		ldrh	r3, [r3, #12]
 2553 0836 7E2B     		cmp	r3, #126
 2554 0838 1CD1     		bne	.L87
 721:..\..\..\..\..\WORK\1N4 Transmitter\SA-100_2339_05_1N4.cydsn/sgable.c ****                 System.BleNotifyCalAdjusted = wrReqParam->handleValPair.value.val[0] & 0x01; /* Upd
 2555              		.loc 1 721 0
 2556 083a BB68     		ldr	r3, [r7, #8]
 2557 083c 181D     		adds	r0, r3, #4
 2558 083e 164A     		ldr	r2, .L115
 2559 0840 4023     		movs	r3, #64
 2560 0842 0021     		movs	r1, #0
 2561 0844 FFF7FEFF 		bl	CyBle_GattsWriteAttributeValue
 722:..\..\..\..\..\WORK\1N4 Transmitter\SA-100_2339_05_1N4.cydsn/sgable.c ****                 CyBle_GattsWriteRsp(cyBle_connHandle);                          /* respond to the c
ARM GAS  C:\Users\alexport\AppData\Local\Temp\ccr3ZDs0.s 			page 62


 2562              		.loc 1 722 0
 2563 0848 BB68     		ldr	r3, [r7, #8]
 2564 084a 5B68     		ldr	r3, [r3, #4]
 2565 084c 1B78     		ldrb	r3, [r3]
 2566 084e 0122     		movs	r2, #1
 2567 0850 1340     		ands	r3, r2
 2568 0852 DAB2     		uxtb	r2, r3
 2569 0854 114B     		ldr	r3, .L115+4
 2570 0856 9A72     		strb	r2, [r3, #10]
 723:..\..\..\..\..\WORK\1N4 Transmitter\SA-100_2339_05_1N4.cydsn/sgable.c ****             }
 2571              		.loc 1 723 0
 2572 0858 0F4B     		ldr	r3, .L115
 2573 085a 1A78     		ldrb	r2, [r3]
 2574 085c 5B78     		ldrb	r3, [r3, #1]
 2575 085e 1B02     		lsls	r3, r3, #8
 2576 0860 1A43     		orrs	r2, r3
 2577 0862 0023     		movs	r3, #0
 2578 0864 1204     		lsls	r2, r2, #16
 2579 0866 120C     		lsrs	r2, r2, #16
 2580 0868 1B0C     		lsrs	r3, r3, #16
 2581 086a 1B04     		lsls	r3, r3, #16
 2582 086c 1343     		orrs	r3, r2
 2583 086e 1800     		movs	r0, r3
 2584 0870 FFF7FEFF 		bl	CyBle_GattsWriteRsp
 2585              	.L87:
 726:..\..\..\..\..\WORK\1N4 Transmitter\SA-100_2339_05_1N4.cydsn/sgable.c ****             {
 2586              		.loc 1 726 0
 2587 0874 BB68     		ldr	r3, [r7, #8]
 2588 0876 9B89     		ldrh	r3, [r3, #12]
 2589 0878 852B     		cmp	r3, #133
 2590 087a 22D1     		bne	.L88
 728:..\..\..\..\..\WORK\1N4 Transmitter\SA-100_2339_05_1N4.cydsn/sgable.c ****                 System.BleNotifyLife = wrReqParam->handleValPair.value.val[0] & 0x01; /* Update loc
 2591              		.loc 1 728 0
 2592 087c BB68     		ldr	r3, [r7, #8]
 2593 087e 181D     		adds	r0, r3, #4
 2594 0880 054A     		ldr	r2, .L115
 2595 0882 4023     		movs	r3, #64
 2596 0884 0021     		movs	r1, #0
 2597 0886 FFF7FEFF 		bl	CyBle_GattsWriteAttributeValue
 729:..\..\..\..\..\WORK\1N4 Transmitter\SA-100_2339_05_1N4.cydsn/sgable.c ****                 CyBle_GattsWriteRsp(cyBle_connHandle);                          /* respond to the c
 2598              		.loc 1 729 0
 2599 088a BB68     		ldr	r3, [r7, #8]
 2600 088c 5B68     		ldr	r3, [r3, #4]
 2601 088e 1B78     		ldrb	r3, [r3]
 2602 0890 0122     		movs	r2, #1
 2603 0892 1340     		ands	r3, r2
 2604 0894 04E0     		b	.L116
 2605              	.L117:
 2606 0896 C046     		.align	2
 2607              	.L115:
 2608 0898 00000000 		.word	cyBle_connHandle
 2609 089c 00000000 		.word	System
 2610              	.L116:
 2611 08a0 DAB2     		uxtb	r2, r3
 2612 08a2 5E4B     		ldr	r3, .L118
 2613 08a4 DA71     		strb	r2, [r3, #7]
 730:..\..\..\..\..\WORK\1N4 Transmitter\SA-100_2339_05_1N4.cydsn/sgable.c ****             }
ARM GAS  C:\Users\alexport\AppData\Local\Temp\ccr3ZDs0.s 			page 63


 2614              		.loc 1 730 0
 2615 08a6 5E4B     		ldr	r3, .L118+4
 2616 08a8 1A78     		ldrb	r2, [r3]
 2617 08aa 5B78     		ldrb	r3, [r3, #1]
 2618 08ac 1B02     		lsls	r3, r3, #8
 2619 08ae 1A43     		orrs	r2, r3
 2620 08b0 0023     		movs	r3, #0
 2621 08b2 1204     		lsls	r2, r2, #16
 2622 08b4 120C     		lsrs	r2, r2, #16
 2623 08b6 1B0C     		lsrs	r3, r3, #16
 2624 08b8 1B04     		lsls	r3, r3, #16
 2625 08ba 1343     		orrs	r3, r2
 2626 08bc 1800     		movs	r0, r3
 2627 08be FFF7FEFF 		bl	CyBle_GattsWriteRsp
 2628              	.L88:
 733:..\..\..\..\..\WORK\1N4 Transmitter\SA-100_2339_05_1N4.cydsn/sgable.c ****             {
 2629              		.loc 1 733 0
 2630 08c2 BB68     		ldr	r3, [r7, #8]
 2631 08c4 9B89     		ldrh	r3, [r3, #12]
 2632 08c6 892B     		cmp	r3, #137
 2633 08c8 1CD1     		bne	.L89
 735:..\..\..\..\..\WORK\1N4 Transmitter\SA-100_2339_05_1N4.cydsn/sgable.c ****                 System.BleNotifyCalClearing = wrReqParam->handleValPair.value.val[0] & 0x01; /* Upd
 2634              		.loc 1 735 0
 2635 08ca BB68     		ldr	r3, [r7, #8]
 2636 08cc 181D     		adds	r0, r3, #4
 2637 08ce 544A     		ldr	r2, .L118+4
 2638 08d0 4023     		movs	r3, #64
 2639 08d2 0021     		movs	r1, #0
 2640 08d4 FFF7FEFF 		bl	CyBle_GattsWriteAttributeValue
 736:..\..\..\..\..\WORK\1N4 Transmitter\SA-100_2339_05_1N4.cydsn/sgable.c ****                 CyBle_GattsWriteRsp(cyBle_connHandle);                          /* respond to the c
 2641              		.loc 1 736 0
 2642 08d8 BB68     		ldr	r3, [r7, #8]
 2643 08da 5B68     		ldr	r3, [r3, #4]
 2644 08dc 1B78     		ldrb	r3, [r3]
 2645 08de 0122     		movs	r2, #1
 2646 08e0 1340     		ands	r3, r2
 2647 08e2 DAB2     		uxtb	r2, r3
 2648 08e4 4D4B     		ldr	r3, .L118
 2649 08e6 9A73     		strb	r2, [r3, #14]
 737:..\..\..\..\..\WORK\1N4 Transmitter\SA-100_2339_05_1N4.cydsn/sgable.c ****             }
 2650              		.loc 1 737 0
 2651 08e8 4D4B     		ldr	r3, .L118+4
 2652 08ea 1A78     		ldrb	r2, [r3]
 2653 08ec 5B78     		ldrb	r3, [r3, #1]
 2654 08ee 1B02     		lsls	r3, r3, #8
 2655 08f0 1A43     		orrs	r2, r3
 2656 08f2 0023     		movs	r3, #0
 2657 08f4 1204     		lsls	r2, r2, #16
 2658 08f6 120C     		lsrs	r2, r2, #16
 2659 08f8 1B0C     		lsrs	r3, r3, #16
 2660 08fa 1B04     		lsls	r3, r3, #16
 2661 08fc 1343     		orrs	r3, r2
 2662 08fe 1800     		movs	r0, r3
 2663 0900 FFF7FEFF 		bl	CyBle_GattsWriteRsp
 2664              	.L89:
 740:..\..\..\..\..\WORK\1N4 Transmitter\SA-100_2339_05_1N4.cydsn/sgable.c ****             {
 2665              		.loc 1 740 0
ARM GAS  C:\Users\alexport\AppData\Local\Temp\ccr3ZDs0.s 			page 64


 2666 0904 BB68     		ldr	r3, [r7, #8]
 2667 0906 9B89     		ldrh	r3, [r3, #12]
 2668 0908 8D2B     		cmp	r3, #141
 2669 090a 1CD1     		bne	.L90
 742:..\..\..\..\..\WORK\1N4 Transmitter\SA-100_2339_05_1N4.cydsn/sgable.c ****                 System.BleNotifyCalSpanError = wrReqParam->handleValPair.value.val[0] & 0x01; /* Up
 2670              		.loc 1 742 0
 2671 090c BB68     		ldr	r3, [r7, #8]
 2672 090e 181D     		adds	r0, r3, #4
 2673 0910 434A     		ldr	r2, .L118+4
 2674 0912 4023     		movs	r3, #64
 2675 0914 0021     		movs	r1, #0
 2676 0916 FFF7FEFF 		bl	CyBle_GattsWriteAttributeValue
 743:..\..\..\..\..\WORK\1N4 Transmitter\SA-100_2339_05_1N4.cydsn/sgable.c ****                 CyBle_GattsWriteRsp(cyBle_connHandle);                          /* respond to the c
 2677              		.loc 1 743 0
 2678 091a BB68     		ldr	r3, [r7, #8]
 2679 091c 5B68     		ldr	r3, [r3, #4]
 2680 091e 1B78     		ldrb	r3, [r3]
 2681 0920 0122     		movs	r2, #1
 2682 0922 1340     		ands	r3, r2
 2683 0924 DAB2     		uxtb	r2, r3
 2684 0926 3D4B     		ldr	r3, .L118
 2685 0928 DA73     		strb	r2, [r3, #15]
 744:..\..\..\..\..\WORK\1N4 Transmitter\SA-100_2339_05_1N4.cydsn/sgable.c ****             }
 2686              		.loc 1 744 0
 2687 092a 3D4B     		ldr	r3, .L118+4
 2688 092c 1A78     		ldrb	r2, [r3]
 2689 092e 5B78     		ldrb	r3, [r3, #1]
 2690 0930 1B02     		lsls	r3, r3, #8
 2691 0932 1A43     		orrs	r2, r3
 2692 0934 0023     		movs	r3, #0
 2693 0936 1204     		lsls	r2, r2, #16
 2694 0938 120C     		lsrs	r2, r2, #16
 2695 093a 1B0C     		lsrs	r3, r3, #16
 2696 093c 1B04     		lsls	r3, r3, #16
 2697 093e 1343     		orrs	r3, r2
 2698 0940 1800     		movs	r0, r3
 2699 0942 FFF7FEFF 		bl	CyBle_GattsWriteRsp
 2700              	.L90:
 747:..\..\..\..\..\WORK\1N4 Transmitter\SA-100_2339_05_1N4.cydsn/sgable.c ****             {
 2701              		.loc 1 747 0
 2702 0946 BB68     		ldr	r3, [r7, #8]
 2703 0948 9B89     		ldrh	r3, [r3, #12]
 2704 094a 912B     		cmp	r3, #145
 2705 094c 1CD1     		bne	.L91
 749:..\..\..\..\..\WORK\1N4 Transmitter\SA-100_2339_05_1N4.cydsn/sgable.c ****                 System.BleNotifyCalibrationStatus = wrReqParam->handleValPair.value.val[0] & 0x01; 
 2706              		.loc 1 749 0
 2707 094e BB68     		ldr	r3, [r7, #8]
 2708 0950 181D     		adds	r0, r3, #4
 2709 0952 334A     		ldr	r2, .L118+4
 2710 0954 4023     		movs	r3, #64
 2711 0956 0021     		movs	r1, #0
 2712 0958 FFF7FEFF 		bl	CyBle_GattsWriteAttributeValue
 750:..\..\..\..\..\WORK\1N4 Transmitter\SA-100_2339_05_1N4.cydsn/sgable.c ****                 CyBle_GattsWriteRsp(cyBle_connHandle);                          /* respond to the c
 2713              		.loc 1 750 0
 2714 095c BB68     		ldr	r3, [r7, #8]
 2715 095e 5B68     		ldr	r3, [r3, #4]
 2716 0960 1B78     		ldrb	r3, [r3]
ARM GAS  C:\Users\alexport\AppData\Local\Temp\ccr3ZDs0.s 			page 65


 2717 0962 0122     		movs	r2, #1
 2718 0964 1340     		ands	r3, r2
 2719 0966 DAB2     		uxtb	r2, r3
 2720 0968 2C4B     		ldr	r3, .L118
 2721 096a 5A74     		strb	r2, [r3, #17]
 751:..\..\..\..\..\WORK\1N4 Transmitter\SA-100_2339_05_1N4.cydsn/sgable.c ****             }
 2722              		.loc 1 751 0
 2723 096c 2C4B     		ldr	r3, .L118+4
 2724 096e 1A78     		ldrb	r2, [r3]
 2725 0970 5B78     		ldrb	r3, [r3, #1]
 2726 0972 1B02     		lsls	r3, r3, #8
 2727 0974 1A43     		orrs	r2, r3
 2728 0976 0023     		movs	r3, #0
 2729 0978 1204     		lsls	r2, r2, #16
 2730 097a 120C     		lsrs	r2, r2, #16
 2731 097c 1B0C     		lsrs	r3, r3, #16
 2732 097e 1B04     		lsls	r3, r3, #16
 2733 0980 1343     		orrs	r3, r2
 2734 0982 1800     		movs	r0, r3
 2735 0984 FFF7FEFF 		bl	CyBle_GattsWriteRsp
 2736              	.L91:
 754:..\..\..\..\..\WORK\1N4 Transmitter\SA-100_2339_05_1N4.cydsn/sgable.c ****             {
 2737              		.loc 1 754 0
 2738 0988 BB68     		ldr	r3, [r7, #8]
 2739 098a 9B89     		ldrh	r3, [r3, #12]
 2740 098c 952B     		cmp	r3, #149
 2741 098e 1CD1     		bne	.L92
 756:..\..\..\..\..\WORK\1N4 Transmitter\SA-100_2339_05_1N4.cydsn/sgable.c ****                 System.BleNotifyReadingScaled = wrReqParam->handleValPair.value.val[0] & 0x01; /* U
 2742              		.loc 1 756 0
 2743 0990 BB68     		ldr	r3, [r7, #8]
 2744 0992 181D     		adds	r0, r3, #4
 2745 0994 224A     		ldr	r2, .L118+4
 2746 0996 4023     		movs	r3, #64
 2747 0998 0021     		movs	r1, #0
 2748 099a FFF7FEFF 		bl	CyBle_GattsWriteAttributeValue
 757:..\..\..\..\..\WORK\1N4 Transmitter\SA-100_2339_05_1N4.cydsn/sgable.c ****                 CyBle_GattsWriteRsp(cyBle_connHandle);                          /* respond to the c
 2749              		.loc 1 757 0
 2750 099e BB68     		ldr	r3, [r7, #8]
 2751 09a0 5B68     		ldr	r3, [r3, #4]
 2752 09a2 1B78     		ldrb	r3, [r3]
 2753 09a4 0122     		movs	r2, #1
 2754 09a6 1340     		ands	r3, r2
 2755 09a8 DAB2     		uxtb	r2, r3
 2756 09aa 1C4B     		ldr	r3, .L118
 2757 09ac 1A74     		strb	r2, [r3, #16]
 758:..\..\..\..\..\WORK\1N4 Transmitter\SA-100_2339_05_1N4.cydsn/sgable.c ****             }
 2758              		.loc 1 758 0
 2759 09ae 1C4B     		ldr	r3, .L118+4
 2760 09b0 1A78     		ldrb	r2, [r3]
 2761 09b2 5B78     		ldrb	r3, [r3, #1]
 2762 09b4 1B02     		lsls	r3, r3, #8
 2763 09b6 1A43     		orrs	r2, r3
 2764 09b8 0023     		movs	r3, #0
 2765 09ba 1204     		lsls	r2, r2, #16
 2766 09bc 120C     		lsrs	r2, r2, #16
 2767 09be 1B0C     		lsrs	r3, r3, #16
 2768 09c0 1B04     		lsls	r3, r3, #16
ARM GAS  C:\Users\alexport\AppData\Local\Temp\ccr3ZDs0.s 			page 66


 2769 09c2 1343     		orrs	r3, r2
 2770 09c4 1800     		movs	r0, r3
 2771 09c6 FFF7FEFF 		bl	CyBle_GattsWriteRsp
 2772              	.L92:
 761:..\..\..\..\..\WORK\1N4 Transmitter\SA-100_2339_05_1N4.cydsn/sgable.c ****             {
 2773              		.loc 1 761 0
 2774 09ca BB68     		ldr	r3, [r7, #8]
 2775 09cc 9B89     		ldrh	r3, [r3, #12]
 2776 09ce 992B     		cmp	r3, #153
 2777 09d0 1FD1     		bne	.L110
 763:..\..\..\..\..\WORK\1N4 Transmitter\SA-100_2339_05_1N4.cydsn/sgable.c ****                 System.BleNotifyAlertStatus = wrReqParam->handleValPair.value.val[0] & 0x01; /* Upd
 2778              		.loc 1 763 0
 2779 09d2 BB68     		ldr	r3, [r7, #8]
 2780 09d4 181D     		adds	r0, r3, #4
 2781 09d6 124A     		ldr	r2, .L118+4
 2782 09d8 4023     		movs	r3, #64
 2783 09da 0021     		movs	r1, #0
 2784 09dc FFF7FEFF 		bl	CyBle_GattsWriteAttributeValue
 764:..\..\..\..\..\WORK\1N4 Transmitter\SA-100_2339_05_1N4.cydsn/sgable.c ****                 CyBle_GattsWriteRsp(cyBle_connHandle);                          /* respond to the c
 2785              		.loc 1 764 0
 2786 09e0 BB68     		ldr	r3, [r7, #8]
 2787 09e2 5B68     		ldr	r3, [r3, #4]
 2788 09e4 1B78     		ldrb	r3, [r3]
 2789 09e6 0122     		movs	r2, #1
 2790 09e8 1340     		ands	r3, r2
 2791 09ea DAB2     		uxtb	r2, r3
 2792 09ec 0B4B     		ldr	r3, .L118
 2793 09ee 1A71     		strb	r2, [r3, #4]
 765:..\..\..\..\..\WORK\1N4 Transmitter\SA-100_2339_05_1N4.cydsn/sgable.c ****             }
 2794              		.loc 1 765 0
 2795 09f0 0B4B     		ldr	r3, .L118+4
 2796 09f2 1A78     		ldrb	r2, [r3]
 2797 09f4 5B78     		ldrb	r3, [r3, #1]
 2798 09f6 1B02     		lsls	r3, r3, #8
 2799 09f8 1A43     		orrs	r2, r3
 2800 09fa 0023     		movs	r3, #0
 2801 09fc 1204     		lsls	r2, r2, #16
 2802 09fe 120C     		lsrs	r2, r2, #16
 2803 0a00 1B0C     		lsrs	r3, r3, #16
 2804 0a02 1B04     		lsls	r3, r3, #16
 2805 0a04 1343     		orrs	r3, r2
 2806 0a06 1800     		movs	r0, r3
 2807 0a08 FFF7FEFF 		bl	CyBle_GattsWriteRsp
 767:..\..\..\..\..\WORK\1N4 Transmitter\SA-100_2339_05_1N4.cydsn/sgable.c ****         default:
 2808              		.loc 1 767 0
 2809 0a0c 01E0     		b	.L110
 2810              	.L94:
 391:..\..\..\..\..\WORK\1N4 Transmitter\SA-100_2339_05_1N4.cydsn/sgable.c ****         case CYBLE_EVT_GATT_CONNECT_IND:                                        /* Handle BLE conne
 2811              		.loc 1 391 0
 2812 0a0e C046     		nop
 2813 0a10 00E0     		b	.L40
 2814              	.L110:
 767:..\..\..\..\..\WORK\1N4 Transmitter\SA-100_2339_05_1N4.cydsn/sgable.c ****         default:
 2815              		.loc 1 767 0
 2816 0a12 C046     		nop
 2817              	.L40:
 770:..\..\..\..\..\WORK\1N4 Transmitter\SA-100_2339_05_1N4.cydsn/sgable.c ****             
ARM GAS  C:\Users\alexport\AppData\Local\Temp\ccr3ZDs0.s 			page 67


 771:..\..\..\..\..\WORK\1N4 Transmitter\SA-100_2339_05_1N4.cydsn/sgable.c ****     }
 772:..\..\..\..\..\WORK\1N4 Transmitter\SA-100_2339_05_1N4.cydsn/sgable.c **** }
 2818              		.loc 1 772 0
 2819 0a14 C046     		nop
 2820 0a16 BD46     		mov	sp, r7
 2821 0a18 04B0     		add	sp, sp, #16
 2822              		@ sp needed
 2823 0a1a 80BD     		pop	{r7, pc}
 2824              	.L119:
 2825              		.align	2
 2826              	.L118:
 2827 0a1c 00000000 		.word	System
 2828 0a20 00000000 		.word	cyBle_connHandle
 2829              		.cfi_endproc
 2830              	.LFE36:
 2831              		.size	Stack_Handler, .-Stack_Handler
 2832              		.text
 2833              	.Letext0:
 2834              		.file 2 "Generated_Source\\PSoC4/cytypes.h"
 2835              		.file 3 "Generated_Source\\PSoC4/blue_Stack.h"
 2836              		.file 4 "Generated_Source\\PSoC4/blue_StackGatt.h"
 2837              		.file 5 "Generated_Source\\PSoC4/blue_StackGattServer.h"
 2838              		.file 6 "Generated_Source\\PSoC4/blue_dis.h"
 2839              		.file 7 "Generated_Source\\PSoC4/blue_eventHandler.h"
 2840              		.file 8 "c:\\work\\1n4 transmitter\\sa-100_2339_05_1n4.cydsn\\sensors.h"
 2841              		.file 9 "c:\\work\\1n4 transmitter\\sa-100_2339_05_1n4.cydsn\\system.h"
 2842              		.file 10 "c:\\work\\1n4 transmitter\\sa-100_2339_05_1n4.cydsn\\at24cs01.h"
 2843              		.file 11 "c:\\work\\1n4 transmitter\\sa-100_2339_05_1n4.cydsn\\maxad12.h"
 2844              		.file 12 "c:\\work\\1n4 transmitter\\sa-100_2339_05_1n4.cydsn\\sgable.h"
 2845              		.file 13 "c:\\work\\1n4 transmitter\\sa-100_2339_05_1n4.cydsn\\sa100cec.h"
 2846              		.file 14 "c:\\work\\1n4 transmitter\\sa-100_2339_05_1n4.cydsn\\ModbusInterrupts.h"
 2847              		.file 15 "c:\\work\\1n4 transmitter\\sa-100_2339_05_1n4.cydsn\\ModbusMaster.h"