ARM GAS  C:\Users\alexport\AppData\Local\Temp\ccr3ZDs0.s 			page 1


   1              		.syntax unified
   2              		.cpu cortex-m0
   3              		.fpu softvfp
   4              		.eabi_attribute 20, 1
   5              		.eabi_attribute 21, 1
   6              		.eabi_attribute 23, 3
   7              		.eabi_attribute 24, 1
   8              		.eabi_attribute 25, 1
   9              		.eabi_attribute 26, 1
  10              		.eabi_attribute 30, 6
  11              		.eabi_attribute 34, 0
  12              		.eabi_attribute 18, 4
  13              		.thumb
  14              		.syntax unified
  15              		.file	"sgable.c"
  16              		.text
  17              	.Ltext0:
  18              		.cfi_sections	.debug_frame
  19              		.comm	at24cs01SnUpper,8,8
  20              		.comm	at24cs01SnLower,8,8
  21              		.comm	adfeSerialNumber,16,4
  22              		.comm	ad12ResultBuff,4,4
  23              		.comm	Sensor,264,8
  24              		.comm	myBatteryNotify,4,4
  25              		.comm	cecPacket,50,4
  26              		.comm	cecPacketIndex,2,2
  27              		.comm	cecPacketEnd,2,2
  28              		.comm	cecCrcHigh,1,1
  29              		.comm	cecCrcLow,1,1
  30              		.comm	modbusPacket,20,4
  31              		.comm	modbusPacketIndex,2,2
  32              		.comm	modbusPacketEnd,2,2
  33              		.comm	mbFloatValue,4,4
  34              		.comm	mbInt16Value,2,2
  35              		.comm	sysTopSwitch,1,1
  36              		.comm	sysBottomSwitch,1,1
  37              		.comm	Time,24,4
  38              		.comm	System,192,8
  39              		.global	__aeabi_f2iz
  40              		.global	__aeabi_i2f
  41              		.global	__aeabi_fcmpeq
  42              		.section	.text.updateOurBleData,"ax",%progbits
  43              		.align	2
  44              		.global	updateOurBleData
  45              		.code	16
  46              		.thumb_func
  47              		.type	updateOurBleData, %function
  48              	updateOurBleData:
  49              	.LFB35:
  50              		.file 1 "..\\..\\..\\..\\..\\WORK\\1N4 Transmitter\\SA-100_2339_05_1N4.cydsn\\sgable.c"
   1:..\..\..\..\..\WORK\1N4 Transmitter\SA-100_2339_05_1N4.cydsn/sgable.c **** /* ========================================
   2:..\..\..\..\..\WORK\1N4 Transmitter\SA-100_2339_05_1N4.cydsn/sgable.c ****  *
   3:..\..\..\..\..\WORK\1N4 Transmitter\SA-100_2339_05_1N4.cydsn/sgable.c ****  * Copyright SAFEGUARD ANALYTICS, 2017
   4:..\..\..\..\..\WORK\1N4 Transmitter\SA-100_2339_05_1N4.cydsn/sgable.c ****  * All Rights Reserved
   5:..\..\..\..\..\WORK\1N4 Transmitter\SA-100_2339_05_1N4.cydsn/sgable.c ****  * UNPUBLISHED, LICENSED SOFTWARE.
   6:..\..\..\..\..\WORK\1N4 Transmitter\SA-100_2339_05_1N4.cydsn/sgable.c ****  *
   7:..\..\..\..\..\WORK\1N4 Transmitter\SA-100_2339_05_1N4.cydsn/sgable.c ****  * CONFIDENTIAL AND PROPRIETARY INFORMATION
ARM GAS  C:\Users\alexport\AppData\Local\Temp\ccr3ZDs0.s 			page 2


   8:..\..\..\..\..\WORK\1N4 Transmitter\SA-100_2339_05_1N4.cydsn/sgable.c ****  * WHICH IS THE PROPERTY OF SAFEGUARD ANALYTICS.
   9:..\..\..\..\..\WORK\1N4 Transmitter\SA-100_2339_05_1N4.cydsn/sgable.c ****  *
  10:..\..\..\..\..\WORK\1N4 Transmitter\SA-100_2339_05_1N4.cydsn/sgable.c ****  * ========================================
  11:..\..\..\..\..\WORK\1N4 Transmitter\SA-100_2339_05_1N4.cydsn/sgable.c **** */
  12:..\..\..\..\..\WORK\1N4 Transmitter\SA-100_2339_05_1N4.cydsn/sgable.c **** #include "system.h"
  13:..\..\..\..\..\WORK\1N4 Transmitter\SA-100_2339_05_1N4.cydsn/sgable.c **** #include "sgable.h"
  14:..\..\..\..\..\WORK\1N4 Transmitter\SA-100_2339_05_1N4.cydsn/sgable.c **** #include "rgb.h"
  15:..\..\..\..\..\WORK\1N4 Transmitter\SA-100_2339_05_1N4.cydsn/sgable.c **** /***************************************
  16:..\..\..\..\..\WORK\1N4 Transmitter\SA-100_2339_05_1N4.cydsn/sgable.c **** *            Variabeles
  17:..\..\..\..\..\WORK\1N4 Transmitter\SA-100_2339_05_1N4.cydsn/sgable.c **** ****************************************/
  18:..\..\..\..\..\WORK\1N4 Transmitter\SA-100_2339_05_1N4.cydsn/sgable.c **** 
  19:..\..\..\..\..\WORK\1N4 Transmitter\SA-100_2339_05_1N4.cydsn/sgable.c **** /* RAM variables */
  20:..\..\..\..\..\WORK\1N4 Transmitter\SA-100_2339_05_1N4.cydsn/sgable.c **** 
  21:..\..\..\..\..\WORK\1N4 Transmitter\SA-100_2339_05_1N4.cydsn/sgable.c **** 
  22:..\..\..\..\..\WORK\1N4 Transmitter\SA-100_2339_05_1N4.cydsn/sgable.c **** /* ROM variables */
  23:..\..\..\..\..\WORK\1N4 Transmitter\SA-100_2339_05_1N4.cydsn/sgable.c **** 
  24:..\..\..\..\..\WORK\1N4 Transmitter\SA-100_2339_05_1N4.cydsn/sgable.c **** 
  25:..\..\..\..\..\WORK\1N4 Transmitter\SA-100_2339_05_1N4.cydsn/sgable.c **** /*******************************************************************************
  26:..\..\..\..\..\WORK\1N4 Transmitter\SA-100_2339_05_1N4.cydsn/sgable.c **** * Function Name: FUNCTION
  27:..\..\..\..\..\WORK\1N4 Transmitter\SA-100_2339_05_1N4.cydsn/sgable.c **** ********************************************************************************
  28:..\..\..\..\..\WORK\1N4 Transmitter\SA-100_2339_05_1N4.cydsn/sgable.c **** *
  29:..\..\..\..\..\WORK\1N4 Transmitter\SA-100_2339_05_1N4.cydsn/sgable.c **** * Summary:
  30:..\..\..\..\..\WORK\1N4 Transmitter\SA-100_2339_05_1N4.cydsn/sgable.c **** *  
  31:..\..\..\..\..\WORK\1N4 Transmitter\SA-100_2339_05_1N4.cydsn/sgable.c **** *  
  32:..\..\..\..\..\WORK\1N4 Transmitter\SA-100_2339_05_1N4.cydsn/sgable.c **** *
  33:..\..\..\..\..\WORK\1N4 Transmitter\SA-100_2339_05_1N4.cydsn/sgable.c **** * Parameters:
  34:..\..\..\..\..\WORK\1N4 Transmitter\SA-100_2339_05_1N4.cydsn/sgable.c **** *  None
  35:..\..\..\..\..\WORK\1N4 Transmitter\SA-100_2339_05_1N4.cydsn/sgable.c **** *
  36:..\..\..\..\..\WORK\1N4 Transmitter\SA-100_2339_05_1N4.cydsn/sgable.c **** * Return:
  37:..\..\..\..\..\WORK\1N4 Transmitter\SA-100_2339_05_1N4.cydsn/sgable.c **** *  None
  38:..\..\..\..\..\WORK\1N4 Transmitter\SA-100_2339_05_1N4.cydsn/sgable.c **** *
  39:..\..\..\..\..\WORK\1N4 Transmitter\SA-100_2339_05_1N4.cydsn/sgable.c **** *******************************************************************************/
  40:..\..\..\..\..\WORK\1N4 Transmitter\SA-100_2339_05_1N4.cydsn/sgable.c **** /*******************************************************************************
  41:..\..\..\..\..\WORK\1N4 Transmitter\SA-100_2339_05_1N4.cydsn/sgable.c **** * Function Name: updateOurId
  42:..\..\..\..\..\WORK\1N4 Transmitter\SA-100_2339_05_1N4.cydsn/sgable.c **** ********************************************************************************
  43:..\..\..\..\..\WORK\1N4 Transmitter\SA-100_2339_05_1N4.cydsn/sgable.c **** */
  44:..\..\..\..\..\WORK\1N4 Transmitter\SA-100_2339_05_1N4.cydsn/sgable.c **** void updateOurBleData()
  45:..\..\..\..\..\WORK\1N4 Transmitter\SA-100_2339_05_1N4.cydsn/sgable.c **** {
  51              		.loc 1 45 0
  52              		.cfi_startproc
  53              		@ args = 0, pretend = 0, frame = 16
  54              		@ frame_needed = 1, uses_anonymous_args = 0
  55 0000 90B5     		push	{r4, r7, lr}
  56              		.cfi_def_cfa_offset 12
  57              		.cfi_offset 4, -12
  58              		.cfi_offset 7, -8
  59              		.cfi_offset 14, -4
  60 0002 85B0     		sub	sp, sp, #20
  61              		.cfi_def_cfa_offset 32
  62 0004 00AF     		add	r7, sp, #0
  63              		.cfi_def_cfa_register 7
  46:..\..\..\..\..\WORK\1N4 Transmitter\SA-100_2339_05_1N4.cydsn/sgable.c ****     CYBLE_GATTS_HANDLE_VALUE_NTF_T tempHandle;
  47:..\..\..\..\..\WORK\1N4 Transmitter\SA-100_2339_05_1N4.cydsn/sgable.c ****     int16 ReadingCast;
  48:..\..\..\..\..\WORK\1N4 Transmitter\SA-100_2339_05_1N4.cydsn/sgable.c **** 
  49:..\..\..\..\..\WORK\1N4 Transmitter\SA-100_2339_05_1N4.cydsn/sgable.c ****     if( CyBle_GetState() != CYBLE_STATE_CONNECTED ) return;
  64              		.loc 1 49 0
  65 0006 ED4B     		ldr	r3, .L24
ARM GAS  C:\Users\alexport\AppData\Local\Temp\ccr3ZDs0.s 			page 3


  66 0008 1B78     		ldrb	r3, [r3]
  67 000a 022B     		cmp	r3, #2
  68 000c 01D0     		beq	.LCB16
  69 000e 00F061FC 		bl	.L23	@far jump
  70              	.LCB16:
  50:..\..\..\..\..\WORK\1N4 Transmitter\SA-100_2339_05_1N4.cydsn/sgable.c **** 
  51:..\..\..\..\..\WORK\1N4 Transmitter\SA-100_2339_05_1N4.cydsn/sgable.c ****     /* Update sys remote control value */
  52:..\..\..\..\..\WORK\1N4 Transmitter\SA-100_2339_05_1N4.cydsn/sgable.c ****     tempHandle.attrHandle = CYBLE_SGA1_SYS_REMOTE_CHAR_HANDLE;
  71              		.loc 1 52 0
  72 0012 3B00     		movs	r3, r7
  73 0014 1222     		movs	r2, #18
  74 0016 1A81     		strh	r2, [r3, #8]
  53:..\..\..\..\..\WORK\1N4 Transmitter\SA-100_2339_05_1N4.cydsn/sgable.c ****     tempHandle.value.val = (uint8*)&System.BleControl;
  75              		.loc 1 53 0
  76 0018 3B00     		movs	r3, r7
  77 001a E94A     		ldr	r2, .L24+4
  78 001c 1A60     		str	r2, [r3]
  54:..\..\..\..\..\WORK\1N4 Transmitter\SA-100_2339_05_1N4.cydsn/sgable.c ****     tempHandle.value.len = 1;
  79              		.loc 1 54 0
  80 001e 3B00     		movs	r3, r7
  81 0020 0122     		movs	r2, #1
  82 0022 9A80     		strh	r2, [r3, #4]
  55:..\..\..\..\..\WORK\1N4 Transmitter\SA-100_2339_05_1N4.cydsn/sgable.c ****     CyBle_GattsWriteAttributeValue(&tempHandle,0,&cyBle_connHandle,0);
  83              		.loc 1 55 0
  84 0024 E74A     		ldr	r2, .L24+8
  85 0026 3800     		movs	r0, r7
  86 0028 0023     		movs	r3, #0
  87 002a 0021     		movs	r1, #0
  88 002c FFF7FEFF 		bl	CyBle_GattsWriteAttributeValue
  56:..\..\..\..\..\WORK\1N4 Transmitter\SA-100_2339_05_1N4.cydsn/sgable.c ****     /* If notifications have been requested for remote control value */
  57:..\..\..\..\..\WORK\1N4 Transmitter\SA-100_2339_05_1N4.cydsn/sgable.c ****     if( System.BleNotifyControl && ( System.BleControl != System.BleControlPrevious ) )
  89              		.loc 1 57 0
  90 0030 E34B     		ldr	r3, .L24+4
  91 0032 5B79     		ldrb	r3, [r3, #5]
  92 0034 002B     		cmp	r3, #0
  93 0036 18D0     		beq	.L4
  94              		.loc 1 57 0 is_stmt 0 discriminator 1
  95 0038 E14B     		ldr	r3, .L24+4
  96 003a 1A78     		ldrb	r2, [r3]
  97 003c E04B     		ldr	r3, .L24+4
  98 003e 5B78     		ldrb	r3, [r3, #1]
  99 0040 9A42     		cmp	r2, r3
 100 0042 12D0     		beq	.L4
  58:..\..\..\..\..\WORK\1N4 Transmitter\SA-100_2339_05_1N4.cydsn/sgable.c ****     {
  59:..\..\..\..\..\WORK\1N4 Transmitter\SA-100_2339_05_1N4.cydsn/sgable.c ****         CyBle_GattsNotification( cyBle_connHandle, &tempHandle );               /* Notify the clien
 101              		.loc 1 59 0 is_stmt 1
 102 0044 3900     		movs	r1, r7
 103 0046 DF4B     		ldr	r3, .L24+8
 104 0048 1A78     		ldrb	r2, [r3]
 105 004a 5B78     		ldrb	r3, [r3, #1]
 106 004c 1B02     		lsls	r3, r3, #8
 107 004e 1A43     		orrs	r2, r3
 108 0050 0023     		movs	r3, #0
 109 0052 1204     		lsls	r2, r2, #16
 110 0054 120C     		lsrs	r2, r2, #16
 111 0056 1B0C     		lsrs	r3, r3, #16
 112 0058 1B04     		lsls	r3, r3, #16
ARM GAS  C:\Users\alexport\AppData\Local\Temp\ccr3ZDs0.s 			page 4


 113 005a 1343     		orrs	r3, r2
 114 005c 1800     		movs	r0, r3
 115 005e FFF7FEFF 		bl	CyBle_GattsNotification
  60:..\..\..\..\..\WORK\1N4 Transmitter\SA-100_2339_05_1N4.cydsn/sgable.c ****         System.BleControlPrevious = System.BleControl;
 116              		.loc 1 60 0
 117 0062 D74B     		ldr	r3, .L24+4
 118 0064 1A78     		ldrb	r2, [r3]
 119 0066 D64B     		ldr	r3, .L24+4
 120 0068 5A70     		strb	r2, [r3, #1]
 121              	.L4:
  61:..\..\..\..\..\WORK\1N4 Transmitter\SA-100_2339_05_1N4.cydsn/sgable.c ****     }
  62:..\..\..\..\..\WORK\1N4 Transmitter\SA-100_2339_05_1N4.cydsn/sgable.c **** 
  63:..\..\..\..\..\WORK\1N4 Transmitter\SA-100_2339_05_1N4.cydsn/sgable.c ****     /* Update sys gas reading value */
  64:..\..\..\..\..\WORK\1N4 Transmitter\SA-100_2339_05_1N4.cydsn/sgable.c ****     tempHandle.attrHandle = CYBLE_SGA1_SYS_READING_CHAR_HANDLE;
 122              		.loc 1 64 0
 123 006a 3B00     		movs	r3, r7
 124 006c 1622     		movs	r2, #22
 125 006e 1A81     		strh	r2, [r3, #8]
  65:..\..\..\..\..\WORK\1N4 Transmitter\SA-100_2339_05_1N4.cydsn/sgable.c ****     tempHandle.value.val = (uint8*)&Sensor.Reading;
 126              		.loc 1 65 0
 127 0070 3B00     		movs	r3, r7
 128 0072 D54A     		ldr	r2, .L24+12
 129 0074 1A60     		str	r2, [r3]
  66:..\..\..\..\..\WORK\1N4 Transmitter\SA-100_2339_05_1N4.cydsn/sgable.c ****     tempHandle.value.len = 2;
 130              		.loc 1 66 0
 131 0076 3B00     		movs	r3, r7
 132 0078 0222     		movs	r2, #2
 133 007a 9A80     		strh	r2, [r3, #4]
  67:..\..\..\..\..\WORK\1N4 Transmitter\SA-100_2339_05_1N4.cydsn/sgable.c ****     CyBle_GattsWriteAttributeValue(&tempHandle,0,&cyBle_connHandle,0);
 134              		.loc 1 67 0
 135 007c D14A     		ldr	r2, .L24+8
 136 007e 3800     		movs	r0, r7
 137 0080 0023     		movs	r3, #0
 138 0082 0021     		movs	r1, #0
 139 0084 FFF7FEFF 		bl	CyBle_GattsWriteAttributeValue
  68:..\..\..\..\..\WORK\1N4 Transmitter\SA-100_2339_05_1N4.cydsn/sgable.c ****     /* If notifications have been requested for Sensor Reading */
  69:..\..\..\..\..\WORK\1N4 Transmitter\SA-100_2339_05_1N4.cydsn/sgable.c ****     if( System.BleNotifyReading && ( Sensor.Reading != Sensor.ReadingPrevious ) )
 140              		.loc 1 69 0
 141 0088 CD4B     		ldr	r3, .L24+4
 142 008a 9B78     		ldrb	r3, [r3, #2]
 143 008c 002B     		cmp	r3, #0
 144 008e 1BD0     		beq	.L5
 145              		.loc 1 69 0 is_stmt 0 discriminator 1
 146 0090 CE4B     		ldr	r3, .L24+16
 147 0092 1022     		movs	r2, #16
 148 0094 9A5E     		ldrsh	r2, [r3, r2]
 149 0096 CD4B     		ldr	r3, .L24+16
 150 0098 1221     		movs	r1, #18
 151 009a 5B5E     		ldrsh	r3, [r3, r1]
 152 009c 9A42     		cmp	r2, r3
 153 009e 13D0     		beq	.L5
  70:..\..\..\..\..\WORK\1N4 Transmitter\SA-100_2339_05_1N4.cydsn/sgable.c ****     {
  71:..\..\..\..\..\WORK\1N4 Transmitter\SA-100_2339_05_1N4.cydsn/sgable.c ****         CyBle_GattsNotification( cyBle_connHandle, &tempHandle );               /* Notify the clien
 154              		.loc 1 71 0 is_stmt 1
 155 00a0 3900     		movs	r1, r7
 156 00a2 C84B     		ldr	r3, .L24+8
 157 00a4 1A78     		ldrb	r2, [r3]
ARM GAS  C:\Users\alexport\AppData\Local\Temp\ccr3ZDs0.s 			page 5


 158 00a6 5B78     		ldrb	r3, [r3, #1]
 159 00a8 1B02     		lsls	r3, r3, #8
 160 00aa 1A43     		orrs	r2, r3
 161 00ac 0023     		movs	r3, #0
 162 00ae 1204     		lsls	r2, r2, #16
 163 00b0 120C     		lsrs	r2, r2, #16
 164 00b2 1B0C     		lsrs	r3, r3, #16
 165 00b4 1B04     		lsls	r3, r3, #16
 166 00b6 1343     		orrs	r3, r2
 167 00b8 1800     		movs	r0, r3
 168 00ba FFF7FEFF 		bl	CyBle_GattsNotification
  72:..\..\..\..\..\WORK\1N4 Transmitter\SA-100_2339_05_1N4.cydsn/sgable.c ****         Sensor.ReadingPrevious = Sensor.Reading;
 169              		.loc 1 72 0
 170 00be C34B     		ldr	r3, .L24+16
 171 00c0 1022     		movs	r2, #16
 172 00c2 9A5E     		ldrsh	r2, [r3, r2]
 173 00c4 C14B     		ldr	r3, .L24+16
 174 00c6 5A82     		strh	r2, [r3, #18]
 175              	.L5:
  73:..\..\..\..\..\WORK\1N4 Transmitter\SA-100_2339_05_1N4.cydsn/sgable.c ****     }
  74:..\..\..\..\..\WORK\1N4 Transmitter\SA-100_2339_05_1N4.cydsn/sgable.c **** 
  75:..\..\..\..\..\WORK\1N4 Transmitter\SA-100_2339_05_1N4.cydsn/sgable.c ****     /* Update sys remote test status value */ /* This is for bluetooth app testing */
  76:..\..\..\..\..\WORK\1N4 Transmitter\SA-100_2339_05_1N4.cydsn/sgable.c **** //    tempHandle.attrHandle = CYBLE_SGA1_SYS_STATUS_CHAR_HANDLE;
  77:..\..\..\..\..\WORK\1N4 Transmitter\SA-100_2339_05_1N4.cydsn/sgable.c **** //    tempHandle.value.val = (uint8*)&System.TestStatus;
  78:..\..\..\..\..\WORK\1N4 Transmitter\SA-100_2339_05_1N4.cydsn/sgable.c **** //    tempHandle.value.len = 2;
  79:..\..\..\..\..\WORK\1N4 Transmitter\SA-100_2339_05_1N4.cydsn/sgable.c **** //    CyBle_GattsWriteAttributeValue(&tempHandle,0,&cyBle_connHandle,0);
  80:..\..\..\..\..\WORK\1N4 Transmitter\SA-100_2339_05_1N4.cydsn/sgable.c ****     /* If notifications have been requested for Sensor Status */
  81:..\..\..\..\..\WORK\1N4 Transmitter\SA-100_2339_05_1N4.cydsn/sgable.c **** //    if( System.BleNotifyStatus && ( System.TestStatus != System.TestStatusPrevious ) )
  82:..\..\..\..\..\WORK\1N4 Transmitter\SA-100_2339_05_1N4.cydsn/sgable.c **** //    {
  83:..\..\..\..\..\WORK\1N4 Transmitter\SA-100_2339_05_1N4.cydsn/sgable.c **** //        CyBle_GattsNotification( cyBle_connHandle, &tempHandle );               /* Notify the cli
  84:..\..\..\..\..\WORK\1N4 Transmitter\SA-100_2339_05_1N4.cydsn/sgable.c **** //        System.TestStatusPrevious = System.TestStatus;
  85:..\..\..\..\..\WORK\1N4 Transmitter\SA-100_2339_05_1N4.cydsn/sgable.c **** //    }
  86:..\..\..\..\..\WORK\1N4 Transmitter\SA-100_2339_05_1N4.cydsn/sgable.c **** 
  87:..\..\..\..\..\WORK\1N4 Transmitter\SA-100_2339_05_1N4.cydsn/sgable.c ****     /* Update sys remote status value */
  88:..\..\..\..\..\WORK\1N4 Transmitter\SA-100_2339_05_1N4.cydsn/sgable.c ****     tempHandle.attrHandle = CYBLE_SGA1_SYS_STATUS_CHAR_HANDLE;
 176              		.loc 1 88 0
 177 00c8 3B00     		movs	r3, r7
 178 00ca 1A22     		movs	r2, #26
 179 00cc 1A81     		strh	r2, [r3, #8]
  89:..\..\..\..\..\WORK\1N4 Transmitter\SA-100_2339_05_1N4.cydsn/sgable.c ****     tempHandle.value.val = (uint8*)&System.Status;
 180              		.loc 1 89 0
 181 00ce 3B00     		movs	r3, r7
 182 00d0 BF4A     		ldr	r2, .L24+20
 183 00d2 1A60     		str	r2, [r3]
  90:..\..\..\..\..\WORK\1N4 Transmitter\SA-100_2339_05_1N4.cydsn/sgable.c ****     tempHandle.value.len = 2;
 184              		.loc 1 90 0
 185 00d4 3B00     		movs	r3, r7
 186 00d6 0222     		movs	r2, #2
 187 00d8 9A80     		strh	r2, [r3, #4]
  91:..\..\..\..\..\WORK\1N4 Transmitter\SA-100_2339_05_1N4.cydsn/sgable.c ****     CyBle_GattsWriteAttributeValue(&tempHandle,0,&cyBle_connHandle,0);
 188              		.loc 1 91 0
 189 00da BA4A     		ldr	r2, .L24+8
 190 00dc 3800     		movs	r0, r7
 191 00de 0023     		movs	r3, #0
 192 00e0 0021     		movs	r1, #0
 193 00e2 FFF7FEFF 		bl	CyBle_GattsWriteAttributeValue
  92:..\..\..\..\..\WORK\1N4 Transmitter\SA-100_2339_05_1N4.cydsn/sgable.c ****     /* If notifications have been requested for Sensor Status */
ARM GAS  C:\Users\alexport\AppData\Local\Temp\ccr3ZDs0.s 			page 6


  93:..\..\..\..\..\WORK\1N4 Transmitter\SA-100_2339_05_1N4.cydsn/sgable.c ****     if( System.BleNotifyStatus && ( System.Status != System.StatusPrevious ) )
 194              		.loc 1 93 0
 195 00e6 B64B     		ldr	r3, .L24+4
 196 00e8 DB78     		ldrb	r3, [r3, #3]
 197 00ea 002B     		cmp	r3, #0
 198 00ec 18D0     		beq	.L6
 199              		.loc 1 93 0 is_stmt 0 discriminator 1
 200 00ee B44B     		ldr	r3, .L24+4
 201 00f0 5A8B     		ldrh	r2, [r3, #26]
 202 00f2 B34B     		ldr	r3, .L24+4
 203 00f4 9B8B     		ldrh	r3, [r3, #28]
 204 00f6 9A42     		cmp	r2, r3
 205 00f8 12D0     		beq	.L6
  94:..\..\..\..\..\WORK\1N4 Transmitter\SA-100_2339_05_1N4.cydsn/sgable.c ****     {
  95:..\..\..\..\..\WORK\1N4 Transmitter\SA-100_2339_05_1N4.cydsn/sgable.c ****         CyBle_GattsNotification( cyBle_connHandle, &tempHandle );               /* Notify the clien
 206              		.loc 1 95 0 is_stmt 1
 207 00fa 3900     		movs	r1, r7
 208 00fc B14B     		ldr	r3, .L24+8
 209 00fe 1A78     		ldrb	r2, [r3]
 210 0100 5B78     		ldrb	r3, [r3, #1]
 211 0102 1B02     		lsls	r3, r3, #8
 212 0104 1A43     		orrs	r2, r3
 213 0106 0023     		movs	r3, #0
 214 0108 1204     		lsls	r2, r2, #16
 215 010a 120C     		lsrs	r2, r2, #16
 216 010c 1B0C     		lsrs	r3, r3, #16
 217 010e 1B04     		lsls	r3, r3, #16
 218 0110 1343     		orrs	r3, r2
 219 0112 1800     		movs	r0, r3
 220 0114 FFF7FEFF 		bl	CyBle_GattsNotification
  96:..\..\..\..\..\WORK\1N4 Transmitter\SA-100_2339_05_1N4.cydsn/sgable.c ****         System.StatusPrevious = System.Status;
 221              		.loc 1 96 0
 222 0118 A94B     		ldr	r3, .L24+4
 223 011a 5A8B     		ldrh	r2, [r3, #26]
 224 011c A84B     		ldr	r3, .L24+4
 225 011e 9A83     		strh	r2, [r3, #28]
 226              	.L6:
  97:..\..\..\..\..\WORK\1N4 Transmitter\SA-100_2339_05_1N4.cydsn/sgable.c ****     }
  98:..\..\..\..\..\WORK\1N4 Transmitter\SA-100_2339_05_1N4.cydsn/sgable.c **** 
  99:..\..\..\..\..\WORK\1N4 Transmitter\SA-100_2339_05_1N4.cydsn/sgable.c ****     /* Update CAN Channel value */
 100:..\..\..\..\..\WORK\1N4 Transmitter\SA-100_2339_05_1N4.cydsn/sgable.c ****     tempHandle.attrHandle = CYBLE_SGA1_SYS_CAN_CHAN_CHAR_HANDLE;
 227              		.loc 1 100 0
 228 0120 3B00     		movs	r3, r7
 229 0122 1E22     		movs	r2, #30
 230 0124 1A81     		strh	r2, [r3, #8]
 101:..\..\..\..\..\WORK\1N4 Transmitter\SA-100_2339_05_1N4.cydsn/sgable.c ****     tempHandle.value.val = (uint8*)&System.CanChannel;//&Sensor.CountsHalfScale;
 231              		.loc 1 101 0
 232 0126 3B00     		movs	r3, r7
 233 0128 AA4A     		ldr	r2, .L24+24
 234 012a 1A60     		str	r2, [r3]
 102:..\..\..\..\..\WORK\1N4 Transmitter\SA-100_2339_05_1N4.cydsn/sgable.c ****     tempHandle.value.len = 1;
 235              		.loc 1 102 0
 236 012c 3B00     		movs	r3, r7
 237 012e 0122     		movs	r2, #1
 238 0130 9A80     		strh	r2, [r3, #4]
 103:..\..\..\..\..\WORK\1N4 Transmitter\SA-100_2339_05_1N4.cydsn/sgable.c ****     CyBle_GattsWriteAttributeValue(&tempHandle,0,&cyBle_connHandle,0);
 239              		.loc 1 103 0
ARM GAS  C:\Users\alexport\AppData\Local\Temp\ccr3ZDs0.s 			page 7


 240 0132 A44A     		ldr	r2, .L24+8
 241 0134 3800     		movs	r0, r7
 242 0136 0023     		movs	r3, #0
 243 0138 0021     		movs	r1, #0
 244 013a FFF7FEFF 		bl	CyBle_GattsWriteAttributeValue
 104:..\..\..\..\..\WORK\1N4 Transmitter\SA-100_2339_05_1N4.cydsn/sgable.c **** 
 105:..\..\..\..\..\WORK\1N4 Transmitter\SA-100_2339_05_1N4.cydsn/sgable.c ****     /* Update CAN Node ID value */
 106:..\..\..\..\..\WORK\1N4 Transmitter\SA-100_2339_05_1N4.cydsn/sgable.c ****     tempHandle.attrHandle = CYBLE_SGA1_SYS_CAN_ID_CHAR_HANDLE;
 245              		.loc 1 106 0
 246 013e 3B00     		movs	r3, r7
 247 0140 2122     		movs	r2, #33
 248 0142 1A81     		strh	r2, [r3, #8]
 107:..\..\..\..\..\WORK\1N4 Transmitter\SA-100_2339_05_1N4.cydsn/sgable.c ****     tempHandle.value.val = (uint8*)&System.CanNodeId;
 249              		.loc 1 107 0
 250 0144 3B00     		movs	r3, r7
 251 0146 A44A     		ldr	r2, .L24+28
 252 0148 1A60     		str	r2, [r3]
 108:..\..\..\..\..\WORK\1N4 Transmitter\SA-100_2339_05_1N4.cydsn/sgable.c ****     tempHandle.value.len = 1;
 253              		.loc 1 108 0
 254 014a 3B00     		movs	r3, r7
 255 014c 0122     		movs	r2, #1
 256 014e 9A80     		strh	r2, [r3, #4]
 109:..\..\..\..\..\WORK\1N4 Transmitter\SA-100_2339_05_1N4.cydsn/sgable.c ****     CyBle_GattsWriteAttributeValue(&tempHandle,0,&cyBle_connHandle,0);
 257              		.loc 1 109 0
 258 0150 9C4A     		ldr	r2, .L24+8
 259 0152 3800     		movs	r0, r7
 260 0154 0023     		movs	r3, #0
 261 0156 0021     		movs	r1, #0
 262 0158 FFF7FEFF 		bl	CyBle_GattsWriteAttributeValue
 110:..\..\..\..\..\WORK\1N4 Transmitter\SA-100_2339_05_1N4.cydsn/sgable.c **** 
 111:..\..\..\..\..\WORK\1N4 Transmitter\SA-100_2339_05_1N4.cydsn/sgable.c ****     /* Update SYS_CAL_LOOP value */
 112:..\..\..\..\..\WORK\1N4 Transmitter\SA-100_2339_05_1N4.cydsn/sgable.c ****     tempHandle.attrHandle = CYBLE_SGA1_SYS_CAL_LOOP_CHAR_HANDLE;
 263              		.loc 1 112 0
 264 015c 3B00     		movs	r3, r7
 265 015e 2422     		movs	r2, #36
 266 0160 1A81     		strh	r2, [r3, #8]
 113:..\..\..\..\..\WORK\1N4 Transmitter\SA-100_2339_05_1N4.cydsn/sgable.c ****     tempHandle.value.val = (uint8*)&System.BleCalLoop;
 267              		.loc 1 113 0
 268 0162 3B00     		movs	r3, r7
 269 0164 9D4A     		ldr	r2, .L24+32
 270 0166 1A60     		str	r2, [r3]
 114:..\..\..\..\..\WORK\1N4 Transmitter\SA-100_2339_05_1N4.cydsn/sgable.c ****     tempHandle.value.len = 2;
 271              		.loc 1 114 0
 272 0168 3B00     		movs	r3, r7
 273 016a 0222     		movs	r2, #2
 274 016c 9A80     		strh	r2, [r3, #4]
 115:..\..\..\..\..\WORK\1N4 Transmitter\SA-100_2339_05_1N4.cydsn/sgable.c ****     CyBle_GattsWriteAttributeValue(&tempHandle,0,&cyBle_connHandle,0);
 275              		.loc 1 115 0
 276 016e 954A     		ldr	r2, .L24+8
 277 0170 3800     		movs	r0, r7
 278 0172 0023     		movs	r3, #0
 279 0174 0021     		movs	r1, #0
 280 0176 FFF7FEFF 		bl	CyBle_GattsWriteAttributeValue
 116:..\..\..\..\..\WORK\1N4 Transmitter\SA-100_2339_05_1N4.cydsn/sgable.c **** 
 117:..\..\..\..\..\WORK\1N4 Transmitter\SA-100_2339_05_1N4.cydsn/sgable.c ****     /* Update SYS_ADC value */
 118:..\..\..\..\..\WORK\1N4 Transmitter\SA-100_2339_05_1N4.cydsn/sgable.c ****     tempHandle.attrHandle = CYBLE_SGA1_SYS_ADC_CHAR_HANDLE;
 281              		.loc 1 118 0
ARM GAS  C:\Users\alexport\AppData\Local\Temp\ccr3ZDs0.s 			page 8


 282 017a 3B00     		movs	r3, r7
 283 017c 2722     		movs	r2, #39
 284 017e 1A81     		strh	r2, [r3, #8]
 119:..\..\..\..\..\WORK\1N4 Transmitter\SA-100_2339_05_1N4.cydsn/sgable.c ****     tempHandle.value.val = (uint8*)&System.AdcCounts;
 285              		.loc 1 119 0
 286 0180 3B00     		movs	r3, r7
 287 0182 974A     		ldr	r2, .L24+36
 288 0184 1A60     		str	r2, [r3]
 120:..\..\..\..\..\WORK\1N4 Transmitter\SA-100_2339_05_1N4.cydsn/sgable.c ****     tempHandle.value.len = 2;
 289              		.loc 1 120 0
 290 0186 3B00     		movs	r3, r7
 291 0188 0222     		movs	r2, #2
 292 018a 9A80     		strh	r2, [r3, #4]
 121:..\..\..\..\..\WORK\1N4 Transmitter\SA-100_2339_05_1N4.cydsn/sgable.c ****     CyBle_GattsWriteAttributeValue(&tempHandle,0,&cyBle_connHandle,0);
 293              		.loc 1 121 0
 294 018c 8D4A     		ldr	r2, .L24+8
 295 018e 3800     		movs	r0, r7
 296 0190 0023     		movs	r3, #0
 297 0192 0021     		movs	r1, #0
 298 0194 FFF7FEFF 		bl	CyBle_GattsWriteAttributeValue
 122:..\..\..\..\..\WORK\1N4 Transmitter\SA-100_2339_05_1N4.cydsn/sgable.c ****     /* If notifications have been requested for AdcCounts */
 123:..\..\..\..\..\WORK\1N4 Transmitter\SA-100_2339_05_1N4.cydsn/sgable.c ****     if( System.BleNotifyAdcCounts && ( System.AdcCounts != System.AdcCountsPrevious ) )
 299              		.loc 1 123 0
 300 0198 894B     		ldr	r3, .L24+4
 301 019a 9B7C     		ldrb	r3, [r3, #18]
 302 019c 002B     		cmp	r3, #0
 303 019e 18D0     		beq	.L7
 304              		.loc 1 123 0 is_stmt 0 discriminator 1
 305 01a0 874B     		ldr	r3, .L24+4
 306 01a2 DA8A     		ldrh	r2, [r3, #22]
 307 01a4 864B     		ldr	r3, .L24+4
 308 01a6 1B8B     		ldrh	r3, [r3, #24]
 309 01a8 9A42     		cmp	r2, r3
 310 01aa 12D0     		beq	.L7
 124:..\..\..\..\..\WORK\1N4 Transmitter\SA-100_2339_05_1N4.cydsn/sgable.c ****     {
 125:..\..\..\..\..\WORK\1N4 Transmitter\SA-100_2339_05_1N4.cydsn/sgable.c ****         CyBle_GattsNotification( cyBle_connHandle, &tempHandle );               /* Notify the clien
 311              		.loc 1 125 0 is_stmt 1
 312 01ac 3900     		movs	r1, r7
 313 01ae 854B     		ldr	r3, .L24+8
 314 01b0 1A78     		ldrb	r2, [r3]
 315 01b2 5B78     		ldrb	r3, [r3, #1]
 316 01b4 1B02     		lsls	r3, r3, #8
 317 01b6 1A43     		orrs	r2, r3
 318 01b8 0023     		movs	r3, #0
 319 01ba 1204     		lsls	r2, r2, #16
 320 01bc 120C     		lsrs	r2, r2, #16
 321 01be 1B0C     		lsrs	r3, r3, #16
 322 01c0 1B04     		lsls	r3, r3, #16
 323 01c2 1343     		orrs	r3, r2
 324 01c4 1800     		movs	r0, r3
 325 01c6 FFF7FEFF 		bl	CyBle_GattsNotification
 126:..\..\..\..\..\WORK\1N4 Transmitter\SA-100_2339_05_1N4.cydsn/sgable.c ****         System.AdcCountsPrevious = System.AdcCounts;
 326              		.loc 1 126 0
 327 01ca 7D4B     		ldr	r3, .L24+4
 328 01cc DA8A     		ldrh	r2, [r3, #22]
 329 01ce 7C4B     		ldr	r3, .L24+4
 330 01d0 1A83     		strh	r2, [r3, #24]
ARM GAS  C:\Users\alexport\AppData\Local\Temp\ccr3ZDs0.s 			page 9


 331              	.L7:
 127:..\..\..\..\..\WORK\1N4 Transmitter\SA-100_2339_05_1N4.cydsn/sgable.c ****     }
 128:..\..\..\..\..\WORK\1N4 Transmitter\SA-100_2339_05_1N4.cydsn/sgable.c **** 
 129:..\..\..\..\..\WORK\1N4 Transmitter\SA-100_2339_05_1N4.cydsn/sgable.c ****     /* Update SYS_ALERT_1 value */
 130:..\..\..\..\..\WORK\1N4 Transmitter\SA-100_2339_05_1N4.cydsn/sgable.c ****     tempHandle.attrHandle = CYBLE_SGA1_SYS_ALERT_1_CHAR_HANDLE;
 332              		.loc 1 130 0
 333 01d2 3B00     		movs	r3, r7
 334 01d4 2B22     		movs	r2, #43
 335 01d6 1A81     		strh	r2, [r3, #8]
 131:..\..\..\..\..\WORK\1N4 Transmitter\SA-100_2339_05_1N4.cydsn/sgable.c ****     tempHandle.value.val = (uint8*)&Sensor.Alert1;
 336              		.loc 1 131 0
 337 01d8 3B00     		movs	r3, r7
 338 01da 824A     		ldr	r2, .L24+40
 339 01dc 1A60     		str	r2, [r3]
 132:..\..\..\..\..\WORK\1N4 Transmitter\SA-100_2339_05_1N4.cydsn/sgable.c ****     tempHandle.value.len = 2;
 340              		.loc 1 132 0
 341 01de 3B00     		movs	r3, r7
 342 01e0 0222     		movs	r2, #2
 343 01e2 9A80     		strh	r2, [r3, #4]
 133:..\..\..\..\..\WORK\1N4 Transmitter\SA-100_2339_05_1N4.cydsn/sgable.c ****     CyBle_GattsWriteAttributeValue(&tempHandle,0,&cyBle_connHandle,0);
 344              		.loc 1 133 0
 345 01e4 774A     		ldr	r2, .L24+8
 346 01e6 3800     		movs	r0, r7
 347 01e8 0023     		movs	r3, #0
 348 01ea 0021     		movs	r1, #0
 349 01ec FFF7FEFF 		bl	CyBle_GattsWriteAttributeValue
 134:..\..\..\..\..\WORK\1N4 Transmitter\SA-100_2339_05_1N4.cydsn/sgable.c **** 
 135:..\..\..\..\..\WORK\1N4 Transmitter\SA-100_2339_05_1N4.cydsn/sgable.c ****     /* Update SYS_ALERT_2 value */
 136:..\..\..\..\..\WORK\1N4 Transmitter\SA-100_2339_05_1N4.cydsn/sgable.c ****     tempHandle.attrHandle = CYBLE_SGA1_SYS_ALERT_2_CHAR_HANDLE;
 350              		.loc 1 136 0
 351 01f0 3B00     		movs	r3, r7
 352 01f2 2E22     		movs	r2, #46
 353 01f4 1A81     		strh	r2, [r3, #8]
 137:..\..\..\..\..\WORK\1N4 Transmitter\SA-100_2339_05_1N4.cydsn/sgable.c ****     tempHandle.value.val = (uint8*)&Sensor.Alert2;
 354              		.loc 1 137 0
 355 01f6 3B00     		movs	r3, r7
 356 01f8 7B4A     		ldr	r2, .L24+44
 357 01fa 1A60     		str	r2, [r3]
 138:..\..\..\..\..\WORK\1N4 Transmitter\SA-100_2339_05_1N4.cydsn/sgable.c ****     tempHandle.value.len = 2;
 358              		.loc 1 138 0
 359 01fc 3B00     		movs	r3, r7
 360 01fe 0222     		movs	r2, #2
 361 0200 9A80     		strh	r2, [r3, #4]
 139:..\..\..\..\..\WORK\1N4 Transmitter\SA-100_2339_05_1N4.cydsn/sgable.c ****     CyBle_GattsWriteAttributeValue(&tempHandle,0,&cyBle_connHandle,0);
 362              		.loc 1 139 0
 363 0202 704A     		ldr	r2, .L24+8
 364 0204 3800     		movs	r0, r7
 365 0206 0023     		movs	r3, #0
 366 0208 0021     		movs	r1, #0
 367 020a FFF7FEFF 		bl	CyBle_GattsWriteAttributeValue
 140:..\..\..\..\..\WORK\1N4 Transmitter\SA-100_2339_05_1N4.cydsn/sgable.c **** 
 141:..\..\..\..\..\WORK\1N4 Transmitter\SA-100_2339_05_1N4.cydsn/sgable.c ****     /* Update SYS_ALERT_1_ASC value */
 142:..\..\..\..\..\WORK\1N4 Transmitter\SA-100_2339_05_1N4.cydsn/sgable.c ****     tempHandle.attrHandle = CYBLE_SGA1_SYS_ALERT_1_ASC_CHAR_HANDLE;
 368              		.loc 1 142 0
 369 020e 3B00     		movs	r3, r7
 370 0210 3122     		movs	r2, #49
 371 0212 1A81     		strh	r2, [r3, #8]
ARM GAS  C:\Users\alexport\AppData\Local\Temp\ccr3ZDs0.s 			page 10


 143:..\..\..\..\..\WORK\1N4 Transmitter\SA-100_2339_05_1N4.cydsn/sgable.c ****     tempHandle.value.val = (uint8*)&Sensor.Alert1Ascending;
 372              		.loc 1 143 0
 373 0214 3B00     		movs	r3, r7
 374 0216 754A     		ldr	r2, .L24+48
 375 0218 1A60     		str	r2, [r3]
 144:..\..\..\..\..\WORK\1N4 Transmitter\SA-100_2339_05_1N4.cydsn/sgable.c ****     tempHandle.value.len = 2;
 376              		.loc 1 144 0
 377 021a 3B00     		movs	r3, r7
 378 021c 0222     		movs	r2, #2
 379 021e 9A80     		strh	r2, [r3, #4]
 145:..\..\..\..\..\WORK\1N4 Transmitter\SA-100_2339_05_1N4.cydsn/sgable.c ****     CyBle_GattsWriteAttributeValue(&tempHandle,0,&cyBle_connHandle,0);
 380              		.loc 1 145 0
 381 0220 684A     		ldr	r2, .L24+8
 382 0222 3800     		movs	r0, r7
 383 0224 0023     		movs	r3, #0
 384 0226 0021     		movs	r1, #0
 385 0228 FFF7FEFF 		bl	CyBle_GattsWriteAttributeValue
 146:..\..\..\..\..\WORK\1N4 Transmitter\SA-100_2339_05_1N4.cydsn/sgable.c **** 
 147:..\..\..\..\..\WORK\1N4 Transmitter\SA-100_2339_05_1N4.cydsn/sgable.c ****     /* Update SYS_ALERT_2_ASC value */
 148:..\..\..\..\..\WORK\1N4 Transmitter\SA-100_2339_05_1N4.cydsn/sgable.c ****     tempHandle.attrHandle = CYBLE_SGA1_SYS_ALERT_2_ASC_CHAR_HANDLE;
 386              		.loc 1 148 0
 387 022c 3B00     		movs	r3, r7
 388 022e 3422     		movs	r2, #52
 389 0230 1A81     		strh	r2, [r3, #8]
 149:..\..\..\..\..\WORK\1N4 Transmitter\SA-100_2339_05_1N4.cydsn/sgable.c ****     tempHandle.value.val = (uint8*)&Sensor.Alert2Ascending;
 390              		.loc 1 149 0
 391 0232 3B00     		movs	r3, r7
 392 0234 6E4A     		ldr	r2, .L24+52
 393 0236 1A60     		str	r2, [r3]
 150:..\..\..\..\..\WORK\1N4 Transmitter\SA-100_2339_05_1N4.cydsn/sgable.c ****     tempHandle.value.len = 2;
 394              		.loc 1 150 0
 395 0238 3B00     		movs	r3, r7
 396 023a 0222     		movs	r2, #2
 397 023c 9A80     		strh	r2, [r3, #4]
 151:..\..\..\..\..\WORK\1N4 Transmitter\SA-100_2339_05_1N4.cydsn/sgable.c ****     CyBle_GattsWriteAttributeValue(&tempHandle,0,&cyBle_connHandle,0);
 398              		.loc 1 151 0
 399 023e 614A     		ldr	r2, .L24+8
 400 0240 3800     		movs	r0, r7
 401 0242 0023     		movs	r3, #0
 402 0244 0021     		movs	r1, #0
 403 0246 FFF7FEFF 		bl	CyBle_GattsWriteAttributeValue
 152:..\..\..\..\..\WORK\1N4 Transmitter\SA-100_2339_05_1N4.cydsn/sgable.c **** 
 153:..\..\..\..\..\WORK\1N4 Transmitter\SA-100_2339_05_1N4.cydsn/sgable.c ****     /* Update SYS_FRACTIONAL value */
 154:..\..\..\..\..\WORK\1N4 Transmitter\SA-100_2339_05_1N4.cydsn/sgable.c ****     tempHandle.attrHandle = CYBLE_SGA1_SYS_FRACTIONAL_CHAR_HANDLE;
 404              		.loc 1 154 0
 405 024a 3B00     		movs	r3, r7
 406 024c 3722     		movs	r2, #55
 407 024e 1A81     		strh	r2, [r3, #8]
 155:..\..\..\..\..\WORK\1N4 Transmitter\SA-100_2339_05_1N4.cydsn/sgable.c ****     tempHandle.value.val = (uint8*)&Sensor.Fractional;
 408              		.loc 1 155 0
 409 0250 3B00     		movs	r3, r7
 410 0252 684A     		ldr	r2, .L24+56
 411 0254 1A60     		str	r2, [r3]
 156:..\..\..\..\..\WORK\1N4 Transmitter\SA-100_2339_05_1N4.cydsn/sgable.c ****     tempHandle.value.len = 2;
 412              		.loc 1 156 0
 413 0256 3B00     		movs	r3, r7
 414 0258 0222     		movs	r2, #2
ARM GAS  C:\Users\alexport\AppData\Local\Temp\ccr3ZDs0.s 			page 11


 415 025a 9A80     		strh	r2, [r3, #4]
 157:..\..\..\..\..\WORK\1N4 Transmitter\SA-100_2339_05_1N4.cydsn/sgable.c ****     CyBle_GattsWriteAttributeValue(&tempHandle,0,&cyBle_connHandle,0);
 416              		.loc 1 157 0
 417 025c 594A     		ldr	r2, .L24+8
 418 025e 3800     		movs	r0, r7
 419 0260 0023     		movs	r3, #0
 420 0262 0021     		movs	r1, #0
 421 0264 FFF7FEFF 		bl	CyBle_GattsWriteAttributeValue
 158:..\..\..\..\..\WORK\1N4 Transmitter\SA-100_2339_05_1N4.cydsn/sgable.c **** 
 159:..\..\..\..\..\WORK\1N4 Transmitter\SA-100_2339_05_1N4.cydsn/sgable.c ****     /* Update PIN value */
 160:..\..\..\..\..\WORK\1N4 Transmitter\SA-100_2339_05_1N4.cydsn/sgable.c ****     tempHandle.attrHandle = CYBLE_SGA2_PIN_CHAR_HANDLE;
 422              		.loc 1 160 0
 423 0268 3B00     		movs	r3, r7
 424 026a 4E22     		movs	r2, #78
 425 026c 1A81     		strh	r2, [r3, #8]
 161:..\..\..\..\..\WORK\1N4 Transmitter\SA-100_2339_05_1N4.cydsn/sgable.c ****     tempHandle.value.val = (uint8*)&System.Pin;
 426              		.loc 1 161 0
 427 026e 3B00     		movs	r3, r7
 428 0270 614A     		ldr	r2, .L24+60
 429 0272 1A60     		str	r2, [r3]
 162:..\..\..\..\..\WORK\1N4 Transmitter\SA-100_2339_05_1N4.cydsn/sgable.c ****     tempHandle.value.len = 4;
 430              		.loc 1 162 0
 431 0274 3B00     		movs	r3, r7
 432 0276 0422     		movs	r2, #4
 433 0278 9A80     		strh	r2, [r3, #4]
 163:..\..\..\..\..\WORK\1N4 Transmitter\SA-100_2339_05_1N4.cydsn/sgable.c ****     CyBle_GattsWriteAttributeValue(&tempHandle,0,&cyBle_connHandle,0);
 434              		.loc 1 163 0
 435 027a 524A     		ldr	r2, .L24+8
 436 027c 3800     		movs	r0, r7
 437 027e 0023     		movs	r3, #0
 438 0280 0021     		movs	r1, #0
 439 0282 FFF7FEFF 		bl	CyBle_GattsWriteAttributeValue
 164:..\..\..\..\..\WORK\1N4 Transmitter\SA-100_2339_05_1N4.cydsn/sgable.c **** 
 165:..\..\..\..\..\WORK\1N4 Transmitter\SA-100_2339_05_1N4.cydsn/sgable.c ****     /* Update SENSOR_TYPE value ( This is actually mfg ) */
 166:..\..\..\..\..\WORK\1N4 Transmitter\SA-100_2339_05_1N4.cydsn/sgable.c ****     tempHandle.attrHandle = CYBLE_SGA2_SENSOR_TYPE_CHAR_HANDLE;
 440              		.loc 1 166 0
 441 0286 3B00     		movs	r3, r7
 442 0288 5122     		movs	r2, #81
 443 028a 1A81     		strh	r2, [r3, #8]
 167:..\..\..\..\..\WORK\1N4 Transmitter\SA-100_2339_05_1N4.cydsn/sgable.c ****     tempHandle.value.val = (uint8*)&Sensor.Mfg;
 444              		.loc 1 167 0
 445 028c 3B00     		movs	r3, r7
 446 028e 5B4A     		ldr	r2, .L24+64
 447 0290 1A60     		str	r2, [r3]
 168:..\..\..\..\..\WORK\1N4 Transmitter\SA-100_2339_05_1N4.cydsn/sgable.c ****     tempHandle.value.len = 1;
 448              		.loc 1 168 0
 449 0292 3B00     		movs	r3, r7
 450 0294 0122     		movs	r2, #1
 451 0296 9A80     		strh	r2, [r3, #4]
 169:..\..\..\..\..\WORK\1N4 Transmitter\SA-100_2339_05_1N4.cydsn/sgable.c ****     CyBle_GattsWriteAttributeValue(&tempHandle,0,&cyBle_connHandle,0);
 452              		.loc 1 169 0
 453 0298 4A4A     		ldr	r2, .L24+8
 454 029a 3800     		movs	r0, r7
 455 029c 0023     		movs	r3, #0
 456 029e 0021     		movs	r1, #0
 457 02a0 FFF7FEFF 		bl	CyBle_GattsWriteAttributeValue
 170:..\..\..\..\..\WORK\1N4 Transmitter\SA-100_2339_05_1N4.cydsn/sgable.c **** 
ARM GAS  C:\Users\alexport\AppData\Local\Temp\ccr3ZDs0.s 			page 12


 171:..\..\..\..\..\WORK\1N4 Transmitter\SA-100_2339_05_1N4.cydsn/sgable.c ****     /* Update gas range value */
 172:..\..\..\..\..\WORK\1N4 Transmitter\SA-100_2339_05_1N4.cydsn/sgable.c ****     tempHandle.attrHandle = CYBLE_SGA2_SENSOR_RANGE_CHAR_HANDLE;
 458              		.loc 1 172 0
 459 02a4 3B00     		movs	r3, r7
 460 02a6 5422     		movs	r2, #84
 461 02a8 1A81     		strh	r2, [r3, #8]
 173:..\..\..\..\..\WORK\1N4 Transmitter\SA-100_2339_05_1N4.cydsn/sgable.c ****     tempHandle.value.val = (uint8*)&Sensor.Range;
 462              		.loc 1 173 0
 463 02aa 3B00     		movs	r3, r7
 464 02ac 544A     		ldr	r2, .L24+68
 465 02ae 1A60     		str	r2, [r3]
 174:..\..\..\..\..\WORK\1N4 Transmitter\SA-100_2339_05_1N4.cydsn/sgable.c ****     tempHandle.value.len = 2;
 466              		.loc 1 174 0
 467 02b0 3B00     		movs	r3, r7
 468 02b2 0222     		movs	r2, #2
 469 02b4 9A80     		strh	r2, [r3, #4]
 175:..\..\..\..\..\WORK\1N4 Transmitter\SA-100_2339_05_1N4.cydsn/sgable.c ****     CyBle_GattsWriteAttributeValue(&tempHandle,0,&cyBle_connHandle,0);
 470              		.loc 1 175 0
 471 02b6 434A     		ldr	r2, .L24+8
 472 02b8 3800     		movs	r0, r7
 473 02ba 0023     		movs	r3, #0
 474 02bc 0021     		movs	r1, #0
 475 02be FFF7FEFF 		bl	CyBle_GattsWriteAttributeValue
 176:..\..\..\..\..\WORK\1N4 Transmitter\SA-100_2339_05_1N4.cydsn/sgable.c **** 
 177:..\..\..\..\..\WORK\1N4 Transmitter\SA-100_2339_05_1N4.cydsn/sgable.c ****     /* Update SENSOR_NOTE value */
 178:..\..\..\..\..\WORK\1N4 Transmitter\SA-100_2339_05_1N4.cydsn/sgable.c ****     tempHandle.attrHandle = CYBLE_SGA2_SENSOR_GAS_NOTE_CHAR_HANDLE;
 476              		.loc 1 178 0
 477 02c2 3B00     		movs	r3, r7
 478 02c4 5722     		movs	r2, #87
 479 02c6 1A81     		strh	r2, [r3, #8]
 179:..\..\..\..\..\WORK\1N4 Transmitter\SA-100_2339_05_1N4.cydsn/sgable.c ****     tempHandle.value.val = (uint8*)&Sensor.GasNote;
 480              		.loc 1 179 0
 481 02c8 3B00     		movs	r3, r7
 482 02ca 4E4A     		ldr	r2, .L24+72
 483 02cc 1A60     		str	r2, [r3]
 180:..\..\..\..\..\WORK\1N4 Transmitter\SA-100_2339_05_1N4.cydsn/sgable.c ****     tempHandle.value.len = 10;
 484              		.loc 1 180 0
 485 02ce 3B00     		movs	r3, r7
 486 02d0 0A22     		movs	r2, #10
 487 02d2 9A80     		strh	r2, [r3, #4]
 181:..\..\..\..\..\WORK\1N4 Transmitter\SA-100_2339_05_1N4.cydsn/sgable.c ****     CyBle_GattsWriteAttributeValue(&tempHandle,0,&cyBle_connHandle,0);
 488              		.loc 1 181 0
 489 02d4 3B4A     		ldr	r2, .L24+8
 490 02d6 3800     		movs	r0, r7
 491 02d8 0023     		movs	r3, #0
 492 02da 0021     		movs	r1, #0
 493 02dc FFF7FEFF 		bl	CyBle_GattsWriteAttributeValue
 182:..\..\..\..\..\WORK\1N4 Transmitter\SA-100_2339_05_1N4.cydsn/sgable.c **** 
 183:..\..\..\..\..\WORK\1N4 Transmitter\SA-100_2339_05_1N4.cydsn/sgable.c ****     /* Update SENSOR_TAG value */
 184:..\..\..\..\..\WORK\1N4 Transmitter\SA-100_2339_05_1N4.cydsn/sgable.c ****     tempHandle.attrHandle = CYBLE_SGA2_SENSOR_TAG_CHAR_HANDLE;
 494              		.loc 1 184 0
 495 02e0 3B00     		movs	r3, r7
 496 02e2 5A22     		movs	r2, #90
 497 02e4 1A81     		strh	r2, [r3, #8]
 185:..\..\..\..\..\WORK\1N4 Transmitter\SA-100_2339_05_1N4.cydsn/sgable.c ****     tempHandle.value.val = (uint8*)&System.SensorTag;
 498              		.loc 1 185 0
 499 02e6 3B00     		movs	r3, r7
ARM GAS  C:\Users\alexport\AppData\Local\Temp\ccr3ZDs0.s 			page 13


 500 02e8 474A     		ldr	r2, .L24+76
 501 02ea 1A60     		str	r2, [r3]
 186:..\..\..\..\..\WORK\1N4 Transmitter\SA-100_2339_05_1N4.cydsn/sgable.c ****     tempHandle.value.len = SENSOR_TAG_LENGTH;
 502              		.loc 1 186 0
 503 02ec 3B00     		movs	r3, r7
 504 02ee 1422     		movs	r2, #20
 505 02f0 9A80     		strh	r2, [r3, #4]
 187:..\..\..\..\..\WORK\1N4 Transmitter\SA-100_2339_05_1N4.cydsn/sgable.c ****     CyBle_GattsWriteAttributeValue(&tempHandle,0,&cyBle_connHandle,0);
 506              		.loc 1 187 0
 507 02f2 344A     		ldr	r2, .L24+8
 508 02f4 3800     		movs	r0, r7
 509 02f6 0023     		movs	r3, #0
 510 02f8 0021     		movs	r1, #0
 511 02fa FFF7FEFF 		bl	CyBle_GattsWriteAttributeValue
 188:..\..\..\..\..\WORK\1N4 Transmitter\SA-100_2339_05_1N4.cydsn/sgable.c **** 
 189:..\..\..\..\..\WORK\1N4 Transmitter\SA-100_2339_05_1N4.cydsn/sgable.c ****     /* Update temperature */
 190:..\..\..\..\..\WORK\1N4 Transmitter\SA-100_2339_05_1N4.cydsn/sgable.c ****     tempHandle.attrHandle = CYBLE_SGA2_SENSOR_TEMPERATURE_CHAR_HANDLE;
 512              		.loc 1 190 0
 513 02fe 3B00     		movs	r3, r7
 514 0300 5D22     		movs	r2, #93
 515 0302 1A81     		strh	r2, [r3, #8]
 191:..\..\..\..\..\WORK\1N4 Transmitter\SA-100_2339_05_1N4.cydsn/sgable.c ****     tempHandle.value.val = (uint8*)&Sensor.Temperature;
 516              		.loc 1 191 0
 517 0304 3B00     		movs	r3, r7
 518 0306 414A     		ldr	r2, .L24+80
 519 0308 1A60     		str	r2, [r3]
 192:..\..\..\..\..\WORK\1N4 Transmitter\SA-100_2339_05_1N4.cydsn/sgable.c ****     tempHandle.value.len = 1;
 520              		.loc 1 192 0
 521 030a 3B00     		movs	r3, r7
 522 030c 0122     		movs	r2, #1
 523 030e 9A80     		strh	r2, [r3, #4]
 193:..\..\..\..\..\WORK\1N4 Transmitter\SA-100_2339_05_1N4.cydsn/sgable.c ****     CyBle_GattsWriteAttributeValue(&tempHandle,0,&cyBle_connHandle,0);
 524              		.loc 1 193 0
 525 0310 2C4A     		ldr	r2, .L24+8
 526 0312 3800     		movs	r0, r7
 527 0314 0023     		movs	r3, #0
 528 0316 0021     		movs	r1, #0
 529 0318 FFF7FEFF 		bl	CyBle_GattsWriteAttributeValue
 194:..\..\..\..\..\WORK\1N4 Transmitter\SA-100_2339_05_1N4.cydsn/sgable.c ****     /* If notifications have been requested for Sensor CalLevel */
 195:..\..\..\..\..\WORK\1N4 Transmitter\SA-100_2339_05_1N4.cydsn/sgable.c ****     if( System.BleNotifyTemperature && ( Sensor.Temperature != Sensor.TemperaturePrevious ) )
 530              		.loc 1 195 0
 531 031c 284B     		ldr	r3, .L24+4
 532 031e 9B79     		ldrb	r3, [r3, #6]
 533 0320 002B     		cmp	r3, #0
 534 0322 1CD0     		beq	.L8
 535              		.loc 1 195 0 is_stmt 0 discriminator 1
 536 0324 294B     		ldr	r3, .L24+16
 537 0326 2A22     		movs	r2, #42
 538 0328 9A56     		ldrsb	r2, [r3, r2]
 539 032a 284B     		ldr	r3, .L24+16
 540 032c 2B21     		movs	r1, #43
 541 032e 5B56     		ldrsb	r3, [r3, r1]
 542 0330 9A42     		cmp	r2, r3
 543 0332 14D0     		beq	.L8
 196:..\..\..\..\..\WORK\1N4 Transmitter\SA-100_2339_05_1N4.cydsn/sgable.c ****     {
 197:..\..\..\..\..\WORK\1N4 Transmitter\SA-100_2339_05_1N4.cydsn/sgable.c ****         CyBle_GattsNotification( cyBle_connHandle, &tempHandle );               /* Notify the clien
 544              		.loc 1 197 0 is_stmt 1
ARM GAS  C:\Users\alexport\AppData\Local\Temp\ccr3ZDs0.s 			page 14


 545 0334 3900     		movs	r1, r7
 546 0336 234B     		ldr	r3, .L24+8
 547 0338 1A78     		ldrb	r2, [r3]
 548 033a 5B78     		ldrb	r3, [r3, #1]
 549 033c 1B02     		lsls	r3, r3, #8
 550 033e 1A43     		orrs	r2, r3
 551 0340 0023     		movs	r3, #0
 552 0342 1204     		lsls	r2, r2, #16
 553 0344 120C     		lsrs	r2, r2, #16
 554 0346 1B0C     		lsrs	r3, r3, #16
 555 0348 1B04     		lsls	r3, r3, #16
 556 034a 1343     		orrs	r3, r2
 557 034c 1800     		movs	r0, r3
 558 034e FFF7FEFF 		bl	CyBle_GattsNotification
 198:..\..\..\..\..\WORK\1N4 Transmitter\SA-100_2339_05_1N4.cydsn/sgable.c ****         Sensor.TemperaturePrevious = Sensor.Temperature;
 559              		.loc 1 198 0
 560 0352 1E4B     		ldr	r3, .L24+16
 561 0354 2A22     		movs	r2, #42
 562 0356 9956     		ldrsb	r1, [r3, r2]
 563 0358 1C4B     		ldr	r3, .L24+16
 564 035a 2B22     		movs	r2, #43
 565 035c 9954     		strb	r1, [r3, r2]
 566              	.L8:
 199:..\..\..\..\..\WORK\1N4 Transmitter\SA-100_2339_05_1N4.cydsn/sgable.c ****     }
 200:..\..\..\..\..\WORK\1N4 Transmitter\SA-100_2339_05_1N4.cydsn/sgable.c **** 
 201:..\..\..\..\..\WORK\1N4 Transmitter\SA-100_2339_05_1N4.cydsn/sgable.c ****     /* Update SENSOR_CAL_LEVEL value */
 202:..\..\..\..\..\WORK\1N4 Transmitter\SA-100_2339_05_1N4.cydsn/sgable.c ****     tempHandle.attrHandle = CYBLE_SGA2_SENSOR_CAL_LEVEL_CHAR_HANDLE;
 567              		.loc 1 202 0
 568 035e 3B00     		movs	r3, r7
 569 0360 6122     		movs	r2, #97
 570 0362 1A81     		strh	r2, [r3, #8]
 203:..\..\..\..\..\WORK\1N4 Transmitter\SA-100_2339_05_1N4.cydsn/sgable.c ****     tempHandle.value.val = (uint8*)&Sensor.CalLevel;
 571              		.loc 1 203 0
 572 0364 3B00     		movs	r3, r7
 573 0366 2A4A     		ldr	r2, .L24+84
 574 0368 1A60     		str	r2, [r3]
 204:..\..\..\..\..\WORK\1N4 Transmitter\SA-100_2339_05_1N4.cydsn/sgable.c ****     tempHandle.value.len = 2;
 575              		.loc 1 204 0
 576 036a 3B00     		movs	r3, r7
 577 036c 0222     		movs	r2, #2
 578 036e 9A80     		strh	r2, [r3, #4]
 205:..\..\..\..\..\WORK\1N4 Transmitter\SA-100_2339_05_1N4.cydsn/sgable.c ****     CyBle_GattsWriteAttributeValue(&tempHandle,0,&cyBle_connHandle,0);
 579              		.loc 1 205 0
 580 0370 144A     		ldr	r2, .L24+8
 581 0372 3800     		movs	r0, r7
 582 0374 0023     		movs	r3, #0
 583 0376 0021     		movs	r1, #0
 584 0378 FFF7FEFF 		bl	CyBle_GattsWriteAttributeValue
 206:..\..\..\..\..\WORK\1N4 Transmitter\SA-100_2339_05_1N4.cydsn/sgable.c ****     /* If notifications have been requested for Sensor CalLevel */
 207:..\..\..\..\..\WORK\1N4 Transmitter\SA-100_2339_05_1N4.cydsn/sgable.c ****     if( System.BleNotifyCalLevel && ( Sensor.CalLevel != Sensor.CalLevelPrevious ) )
 585              		.loc 1 207 0
 586 037c 104B     		ldr	r3, .L24+4
 587 037e 1B7A     		ldrb	r3, [r3, #8]
 588 0380 002B     		cmp	r3, #0
 589 0382 49D0     		beq	.L9
 590              		.loc 1 207 0 is_stmt 0 discriminator 1
 591 0384 114B     		ldr	r3, .L24+16
ARM GAS  C:\Users\alexport\AppData\Local\Temp\ccr3ZDs0.s 			page 15


 592 0386 3822     		movs	r2, #56
 593 0388 9A5E     		ldrsh	r2, [r3, r2]
 594 038a 104B     		ldr	r3, .L24+16
 595 038c 3A21     		movs	r1, #58
 596 038e 5B5E     		ldrsh	r3, [r3, r1]
 597 0390 9A42     		cmp	r2, r3
 598 0392 41D0     		beq	.L9
 208:..\..\..\..\..\WORK\1N4 Transmitter\SA-100_2339_05_1N4.cydsn/sgable.c ****     {
 209:..\..\..\..\..\WORK\1N4 Transmitter\SA-100_2339_05_1N4.cydsn/sgable.c ****         CyBle_GattsNotification( cyBle_connHandle, &tempHandle );               /* Notify the clien
 599              		.loc 1 209 0 is_stmt 1
 600 0394 3900     		movs	r1, r7
 601 0396 0B4B     		ldr	r3, .L24+8
 602 0398 1A78     		ldrb	r2, [r3]
 603 039a 5B78     		ldrb	r3, [r3, #1]
 604 039c 1B02     		lsls	r3, r3, #8
 605 039e 1A43     		orrs	r2, r3
 606 03a0 0023     		movs	r3, #0
 607 03a2 1204     		lsls	r2, r2, #16
 608 03a4 120C     		lsrs	r2, r2, #16
 609 03a6 1B0C     		lsrs	r3, r3, #16
 610 03a8 1B04     		lsls	r3, r3, #16
 611 03aa 1343     		orrs	r3, r2
 612 03ac 1800     		movs	r0, r3
 613 03ae FFF7FEFF 		bl	CyBle_GattsNotification
 210:..\..\..\..\..\WORK\1N4 Transmitter\SA-100_2339_05_1N4.cydsn/sgable.c ****         Sensor.CalLevelPrevious = Sensor.CalLevel;
 614              		.loc 1 210 0
 615 03b2 064B     		ldr	r3, .L24+16
 616 03b4 3822     		movs	r2, #56
 617 03b6 9A5E     		ldrsh	r2, [r3, r2]
 618 03b8 2CE0     		b	.L25
 619              	.L26:
 620 03ba C046     		.align	2
 621              	.L24:
 622 03bc 00000000 		.word	cyBle_state
 623 03c0 00000000 		.word	System
 624 03c4 00000000 		.word	cyBle_connHandle
 625 03c8 10000000 		.word	Sensor+16
 626 03cc 00000000 		.word	Sensor
 627 03d0 1A000000 		.word	System+26
 628 03d4 81000000 		.word	System+129
 629 03d8 80000000 		.word	System+128
 630 03dc 84000000 		.word	System+132
 631 03e0 16000000 		.word	System+22
 632 03e4 58000000 		.word	Sensor+88
 633 03e8 5A000000 		.word	Sensor+90
 634 03ec 5C000000 		.word	Sensor+92
 635 03f0 5E000000 		.word	Sensor+94
 636 03f4 02010000 		.word	Sensor+258
 637 03f8 B2000000 		.word	System+178
 638 03fc 0F000000 		.word	Sensor+15
 639 0400 E4000000 		.word	Sensor+228
 640 0404 E6000000 		.word	Sensor+230
 641 0408 86000000 		.word	System+134
 642 040c 2A000000 		.word	Sensor+42
 643 0410 38000000 		.word	Sensor+56
 644              	.L25:
 645 0414 E44B     		ldr	r3, .L27
ARM GAS  C:\Users\alexport\AppData\Local\Temp\ccr3ZDs0.s 			page 16


 646 0416 5A87     		strh	r2, [r3, #58]
 647              	.L9:
 211:..\..\..\..\..\WORK\1N4 Transmitter\SA-100_2339_05_1N4.cydsn/sgable.c ****     }
 212:..\..\..\..\..\WORK\1N4 Transmitter\SA-100_2339_05_1N4.cydsn/sgable.c **** 
 213:..\..\..\..\..\WORK\1N4 Transmitter\SA-100_2339_05_1N4.cydsn/sgable.c ****     /* Update CAL_Z_COUNTS value */
 214:..\..\..\..\..\WORK\1N4 Transmitter\SA-100_2339_05_1N4.cydsn/sgable.c ****     tempHandle.attrHandle = CYBLE_SGA2_CAL_Z_COUNTS_CHAR_HANDLE;
 648              		.loc 1 214 0
 649 0418 3B00     		movs	r3, r7
 650 041a 6522     		movs	r2, #101
 651 041c 1A81     		strh	r2, [r3, #8]
 215:..\..\..\..\..\WORK\1N4 Transmitter\SA-100_2339_05_1N4.cydsn/sgable.c ****     tempHandle.value.val = (uint8*)&System.CalZCounts;
 652              		.loc 1 215 0
 653 041e 3B00     		movs	r3, r7
 654 0420 E24A     		ldr	r2, .L27+4
 655 0422 1A60     		str	r2, [r3]
 216:..\..\..\..\..\WORK\1N4 Transmitter\SA-100_2339_05_1N4.cydsn/sgable.c ****     tempHandle.value.len = 2;
 656              		.loc 1 216 0
 657 0424 3B00     		movs	r3, r7
 658 0426 0222     		movs	r2, #2
 659 0428 9A80     		strh	r2, [r3, #4]
 217:..\..\..\..\..\WORK\1N4 Transmitter\SA-100_2339_05_1N4.cydsn/sgable.c ****     CyBle_GattsWriteAttributeValue(&tempHandle,0,&cyBle_connHandle,0);
 660              		.loc 1 217 0
 661 042a E14A     		ldr	r2, .L27+8
 662 042c 3800     		movs	r0, r7
 663 042e 0023     		movs	r3, #0
 664 0430 0021     		movs	r1, #0
 665 0432 FFF7FEFF 		bl	CyBle_GattsWriteAttributeValue
 218:..\..\..\..\..\WORK\1N4 Transmitter\SA-100_2339_05_1N4.cydsn/sgable.c **** 
 219:..\..\..\..\..\WORK\1N4 Transmitter\SA-100_2339_05_1N4.cydsn/sgable.c ****     /* Update CAL_ZERO_ERROR value */
 220:..\..\..\..\..\WORK\1N4 Transmitter\SA-100_2339_05_1N4.cydsn/sgable.c ****     tempHandle.attrHandle = CYBLE_SGA2_CAL_ZERO_ERROR_CHAR_HANDLE;
 666              		.loc 1 220 0
 667 0436 3B00     		movs	r3, r7
 668 0438 6C22     		movs	r2, #108
 669 043a 1A81     		strh	r2, [r3, #8]
 221:..\..\..\..\..\WORK\1N4 Transmitter\SA-100_2339_05_1N4.cydsn/sgable.c ****     tempHandle.value.val = (uint8*)&System.CalZeroError;
 670              		.loc 1 221 0
 671 043c 3B00     		movs	r3, r7
 672 043e DD4A     		ldr	r2, .L27+12
 673 0440 1A60     		str	r2, [r3]
 222:..\..\..\..\..\WORK\1N4 Transmitter\SA-100_2339_05_1N4.cydsn/sgable.c ****     tempHandle.value.len = 1;
 674              		.loc 1 222 0
 675 0442 3B00     		movs	r3, r7
 676 0444 0122     		movs	r2, #1
 677 0446 9A80     		strh	r2, [r3, #4]
 223:..\..\..\..\..\WORK\1N4 Transmitter\SA-100_2339_05_1N4.cydsn/sgable.c ****     CyBle_GattsWriteAttributeValue(&tempHandle,0,&cyBle_connHandle,0);
 678              		.loc 1 223 0
 679 0448 D94A     		ldr	r2, .L27+8
 680 044a 3800     		movs	r0, r7
 681 044c 0023     		movs	r3, #0
 682 044e 0021     		movs	r1, #0
 683 0450 FFF7FEFF 		bl	CyBle_GattsWriteAttributeValue
 224:..\..\..\..\..\WORK\1N4 Transmitter\SA-100_2339_05_1N4.cydsn/sgable.c ****     /* If notifications have been requested for System.CalZeroError */
 225:..\..\..\..\..\WORK\1N4 Transmitter\SA-100_2339_05_1N4.cydsn/sgable.c ****     if( System.BleNotifyCalZeroError && ( System.CalZeroError != System.CalZeroErrorPrevious ) )
 684              		.loc 1 225 0
 685 0454 D84B     		ldr	r3, .L27+16
 686 0456 DB7A     		ldrb	r3, [r3, #11]
 687 0458 002B     		cmp	r3, #0
ARM GAS  C:\Users\alexport\AppData\Local\Temp\ccr3ZDs0.s 			page 17


 688 045a 1CD0     		beq	.L10
 689              		.loc 1 225 0 is_stmt 0 discriminator 1
 690 045c D64B     		ldr	r3, .L27+16
 691 045e A222     		movs	r2, #162
 692 0460 9A5C     		ldrb	r2, [r3, r2]
 693 0462 D54B     		ldr	r3, .L27+16
 694 0464 A321     		movs	r1, #163
 695 0466 5B5C     		ldrb	r3, [r3, r1]
 696 0468 9A42     		cmp	r2, r3
 697 046a 14D0     		beq	.L10
 226:..\..\..\..\..\WORK\1N4 Transmitter\SA-100_2339_05_1N4.cydsn/sgable.c ****     {
 227:..\..\..\..\..\WORK\1N4 Transmitter\SA-100_2339_05_1N4.cydsn/sgable.c ****         CyBle_GattsNotification( cyBle_connHandle, &tempHandle );               /* Notify the clien
 698              		.loc 1 227 0 is_stmt 1
 699 046c 3900     		movs	r1, r7
 700 046e D04B     		ldr	r3, .L27+8
 701 0470 1A78     		ldrb	r2, [r3]
 702 0472 5B78     		ldrb	r3, [r3, #1]
 703 0474 1B02     		lsls	r3, r3, #8
 704 0476 1A43     		orrs	r2, r3
 705 0478 0023     		movs	r3, #0
 706 047a 1204     		lsls	r2, r2, #16
 707 047c 120C     		lsrs	r2, r2, #16
 708 047e 1B0C     		lsrs	r3, r3, #16
 709 0480 1B04     		lsls	r3, r3, #16
 710 0482 1343     		orrs	r3, r2
 711 0484 1800     		movs	r0, r3
 712 0486 FFF7FEFF 		bl	CyBle_GattsNotification
 228:..\..\..\..\..\WORK\1N4 Transmitter\SA-100_2339_05_1N4.cydsn/sgable.c ****         System.CalZeroErrorPrevious = System.CalZeroError;
 713              		.loc 1 228 0
 714 048a CB4B     		ldr	r3, .L27+16
 715 048c A222     		movs	r2, #162
 716 048e 995C     		ldrb	r1, [r3, r2]
 717 0490 C94B     		ldr	r3, .L27+16
 718 0492 A322     		movs	r2, #163
 719 0494 9954     		strb	r1, [r3, r2]
 720              	.L10:
 229:..\..\..\..\..\WORK\1N4 Transmitter\SA-100_2339_05_1N4.cydsn/sgable.c ****     }
 230:..\..\..\..\..\WORK\1N4 Transmitter\SA-100_2339_05_1N4.cydsn/sgable.c **** 
 231:..\..\..\..\..\WORK\1N4 Transmitter\SA-100_2339_05_1N4.cydsn/sgable.c ****     /* Update CAL_STEP value */
 232:..\..\..\..\..\WORK\1N4 Transmitter\SA-100_2339_05_1N4.cydsn/sgable.c ****     tempHandle.attrHandle = CYBLE_SGA2_CAL_STEP_CHAR_HANDLE;
 721              		.loc 1 232 0
 722 0496 3B00     		movs	r3, r7
 723 0498 7022     		movs	r2, #112
 724 049a 1A81     		strh	r2, [r3, #8]
 233:..\..\..\..\..\WORK\1N4 Transmitter\SA-100_2339_05_1N4.cydsn/sgable.c ****     tempHandle.value.val = (uint8*)&System.CalStep;
 725              		.loc 1 233 0
 726 049c 3B00     		movs	r3, r7
 727 049e C74A     		ldr	r2, .L27+20
 728 04a0 1A60     		str	r2, [r3]
 234:..\..\..\..\..\WORK\1N4 Transmitter\SA-100_2339_05_1N4.cydsn/sgable.c ****     tempHandle.value.len = 1;
 729              		.loc 1 234 0
 730 04a2 3B00     		movs	r3, r7
 731 04a4 0122     		movs	r2, #1
 732 04a6 9A80     		strh	r2, [r3, #4]
 235:..\..\..\..\..\WORK\1N4 Transmitter\SA-100_2339_05_1N4.cydsn/sgable.c ****     CyBle_GattsWriteAttributeValue(&tempHandle,0,&cyBle_connHandle,0);
 733              		.loc 1 235 0
 734 04a8 C14A     		ldr	r2, .L27+8
ARM GAS  C:\Users\alexport\AppData\Local\Temp\ccr3ZDs0.s 			page 18


 735 04aa 3800     		movs	r0, r7
 736 04ac 0023     		movs	r3, #0
 737 04ae 0021     		movs	r1, #0
 738 04b0 FFF7FEFF 		bl	CyBle_GattsWriteAttributeValue
 236:..\..\..\..\..\WORK\1N4 Transmitter\SA-100_2339_05_1N4.cydsn/sgable.c ****     /* If notifications have been requested for Sensor Life */
 237:..\..\..\..\..\WORK\1N4 Transmitter\SA-100_2339_05_1N4.cydsn/sgable.c ****     if( System.BleNotifyCalStep && ( System.CalStep != System.CalStepPrevious ) )
 739              		.loc 1 237 0
 740 04b4 C04B     		ldr	r3, .L27+16
 741 04b6 1B7B     		ldrb	r3, [r3, #12]
 742 04b8 002B     		cmp	r3, #0
 743 04ba 1CD0     		beq	.L11
 744              		.loc 1 237 0 is_stmt 0 discriminator 1
 745 04bc BE4B     		ldr	r3, .L27+16
 746 04be A422     		movs	r2, #164
 747 04c0 9A5C     		ldrb	r2, [r3, r2]
 748 04c2 BD4B     		ldr	r3, .L27+16
 749 04c4 A521     		movs	r1, #165
 750 04c6 5B5C     		ldrb	r3, [r3, r1]
 751 04c8 9A42     		cmp	r2, r3
 752 04ca 14D0     		beq	.L11
 238:..\..\..\..\..\WORK\1N4 Transmitter\SA-100_2339_05_1N4.cydsn/sgable.c ****     {
 239:..\..\..\..\..\WORK\1N4 Transmitter\SA-100_2339_05_1N4.cydsn/sgable.c ****         CyBle_GattsNotification( cyBle_connHandle, &tempHandle );               /* Notify the clien
 753              		.loc 1 239 0 is_stmt 1
 754 04cc 3900     		movs	r1, r7
 755 04ce B84B     		ldr	r3, .L27+8
 756 04d0 1A78     		ldrb	r2, [r3]
 757 04d2 5B78     		ldrb	r3, [r3, #1]
 758 04d4 1B02     		lsls	r3, r3, #8
 759 04d6 1A43     		orrs	r2, r3
 760 04d8 0023     		movs	r3, #0
 761 04da 1204     		lsls	r2, r2, #16
 762 04dc 120C     		lsrs	r2, r2, #16
 763 04de 1B0C     		lsrs	r3, r3, #16
 764 04e0 1B04     		lsls	r3, r3, #16
 765 04e2 1343     		orrs	r3, r2
 766 04e4 1800     		movs	r0, r3
 767 04e6 FFF7FEFF 		bl	CyBle_GattsNotification
 240:..\..\..\..\..\WORK\1N4 Transmitter\SA-100_2339_05_1N4.cydsn/sgable.c ****         System.CalStepPrevious = System.CalStep;
 768              		.loc 1 240 0
 769 04ea B34B     		ldr	r3, .L27+16
 770 04ec A422     		movs	r2, #164
 771 04ee 995C     		ldrb	r1, [r3, r2]
 772 04f0 B14B     		ldr	r3, .L27+16
 773 04f2 A522     		movs	r2, #165
 774 04f4 9954     		strb	r1, [r3, r2]
 775              	.L11:
 241:..\..\..\..\..\WORK\1N4 Transmitter\SA-100_2339_05_1N4.cydsn/sgable.c ****     }
 242:..\..\..\..\..\WORK\1N4 Transmitter\SA-100_2339_05_1N4.cydsn/sgable.c **** 
 243:..\..\..\..\..\WORK\1N4 Transmitter\SA-100_2339_05_1N4.cydsn/sgable.c ****     /* Update CAL_SPEED value */
 244:..\..\..\..\..\WORK\1N4 Transmitter\SA-100_2339_05_1N4.cydsn/sgable.c ****     tempHandle.attrHandle = CYBLE_SGA2_CAL_SPEED_CHAR_HANDLE;
 776              		.loc 1 244 0
 777 04f6 3B00     		movs	r3, r7
 778 04f8 7422     		movs	r2, #116
 779 04fa 1A81     		strh	r2, [r3, #8]
 245:..\..\..\..\..\WORK\1N4 Transmitter\SA-100_2339_05_1N4.cydsn/sgable.c ****     tempHandle.value.val = (uint8*)&System.CalSpeed;
 780              		.loc 1 245 0
 781 04fc 3B00     		movs	r3, r7
ARM GAS  C:\Users\alexport\AppData\Local\Temp\ccr3ZDs0.s 			page 19


 782 04fe B04A     		ldr	r2, .L27+24
 783 0500 1A60     		str	r2, [r3]
 246:..\..\..\..\..\WORK\1N4 Transmitter\SA-100_2339_05_1N4.cydsn/sgable.c ****     tempHandle.value.len = 2;
 784              		.loc 1 246 0
 785 0502 3B00     		movs	r3, r7
 786 0504 0222     		movs	r2, #2
 787 0506 9A80     		strh	r2, [r3, #4]
 247:..\..\..\..\..\WORK\1N4 Transmitter\SA-100_2339_05_1N4.cydsn/sgable.c ****     CyBle_GattsWriteAttributeValue(&tempHandle,0,&cyBle_connHandle,0);
 788              		.loc 1 247 0
 789 0508 A94A     		ldr	r2, .L27+8
 790 050a 3800     		movs	r0, r7
 791 050c 0023     		movs	r3, #0
 792 050e 0021     		movs	r1, #0
 793 0510 FFF7FEFF 		bl	CyBle_GattsWriteAttributeValue
 248:..\..\..\..\..\WORK\1N4 Transmitter\SA-100_2339_05_1N4.cydsn/sgable.c ****     /* If notifications have been requested for System.CalSpeed */
 249:..\..\..\..\..\WORK\1N4 Transmitter\SA-100_2339_05_1N4.cydsn/sgable.c ****     if( System.BleNotifyCalSpeed && ( System.CalSpeed != System.CalSpeedPrevious ) )
 794              		.loc 1 249 0
 795 0514 A84B     		ldr	r3, .L27+16
 796 0516 5B7B     		ldrb	r3, [r3, #13]
 797 0518 002B     		cmp	r3, #0
 798 051a 1CD0     		beq	.L12
 799              		.loc 1 249 0 is_stmt 0 discriminator 1
 800 051c A64B     		ldr	r3, .L27+16
 801 051e A622     		movs	r2, #166
 802 0520 9A5A     		ldrh	r2, [r3, r2]
 803 0522 A54B     		ldr	r3, .L27+16
 804 0524 A821     		movs	r1, #168
 805 0526 5B5A     		ldrh	r3, [r3, r1]
 806 0528 9A42     		cmp	r2, r3
 807 052a 14D0     		beq	.L12
 250:..\..\..\..\..\WORK\1N4 Transmitter\SA-100_2339_05_1N4.cydsn/sgable.c ****     {
 251:..\..\..\..\..\WORK\1N4 Transmitter\SA-100_2339_05_1N4.cydsn/sgable.c ****         CyBle_GattsNotification( cyBle_connHandle, &tempHandle );               /* Notify the clien
 808              		.loc 1 251 0 is_stmt 1
 809 052c 3900     		movs	r1, r7
 810 052e A04B     		ldr	r3, .L27+8
 811 0530 1A78     		ldrb	r2, [r3]
 812 0532 5B78     		ldrb	r3, [r3, #1]
 813 0534 1B02     		lsls	r3, r3, #8
 814 0536 1A43     		orrs	r2, r3
 815 0538 0023     		movs	r3, #0
 816 053a 1204     		lsls	r2, r2, #16
 817 053c 120C     		lsrs	r2, r2, #16
 818 053e 1B0C     		lsrs	r3, r3, #16
 819 0540 1B04     		lsls	r3, r3, #16
 820 0542 1343     		orrs	r3, r2
 821 0544 1800     		movs	r0, r3
 822 0546 FFF7FEFF 		bl	CyBle_GattsNotification
 252:..\..\..\..\..\WORK\1N4 Transmitter\SA-100_2339_05_1N4.cydsn/sgable.c ****         System.CalSpeedPrevious = System.CalSpeed;
 823              		.loc 1 252 0
 824 054a 9B4B     		ldr	r3, .L27+16
 825 054c A622     		movs	r2, #166
 826 054e 995A     		ldrh	r1, [r3, r2]
 827 0550 994B     		ldr	r3, .L27+16
 828 0552 A822     		movs	r2, #168
 829 0554 9952     		strh	r1, [r3, r2]
 830              	.L12:
 253:..\..\..\..\..\WORK\1N4 Transmitter\SA-100_2339_05_1N4.cydsn/sgable.c ****     }
ARM GAS  C:\Users\alexport\AppData\Local\Temp\ccr3ZDs0.s 			page 20


 254:..\..\..\..\..\WORK\1N4 Transmitter\SA-100_2339_05_1N4.cydsn/sgable.c **** 
 255:..\..\..\..\..\WORK\1N4 Transmitter\SA-100_2339_05_1N4.cydsn/sgable.c ****     /* Update CAL_AS_FOUND value */
 256:..\..\..\..\..\WORK\1N4 Transmitter\SA-100_2339_05_1N4.cydsn/sgable.c ****     tempHandle.attrHandle = CYBLE_SGA2_CAL_AS_FOUND_CHAR_HANDLE;
 831              		.loc 1 256 0
 832 0556 3B00     		movs	r3, r7
 833 0558 7822     		movs	r2, #120
 834 055a 1A81     		strh	r2, [r3, #8]
 257:..\..\..\..\..\WORK\1N4 Transmitter\SA-100_2339_05_1N4.cydsn/sgable.c ****     tempHandle.value.val = (uint8*)&System.CalAsFound;
 835              		.loc 1 257 0
 836 055c 3B00     		movs	r3, r7
 837 055e 994A     		ldr	r2, .L27+28
 838 0560 1A60     		str	r2, [r3]
 258:..\..\..\..\..\WORK\1N4 Transmitter\SA-100_2339_05_1N4.cydsn/sgable.c ****     tempHandle.value.len = 1;
 839              		.loc 1 258 0
 840 0562 3B00     		movs	r3, r7
 841 0564 0122     		movs	r2, #1
 842 0566 9A80     		strh	r2, [r3, #4]
 259:..\..\..\..\..\WORK\1N4 Transmitter\SA-100_2339_05_1N4.cydsn/sgable.c ****     CyBle_GattsWriteAttributeValue(&tempHandle,0,&cyBle_connHandle,0);
 843              		.loc 1 259 0
 844 0568 914A     		ldr	r2, .L27+8
 845 056a 3800     		movs	r0, r7
 846 056c 0023     		movs	r3, #0
 847 056e 0021     		movs	r1, #0
 848 0570 FFF7FEFF 		bl	CyBle_GattsWriteAttributeValue
 260:..\..\..\..\..\WORK\1N4 Transmitter\SA-100_2339_05_1N4.cydsn/sgable.c ****     /* If notifications have been requested for System.CalAsFound */
 261:..\..\..\..\..\WORK\1N4 Transmitter\SA-100_2339_05_1N4.cydsn/sgable.c ****     if( System.BleNotifyCalAsFound && ( System.CalAsFound != System.CalAsFoundPrevious ) )
 849              		.loc 1 261 0
 850 0574 904B     		ldr	r3, .L27+16
 851 0576 5B7A     		ldrb	r3, [r3, #9]
 852 0578 002B     		cmp	r3, #0
 853 057a 1CD0     		beq	.L13
 854              		.loc 1 261 0 is_stmt 0 discriminator 1
 855 057c 8E4B     		ldr	r3, .L27+16
 856 057e 9A22     		movs	r2, #154
 857 0580 9A56     		ldrsb	r2, [r3, r2]
 858 0582 8D4B     		ldr	r3, .L27+16
 859 0584 9B21     		movs	r1, #155
 860 0586 5B56     		ldrsb	r3, [r3, r1]
 861 0588 9A42     		cmp	r2, r3
 862 058a 14D0     		beq	.L13
 262:..\..\..\..\..\WORK\1N4 Transmitter\SA-100_2339_05_1N4.cydsn/sgable.c ****     {
 263:..\..\..\..\..\WORK\1N4 Transmitter\SA-100_2339_05_1N4.cydsn/sgable.c ****         CyBle_GattsNotification( cyBle_connHandle, &tempHandle );               /* Notify the clien
 863              		.loc 1 263 0 is_stmt 1
 864 058c 3900     		movs	r1, r7
 865 058e 884B     		ldr	r3, .L27+8
 866 0590 1A78     		ldrb	r2, [r3]
 867 0592 5B78     		ldrb	r3, [r3, #1]
 868 0594 1B02     		lsls	r3, r3, #8
 869 0596 1A43     		orrs	r2, r3
 870 0598 0023     		movs	r3, #0
 871 059a 1204     		lsls	r2, r2, #16
 872 059c 120C     		lsrs	r2, r2, #16
 873 059e 1B0C     		lsrs	r3, r3, #16
 874 05a0 1B04     		lsls	r3, r3, #16
 875 05a2 1343     		orrs	r3, r2
 876 05a4 1800     		movs	r0, r3
 877 05a6 FFF7FEFF 		bl	CyBle_GattsNotification
ARM GAS  C:\Users\alexport\AppData\Local\Temp\ccr3ZDs0.s 			page 21


 264:..\..\..\..\..\WORK\1N4 Transmitter\SA-100_2339_05_1N4.cydsn/sgable.c ****         System.CalAsFoundPrevious = System.CalAsFound;
 878              		.loc 1 264 0
 879 05aa 834B     		ldr	r3, .L27+16
 880 05ac 9A22     		movs	r2, #154
 881 05ae 9956     		ldrsb	r1, [r3, r2]
 882 05b0 814B     		ldr	r3, .L27+16
 883 05b2 9B22     		movs	r2, #155
 884 05b4 9954     		strb	r1, [r3, r2]
 885              	.L13:
 265:..\..\..\..\..\WORK\1N4 Transmitter\SA-100_2339_05_1N4.cydsn/sgable.c ****     }
 266:..\..\..\..\..\WORK\1N4 Transmitter\SA-100_2339_05_1N4.cydsn/sgable.c **** 
 267:..\..\..\..\..\WORK\1N4 Transmitter\SA-100_2339_05_1N4.cydsn/sgable.c ****     /* Update CAL_ADJUSTED value */
 268:..\..\..\..\..\WORK\1N4 Transmitter\SA-100_2339_05_1N4.cydsn/sgable.c ****     tempHandle.attrHandle = CYBLE_SGA2_CAL_ADJUSTED_CHAR_HANDLE;
 886              		.loc 1 268 0
 887 05b6 3B00     		movs	r3, r7
 888 05b8 7C22     		movs	r2, #124
 889 05ba 1A81     		strh	r2, [r3, #8]
 269:..\..\..\..\..\WORK\1N4 Transmitter\SA-100_2339_05_1N4.cydsn/sgable.c ****     tempHandle.value.val = (uint8*)&System.CalAdjusted;
 890              		.loc 1 269 0
 891 05bc 3B00     		movs	r3, r7
 892 05be 824A     		ldr	r2, .L27+32
 893 05c0 1A60     		str	r2, [r3]
 270:..\..\..\..\..\WORK\1N4 Transmitter\SA-100_2339_05_1N4.cydsn/sgable.c ****     tempHandle.value.len = 1;
 894              		.loc 1 270 0
 895 05c2 3B00     		movs	r3, r7
 896 05c4 0122     		movs	r2, #1
 897 05c6 9A80     		strh	r2, [r3, #4]
 271:..\..\..\..\..\WORK\1N4 Transmitter\SA-100_2339_05_1N4.cydsn/sgable.c ****     CyBle_GattsWriteAttributeValue(&tempHandle,0,&cyBle_connHandle,0);
 898              		.loc 1 271 0
 899 05c8 794A     		ldr	r2, .L27+8
 900 05ca 3800     		movs	r0, r7
 901 05cc 0023     		movs	r3, #0
 902 05ce 0021     		movs	r1, #0
 903 05d0 FFF7FEFF 		bl	CyBle_GattsWriteAttributeValue
 272:..\..\..\..\..\WORK\1N4 Transmitter\SA-100_2339_05_1N4.cydsn/sgable.c ****     /* If notifications have been requested for System.CalAsFound */
 273:..\..\..\..\..\WORK\1N4 Transmitter\SA-100_2339_05_1N4.cydsn/sgable.c ****     if( System.BleNotifyCalAdjusted && ( System.CalAdjusted != System.CalAdjustedPrevious ) )
 904              		.loc 1 273 0
 905 05d4 784B     		ldr	r3, .L27+16
 906 05d6 9B7A     		ldrb	r3, [r3, #10]
 907 05d8 002B     		cmp	r3, #0
 908 05da 1CD0     		beq	.L14
 909              		.loc 1 273 0 is_stmt 0 discriminator 1
 910 05dc 764B     		ldr	r3, .L27+16
 911 05de 9C22     		movs	r2, #156
 912 05e0 9A56     		ldrsb	r2, [r3, r2]
 913 05e2 754B     		ldr	r3, .L27+16
 914 05e4 9D21     		movs	r1, #157
 915 05e6 5B56     		ldrsb	r3, [r3, r1]
 916 05e8 9A42     		cmp	r2, r3
 917 05ea 14D0     		beq	.L14
 274:..\..\..\..\..\WORK\1N4 Transmitter\SA-100_2339_05_1N4.cydsn/sgable.c ****     {
 275:..\..\..\..\..\WORK\1N4 Transmitter\SA-100_2339_05_1N4.cydsn/sgable.c ****         CyBle_GattsNotification( cyBle_connHandle, &tempHandle );               /* Notify the clien
 918              		.loc 1 275 0 is_stmt 1
 919 05ec 3900     		movs	r1, r7
 920 05ee 704B     		ldr	r3, .L27+8
 921 05f0 1A78     		ldrb	r2, [r3]
 922 05f2 5B78     		ldrb	r3, [r3, #1]
ARM GAS  C:\Users\alexport\AppData\Local\Temp\ccr3ZDs0.s 			page 22


 923 05f4 1B02     		lsls	r3, r3, #8
 924 05f6 1A43     		orrs	r2, r3
 925 05f8 0023     		movs	r3, #0
 926 05fa 1204     		lsls	r2, r2, #16
 927 05fc 120C     		lsrs	r2, r2, #16
 928 05fe 1B0C     		lsrs	r3, r3, #16
 929 0600 1B04     		lsls	r3, r3, #16
 930 0602 1343     		orrs	r3, r2
 931 0604 1800     		movs	r0, r3
 932 0606 FFF7FEFF 		bl	CyBle_GattsNotification
 276:..\..\..\..\..\WORK\1N4 Transmitter\SA-100_2339_05_1N4.cydsn/sgable.c ****         System.CalAdjustedPrevious = System.CalAdjusted;
 933              		.loc 1 276 0
 934 060a 6B4B     		ldr	r3, .L27+16
 935 060c 9C22     		movs	r2, #156
 936 060e 9956     		ldrsb	r1, [r3, r2]
 937 0610 694B     		ldr	r3, .L27+16
 938 0612 9D22     		movs	r2, #157
 939 0614 9954     		strb	r1, [r3, r2]
 940              	.L14:
 277:..\..\..\..\..\WORK\1N4 Transmitter\SA-100_2339_05_1N4.cydsn/sgable.c ****     }
 278:..\..\..\..\..\WORK\1N4 Transmitter\SA-100_2339_05_1N4.cydsn/sgable.c **** 
 279:..\..\..\..\..\WORK\1N4 Transmitter\SA-100_2339_05_1N4.cydsn/sgable.c ****     /* Update CAL_COUNTS value */
 280:..\..\..\..\..\WORK\1N4 Transmitter\SA-100_2339_05_1N4.cydsn/sgable.c ****     tempHandle.attrHandle = CYBLE_SGA2_CAL_COUNTS_CHAR_HANDLE;
 941              		.loc 1 280 0
 942 0616 3B00     		movs	r3, r7
 943 0618 8022     		movs	r2, #128
 944 061a 1A81     		strh	r2, [r3, #8]
 281:..\..\..\..\..\WORK\1N4 Transmitter\SA-100_2339_05_1N4.cydsn/sgable.c ****     tempHandle.value.val = (uint8*)&System.CalCounts;
 945              		.loc 1 281 0
 946 061c 3B00     		movs	r3, r7
 947 061e 6B4A     		ldr	r2, .L27+36
 948 0620 1A60     		str	r2, [r3]
 282:..\..\..\..\..\WORK\1N4 Transmitter\SA-100_2339_05_1N4.cydsn/sgable.c ****     tempHandle.value.len = 2;
 949              		.loc 1 282 0
 950 0622 3B00     		movs	r3, r7
 951 0624 0222     		movs	r2, #2
 952 0626 9A80     		strh	r2, [r3, #4]
 283:..\..\..\..\..\WORK\1N4 Transmitter\SA-100_2339_05_1N4.cydsn/sgable.c ****     CyBle_GattsWriteAttributeValue(&tempHandle,0,&cyBle_connHandle,0);
 953              		.loc 1 283 0
 954 0628 614A     		ldr	r2, .L27+8
 955 062a 3800     		movs	r0, r7
 956 062c 0023     		movs	r3, #0
 957 062e 0021     		movs	r1, #0
 958 0630 FFF7FEFF 		bl	CyBle_GattsWriteAttributeValue
 284:..\..\..\..\..\WORK\1N4 Transmitter\SA-100_2339_05_1N4.cydsn/sgable.c **** 
 285:..\..\..\..\..\WORK\1N4 Transmitter\SA-100_2339_05_1N4.cydsn/sgable.c ****     /* Update SENSOR_LIFE value */
 286:..\..\..\..\..\WORK\1N4 Transmitter\SA-100_2339_05_1N4.cydsn/sgable.c ****     tempHandle.attrHandle = CYBLE_SGA2_SENSOR_LIFE_CHAR_HANDLE;
 959              		.loc 1 286 0
 960 0634 3B00     		movs	r3, r7
 961 0636 8322     		movs	r2, #131
 962 0638 1A81     		strh	r2, [r3, #8]
 287:..\..\..\..\..\WORK\1N4 Transmitter\SA-100_2339_05_1N4.cydsn/sgable.c ****     tempHandle.value.val = (uint8*)&Sensor.Life;
 963              		.loc 1 287 0
 964 063a 3B00     		movs	r3, r7
 965 063c 644A     		ldr	r2, .L27+40
 966 063e 1A60     		str	r2, [r3]
 288:..\..\..\..\..\WORK\1N4 Transmitter\SA-100_2339_05_1N4.cydsn/sgable.c ****     tempHandle.value.len = 1;
ARM GAS  C:\Users\alexport\AppData\Local\Temp\ccr3ZDs0.s 			page 23


 967              		.loc 1 288 0
 968 0640 3B00     		movs	r3, r7
 969 0642 0122     		movs	r2, #1
 970 0644 9A80     		strh	r2, [r3, #4]
 289:..\..\..\..\..\WORK\1N4 Transmitter\SA-100_2339_05_1N4.cydsn/sgable.c ****     CyBle_GattsWriteAttributeValue(&tempHandle,0,&cyBle_connHandle,0);
 971              		.loc 1 289 0
 972 0646 5A4A     		ldr	r2, .L27+8
 973 0648 3800     		movs	r0, r7
 974 064a 0023     		movs	r3, #0
 975 064c 0021     		movs	r1, #0
 976 064e FFF7FEFF 		bl	CyBle_GattsWriteAttributeValue
 290:..\..\..\..\..\WORK\1N4 Transmitter\SA-100_2339_05_1N4.cydsn/sgable.c ****     /* If notifications have been requested for Sensor Life */
 291:..\..\..\..\..\WORK\1N4 Transmitter\SA-100_2339_05_1N4.cydsn/sgable.c ****     if( System.BleNotifyLife && ( Sensor.Life != Sensor.LifePrevious ) )
 977              		.loc 1 291 0
 978 0652 594B     		ldr	r3, .L27+16
 979 0654 DB79     		ldrb	r3, [r3, #7]
 980 0656 002B     		cmp	r3, #0
 981 0658 1CD0     		beq	.L15
 982              		.loc 1 291 0 is_stmt 0 discriminator 1
 983 065a 534B     		ldr	r3, .L27
 984 065c 2822     		movs	r2, #40
 985 065e 9A56     		ldrsb	r2, [r3, r2]
 986 0660 514B     		ldr	r3, .L27
 987 0662 2921     		movs	r1, #41
 988 0664 5B56     		ldrsb	r3, [r3, r1]
 989 0666 9A42     		cmp	r2, r3
 990 0668 14D0     		beq	.L15
 292:..\..\..\..\..\WORK\1N4 Transmitter\SA-100_2339_05_1N4.cydsn/sgable.c ****     {
 293:..\..\..\..\..\WORK\1N4 Transmitter\SA-100_2339_05_1N4.cydsn/sgable.c ****         CyBle_GattsNotification( cyBle_connHandle, &tempHandle );               /* Notify the clien
 991              		.loc 1 293 0 is_stmt 1
 992 066a 3900     		movs	r1, r7
 993 066c 504B     		ldr	r3, .L27+8
 994 066e 1A78     		ldrb	r2, [r3]
 995 0670 5B78     		ldrb	r3, [r3, #1]
 996 0672 1B02     		lsls	r3, r3, #8
 997 0674 1A43     		orrs	r2, r3
 998 0676 0023     		movs	r3, #0
 999 0678 1204     		lsls	r2, r2, #16
 1000 067a 120C     		lsrs	r2, r2, #16
 1001 067c 1B0C     		lsrs	r3, r3, #16
 1002 067e 1B04     		lsls	r3, r3, #16
 1003 0680 1343     		orrs	r3, r2
 1004 0682 1800     		movs	r0, r3
 1005 0684 FFF7FEFF 		bl	CyBle_GattsNotification
 294:..\..\..\..\..\WORK\1N4 Transmitter\SA-100_2339_05_1N4.cydsn/sgable.c ****         Sensor.LifePrevious = Sensor.Life;
 1006              		.loc 1 294 0
 1007 0688 474B     		ldr	r3, .L27
 1008 068a 2822     		movs	r2, #40
 1009 068c 9956     		ldrsb	r1, [r3, r2]
 1010 068e 464B     		ldr	r3, .L27
 1011 0690 2922     		movs	r2, #41
 1012 0692 9954     		strb	r1, [r3, r2]
 1013              	.L15:
 295:..\..\..\..\..\WORK\1N4 Transmitter\SA-100_2339_05_1N4.cydsn/sgable.c ****     }
 296:..\..\..\..\..\WORK\1N4 Transmitter\SA-100_2339_05_1N4.cydsn/sgable.c **** 
 297:..\..\..\..\..\WORK\1N4 Transmitter\SA-100_2339_05_1N4.cydsn/sgable.c ****     /* Update CAL_CLEARING value */
 298:..\..\..\..\..\WORK\1N4 Transmitter\SA-100_2339_05_1N4.cydsn/sgable.c ****     tempHandle.attrHandle = CYBLE_SGA2_CAL_CLEARING_CHAR_HANDLE;
ARM GAS  C:\Users\alexport\AppData\Local\Temp\ccr3ZDs0.s 			page 24


 1014              		.loc 1 298 0
 1015 0694 3B00     		movs	r3, r7
 1016 0696 8722     		movs	r2, #135
 1017 0698 1A81     		strh	r2, [r3, #8]
 299:..\..\..\..\..\WORK\1N4 Transmitter\SA-100_2339_05_1N4.cydsn/sgable.c ****     tempHandle.value.val = (uint8*)&System.CalClearing;
 1018              		.loc 1 299 0
 1019 069a 3B00     		movs	r3, r7
 1020 069c 4D4A     		ldr	r2, .L27+44
 1021 069e 1A60     		str	r2, [r3]
 300:..\..\..\..\..\WORK\1N4 Transmitter\SA-100_2339_05_1N4.cydsn/sgable.c ****     tempHandle.value.len = 2;
 1022              		.loc 1 300 0
 1023 06a0 3B00     		movs	r3, r7
 1024 06a2 0222     		movs	r2, #2
 1025 06a4 9A80     		strh	r2, [r3, #4]
 301:..\..\..\..\..\WORK\1N4 Transmitter\SA-100_2339_05_1N4.cydsn/sgable.c ****     CyBle_GattsWriteAttributeValue(&tempHandle,0,&cyBle_connHandle,0);
 1026              		.loc 1 301 0
 1027 06a6 424A     		ldr	r2, .L27+8
 1028 06a8 3800     		movs	r0, r7
 1029 06aa 0023     		movs	r3, #0
 1030 06ac 0021     		movs	r1, #0
 1031 06ae FFF7FEFF 		bl	CyBle_GattsWriteAttributeValue
 302:..\..\..\..\..\WORK\1N4 Transmitter\SA-100_2339_05_1N4.cydsn/sgable.c ****     /* If notifications have been requested for Sensor CalClearing */
 303:..\..\..\..\..\WORK\1N4 Transmitter\SA-100_2339_05_1N4.cydsn/sgable.c ****     if( System.BleNotifyCalClearing && ( System.CalClearing != System.CalClearingPrevious ) )
 1032              		.loc 1 303 0
 1033 06b2 414B     		ldr	r3, .L27+16
 1034 06b4 9B7B     		ldrb	r3, [r3, #14]
 1035 06b6 002B     		cmp	r3, #0
 1036 06b8 1CD0     		beq	.L16
 1037              		.loc 1 303 0 is_stmt 0 discriminator 1
 1038 06ba 3F4B     		ldr	r3, .L27+16
 1039 06bc AC22     		movs	r2, #172
 1040 06be 9A5A     		ldrh	r2, [r3, r2]
 1041 06c0 3D4B     		ldr	r3, .L27+16
 1042 06c2 AE21     		movs	r1, #174
 1043 06c4 5B5A     		ldrh	r3, [r3, r1]
 1044 06c6 9A42     		cmp	r2, r3
 1045 06c8 14D0     		beq	.L16
 304:..\..\..\..\..\WORK\1N4 Transmitter\SA-100_2339_05_1N4.cydsn/sgable.c ****     {
 305:..\..\..\..\..\WORK\1N4 Transmitter\SA-100_2339_05_1N4.cydsn/sgable.c ****         CyBle_GattsNotification( cyBle_connHandle, &tempHandle );               /* Notify the clien
 1046              		.loc 1 305 0 is_stmt 1
 1047 06ca 3900     		movs	r1, r7
 1048 06cc 384B     		ldr	r3, .L27+8
 1049 06ce 1A78     		ldrb	r2, [r3]
 1050 06d0 5B78     		ldrb	r3, [r3, #1]
 1051 06d2 1B02     		lsls	r3, r3, #8
 1052 06d4 1A43     		orrs	r2, r3
 1053 06d6 0023     		movs	r3, #0
 1054 06d8 1204     		lsls	r2, r2, #16
 1055 06da 120C     		lsrs	r2, r2, #16
 1056 06dc 1B0C     		lsrs	r3, r3, #16
 1057 06de 1B04     		lsls	r3, r3, #16
 1058 06e0 1343     		orrs	r3, r2
 1059 06e2 1800     		movs	r0, r3
 1060 06e4 FFF7FEFF 		bl	CyBle_GattsNotification
 306:..\..\..\..\..\WORK\1N4 Transmitter\SA-100_2339_05_1N4.cydsn/sgable.c ****         System.CalClearingPrevious = System.CalClearing;
 1061              		.loc 1 306 0
 1062 06e8 334B     		ldr	r3, .L27+16
ARM GAS  C:\Users\alexport\AppData\Local\Temp\ccr3ZDs0.s 			page 25


 1063 06ea AC22     		movs	r2, #172
 1064 06ec 995A     		ldrh	r1, [r3, r2]
 1065 06ee 324B     		ldr	r3, .L27+16
 1066 06f0 AE22     		movs	r2, #174
 1067 06f2 9952     		strh	r1, [r3, r2]
 1068              	.L16:
 307:..\..\..\..\..\WORK\1N4 Transmitter\SA-100_2339_05_1N4.cydsn/sgable.c ****     }
 308:..\..\..\..\..\WORK\1N4 Transmitter\SA-100_2339_05_1N4.cydsn/sgable.c **** 
 309:..\..\..\..\..\WORK\1N4 Transmitter\SA-100_2339_05_1N4.cydsn/sgable.c ****     /* Update CAL_SPAN_ERROR value */
 310:..\..\..\..\..\WORK\1N4 Transmitter\SA-100_2339_05_1N4.cydsn/sgable.c ****     tempHandle.attrHandle = CYBLE_SGA2_CAL_SPAN_ERROR_CHAR_HANDLE;
 1069              		.loc 1 310 0
 1070 06f4 3B00     		movs	r3, r7
 1071 06f6 8B22     		movs	r2, #139
 1072 06f8 1A81     		strh	r2, [r3, #8]
 311:..\..\..\..\..\WORK\1N4 Transmitter\SA-100_2339_05_1N4.cydsn/sgable.c ****     tempHandle.value.val = (uint8*)&System.CalSpanError;
 1073              		.loc 1 311 0
 1074 06fa 3B00     		movs	r3, r7
 1075 06fc 364A     		ldr	r2, .L27+48
 1076 06fe 1A60     		str	r2, [r3]
 312:..\..\..\..\..\WORK\1N4 Transmitter\SA-100_2339_05_1N4.cydsn/sgable.c ****     tempHandle.value.len = 1;
 1077              		.loc 1 312 0
 1078 0700 3B00     		movs	r3, r7
 1079 0702 0122     		movs	r2, #1
 1080 0704 9A80     		strh	r2, [r3, #4]
 313:..\..\..\..\..\WORK\1N4 Transmitter\SA-100_2339_05_1N4.cydsn/sgable.c ****     CyBle_GattsWriteAttributeValue(&tempHandle,0,&cyBle_connHandle,0);
 1081              		.loc 1 313 0
 1082 0706 2A4A     		ldr	r2, .L27+8
 1083 0708 3800     		movs	r0, r7
 1084 070a 0023     		movs	r3, #0
 1085 070c 0021     		movs	r1, #0
 1086 070e FFF7FEFF 		bl	CyBle_GattsWriteAttributeValue
 314:..\..\..\..\..\WORK\1N4 Transmitter\SA-100_2339_05_1N4.cydsn/sgable.c ****     /* If notifications have been requested for System.CalSpanError */
 315:..\..\..\..\..\WORK\1N4 Transmitter\SA-100_2339_05_1N4.cydsn/sgable.c ****     if( System.BleNotifyCalSpanError && ( System.CalSpanError != System.CalSpanErrorPrevious ) )
 1087              		.loc 1 315 0
 1088 0712 294B     		ldr	r3, .L27+16
 1089 0714 DB7B     		ldrb	r3, [r3, #15]
 1090 0716 002B     		cmp	r3, #0
 1091 0718 1CD0     		beq	.L17
 1092              		.loc 1 315 0 is_stmt 0 discriminator 1
 1093 071a 274B     		ldr	r3, .L27+16
 1094 071c B022     		movs	r2, #176
 1095 071e 9A5C     		ldrb	r2, [r3, r2]
 1096 0720 254B     		ldr	r3, .L27+16
 1097 0722 B121     		movs	r1, #177
 1098 0724 5B5C     		ldrb	r3, [r3, r1]
 1099 0726 9A42     		cmp	r2, r3
 1100 0728 14D0     		beq	.L17
 316:..\..\..\..\..\WORK\1N4 Transmitter\SA-100_2339_05_1N4.cydsn/sgable.c ****     {
 317:..\..\..\..\..\WORK\1N4 Transmitter\SA-100_2339_05_1N4.cydsn/sgable.c ****         CyBle_GattsNotification( cyBle_connHandle, &tempHandle );               /* Notify the clien
 1101              		.loc 1 317 0 is_stmt 1
 1102 072a 3900     		movs	r1, r7
 1103 072c 204B     		ldr	r3, .L27+8
 1104 072e 1A78     		ldrb	r2, [r3]
 1105 0730 5B78     		ldrb	r3, [r3, #1]
 1106 0732 1B02     		lsls	r3, r3, #8
 1107 0734 1A43     		orrs	r2, r3
 1108 0736 0023     		movs	r3, #0
ARM GAS  C:\Users\alexport\AppData\Local\Temp\ccr3ZDs0.s 			page 26


 1109 0738 1204     		lsls	r2, r2, #16
 1110 073a 120C     		lsrs	r2, r2, #16
 1111 073c 1B0C     		lsrs	r3, r3, #16
 1112 073e 1B04     		lsls	r3, r3, #16
 1113 0740 1343     		orrs	r3, r2
 1114 0742 1800     		movs	r0, r3
 1115 0744 FFF7FEFF 		bl	CyBle_GattsNotification
 318:..\..\..\..\..\WORK\1N4 Transmitter\SA-100_2339_05_1N4.cydsn/sgable.c ****         System.CalSpanErrorPrevious = System.CalSpanError;
 1116              		.loc 1 318 0
 1117 0748 1B4B     		ldr	r3, .L27+16
 1118 074a B022     		movs	r2, #176
 1119 074c 995C     		ldrb	r1, [r3, r2]
 1120 074e 1A4B     		ldr	r3, .L27+16
 1121 0750 B122     		movs	r2, #177
 1122 0752 9954     		strb	r1, [r3, r2]
 1123              	.L17:
 319:..\..\..\..\..\WORK\1N4 Transmitter\SA-100_2339_05_1N4.cydsn/sgable.c ****     }
 320:..\..\..\..\..\WORK\1N4 Transmitter\SA-100_2339_05_1N4.cydsn/sgable.c **** 
 321:..\..\..\..\..\WORK\1N4 Transmitter\SA-100_2339_05_1N4.cydsn/sgable.c ****     /* Update CALIBRATION_STATUS value */
 322:..\..\..\..\..\WORK\1N4 Transmitter\SA-100_2339_05_1N4.cydsn/sgable.c ****     tempHandle.attrHandle = CYBLE_SGA2_CALIBRATION_STATUS_CHAR_HANDLE;
 1124              		.loc 1 322 0
 1125 0754 3B00     		movs	r3, r7
 1126 0756 8F22     		movs	r2, #143
 1127 0758 1A81     		strh	r2, [r3, #8]
 323:..\..\..\..\..\WORK\1N4 Transmitter\SA-100_2339_05_1N4.cydsn/sgable.c ****     tempHandle.value.val = (uint8*)&System.CalibrationStatus;
 1128              		.loc 1 323 0
 1129 075a 3B00     		movs	r3, r7
 1130 075c 1F4A     		ldr	r2, .L27+52
 1131 075e 1A60     		str	r2, [r3]
 324:..\..\..\..\..\WORK\1N4 Transmitter\SA-100_2339_05_1N4.cydsn/sgable.c ****     tempHandle.value.len = 1;
 1132              		.loc 1 324 0
 1133 0760 3B00     		movs	r3, r7
 1134 0762 0122     		movs	r2, #1
 1135 0764 9A80     		strh	r2, [r3, #4]
 325:..\..\..\..\..\WORK\1N4 Transmitter\SA-100_2339_05_1N4.cydsn/sgable.c ****     CyBle_GattsWriteAttributeValue(&tempHandle,0,&cyBle_connHandle,0);
 1136              		.loc 1 325 0
 1137 0766 124A     		ldr	r2, .L27+8
 1138 0768 3800     		movs	r0, r7
 1139 076a 0023     		movs	r3, #0
 1140 076c 0021     		movs	r1, #0
 1141 076e FFF7FEFF 		bl	CyBle_GattsWriteAttributeValue
 326:..\..\..\..\..\WORK\1N4 Transmitter\SA-100_2339_05_1N4.cydsn/sgable.c ****     /* If notifications have been requested for System.CalibrationStatus */
 327:..\..\..\..\..\WORK\1N4 Transmitter\SA-100_2339_05_1N4.cydsn/sgable.c ****     if( System.BleNotifyCalibrationStatus && ( System.CalibrationStatus != System.CalibrationStatus
 1142              		.loc 1 327 0
 1143 0772 114B     		ldr	r3, .L27+16
 1144 0774 5B7C     		ldrb	r3, [r3, #17]
 1145 0776 002B     		cmp	r3, #0
 1146 0778 3AD0     		beq	.L18
 1147              		.loc 1 327 0 is_stmt 0 discriminator 1
 1148 077a 0F4B     		ldr	r3, .L27+16
 1149 077c 9E22     		movs	r2, #158
 1150 077e 9A5C     		ldrb	r2, [r3, r2]
 1151 0780 0D4B     		ldr	r3, .L27+16
 1152 0782 9F21     		movs	r1, #159
 1153 0784 5B5C     		ldrb	r3, [r3, r1]
 1154 0786 9A42     		cmp	r2, r3
 1155 0788 32D0     		beq	.L18
ARM GAS  C:\Users\alexport\AppData\Local\Temp\ccr3ZDs0.s 			page 27


 328:..\..\..\..\..\WORK\1N4 Transmitter\SA-100_2339_05_1N4.cydsn/sgable.c ****     {
 329:..\..\..\..\..\WORK\1N4 Transmitter\SA-100_2339_05_1N4.cydsn/sgable.c ****         CyBle_GattsNotification( cyBle_connHandle, &tempHandle );               /* Notify the clien
 1156              		.loc 1 329 0 is_stmt 1
 1157 078a 3900     		movs	r1, r7
 1158 078c 084B     		ldr	r3, .L27+8
 1159 078e 1A78     		ldrb	r2, [r3]
 1160 0790 5B78     		ldrb	r3, [r3, #1]
 1161 0792 1B02     		lsls	r3, r3, #8
 1162 0794 1A43     		orrs	r2, r3
 1163 0796 0023     		movs	r3, #0
 1164 0798 1204     		lsls	r2, r2, #16
 1165 079a 120C     		lsrs	r2, r2, #16
 1166 079c 1B0C     		lsrs	r3, r3, #16
 1167 079e 1B04     		lsls	r3, r3, #16
 1168 07a0 1343     		orrs	r3, r2
 1169 07a2 1800     		movs	r0, r3
 1170 07a4 1CE0     		b	.L28
 1171              	.L29:
 1172 07a6 C046     		.align	2
 1173              	.L27:
 1174 07a8 00000000 		.word	Sensor
 1175 07ac A0000000 		.word	System+160
 1176 07b0 00000000 		.word	cyBle_connHandle
 1177 07b4 A2000000 		.word	System+162
 1178 07b8 00000000 		.word	System
 1179 07bc A4000000 		.word	System+164
 1180 07c0 A6000000 		.word	System+166
 1181 07c4 9A000000 		.word	System+154
 1182 07c8 9C000000 		.word	System+156
 1183 07cc AA000000 		.word	System+170
 1184 07d0 28000000 		.word	Sensor+40
 1185 07d4 AC000000 		.word	System+172
 1186 07d8 B0000000 		.word	System+176
 1187 07dc 9E000000 		.word	System+158
 1188              	.L28:
 1189 07e0 FFF7FEFF 		bl	CyBle_GattsNotification
 330:..\..\..\..\..\WORK\1N4 Transmitter\SA-100_2339_05_1N4.cydsn/sgable.c ****         System.CalibrationStatusPrevious = System.CalibrationStatus;
 1190              		.loc 1 330 0
 1191 07e4 3D4B     		ldr	r3, .L30
 1192 07e6 9E22     		movs	r2, #158
 1193 07e8 995C     		ldrb	r1, [r3, r2]
 1194 07ea 3C4B     		ldr	r3, .L30
 1195 07ec 9F22     		movs	r2, #159
 1196 07ee 9954     		strb	r1, [r3, r2]
 1197              	.L18:
 331:..\..\..\..\..\WORK\1N4 Transmitter\SA-100_2339_05_1N4.cydsn/sgable.c ****     }
 332:..\..\..\..\..\WORK\1N4 Transmitter\SA-100_2339_05_1N4.cydsn/sgable.c ****     /* Update READING_SCALED value */
 333:..\..\..\..\..\WORK\1N4 Transmitter\SA-100_2339_05_1N4.cydsn/sgable.c ****     ReadingCast = (int16)Sensor.ReadingScaled;
 1198              		.loc 1 333 0
 1199 07f0 3B4B     		ldr	r3, .L30+4
 1200 07f2 1B6A     		ldr	r3, [r3, #32]
 1201 07f4 0E22     		movs	r2, #14
 1202 07f6 BC18     		adds	r4, r7, r2
 1203 07f8 181C     		adds	r0, r3, #0
 1204 07fa FFF7FEFF 		bl	__aeabi_f2iz
 1205 07fe 0300     		movs	r3, r0
 1206 0800 2380     		strh	r3, [r4]
ARM GAS  C:\Users\alexport\AppData\Local\Temp\ccr3ZDs0.s 			page 28


 334:..\..\..\..\..\WORK\1N4 Transmitter\SA-100_2339_05_1N4.cydsn/sgable.c ****     Sensor.ReadingScaled = (float)ReadingCast;
 1207              		.loc 1 334 0
 1208 0802 0E23     		movs	r3, #14
 1209 0804 FB18     		adds	r3, r7, r3
 1210 0806 0022     		movs	r2, #0
 1211 0808 9B5E     		ldrsh	r3, [r3, r2]
 1212 080a 1800     		movs	r0, r3
 1213 080c FFF7FEFF 		bl	__aeabi_i2f
 1214 0810 021C     		adds	r2, r0, #0
 1215 0812 334B     		ldr	r3, .L30+4
 1216 0814 1A62     		str	r2, [r3, #32]
 335:..\..\..\..\..\WORK\1N4 Transmitter\SA-100_2339_05_1N4.cydsn/sgable.c ****     tempHandle.attrHandle = CYBLE_SGA2_READING_SCALED_CHAR_HANDLE;
 1217              		.loc 1 335 0
 1218 0816 3B00     		movs	r3, r7
 1219 0818 9322     		movs	r2, #147
 1220 081a 1A81     		strh	r2, [r3, #8]
 336:..\..\..\..\..\WORK\1N4 Transmitter\SA-100_2339_05_1N4.cydsn/sgable.c ****     tempHandle.value.val = (uint8*)&Sensor.ReadingScaled;
 1221              		.loc 1 336 0
 1222 081c 3B00     		movs	r3, r7
 1223 081e 314A     		ldr	r2, .L30+8
 1224 0820 1A60     		str	r2, [r3]
 337:..\..\..\..\..\WORK\1N4 Transmitter\SA-100_2339_05_1N4.cydsn/sgable.c ****     tempHandle.value.len = 4;
 1225              		.loc 1 337 0
 1226 0822 3B00     		movs	r3, r7
 1227 0824 0422     		movs	r2, #4
 1228 0826 9A80     		strh	r2, [r3, #4]
 338:..\..\..\..\..\WORK\1N4 Transmitter\SA-100_2339_05_1N4.cydsn/sgable.c ****     CyBle_GattsWriteAttributeValue(&tempHandle,0,&cyBle_connHandle,0);
 1229              		.loc 1 338 0
 1230 0828 2F4A     		ldr	r2, .L30+12
 1231 082a 3800     		movs	r0, r7
 1232 082c 0023     		movs	r3, #0
 1233 082e 0021     		movs	r1, #0
 1234 0830 FFF7FEFF 		bl	CyBle_GattsWriteAttributeValue
 339:..\..\..\..\..\WORK\1N4 Transmitter\SA-100_2339_05_1N4.cydsn/sgable.c ****     /* If notifications have been requested for Sensor.ReadingScaled */
 340:..\..\..\..\..\WORK\1N4 Transmitter\SA-100_2339_05_1N4.cydsn/sgable.c ****     if( System.BleNotifyReadingScaled && ( Sensor.ReadingScaled != Sensor.ReadingScaledPrevious ) )
 1235              		.loc 1 340 0
 1236 0834 294B     		ldr	r3, .L30
 1237 0836 1B7C     		ldrb	r3, [r3, #16]
 1238 0838 002B     		cmp	r3, #0
 1239 083a 1CD0     		beq	.L19
 1240              		.loc 1 340 0 is_stmt 0 discriminator 1
 1241 083c 284B     		ldr	r3, .L30+4
 1242 083e 1A6A     		ldr	r2, [r3, #32]
 1243 0840 274B     		ldr	r3, .L30+4
 1244 0842 5B6A     		ldr	r3, [r3, #36]
 1245 0844 191C     		adds	r1, r3, #0
 1246 0846 101C     		adds	r0, r2, #0
 1247 0848 FFF7FEFF 		bl	__aeabi_fcmpeq
 1248 084c 031E     		subs	r3, r0, #0
 1249 084e 12D1     		bne	.L19
 341:..\..\..\..\..\WORK\1N4 Transmitter\SA-100_2339_05_1N4.cydsn/sgable.c ****     {
 342:..\..\..\..\..\WORK\1N4 Transmitter\SA-100_2339_05_1N4.cydsn/sgable.c ****         CyBle_GattsNotification( cyBle_connHandle, &tempHandle );               /* Notify the clien
 1250              		.loc 1 342 0 is_stmt 1
 1251 0850 3900     		movs	r1, r7
 1252 0852 254B     		ldr	r3, .L30+12
 1253 0854 1A78     		ldrb	r2, [r3]
 1254 0856 5B78     		ldrb	r3, [r3, #1]
ARM GAS  C:\Users\alexport\AppData\Local\Temp\ccr3ZDs0.s 			page 29


 1255 0858 1B02     		lsls	r3, r3, #8
 1256 085a 1A43     		orrs	r2, r3
 1257 085c 0023     		movs	r3, #0
 1258 085e 1204     		lsls	r2, r2, #16
 1259 0860 120C     		lsrs	r2, r2, #16
 1260 0862 1B0C     		lsrs	r3, r3, #16
 1261 0864 1B04     		lsls	r3, r3, #16
 1262 0866 1343     		orrs	r3, r2
 1263 0868 1800     		movs	r0, r3
 1264 086a FFF7FEFF 		bl	CyBle_GattsNotification
 343:..\..\..\..\..\WORK\1N4 Transmitter\SA-100_2339_05_1N4.cydsn/sgable.c ****         Sensor.ReadingScaledPrevious = Sensor.ReadingScaled;
 1265              		.loc 1 343 0
 1266 086e 1C4B     		ldr	r3, .L30+4
 1267 0870 1A6A     		ldr	r2, [r3, #32]
 1268 0872 1B4B     		ldr	r3, .L30+4
 1269 0874 5A62     		str	r2, [r3, #36]
 1270              	.L19:
 344:..\..\..\..\..\WORK\1N4 Transmitter\SA-100_2339_05_1N4.cydsn/sgable.c ****     }
 345:..\..\..\..\..\WORK\1N4 Transmitter\SA-100_2339_05_1N4.cydsn/sgable.c **** 
 346:..\..\..\..\..\WORK\1N4 Transmitter\SA-100_2339_05_1N4.cydsn/sgable.c ****     /* Update ALERT_STATUS value */
 347:..\..\..\..\..\WORK\1N4 Transmitter\SA-100_2339_05_1N4.cydsn/sgable.c ****     tempHandle.attrHandle = CYBLE_SGA2_ALERT_STATUS_CHAR_HANDLE;
 1271              		.loc 1 347 0
 1272 0876 3B00     		movs	r3, r7
 1273 0878 9722     		movs	r2, #151
 1274 087a 1A81     		strh	r2, [r3, #8]
 348:..\..\..\..\..\WORK\1N4 Transmitter\SA-100_2339_05_1N4.cydsn/sgable.c ****     tempHandle.value.val = (uint8*)&System.AlertStatus;
 1275              		.loc 1 348 0
 1276 087c 3B00     		movs	r3, r7
 1277 087e 1B4A     		ldr	r2, .L30+16
 1278 0880 1A60     		str	r2, [r3]
 349:..\..\..\..\..\WORK\1N4 Transmitter\SA-100_2339_05_1N4.cydsn/sgable.c ****     tempHandle.value.len = 1;
 1279              		.loc 1 349 0
 1280 0882 3B00     		movs	r3, r7
 1281 0884 0122     		movs	r2, #1
 1282 0886 9A80     		strh	r2, [r3, #4]
 350:..\..\..\..\..\WORK\1N4 Transmitter\SA-100_2339_05_1N4.cydsn/sgable.c ****     CyBle_GattsWriteAttributeValue(&tempHandle,0,&cyBle_connHandle,0);
 1283              		.loc 1 350 0
 1284 0888 174A     		ldr	r2, .L30+12
 1285 088a 3800     		movs	r0, r7
 1286 088c 0023     		movs	r3, #0
 1287 088e 0021     		movs	r1, #0
 1288 0890 FFF7FEFF 		bl	CyBle_GattsWriteAttributeValue
 351:..\..\..\..\..\WORK\1N4 Transmitter\SA-100_2339_05_1N4.cydsn/sgable.c ****     /* If notifications have been requested for System.AlertStatus */
 352:..\..\..\..\..\WORK\1N4 Transmitter\SA-100_2339_05_1N4.cydsn/sgable.c ****     if( System.BleNotifyAlertStatus && ( System.AlertStatus != System.AlertStatusPrevious ) )
 1289              		.loc 1 352 0
 1290 0894 114B     		ldr	r3, .L30
 1291 0896 1B79     		ldrb	r3, [r3, #4]
 1292 0898 002B     		cmp	r3, #0
 1293 089a 1CD0     		beq	.L1
 1294              		.loc 1 352 0 is_stmt 0 discriminator 1
 1295 089c 0F4B     		ldr	r3, .L30
 1296 089e 9A7F     		ldrb	r2, [r3, #30]
 1297 08a0 0E4B     		ldr	r3, .L30
 1298 08a2 2021     		movs	r1, #32
 1299 08a4 5B5C     		ldrb	r3, [r3, r1]
 1300 08a6 9A42     		cmp	r2, r3
 1301 08a8 15D0     		beq	.L1
ARM GAS  C:\Users\alexport\AppData\Local\Temp\ccr3ZDs0.s 			page 30


 353:..\..\..\..\..\WORK\1N4 Transmitter\SA-100_2339_05_1N4.cydsn/sgable.c ****     {
 354:..\..\..\..\..\WORK\1N4 Transmitter\SA-100_2339_05_1N4.cydsn/sgable.c ****         CyBle_GattsNotification( cyBle_connHandle, &tempHandle );               /* Notify the clien
 1302              		.loc 1 354 0 is_stmt 1
 1303 08aa 3900     		movs	r1, r7
 1304 08ac 0E4B     		ldr	r3, .L30+12
 1305 08ae 1A78     		ldrb	r2, [r3]
 1306 08b0 5B78     		ldrb	r3, [r3, #1]
 1307 08b2 1B02     		lsls	r3, r3, #8
 1308 08b4 1A43     		orrs	r2, r3
 1309 08b6 0023     		movs	r3, #0
 1310 08b8 1204     		lsls	r2, r2, #16
 1311 08ba 120C     		lsrs	r2, r2, #16
 1312 08bc 1B0C     		lsrs	r3, r3, #16
 1313 08be 1B04     		lsls	r3, r3, #16
 1314 08c0 1343     		orrs	r3, r2
 1315 08c2 1800     		movs	r0, r3
 1316 08c4 FFF7FEFF 		bl	CyBle_GattsNotification
 355:..\..\..\..\..\WORK\1N4 Transmitter\SA-100_2339_05_1N4.cydsn/sgable.c ****         System.AlertStatusPrevious = System.AlertStatus;
 1317              		.loc 1 355 0
 1318 08c8 044B     		ldr	r3, .L30
 1319 08ca 997F     		ldrb	r1, [r3, #30]
 1320 08cc 034B     		ldr	r3, .L30
 1321 08ce 2022     		movs	r2, #32
 1322 08d0 9954     		strb	r1, [r3, r2]
 1323 08d2 00E0     		b	.L1
 1324              	.L23:
  49:..\..\..\..\..\WORK\1N4 Transmitter\SA-100_2339_05_1N4.cydsn/sgable.c **** 
 1325              		.loc 1 49 0
 1326 08d4 C046     		nop
 1327              	.L1:
 356:..\..\..\..\..\WORK\1N4 Transmitter\SA-100_2339_05_1N4.cydsn/sgable.c ****     }
 357:..\..\..\..\..\WORK\1N4 Transmitter\SA-100_2339_05_1N4.cydsn/sgable.c **** 
 358:..\..\..\..\..\WORK\1N4 Transmitter\SA-100_2339_05_1N4.cydsn/sgable.c **** }
 1328              		.loc 1 358 0
 1329 08d6 BD46     		mov	sp, r7
 1330 08d8 05B0     		add	sp, sp, #20
 1331              		@ sp needed
 1332 08da 90BD     		pop	{r4, r7, pc}
 1333              	.L31:
 1334              		.align	2
 1335              	.L30:
 1336 08dc 00000000 		.word	System
 1337 08e0 00000000 		.word	Sensor
 1338 08e4 20000000 		.word	Sensor+32
 1339 08e8 00000000 		.word	cyBle_connHandle
 1340 08ec 1E000000 		.word	System+30
 1341              		.cfi_endproc
 1342              	.LFE35:
 1343              		.size	updateOurBleData, .-updateOurBleData
 1344              		.section	.text.Stack_Handler,"ax",%progbits
 1345              		.align	2
 1346              		.global	Stack_Handler
 1347              		.code	16
 1348              		.thumb_func
 1349              		.type	Stack_Handler, %function
 1350              	Stack_Handler:
 1351              	.LFB36:
ARM GAS  C:\Users\alexport\AppData\Local\Temp\ccr3ZDs0.s 			page 31


 359:..\..\..\..\..\WORK\1N4 Transmitter\SA-100_2339_05_1N4.cydsn/sgable.c **** 
 360:..\..\..\..\..\WORK\1N4 Transmitter\SA-100_2339_05_1N4.cydsn/sgable.c **** /*******************************************************************************
 361:..\..\..\..\..\WORK\1N4 Transmitter\SA-100_2339_05_1N4.cydsn/sgable.c **** * Function Name: Stack_Handler
 362:..\..\..\..\..\WORK\1N4 Transmitter\SA-100_2339_05_1N4.cydsn/sgable.c **** ********************************************************************************
 363:..\..\..\..\..\WORK\1N4 Transmitter\SA-100_2339_05_1N4.cydsn/sgable.c **** * Summary:
 364:..\..\..\..\..\WORK\1N4 Transmitter\SA-100_2339_05_1N4.cydsn/sgable.c **** *  Stack handler for BLE communications.
 365:..\..\..\..\..\WORK\1N4 Transmitter\SA-100_2339_05_1N4.cydsn/sgable.c **** * 
 366:..\..\..\..\..\WORK\1N4 Transmitter\SA-100_2339_05_1N4.cydsn/sgable.c **** * Parameters:
 367:..\..\..\..\..\WORK\1N4 Transmitter\SA-100_2339_05_1N4.cydsn/sgable.c **** *  eventCode
 368:..\..\..\..\..\WORK\1N4 Transmitter\SA-100_2339_05_1N4.cydsn/sgable.c **** *  eventParam
 369:..\..\..\..\..\WORK\1N4 Transmitter\SA-100_2339_05_1N4.cydsn/sgable.c **** *
 370:..\..\..\..\..\WORK\1N4 Transmitter\SA-100_2339_05_1N4.cydsn/sgable.c **** * Return:
 371:..\..\..\..\..\WORK\1N4 Transmitter\SA-100_2339_05_1N4.cydsn/sgable.c **** *  None
 372:..\..\..\..\..\WORK\1N4 Transmitter\SA-100_2339_05_1N4.cydsn/sgable.c **** *
 373:..\..\..\..\..\WORK\1N4 Transmitter\SA-100_2339_05_1N4.cydsn/sgable.c **** *******************************************************************************/
 374:..\..\..\..\..\WORK\1N4 Transmitter\SA-100_2339_05_1N4.cydsn/sgable.c **** void Stack_Handler( uint32 eventCode, void *eventParam )
 375:..\..\..\..\..\WORK\1N4 Transmitter\SA-100_2339_05_1N4.cydsn/sgable.c **** {
 1352              		.loc 1 375 0
 1353              		.cfi_startproc
 1354              		@ args = 0, pretend = 0, frame = 16
 1355              		@ frame_needed = 1, uses_anonymous_args = 0
 1356 0000 80B5     		push	{r7, lr}
 1357              		.cfi_def_cfa_offset 8
 1358              		.cfi_offset 7, -8
 1359              		.cfi_offset 14, -4
 1360 0002 84B0     		sub	sp, sp, #16
 1361              		.cfi_def_cfa_offset 24
 1362 0004 00AF     		add	r7, sp, #0
 1363              		.cfi_def_cfa_register 7
 1364 0006 7860     		str	r0, [r7, #4]
 1365 0008 3960     		str	r1, [r7]
 376:..\..\..\..\..\WORK\1N4 Transmitter\SA-100_2339_05_1N4.cydsn/sgable.c ****     CYBLE_GATTS_WRITE_REQ_PARAM_T *wrReqParam;    
 377:..\..\..\..\..\WORK\1N4 Transmitter\SA-100_2339_05_1N4.cydsn/sgable.c **** 
 378:..\..\..\..\..\WORK\1N4 Transmitter\SA-100_2339_05_1N4.cydsn/sgable.c ****     switch( eventCode )                                                         /* Handle any BLE e
 1366              		.loc 1 378 0
 1367 000a 7B68     		ldr	r3, [r7, #4]
 1368 000c 282B     		cmp	r3, #40
 1369 000e 16D0     		beq	.L34
 1370 0010 03D8     		bhi	.L35
 1371 0012 012B     		cmp	r3, #1
 1372 0014 07D0     		beq	.L36
 379:..\..\..\..\..\WORK\1N4 Transmitter\SA-100_2339_05_1N4.cydsn/sgable.c ****     {
 380:..\..\..\..\..\WORK\1N4 Transmitter\SA-100_2339_05_1N4.cydsn/sgable.c ****         case CYBLE_EVT_STACK_ON:                                                /* Handle BLE stack
 381:..\..\..\..\..\WORK\1N4 Transmitter\SA-100_2339_05_1N4.cydsn/sgable.c ****             /* Mandatory events to be handled by BLE application code */
 382:..\..\..\..\..\WORK\1N4 Transmitter\SA-100_2339_05_1N4.cydsn/sgable.c ****             /* Enable the Skyworks SE2438T PA/LNA */
 383:..\..\..\..\..\WORK\1N4 Transmitter\SA-100_2339_05_1N4.cydsn/sgable.c ****             CSD_Write(1);
 384:..\..\..\..\..\WORK\1N4 Transmitter\SA-100_2339_05_1N4.cydsn/sgable.c ****             CPS_Write(1);
 385:..\..\..\..\..\WORK\1N4 Transmitter\SA-100_2339_05_1N4.cydsn/sgable.c ****             /* Configure the Link Layer to automatically switch PA control pin P3[2] and LNA contro
 386:..\..\..\..\..\WORK\1N4 Transmitter\SA-100_2339_05_1N4.cydsn/sgable.c ****             CY_SET_XTND_REG32((void CYFAR *)(CYREG_BLE_BLESS_RF_CONFIG), 0x0331);
 387:..\..\..\..\..\WORK\1N4 Transmitter\SA-100_2339_05_1N4.cydsn/sgable.c ****             CY_SET_XTND_REG32((void CYFAR *)(CYREG_SRSS_TST_DDFT_CTRL), 0x80000302);
 388:..\..\..\..\..\WORK\1N4 Transmitter\SA-100_2339_05_1N4.cydsn/sgable.c ****         case CYBLE_EVT_GAP_DEVICE_DISCONNECTED:                                 /* Handle BLE disco
 389:..\..\..\..\..\WORK\1N4 Transmitter\SA-100_2339_05_1N4.cydsn/sgable.c ****             CyBle_GappStartAdvertisement( CYBLE_ADVERTISING_FAST );             /* Start advertisin
 390:..\..\..\..\..\WORK\1N4 Transmitter\SA-100_2339_05_1N4.cydsn/sgable.c ****             if( System.BleInAuxCalState == TRUE ) System.BleControl = 0;        /* In loop cal or o
 391:..\..\..\..\..\WORK\1N4 Transmitter\SA-100_2339_05_1N4.cydsn/sgable.c ****             break;
 392:..\..\..\..\..\WORK\1N4 Transmitter\SA-100_2339_05_1N4.cydsn/sgable.c ****         case CYBLE_EVT_GATT_CONNECT_IND:                                        /* Handle BLE conne
 393:..\..\..\..\..\WORK\1N4 Transmitter\SA-100_2339_05_1N4.cydsn/sgable.c ****             updateOurBleData();                                                 /* Update the GATT 
 394:..\..\..\..\..\WORK\1N4 Transmitter\SA-100_2339_05_1N4.cydsn/sgable.c ****             break;
ARM GAS  C:\Users\alexport\AppData\Local\Temp\ccr3ZDs0.s 			page 32


 395:..\..\..\..\..\WORK\1N4 Transmitter\SA-100_2339_05_1N4.cydsn/sgable.c ****         case CYBLE_EVT_GATTS_WRITE_REQ:                                           /* Handle a write
 396:..\..\..\..\..\WORK\1N4 Transmitter\SA-100_2339_05_1N4.cydsn/sgable.c ****             wrReqParam = (CYBLE_GATTS_WRITE_REQ_PARAM_T *) eventParam;          /* Get the attribut
 397:..\..\..\..\..\WORK\1N4 Transmitter\SA-100_2339_05_1N4.cydsn/sgable.c **** 
 398:..\..\..\..\..\WORK\1N4 Transmitter\SA-100_2339_05_1N4.cydsn/sgable.c ****             /* Requests to write variables */
 399:..\..\..\..\..\WORK\1N4 Transmitter\SA-100_2339_05_1N4.cydsn/sgable.c ****             /* It's our sgaBleRemote variable */            
 400:..\..\..\..\..\WORK\1N4 Transmitter\SA-100_2339_05_1N4.cydsn/sgable.c ****             if(wrReqParam->handleValPair.attrHandle == CYBLE_SGA1_SYS_REMOTE_CHAR_HANDLE)
 401:..\..\..\..\..\WORK\1N4 Transmitter\SA-100_2339_05_1N4.cydsn/sgable.c ****             {
 402:..\..\..\..\..\WORK\1N4 Transmitter\SA-100_2339_05_1N4.cydsn/sgable.c ****                 /* Only update and respond if the write to the GATT Database is allowed */
 403:..\..\..\..\..\WORK\1N4 Transmitter\SA-100_2339_05_1N4.cydsn/sgable.c ****                 if(CYBLE_GATT_ERR_NONE == CyBle_GattsWriteAttributeValue(&wrReqParam->handleValPair
 404:..\..\..\..\..\WORK\1N4 Transmitter\SA-100_2339_05_1N4.cydsn/sgable.c ****                 {
 405:..\..\..\..\..\WORK\1N4 Transmitter\SA-100_2339_05_1N4.cydsn/sgable.c ****                     System.BleControl = wrReqParam->handleValPair.value.val[0];      /* Update our 
 406:..\..\..\..\..\WORK\1N4 Transmitter\SA-100_2339_05_1N4.cydsn/sgable.c ****                     CyBle_GattsWriteRsp(cyBle_connHandle);                      /* respond to the c
 407:..\..\..\..\..\WORK\1N4 Transmitter\SA-100_2339_05_1N4.cydsn/sgable.c ****                 }
 408:..\..\..\..\..\WORK\1N4 Transmitter\SA-100_2339_05_1N4.cydsn/sgable.c ****             }
 409:..\..\..\..\..\WORK\1N4 Transmitter\SA-100_2339_05_1N4.cydsn/sgable.c ****             /* It's our CAN Node ID variable */            
 410:..\..\..\..\..\WORK\1N4 Transmitter\SA-100_2339_05_1N4.cydsn/sgable.c ****             if(wrReqParam->handleValPair.attrHandle == CYBLE_SGA1_SYS_CAN_ID_CHAR_HANDLE)
 411:..\..\..\..\..\WORK\1N4 Transmitter\SA-100_2339_05_1N4.cydsn/sgable.c ****             {
 412:..\..\..\..\..\WORK\1N4 Transmitter\SA-100_2339_05_1N4.cydsn/sgable.c ****                 /* Only update and respond if the write to the GATT Database is allowed */
 413:..\..\..\..\..\WORK\1N4 Transmitter\SA-100_2339_05_1N4.cydsn/sgable.c ****                 if(CYBLE_GATT_ERR_NONE == CyBle_GattsWriteAttributeValue(&wrReqParam->handleValPair
 414:..\..\..\..\..\WORK\1N4 Transmitter\SA-100_2339_05_1N4.cydsn/sgable.c ****                 {
 415:..\..\..\..\..\WORK\1N4 Transmitter\SA-100_2339_05_1N4.cydsn/sgable.c ****                     System.CanNodeId = wrReqParam->handleValPair.value.val[0];  /* Update our local
 416:..\..\..\..\..\WORK\1N4 Transmitter\SA-100_2339_05_1N4.cydsn/sgable.c ****                     CyBle_GattsWriteRsp(cyBle_connHandle);                      /* respond to the c
 417:..\..\..\..\..\WORK\1N4 Transmitter\SA-100_2339_05_1N4.cydsn/sgable.c ****                     //FM24VN10_Write_8( SYS_I2C_FRAM_ADDR_B0, SYS_EE8_CAN_NODE_ID, System.CanNodeId
 418:..\..\..\..\..\WORK\1N4 Transmitter\SA-100_2339_05_1N4.cydsn/sgable.c ****                     //if( SA100_I2C_INSTALLED ) SA100I2C_Write_8( SA100_CEC_I2C_ADDR, SA100_I2C_Can
 419:..\..\..\..\..\WORK\1N4 Transmitter\SA-100_2339_05_1N4.cydsn/sgable.c ****                     //SA100CEC_Write_8( CEC_OD_SYS_U8_CANNodeID, 0, System.CanNodeId );
 420:..\..\..\..\..\WORK\1N4 Transmitter\SA-100_2339_05_1N4.cydsn/sgable.c ****                     //SA100CEC_Reset( CEC_RESET_COMMS );
 421:..\..\..\..\..\WORK\1N4 Transmitter\SA-100_2339_05_1N4.cydsn/sgable.c ****                 }
 422:..\..\..\..\..\WORK\1N4 Transmitter\SA-100_2339_05_1N4.cydsn/sgable.c ****             }
 423:..\..\..\..\..\WORK\1N4 Transmitter\SA-100_2339_05_1N4.cydsn/sgable.c ****             /* It's our CAN Channel variable */            
 424:..\..\..\..\..\WORK\1N4 Transmitter\SA-100_2339_05_1N4.cydsn/sgable.c ****             if(wrReqParam->handleValPair.attrHandle == CYBLE_SGA1_SYS_CAN_CHAN_CHAR_HANDLE)
 425:..\..\..\..\..\WORK\1N4 Transmitter\SA-100_2339_05_1N4.cydsn/sgable.c ****             {
 426:..\..\..\..\..\WORK\1N4 Transmitter\SA-100_2339_05_1N4.cydsn/sgable.c ****                 /* Only update and respond if the write to the GATT Database is allowed */
 427:..\..\..\..\..\WORK\1N4 Transmitter\SA-100_2339_05_1N4.cydsn/sgable.c ****                 if(CYBLE_GATT_ERR_NONE == CyBle_GattsWriteAttributeValue(&wrReqParam->handleValPair
 428:..\..\..\..\..\WORK\1N4 Transmitter\SA-100_2339_05_1N4.cydsn/sgable.c ****                 {
 429:..\..\..\..\..\WORK\1N4 Transmitter\SA-100_2339_05_1N4.cydsn/sgable.c ****                     System.CanChannel = wrReqParam->handleValPair.value.val[0];  /* Update our loca
 430:..\..\..\..\..\WORK\1N4 Transmitter\SA-100_2339_05_1N4.cydsn/sgable.c ****                     CyBle_GattsWriteRsp(cyBle_connHandle);                      /* respond to the c
 431:..\..\..\..\..\WORK\1N4 Transmitter\SA-100_2339_05_1N4.cydsn/sgable.c ****                     //FM24VN10_Write_8( SYS_I2C_FRAM_ADDR_B0, SYS_EE8_CAN_CHANNEL, System.CanChanne
 432:..\..\..\..\..\WORK\1N4 Transmitter\SA-100_2339_05_1N4.cydsn/sgable.c ****                     //if( SA100_I2C_INSTALLED ) SA100I2C_Write_8( SA100_CEC_I2C_ADDR, SA100_I2C_Can
 433:..\..\..\..\..\WORK\1N4 Transmitter\SA-100_2339_05_1N4.cydsn/sgable.c ****                     //SA100CEC_Write_8( CEC_OD_SYS_U8_channel, 0, System.CanChannel );
 434:..\..\..\..\..\WORK\1N4 Transmitter\SA-100_2339_05_1N4.cydsn/sgable.c ****                     //SA100CEC_Reset( CEC_RESET_COMMS );
 435:..\..\..\..\..\WORK\1N4 Transmitter\SA-100_2339_05_1N4.cydsn/sgable.c ****                 }
 436:..\..\..\..\..\WORK\1N4 Transmitter\SA-100_2339_05_1N4.cydsn/sgable.c ****             }
 437:..\..\..\..\..\WORK\1N4 Transmitter\SA-100_2339_05_1N4.cydsn/sgable.c ****             /* It's our ALERT_1 variable */            
 438:..\..\..\..\..\WORK\1N4 Transmitter\SA-100_2339_05_1N4.cydsn/sgable.c ****             if(wrReqParam->handleValPair.attrHandle == CYBLE_SGA1_SYS_ALERT_1_CHAR_HANDLE)
 439:..\..\..\..\..\WORK\1N4 Transmitter\SA-100_2339_05_1N4.cydsn/sgable.c ****             {
 440:..\..\..\..\..\WORK\1N4 Transmitter\SA-100_2339_05_1N4.cydsn/sgable.c ****                 /* Only update and respond if the write to the GATT Database is allowed */
 441:..\..\..\..\..\WORK\1N4 Transmitter\SA-100_2339_05_1N4.cydsn/sgable.c ****                 if(CYBLE_GATT_ERR_NONE == CyBle_GattsWriteAttributeValue(&wrReqParam->handleValPair
 442:..\..\..\..\..\WORK\1N4 Transmitter\SA-100_2339_05_1N4.cydsn/sgable.c ****                 {
 443:..\..\..\..\..\WORK\1N4 Transmitter\SA-100_2339_05_1N4.cydsn/sgable.c ****                     Sensor.Alert1 = wrReqParam->handleValPair.value.val[1];  /* Update our local co
 444:..\..\..\..\..\WORK\1N4 Transmitter\SA-100_2339_05_1N4.cydsn/sgable.c ****                     Sensor.Alert1 <<=8;
 445:..\..\..\..\..\WORK\1N4 Transmitter\SA-100_2339_05_1N4.cydsn/sgable.c ****                     Sensor.Alert1 |= wrReqParam->handleValPair.value.val[0];  /* Update our local c
 446:..\..\..\..\..\WORK\1N4 Transmitter\SA-100_2339_05_1N4.cydsn/sgable.c ****                     CyBle_GattsWriteRsp(cyBle_connHandle);                      /* respond to the c
 447:..\..\..\..\..\WORK\1N4 Transmitter\SA-100_2339_05_1N4.cydsn/sgable.c ****                     //if( SA100_I2C_INSTALLED ) SA100I2C_Write_8( SA100_CEC_I2C_ADDR, SA100_I2C_Ale
 448:..\..\..\..\..\WORK\1N4 Transmitter\SA-100_2339_05_1N4.cydsn/sgable.c ****                     //SA100CEC_Write_16( CEC_OD_ALL_U16_alert1, 0, Sensor.Alert1 );
 449:..\..\..\..\..\WORK\1N4 Transmitter\SA-100_2339_05_1N4.cydsn/sgable.c ****                     switch( Sensor.Type )
 450:..\..\..\..\..\WORK\1N4 Transmitter\SA-100_2339_05_1N4.cydsn/sgable.c ****                     {
 451:..\..\..\..\..\WORK\1N4 Transmitter\SA-100_2339_05_1N4.cydsn/sgable.c ****                         case SENSOR_TYPE_CBEAD:
ARM GAS  C:\Users\alexport\AppData\Local\Temp\ccr3ZDs0.s 			page 33


 452:..\..\..\..\..\WORK\1N4 Transmitter\SA-100_2339_05_1N4.cydsn/sgable.c ****                            // AT24CS01_Write_16( CBEAD_I2C_EEPROM_ADDR, CBEAD_EE16_FACT_ALERT_1, Se
 453:..\..\..\..\..\WORK\1N4 Transmitter\SA-100_2339_05_1N4.cydsn/sgable.c ****                         break;
 454:..\..\..\..\..\WORK\1N4 Transmitter\SA-100_2339_05_1N4.cydsn/sgable.c ****                         case SENSOR_TYPE_ECHEM:
 455:..\..\..\..\..\WORK\1N4 Transmitter\SA-100_2339_05_1N4.cydsn/sgable.c ****                             //AT24CS01_Write_16( ECHEM_I2C_EEPROM_ADDR, ECHEM_EE16_FACT_ALERT_1, Se
 456:..\..\..\..\..\WORK\1N4 Transmitter\SA-100_2339_05_1N4.cydsn/sgable.c ****                         break;
 457:..\..\..\..\..\WORK\1N4 Transmitter\SA-100_2339_05_1N4.cydsn/sgable.c ****                         case SENSOR_TYPE_IR:
 458:..\..\..\..\..\WORK\1N4 Transmitter\SA-100_2339_05_1N4.cydsn/sgable.c **** //                            if( SysPingI2cSlave( IR_I2C_EEPROM_ADDR ) == 0 )
 459:..\..\..\..\..\WORK\1N4 Transmitter\SA-100_2339_05_1N4.cydsn/sgable.c **** //                            {
 460:..\..\..\..\..\WORK\1N4 Transmitter\SA-100_2339_05_1N4.cydsn/sgable.c **** //                                AT24CS01_Write_16( IR_I2C_EEPROM_ADDR, IR_EE16_FACT_ALERT_1, Sens
 461:..\..\..\..\..\WORK\1N4 Transmitter\SA-100_2339_05_1N4.cydsn/sgable.c **** //                            }
 462:..\..\..\..\..\WORK\1N4 Transmitter\SA-100_2339_05_1N4.cydsn/sgable.c ****                             break;
 463:..\..\..\..\..\WORK\1N4 Transmitter\SA-100_2339_05_1N4.cydsn/sgable.c ****                         default:
 464:..\..\..\..\..\WORK\1N4 Transmitter\SA-100_2339_05_1N4.cydsn/sgable.c ****                         break;
 465:..\..\..\..\..\WORK\1N4 Transmitter\SA-100_2339_05_1N4.cydsn/sgable.c ****                     }
 466:..\..\..\..\..\WORK\1N4 Transmitter\SA-100_2339_05_1N4.cydsn/sgable.c ****                 }
 467:..\..\..\..\..\WORK\1N4 Transmitter\SA-100_2339_05_1N4.cydsn/sgable.c ****             }
 468:..\..\..\..\..\WORK\1N4 Transmitter\SA-100_2339_05_1N4.cydsn/sgable.c ****             /* It's our ALERT_2 variable */            
 469:..\..\..\..\..\WORK\1N4 Transmitter\SA-100_2339_05_1N4.cydsn/sgable.c ****             if(wrReqParam->handleValPair.attrHandle == CYBLE_SGA1_SYS_ALERT_2_CHAR_HANDLE)
 470:..\..\..\..\..\WORK\1N4 Transmitter\SA-100_2339_05_1N4.cydsn/sgable.c ****             {
 471:..\..\..\..\..\WORK\1N4 Transmitter\SA-100_2339_05_1N4.cydsn/sgable.c ****                 /* Only update and respond if the write to the GATT Database is allowed */
 472:..\..\..\..\..\WORK\1N4 Transmitter\SA-100_2339_05_1N4.cydsn/sgable.c ****                 if(CYBLE_GATT_ERR_NONE == CyBle_GattsWriteAttributeValue(&wrReqParam->handleValPair
 473:..\..\..\..\..\WORK\1N4 Transmitter\SA-100_2339_05_1N4.cydsn/sgable.c ****                 {
 474:..\..\..\..\..\WORK\1N4 Transmitter\SA-100_2339_05_1N4.cydsn/sgable.c ****                     Sensor.Alert2 = wrReqParam->handleValPair.value.val[1];  /* Update our local co
 475:..\..\..\..\..\WORK\1N4 Transmitter\SA-100_2339_05_1N4.cydsn/sgable.c ****                     Sensor.Alert2 <<=8;
 476:..\..\..\..\..\WORK\1N4 Transmitter\SA-100_2339_05_1N4.cydsn/sgable.c ****                     Sensor.Alert2 |= wrReqParam->handleValPair.value.val[0];  /* Update our local c
 477:..\..\..\..\..\WORK\1N4 Transmitter\SA-100_2339_05_1N4.cydsn/sgable.c ****                     CyBle_GattsWriteRsp(cyBle_connHandle);                      /* respond to the c
 478:..\..\..\..\..\WORK\1N4 Transmitter\SA-100_2339_05_1N4.cydsn/sgable.c ****                     //if( SA100_I2C_INSTALLED ) SA100I2C_Write_8( SA100_CEC_I2C_ADDR, SA100_I2C_Ale
 479:..\..\..\..\..\WORK\1N4 Transmitter\SA-100_2339_05_1N4.cydsn/sgable.c ****                     //SA100CEC_Write_16( CEC_OD_ALL_U16_alert2, 0, Sensor.Alert2 );
 480:..\..\..\..\..\WORK\1N4 Transmitter\SA-100_2339_05_1N4.cydsn/sgable.c ****                     switch( Sensor.Type )
 481:..\..\..\..\..\WORK\1N4 Transmitter\SA-100_2339_05_1N4.cydsn/sgable.c ****                     {
 482:..\..\..\..\..\WORK\1N4 Transmitter\SA-100_2339_05_1N4.cydsn/sgable.c ****                         case SENSOR_TYPE_CBEAD:
 483:..\..\..\..\..\WORK\1N4 Transmitter\SA-100_2339_05_1N4.cydsn/sgable.c ****                             //AT24CS01_Write_16( CBEAD_I2C_EEPROM_ADDR, CBEAD_EE16_FACT_ALERT_2, Se
 484:..\..\..\..\..\WORK\1N4 Transmitter\SA-100_2339_05_1N4.cydsn/sgable.c ****                         break;
 485:..\..\..\..\..\WORK\1N4 Transmitter\SA-100_2339_05_1N4.cydsn/sgable.c ****                         case SENSOR_TYPE_ECHEM:
 486:..\..\..\..\..\WORK\1N4 Transmitter\SA-100_2339_05_1N4.cydsn/sgable.c ****                            // AT24CS01_Write_16( ECHEM_I2C_EEPROM_ADDR, ECHEM_EE16_FACT_ALERT_2, Se
 487:..\..\..\..\..\WORK\1N4 Transmitter\SA-100_2339_05_1N4.cydsn/sgable.c ****                         break;
 488:..\..\..\..\..\WORK\1N4 Transmitter\SA-100_2339_05_1N4.cydsn/sgable.c ****                         case SENSOR_TYPE_IR:
 489:..\..\..\..\..\WORK\1N4 Transmitter\SA-100_2339_05_1N4.cydsn/sgable.c **** //                            if( SysPingI2cSlave( IR_I2C_EEPROM_ADDR ) == 0 )
 490:..\..\..\..\..\WORK\1N4 Transmitter\SA-100_2339_05_1N4.cydsn/sgable.c **** //                            {
 491:..\..\..\..\..\WORK\1N4 Transmitter\SA-100_2339_05_1N4.cydsn/sgable.c **** //                                AT24CS01_Write_16( IR_I2C_EEPROM_ADDR, IR_EE16_FACT_ALERT_2, Sens
 492:..\..\..\..\..\WORK\1N4 Transmitter\SA-100_2339_05_1N4.cydsn/sgable.c **** //                            }
 493:..\..\..\..\..\WORK\1N4 Transmitter\SA-100_2339_05_1N4.cydsn/sgable.c ****                             break;
 494:..\..\..\..\..\WORK\1N4 Transmitter\SA-100_2339_05_1N4.cydsn/sgable.c ****                         default:
 495:..\..\..\..\..\WORK\1N4 Transmitter\SA-100_2339_05_1N4.cydsn/sgable.c ****                         break;
 496:..\..\..\..\..\WORK\1N4 Transmitter\SA-100_2339_05_1N4.cydsn/sgable.c ****                     }
 497:..\..\..\..\..\WORK\1N4 Transmitter\SA-100_2339_05_1N4.cydsn/sgable.c ****                 }
 498:..\..\..\..\..\WORK\1N4 Transmitter\SA-100_2339_05_1N4.cydsn/sgable.c ****             }
 499:..\..\..\..\..\WORK\1N4 Transmitter\SA-100_2339_05_1N4.cydsn/sgable.c ****             /* It's our ALERT_1_ASC variable */            
 500:..\..\..\..\..\WORK\1N4 Transmitter\SA-100_2339_05_1N4.cydsn/sgable.c ****             if(wrReqParam->handleValPair.attrHandle == CYBLE_SGA1_SYS_ALERT_1_ASC_CHAR_HANDLE)
 501:..\..\..\..\..\WORK\1N4 Transmitter\SA-100_2339_05_1N4.cydsn/sgable.c ****             {
 502:..\..\..\..\..\WORK\1N4 Transmitter\SA-100_2339_05_1N4.cydsn/sgable.c ****                 /* Only update and respond if the write to the GATT Database is allowed */
 503:..\..\..\..\..\WORK\1N4 Transmitter\SA-100_2339_05_1N4.cydsn/sgable.c ****                 if(CYBLE_GATT_ERR_NONE == CyBle_GattsWriteAttributeValue(&wrReqParam->handleValPair
 504:..\..\..\..\..\WORK\1N4 Transmitter\SA-100_2339_05_1N4.cydsn/sgable.c ****                 {
 505:..\..\..\..\..\WORK\1N4 Transmitter\SA-100_2339_05_1N4.cydsn/sgable.c ****                     Sensor.Alert1Ascending = wrReqParam->handleValPair.value.val[1];  /* Update our
 506:..\..\..\..\..\WORK\1N4 Transmitter\SA-100_2339_05_1N4.cydsn/sgable.c ****                     Sensor.Alert1Ascending <<=8;
 507:..\..\..\..\..\WORK\1N4 Transmitter\SA-100_2339_05_1N4.cydsn/sgable.c ****                     Sensor.Alert1Ascending |= wrReqParam->handleValPair.value.val[0];  /* Update ou
 508:..\..\..\..\..\WORK\1N4 Transmitter\SA-100_2339_05_1N4.cydsn/sgable.c ****                     CyBle_GattsWriteRsp(cyBle_connHandle);                      /* respond to the c
ARM GAS  C:\Users\alexport\AppData\Local\Temp\ccr3ZDs0.s 			page 34


 509:..\..\..\..\..\WORK\1N4 Transmitter\SA-100_2339_05_1N4.cydsn/sgable.c ****                     //if( SA100_I2C_INSTALLED ) SA100I2C_Write_16( SA100_CEC_I2C_ADDR, SA100_I2C_Al
 510:..\..\..\..\..\WORK\1N4 Transmitter\SA-100_2339_05_1N4.cydsn/sgable.c ****                     switch( Sensor.Type )
 511:..\..\..\..\..\WORK\1N4 Transmitter\SA-100_2339_05_1N4.cydsn/sgable.c ****                     {
 512:..\..\..\..\..\WORK\1N4 Transmitter\SA-100_2339_05_1N4.cydsn/sgable.c ****                         case SENSOR_TYPE_CBEAD:
 513:..\..\..\..\..\WORK\1N4 Transmitter\SA-100_2339_05_1N4.cydsn/sgable.c ****                             //AT24CS01_Write_16( CBEAD_I2C_EEPROM_ADDR, CBEAD_EE16_ALERT1_ASC_LOC, 
 514:..\..\..\..\..\WORK\1N4 Transmitter\SA-100_2339_05_1N4.cydsn/sgable.c ****                         break;
 515:..\..\..\..\..\WORK\1N4 Transmitter\SA-100_2339_05_1N4.cydsn/sgable.c ****                         case SENSOR_TYPE_ECHEM:
 516:..\..\..\..\..\WORK\1N4 Transmitter\SA-100_2339_05_1N4.cydsn/sgable.c ****                             //AT24CS01_Write_16( ECHEM_I2C_EEPROM_ADDR, ECHEM_EE16_ALERT1_ASC_LOC, 
 517:..\..\..\..\..\WORK\1N4 Transmitter\SA-100_2339_05_1N4.cydsn/sgable.c ****                         break;
 518:..\..\..\..\..\WORK\1N4 Transmitter\SA-100_2339_05_1N4.cydsn/sgable.c ****                         case SENSOR_TYPE_IR:
 519:..\..\..\..\..\WORK\1N4 Transmitter\SA-100_2339_05_1N4.cydsn/sgable.c **** //                            if( SysPingI2cSlave( IR_I2C_EEPROM_ADDR ) == 0 )
 520:..\..\..\..\..\WORK\1N4 Transmitter\SA-100_2339_05_1N4.cydsn/sgable.c **** //                            {
 521:..\..\..\..\..\WORK\1N4 Transmitter\SA-100_2339_05_1N4.cydsn/sgable.c **** //                                //AT24CS01_Write_16( IR_I2C_EEPROM_ADDR, IR_EE16_ALERT1_ASC_LOC, 
 522:..\..\..\..\..\WORK\1N4 Transmitter\SA-100_2339_05_1N4.cydsn/sgable.c **** //                            }
 523:..\..\..\..\..\WORK\1N4 Transmitter\SA-100_2339_05_1N4.cydsn/sgable.c ****                             break;
 524:..\..\..\..\..\WORK\1N4 Transmitter\SA-100_2339_05_1N4.cydsn/sgable.c ****                         default:
 525:..\..\..\..\..\WORK\1N4 Transmitter\SA-100_2339_05_1N4.cydsn/sgable.c ****                         break;
 526:..\..\..\..\..\WORK\1N4 Transmitter\SA-100_2339_05_1N4.cydsn/sgable.c ****                     }
 527:..\..\..\..\..\WORK\1N4 Transmitter\SA-100_2339_05_1N4.cydsn/sgable.c ****                 }
 528:..\..\..\..\..\WORK\1N4 Transmitter\SA-100_2339_05_1N4.cydsn/sgable.c ****             }
 529:..\..\..\..\..\WORK\1N4 Transmitter\SA-100_2339_05_1N4.cydsn/sgable.c ****             /* It's our ALERT_2_ASC variable */            
 530:..\..\..\..\..\WORK\1N4 Transmitter\SA-100_2339_05_1N4.cydsn/sgable.c ****             if(wrReqParam->handleValPair.attrHandle == CYBLE_SGA1_SYS_ALERT_2_ASC_CHAR_HANDLE)
 531:..\..\..\..\..\WORK\1N4 Transmitter\SA-100_2339_05_1N4.cydsn/sgable.c ****             {
 532:..\..\..\..\..\WORK\1N4 Transmitter\SA-100_2339_05_1N4.cydsn/sgable.c ****                 /* Only update and respond if the write to the GATT Database is allowed */
 533:..\..\..\..\..\WORK\1N4 Transmitter\SA-100_2339_05_1N4.cydsn/sgable.c ****                 if(CYBLE_GATT_ERR_NONE == CyBle_GattsWriteAttributeValue(&wrReqParam->handleValPair
 534:..\..\..\..\..\WORK\1N4 Transmitter\SA-100_2339_05_1N4.cydsn/sgable.c ****                 {
 535:..\..\..\..\..\WORK\1N4 Transmitter\SA-100_2339_05_1N4.cydsn/sgable.c ****                     Sensor.Alert2Ascending = wrReqParam->handleValPair.value.val[1];  /* Update our
 536:..\..\..\..\..\WORK\1N4 Transmitter\SA-100_2339_05_1N4.cydsn/sgable.c ****                     Sensor.Alert2Ascending <<=8;
 537:..\..\..\..\..\WORK\1N4 Transmitter\SA-100_2339_05_1N4.cydsn/sgable.c ****                     Sensor.Alert2Ascending |= wrReqParam->handleValPair.value.val[0];  /* Update ou
 538:..\..\..\..\..\WORK\1N4 Transmitter\SA-100_2339_05_1N4.cydsn/sgable.c ****                     CyBle_GattsWriteRsp(cyBle_connHandle);                      /* respond to the c
 539:..\..\..\..\..\WORK\1N4 Transmitter\SA-100_2339_05_1N4.cydsn/sgable.c ****                     //if( SA100_I2C_INSTALLED ) SA100I2C_Write_16( SA100_CEC_I2C_ADDR, SA100_I2C_Al
 540:..\..\..\..\..\WORK\1N4 Transmitter\SA-100_2339_05_1N4.cydsn/sgable.c ****                     switch( Sensor.Type )
 541:..\..\..\..\..\WORK\1N4 Transmitter\SA-100_2339_05_1N4.cydsn/sgable.c ****                     {
 542:..\..\..\..\..\WORK\1N4 Transmitter\SA-100_2339_05_1N4.cydsn/sgable.c ****                         case SENSOR_TYPE_CBEAD:
 543:..\..\..\..\..\WORK\1N4 Transmitter\SA-100_2339_05_1N4.cydsn/sgable.c ****                             //AT24CS01_Write_16( CBEAD_I2C_EEPROM_ADDR, CBEAD_EE16_ALERT2_ASC_LOC, 
 544:..\..\..\..\..\WORK\1N4 Transmitter\SA-100_2339_05_1N4.cydsn/sgable.c ****                         break;
 545:..\..\..\..\..\WORK\1N4 Transmitter\SA-100_2339_05_1N4.cydsn/sgable.c ****                         case SENSOR_TYPE_ECHEM:
 546:..\..\..\..\..\WORK\1N4 Transmitter\SA-100_2339_05_1N4.cydsn/sgable.c ****                             //AT24CS01_Write_16( ECHEM_I2C_EEPROM_ADDR, ECHEM_EE16_ALERT2_ASC_LOC, 
 547:..\..\..\..\..\WORK\1N4 Transmitter\SA-100_2339_05_1N4.cydsn/sgable.c ****                         break;
 548:..\..\..\..\..\WORK\1N4 Transmitter\SA-100_2339_05_1N4.cydsn/sgable.c ****                         case SENSOR_TYPE_IR:
 549:..\..\..\..\..\WORK\1N4 Transmitter\SA-100_2339_05_1N4.cydsn/sgable.c **** //                            if( SysPingI2cSlave( IR_I2C_EEPROM_ADDR ) == 0 )
 550:..\..\..\..\..\WORK\1N4 Transmitter\SA-100_2339_05_1N4.cydsn/sgable.c **** //                            {
 551:..\..\..\..\..\WORK\1N4 Transmitter\SA-100_2339_05_1N4.cydsn/sgable.c **** //                                AT24CS01_Write_16( IR_I2C_EEPROM_ADDR, IR_EE16_ALERT2_ASC_LOC, Se
 552:..\..\..\..\..\WORK\1N4 Transmitter\SA-100_2339_05_1N4.cydsn/sgable.c **** //                            }
 553:..\..\..\..\..\WORK\1N4 Transmitter\SA-100_2339_05_1N4.cydsn/sgable.c ****                             break;
 554:..\..\..\..\..\WORK\1N4 Transmitter\SA-100_2339_05_1N4.cydsn/sgable.c ****                         default:
 555:..\..\..\..\..\WORK\1N4 Transmitter\SA-100_2339_05_1N4.cydsn/sgable.c ****                         break;
 556:..\..\..\..\..\WORK\1N4 Transmitter\SA-100_2339_05_1N4.cydsn/sgable.c ****                     }
 557:..\..\..\..\..\WORK\1N4 Transmitter\SA-100_2339_05_1N4.cydsn/sgable.c ****                 }
 558:..\..\..\..\..\WORK\1N4 Transmitter\SA-100_2339_05_1N4.cydsn/sgable.c ****             }
 559:..\..\..\..\..\WORK\1N4 Transmitter\SA-100_2339_05_1N4.cydsn/sgable.c ****             /* It's our PIN variable */            
 560:..\..\..\..\..\WORK\1N4 Transmitter\SA-100_2339_05_1N4.cydsn/sgable.c ****             if(wrReqParam->handleValPair.attrHandle == CYBLE_SGA2_PIN_CHAR_HANDLE)
 561:..\..\..\..\..\WORK\1N4 Transmitter\SA-100_2339_05_1N4.cydsn/sgable.c ****             {
 562:..\..\..\..\..\WORK\1N4 Transmitter\SA-100_2339_05_1N4.cydsn/sgable.c ****                 /* Only update and respond if the write to the GATT Database is allowed */
 563:..\..\..\..\..\WORK\1N4 Transmitter\SA-100_2339_05_1N4.cydsn/sgable.c ****                 if(CYBLE_GATT_ERR_NONE == CyBle_GattsWriteAttributeValue(&wrReqParam->handleValPair
 564:..\..\..\..\..\WORK\1N4 Transmitter\SA-100_2339_05_1N4.cydsn/sgable.c ****                 {
 565:..\..\..\..\..\WORK\1N4 Transmitter\SA-100_2339_05_1N4.cydsn/sgable.c ****                     for( uint8 i = 0; i < 4; i++ )
ARM GAS  C:\Users\alexport\AppData\Local\Temp\ccr3ZDs0.s 			page 35


 566:..\..\..\..\..\WORK\1N4 Transmitter\SA-100_2339_05_1N4.cydsn/sgable.c ****                     {
 567:..\..\..\..\..\WORK\1N4 Transmitter\SA-100_2339_05_1N4.cydsn/sgable.c ****                         System.Pin[i] = wrReqParam->handleValPair.value.val[i];  /* Update our loca
 568:..\..\..\..\..\WORK\1N4 Transmitter\SA-100_2339_05_1N4.cydsn/sgable.c ****                     }
 569:..\..\..\..\..\WORK\1N4 Transmitter\SA-100_2339_05_1N4.cydsn/sgable.c ****                     CyBle_GattsWriteRsp(cyBle_connHandle);                      /* respond to the c
 570:..\..\..\..\..\WORK\1N4 Transmitter\SA-100_2339_05_1N4.cydsn/sgable.c ****                     //SysSaveSystemPinString();
 571:..\..\..\..\..\WORK\1N4 Transmitter\SA-100_2339_05_1N4.cydsn/sgable.c ****                     //if( SA100_I2C_INSTALLED ) SA100I2C_Write_String( SA100_CEC_I2C_ADDR, SA100_I2
 572:..\..\..\..\..\WORK\1N4 Transmitter\SA-100_2339_05_1N4.cydsn/sgable.c ****                     //SA100CEC_Write_String( CEC_OD_BLE_STR_bluetoothPIN_4_, 0, System.Pin, 4 );
 573:..\..\..\..\..\WORK\1N4 Transmitter\SA-100_2339_05_1N4.cydsn/sgable.c **** 
 574:..\..\..\..\..\WORK\1N4 Transmitter\SA-100_2339_05_1N4.cydsn/sgable.c ****                 }
 575:..\..\..\..\..\WORK\1N4 Transmitter\SA-100_2339_05_1N4.cydsn/sgable.c ****             }
 576:..\..\..\..\..\WORK\1N4 Transmitter\SA-100_2339_05_1N4.cydsn/sgable.c ****             /* It's our SENSOR_TAG variable */            
 577:..\..\..\..\..\WORK\1N4 Transmitter\SA-100_2339_05_1N4.cydsn/sgable.c ****             if(wrReqParam->handleValPair.attrHandle == CYBLE_SGA2_SENSOR_TAG_CHAR_HANDLE)
 578:..\..\..\..\..\WORK\1N4 Transmitter\SA-100_2339_05_1N4.cydsn/sgable.c ****             {
 579:..\..\..\..\..\WORK\1N4 Transmitter\SA-100_2339_05_1N4.cydsn/sgable.c ****                 /* Only update and respond if the write to the GATT Database is allowed */
 580:..\..\..\..\..\WORK\1N4 Transmitter\SA-100_2339_05_1N4.cydsn/sgable.c ****                 if(CYBLE_GATT_ERR_NONE == CyBle_GattsWriteAttributeValue(&wrReqParam->handleValPair
 581:..\..\..\..\..\WORK\1N4 Transmitter\SA-100_2339_05_1N4.cydsn/sgable.c ****                 {
 582:..\..\..\..\..\WORK\1N4 Transmitter\SA-100_2339_05_1N4.cydsn/sgable.c ****                     for( uint8 i = 0; i < SENSOR_TAG_LENGTH; i++ )
 583:..\..\..\..\..\WORK\1N4 Transmitter\SA-100_2339_05_1N4.cydsn/sgable.c ****                     {
 584:..\..\..\..\..\WORK\1N4 Transmitter\SA-100_2339_05_1N4.cydsn/sgable.c ****                         System.SensorTag[i] = wrReqParam->handleValPair.value.val[i];  /* Update ou
 585:..\..\..\..\..\WORK\1N4 Transmitter\SA-100_2339_05_1N4.cydsn/sgable.c ****                     }
 586:..\..\..\..\..\WORK\1N4 Transmitter\SA-100_2339_05_1N4.cydsn/sgable.c ****                     CyBle_GattsWriteRsp(cyBle_connHandle);                      /* respond to the c
 587:..\..\..\..\..\WORK\1N4 Transmitter\SA-100_2339_05_1N4.cydsn/sgable.c ****                     //SysSaveSensorTagString();
 588:..\..\..\..\..\WORK\1N4 Transmitter\SA-100_2339_05_1N4.cydsn/sgable.c ****                     //if( SA100_I2C_INSTALLED ) SA100I2C_Write_String( SA100_CEC_I2C_ADDR, SA100_I2
 589:..\..\..\..\..\WORK\1N4 Transmitter\SA-100_2339_05_1N4.cydsn/sgable.c ****                     //SA100CEC_Write_String( CEC_OD_BLE_STR_sensorTag_20_, 0, System.SensorTag, 20 
 590:..\..\..\..\..\WORK\1N4 Transmitter\SA-100_2339_05_1N4.cydsn/sgable.c ****                 }
 591:..\..\..\..\..\WORK\1N4 Transmitter\SA-100_2339_05_1N4.cydsn/sgable.c ****             }
 592:..\..\..\..\..\WORK\1N4 Transmitter\SA-100_2339_05_1N4.cydsn/sgable.c ****             /* It's our SENSOR_CAL_LEVEL variable */            
 593:..\..\..\..\..\WORK\1N4 Transmitter\SA-100_2339_05_1N4.cydsn/sgable.c ****             if(wrReqParam->handleValPair.attrHandle == CYBLE_SGA2_SENSOR_CAL_LEVEL_CHAR_HANDLE)
 594:..\..\..\..\..\WORK\1N4 Transmitter\SA-100_2339_05_1N4.cydsn/sgable.c ****             {
 595:..\..\..\..\..\WORK\1N4 Transmitter\SA-100_2339_05_1N4.cydsn/sgable.c ****                 /* Only update and respond if the write to the GATT Database is allowed */
 596:..\..\..\..\..\WORK\1N4 Transmitter\SA-100_2339_05_1N4.cydsn/sgable.c ****                 if(CYBLE_GATT_ERR_NONE == CyBle_GattsWriteAttributeValue(&wrReqParam->handleValPair
 597:..\..\..\..\..\WORK\1N4 Transmitter\SA-100_2339_05_1N4.cydsn/sgable.c ****                 {
 598:..\..\..\..\..\WORK\1N4 Transmitter\SA-100_2339_05_1N4.cydsn/sgable.c ****                     Sensor.CalLevel = wrReqParam->handleValPair.value.val[1];  /* Update our local 
 599:..\..\..\..\..\WORK\1N4 Transmitter\SA-100_2339_05_1N4.cydsn/sgable.c ****                     Sensor.CalLevel <<=8;
 600:..\..\..\..\..\WORK\1N4 Transmitter\SA-100_2339_05_1N4.cydsn/sgable.c ****                     Sensor.CalLevel |= wrReqParam->handleValPair.value.val[0];  /* Update our local
 601:..\..\..\..\..\WORK\1N4 Transmitter\SA-100_2339_05_1N4.cydsn/sgable.c ****                     CyBle_GattsWriteRsp(cyBle_connHandle);                      /* respond to the c
 602:..\..\..\..\..\WORK\1N4 Transmitter\SA-100_2339_05_1N4.cydsn/sgable.c ****                     //if( SA100_I2C_INSTALLED ) SA100I2C_Write_16( SA100_CEC_I2C_ADDR, SA100_I2C_Ca
 603:..\..\..\..\..\WORK\1N4 Transmitter\SA-100_2339_05_1N4.cydsn/sgable.c ****                     //SA100CEC_Write_16( CEC_OD_ALL_U16_calibrationLevel, 0, Sensor.CalLevel );
 604:..\..\..\..\..\WORK\1N4 Transmitter\SA-100_2339_05_1N4.cydsn/sgable.c ****                     switch( Sensor.Type )
 605:..\..\..\..\..\WORK\1N4 Transmitter\SA-100_2339_05_1N4.cydsn/sgable.c ****                     {
 606:..\..\..\..\..\WORK\1N4 Transmitter\SA-100_2339_05_1N4.cydsn/sgable.c ****                         case SENSOR_TYPE_CBEAD:
 607:..\..\..\..\..\WORK\1N4 Transmitter\SA-100_2339_05_1N4.cydsn/sgable.c ****                             //AT24CS01_Write_16( CBEAD_I2C_EEPROM_ADDR, CBEAD_EE16_FACT_CAL_LEVEL, 
 608:..\..\..\..\..\WORK\1N4 Transmitter\SA-100_2339_05_1N4.cydsn/sgable.c ****                         break;
 609:..\..\..\..\..\WORK\1N4 Transmitter\SA-100_2339_05_1N4.cydsn/sgable.c ****                         case SENSOR_TYPE_ECHEM:
 610:..\..\..\..\..\WORK\1N4 Transmitter\SA-100_2339_05_1N4.cydsn/sgable.c ****                             //AT24CS01_Write_16( ECHEM_I2C_EEPROM_ADDR, ECHEM_EE16_FACT_CAL_LEVEL, 
 611:..\..\..\..\..\WORK\1N4 Transmitter\SA-100_2339_05_1N4.cydsn/sgable.c ****                         break;
 612:..\..\..\..\..\WORK\1N4 Transmitter\SA-100_2339_05_1N4.cydsn/sgable.c ****                         case SENSOR_TYPE_IR:
 613:..\..\..\..\..\WORK\1N4 Transmitter\SA-100_2339_05_1N4.cydsn/sgable.c ****                             //while( ModbusMasterWrite_f32( IR_CalibrationGasLevel, (float)Sensor.C
 614:..\..\..\..\..\WORK\1N4 Transmitter\SA-100_2339_05_1N4.cydsn/sgable.c **** //                            if( SysPingI2cSlave( IR_I2C_EEPROM_ADDR ) == 0 )
 615:..\..\..\..\..\WORK\1N4 Transmitter\SA-100_2339_05_1N4.cydsn/sgable.c **** //                            {
 616:..\..\..\..\..\WORK\1N4 Transmitter\SA-100_2339_05_1N4.cydsn/sgable.c **** //                                AT24CS01_Write_16( IR_I2C_EEPROM_ADDR, IR_EE16_FACT_CAL_LEVEL, Se
 617:..\..\..\..\..\WORK\1N4 Transmitter\SA-100_2339_05_1N4.cydsn/sgable.c **** //                            }
 618:..\..\..\..\..\WORK\1N4 Transmitter\SA-100_2339_05_1N4.cydsn/sgable.c ****                             break;
 619:..\..\..\..\..\WORK\1N4 Transmitter\SA-100_2339_05_1N4.cydsn/sgable.c ****                         default:
 620:..\..\..\..\..\WORK\1N4 Transmitter\SA-100_2339_05_1N4.cydsn/sgable.c ****                         break;
 621:..\..\..\..\..\WORK\1N4 Transmitter\SA-100_2339_05_1N4.cydsn/sgable.c ****                     }
 622:..\..\..\..\..\WORK\1N4 Transmitter\SA-100_2339_05_1N4.cydsn/sgable.c ****                 }                    
ARM GAS  C:\Users\alexport\AppData\Local\Temp\ccr3ZDs0.s 			page 36


 623:..\..\..\..\..\WORK\1N4 Transmitter\SA-100_2339_05_1N4.cydsn/sgable.c ****             }
 624:..\..\..\..\..\WORK\1N4 Transmitter\SA-100_2339_05_1N4.cydsn/sgable.c ****             /* It's our CAL LOOP Channel variable */            
 625:..\..\..\..\..\WORK\1N4 Transmitter\SA-100_2339_05_1N4.cydsn/sgable.c ****             if(wrReqParam->handleValPair.attrHandle == CYBLE_SGA1_SYS_CAL_LOOP_CHAR_HANDLE)
 626:..\..\..\..\..\WORK\1N4 Transmitter\SA-100_2339_05_1N4.cydsn/sgable.c ****             {
 627:..\..\..\..\..\WORK\1N4 Transmitter\SA-100_2339_05_1N4.cydsn/sgable.c ****                 /* Only update and respond if the write to the GATT Database is allowed */
 628:..\..\..\..\..\WORK\1N4 Transmitter\SA-100_2339_05_1N4.cydsn/sgable.c ****                 if(CYBLE_GATT_ERR_NONE == CyBle_GattsWriteAttributeValue(&wrReqParam->handleValPair
 629:..\..\..\..\..\WORK\1N4 Transmitter\SA-100_2339_05_1N4.cydsn/sgable.c ****                 {
 630:..\..\..\..\..\WORK\1N4 Transmitter\SA-100_2339_05_1N4.cydsn/sgable.c ****                     System.BleCalLoop = wrReqParam->handleValPair.value.val[1];  /* Update our loca
 631:..\..\..\..\..\WORK\1N4 Transmitter\SA-100_2339_05_1N4.cydsn/sgable.c ****                     System.BleCalLoop <<=8;
 632:..\..\..\..\..\WORK\1N4 Transmitter\SA-100_2339_05_1N4.cydsn/sgable.c ****                     System.BleCalLoop |= wrReqParam->handleValPair.value.val[0];  /* Update our loc
 633:..\..\..\..\..\WORK\1N4 Transmitter\SA-100_2339_05_1N4.cydsn/sgable.c ****                     CyBle_GattsWriteRsp(cyBle_connHandle);                      /* respond to the c
 634:..\..\..\..\..\WORK\1N4 Transmitter\SA-100_2339_05_1N4.cydsn/sgable.c ****                 }
 635:..\..\..\..\..\WORK\1N4 Transmitter\SA-100_2339_05_1N4.cydsn/sgable.c ****             }
 636:..\..\..\..\..\WORK\1N4 Transmitter\SA-100_2339_05_1N4.cydsn/sgable.c ****             /* It's our CalibrationStatus variable */            
 637:..\..\..\..\..\WORK\1N4 Transmitter\SA-100_2339_05_1N4.cydsn/sgable.c ****             if(wrReqParam->handleValPair.attrHandle == CYBLE_SGA2_CALIBRATION_STATUS_CHAR_HANDLE)
 638:..\..\..\..\..\WORK\1N4 Transmitter\SA-100_2339_05_1N4.cydsn/sgable.c ****             {
 639:..\..\..\..\..\WORK\1N4 Transmitter\SA-100_2339_05_1N4.cydsn/sgable.c ****                 /* Only update and respond if the write to the GATT Database is allowed */
 640:..\..\..\..\..\WORK\1N4 Transmitter\SA-100_2339_05_1N4.cydsn/sgable.c ****                 if(CYBLE_GATT_ERR_NONE == CyBle_GattsWriteAttributeValue(&wrReqParam->handleValPair
 641:..\..\..\..\..\WORK\1N4 Transmitter\SA-100_2339_05_1N4.cydsn/sgable.c ****                 {
 642:..\..\..\..\..\WORK\1N4 Transmitter\SA-100_2339_05_1N4.cydsn/sgable.c ****                     System.CalibrationStatus = wrReqParam->handleValPair.value.val[0];  /* Update o
 643:..\..\..\..\..\WORK\1N4 Transmitter\SA-100_2339_05_1N4.cydsn/sgable.c ****                     CyBle_GattsWriteRsp(cyBle_connHandle);                      /* respond to the c
 644:..\..\..\..\..\WORK\1N4 Transmitter\SA-100_2339_05_1N4.cydsn/sgable.c ****                 }
 645:..\..\..\..\..\WORK\1N4 Transmitter\SA-100_2339_05_1N4.cydsn/sgable.c ****             }
 646:..\..\..\..\..\WORK\1N4 Transmitter\SA-100_2339_05_1N4.cydsn/sgable.c **** 
 647:..\..\..\..\..\WORK\1N4 Transmitter\SA-100_2339_05_1N4.cydsn/sgable.c ****             /* Request for Notifications */
 648:..\..\..\..\..\WORK\1N4 Transmitter\SA-100_2339_05_1N4.cydsn/sgable.c ****             /* It's a request for notifications for our System.BleControl (SYS_REMOTE) */
 649:..\..\..\..\..\WORK\1N4 Transmitter\SA-100_2339_05_1N4.cydsn/sgable.c ****             if( wrReqParam->handleValPair.attrHandle == CYBLE_SGA1_SYS_REMOTE_CLIENT_CHARACTERISTIC
 650:..\..\..\..\..\WORK\1N4 Transmitter\SA-100_2339_05_1N4.cydsn/sgable.c ****             {
 651:..\..\..\..\..\WORK\1N4 Transmitter\SA-100_2339_05_1N4.cydsn/sgable.c ****                 CyBle_GattsWriteAttributeValue(&wrReqParam->handleValPair,0, &cyBle_connHandle, CYB
 652:..\..\..\..\..\WORK\1N4 Transmitter\SA-100_2339_05_1N4.cydsn/sgable.c ****                 System.BleNotifyControl = wrReqParam->handleValPair.value.val[0] & 0x01; /* Update 
 653:..\..\..\..\..\WORK\1N4 Transmitter\SA-100_2339_05_1N4.cydsn/sgable.c ****                 CyBle_GattsWriteRsp(cyBle_connHandle);                          /* respond to the c
 654:..\..\..\..\..\WORK\1N4 Transmitter\SA-100_2339_05_1N4.cydsn/sgable.c ****             }
 655:..\..\..\..\..\WORK\1N4 Transmitter\SA-100_2339_05_1N4.cydsn/sgable.c ****             /* It's a request for notifications for our Sensor.Reading (SYS_READING) */
 656:..\..\..\..\..\WORK\1N4 Transmitter\SA-100_2339_05_1N4.cydsn/sgable.c ****             if( wrReqParam->handleValPair.attrHandle == CYBLE_SGA1_SYS_READING_SYS_READING_CCCD_DES
 657:..\..\..\..\..\WORK\1N4 Transmitter\SA-100_2339_05_1N4.cydsn/sgable.c ****             {
 658:..\..\..\..\..\WORK\1N4 Transmitter\SA-100_2339_05_1N4.cydsn/sgable.c ****                 CyBle_GattsWriteAttributeValue(&wrReqParam->handleValPair,0, &cyBle_connHandle, CYB
 659:..\..\..\..\..\WORK\1N4 Transmitter\SA-100_2339_05_1N4.cydsn/sgable.c ****                 System.BleNotifyReading = wrReqParam->handleValPair.value.val[0] & 0x01; /* Update 
 660:..\..\..\..\..\WORK\1N4 Transmitter\SA-100_2339_05_1N4.cydsn/sgable.c ****                 CyBle_GattsWriteRsp(cyBle_connHandle);                          /* respond to the c
 661:..\..\..\..\..\WORK\1N4 Transmitter\SA-100_2339_05_1N4.cydsn/sgable.c ****             }
 662:..\..\..\..\..\WORK\1N4 Transmitter\SA-100_2339_05_1N4.cydsn/sgable.c ****             /* It's a request for notifications for our Sensor.Status (SYS_STATUS) */
 663:..\..\..\..\..\WORK\1N4 Transmitter\SA-100_2339_05_1N4.cydsn/sgable.c ****             if( wrReqParam->handleValPair.attrHandle == CYBLE_SGA1_SYS_STATUS_CLIENT_CHARACTERISTIC
 664:..\..\..\..\..\WORK\1N4 Transmitter\SA-100_2339_05_1N4.cydsn/sgable.c ****             {
 665:..\..\..\..\..\WORK\1N4 Transmitter\SA-100_2339_05_1N4.cydsn/sgable.c ****                 CyBle_GattsWriteAttributeValue(&wrReqParam->handleValPair,0, &cyBle_connHandle, CYB
 666:..\..\..\..\..\WORK\1N4 Transmitter\SA-100_2339_05_1N4.cydsn/sgable.c ****                 System.BleNotifyStatus = wrReqParam->handleValPair.value.val[0] & 0x01; /* Update l
 667:..\..\..\..\..\WORK\1N4 Transmitter\SA-100_2339_05_1N4.cydsn/sgable.c ****                 CyBle_GattsWriteRsp(cyBle_connHandle);                          /* respond to the c
 668:..\..\..\..\..\WORK\1N4 Transmitter\SA-100_2339_05_1N4.cydsn/sgable.c ****             }
 669:..\..\..\..\..\WORK\1N4 Transmitter\SA-100_2339_05_1N4.cydsn/sgable.c ****             /* It's a request for notifications for our System.AdcCounts (SYS_ADC) */
 670:..\..\..\..\..\WORK\1N4 Transmitter\SA-100_2339_05_1N4.cydsn/sgable.c ****             if( wrReqParam->handleValPair.attrHandle == CYBLE_SGA1_SYS_ADC_CLIENT_CHARACTERISTIC_CO
 671:..\..\..\..\..\WORK\1N4 Transmitter\SA-100_2339_05_1N4.cydsn/sgable.c ****             {
 672:..\..\..\..\..\WORK\1N4 Transmitter\SA-100_2339_05_1N4.cydsn/sgable.c ****                 CyBle_GattsWriteAttributeValue(&wrReqParam->handleValPair,0, &cyBle_connHandle, CYB
 673:..\..\..\..\..\WORK\1N4 Transmitter\SA-100_2339_05_1N4.cydsn/sgable.c ****                 System.BleNotifyAdcCounts = wrReqParam->handleValPair.value.val[0] & 0x01; /* Updat
 674:..\..\..\..\..\WORK\1N4 Transmitter\SA-100_2339_05_1N4.cydsn/sgable.c ****                 CyBle_GattsWriteRsp(cyBle_connHandle);                          /* respond to the c
 675:..\..\..\..\..\WORK\1N4 Transmitter\SA-100_2339_05_1N4.cydsn/sgable.c ****             }
 676:..\..\..\..\..\WORK\1N4 Transmitter\SA-100_2339_05_1N4.cydsn/sgable.c ****             /* It's a request for notifications for our Sensor.Temperature */
 677:..\..\..\..\..\WORK\1N4 Transmitter\SA-100_2339_05_1N4.cydsn/sgable.c ****             if( wrReqParam->handleValPair.attrHandle == CYBLE_SGA2_SENSOR_TEMPERATURE_CLIENT_CHARAC
 678:..\..\..\..\..\WORK\1N4 Transmitter\SA-100_2339_05_1N4.cydsn/sgable.c ****             {
 679:..\..\..\..\..\WORK\1N4 Transmitter\SA-100_2339_05_1N4.cydsn/sgable.c ****                 CyBle_GattsWriteAttributeValue(&wrReqParam->handleValPair,0, &cyBle_connHandle, CYB
ARM GAS  C:\Users\alexport\AppData\Local\Temp\ccr3ZDs0.s 			page 37


 680:..\..\..\..\..\WORK\1N4 Transmitter\SA-100_2339_05_1N4.cydsn/sgable.c ****                 System.BleNotifyTemperature = wrReqParam->handleValPair.value.val[0] & 0x01; /* Upd
 681:..\..\..\..\..\WORK\1N4 Transmitter\SA-100_2339_05_1N4.cydsn/sgable.c ****                 CyBle_GattsWriteRsp(cyBle_connHandle);                          /* respond to the c
 682:..\..\..\..\..\WORK\1N4 Transmitter\SA-100_2339_05_1N4.cydsn/sgable.c ****             }
 683:..\..\..\..\..\WORK\1N4 Transmitter\SA-100_2339_05_1N4.cydsn/sgable.c ****             /* It's a request for notifications for our Sensor.CalLevel */
 684:..\..\..\..\..\WORK\1N4 Transmitter\SA-100_2339_05_1N4.cydsn/sgable.c ****             if( wrReqParam->handleValPair.attrHandle == CYBLE_SGA2_SENSOR_CAL_LEVEL_CLIENT_CHARACTE
 685:..\..\..\..\..\WORK\1N4 Transmitter\SA-100_2339_05_1N4.cydsn/sgable.c ****             {
 686:..\..\..\..\..\WORK\1N4 Transmitter\SA-100_2339_05_1N4.cydsn/sgable.c ****                 CyBle_GattsWriteAttributeValue(&wrReqParam->handleValPair,0, &cyBle_connHandle, CYB
 687:..\..\..\..\..\WORK\1N4 Transmitter\SA-100_2339_05_1N4.cydsn/sgable.c ****                 System.BleNotifyCalLevel = wrReqParam->handleValPair.value.val[0] & 0x01; /* Update
 688:..\..\..\..\..\WORK\1N4 Transmitter\SA-100_2339_05_1N4.cydsn/sgable.c ****                 CyBle_GattsWriteRsp(cyBle_connHandle);                          /* respond to the c
 689:..\..\..\..\..\WORK\1N4 Transmitter\SA-100_2339_05_1N4.cydsn/sgable.c ****             }
 690:..\..\..\..\..\WORK\1N4 Transmitter\SA-100_2339_05_1N4.cydsn/sgable.c ****             /* It's a request for notifications for our System.CalZeroError */
 691:..\..\..\..\..\WORK\1N4 Transmitter\SA-100_2339_05_1N4.cydsn/sgable.c ****             if( wrReqParam->handleValPair.attrHandle == CYBLE_SGA2_CAL_ZERO_ERROR_CLIENT_CHARACTERI
 692:..\..\..\..\..\WORK\1N4 Transmitter\SA-100_2339_05_1N4.cydsn/sgable.c ****             {
 693:..\..\..\..\..\WORK\1N4 Transmitter\SA-100_2339_05_1N4.cydsn/sgable.c ****                 CyBle_GattsWriteAttributeValue(&wrReqParam->handleValPair,0, &cyBle_connHandle, CYB
 694:..\..\..\..\..\WORK\1N4 Transmitter\SA-100_2339_05_1N4.cydsn/sgable.c ****                 System.BleNotifyCalZeroError = wrReqParam->handleValPair.value.val[0] & 0x01; /* Up
 695:..\..\..\..\..\WORK\1N4 Transmitter\SA-100_2339_05_1N4.cydsn/sgable.c ****                 CyBle_GattsWriteRsp(cyBle_connHandle);                          /* respond to the c
 696:..\..\..\..\..\WORK\1N4 Transmitter\SA-100_2339_05_1N4.cydsn/sgable.c ****             }
 697:..\..\..\..\..\WORK\1N4 Transmitter\SA-100_2339_05_1N4.cydsn/sgable.c ****             /* It's a request for notifications for our System.CalStep */
 698:..\..\..\..\..\WORK\1N4 Transmitter\SA-100_2339_05_1N4.cydsn/sgable.c ****             if( wrReqParam->handleValPair.attrHandle == CYBLE_SGA2_CAL_STEP_CLIENT_CHARACTERISTIC_C
 699:..\..\..\..\..\WORK\1N4 Transmitter\SA-100_2339_05_1N4.cydsn/sgable.c ****             {
 700:..\..\..\..\..\WORK\1N4 Transmitter\SA-100_2339_05_1N4.cydsn/sgable.c ****                 CyBle_GattsWriteAttributeValue(&wrReqParam->handleValPair,0, &cyBle_connHandle, CYB
 701:..\..\..\..\..\WORK\1N4 Transmitter\SA-100_2339_05_1N4.cydsn/sgable.c ****                 System.BleNotifyCalStep = wrReqParam->handleValPair.value.val[0] & 0x01; /* Update 
 702:..\..\..\..\..\WORK\1N4 Transmitter\SA-100_2339_05_1N4.cydsn/sgable.c ****                 CyBle_GattsWriteRsp(cyBle_connHandle);                          /* respond to the c
 703:..\..\..\..\..\WORK\1N4 Transmitter\SA-100_2339_05_1N4.cydsn/sgable.c ****             }
 704:..\..\..\..\..\WORK\1N4 Transmitter\SA-100_2339_05_1N4.cydsn/sgable.c ****             /* It's a request for notifications for our System.CalSpeed */
 705:..\..\..\..\..\WORK\1N4 Transmitter\SA-100_2339_05_1N4.cydsn/sgable.c ****             if( wrReqParam->handleValPair.attrHandle == CYBLE_SGA2_CAL_SPEED_CLIENT_CHARACTERISTIC_
 706:..\..\..\..\..\WORK\1N4 Transmitter\SA-100_2339_05_1N4.cydsn/sgable.c ****             {
 707:..\..\..\..\..\WORK\1N4 Transmitter\SA-100_2339_05_1N4.cydsn/sgable.c ****                 CyBle_GattsWriteAttributeValue(&wrReqParam->handleValPair,0, &cyBle_connHandle, CYB
 708:..\..\..\..\..\WORK\1N4 Transmitter\SA-100_2339_05_1N4.cydsn/sgable.c ****                 System.BleNotifyCalSpeed = wrReqParam->handleValPair.value.val[0] & 0x01; /* Update
 709:..\..\..\..\..\WORK\1N4 Transmitter\SA-100_2339_05_1N4.cydsn/sgable.c ****                 CyBle_GattsWriteRsp(cyBle_connHandle);                          /* respond to the c
 710:..\..\..\..\..\WORK\1N4 Transmitter\SA-100_2339_05_1N4.cydsn/sgable.c ****             }
 711:..\..\..\..\..\WORK\1N4 Transmitter\SA-100_2339_05_1N4.cydsn/sgable.c ****             /* It's a request for notifications for our System.CalAsFound */
 712:..\..\..\..\..\WORK\1N4 Transmitter\SA-100_2339_05_1N4.cydsn/sgable.c ****             if( wrReqParam->handleValPair.attrHandle == CYBLE_SGA2_CAL_AS_FOUND_CLIENT_CHARACTERIST
 713:..\..\..\..\..\WORK\1N4 Transmitter\SA-100_2339_05_1N4.cydsn/sgable.c ****             {
 714:..\..\..\..\..\WORK\1N4 Transmitter\SA-100_2339_05_1N4.cydsn/sgable.c ****                 CyBle_GattsWriteAttributeValue(&wrReqParam->handleValPair,0, &cyBle_connHandle, CYB
 715:..\..\..\..\..\WORK\1N4 Transmitter\SA-100_2339_05_1N4.cydsn/sgable.c ****                 System.BleNotifyCalAsFound = wrReqParam->handleValPair.value.val[0] & 0x01; /* Upda
 716:..\..\..\..\..\WORK\1N4 Transmitter\SA-100_2339_05_1N4.cydsn/sgable.c ****                 CyBle_GattsWriteRsp(cyBle_connHandle);                          /* respond to the c
 717:..\..\..\..\..\WORK\1N4 Transmitter\SA-100_2339_05_1N4.cydsn/sgable.c ****             }
 718:..\..\..\..\..\WORK\1N4 Transmitter\SA-100_2339_05_1N4.cydsn/sgable.c ****             /* It's a request for notifications for our System.CalAdjusted */
 719:..\..\..\..\..\WORK\1N4 Transmitter\SA-100_2339_05_1N4.cydsn/sgable.c ****             if( wrReqParam->handleValPair.attrHandle == CYBLE_SGA2_CAL_ADJUSTED_CLIENT_CHARACTERIST
 720:..\..\..\..\..\WORK\1N4 Transmitter\SA-100_2339_05_1N4.cydsn/sgable.c ****             {
 721:..\..\..\..\..\WORK\1N4 Transmitter\SA-100_2339_05_1N4.cydsn/sgable.c ****                 CyBle_GattsWriteAttributeValue(&wrReqParam->handleValPair,0, &cyBle_connHandle, CYB
 722:..\..\..\..\..\WORK\1N4 Transmitter\SA-100_2339_05_1N4.cydsn/sgable.c ****                 System.BleNotifyCalAdjusted = wrReqParam->handleValPair.value.val[0] & 0x01; /* Upd
 723:..\..\..\..\..\WORK\1N4 Transmitter\SA-100_2339_05_1N4.cydsn/sgable.c ****                 CyBle_GattsWriteRsp(cyBle_connHandle);                          /* respond to the c
 724:..\..\..\..\..\WORK\1N4 Transmitter\SA-100_2339_05_1N4.cydsn/sgable.c ****             }
 725:..\..\..\..\..\WORK\1N4 Transmitter\SA-100_2339_05_1N4.cydsn/sgable.c ****             /* It's a request for notifications for our Sensor.Life */
 726:..\..\..\..\..\WORK\1N4 Transmitter\SA-100_2339_05_1N4.cydsn/sgable.c ****             if( wrReqParam->handleValPair.attrHandle == CYBLE_SGA2_SENSOR_LIFE_CLIENT_CHARACTERISTI
 727:..\..\..\..\..\WORK\1N4 Transmitter\SA-100_2339_05_1N4.cydsn/sgable.c ****             {
 728:..\..\..\..\..\WORK\1N4 Transmitter\SA-100_2339_05_1N4.cydsn/sgable.c ****                 CyBle_GattsWriteAttributeValue(&wrReqParam->handleValPair,0, &cyBle_connHandle, CYB
 729:..\..\..\..\..\WORK\1N4 Transmitter\SA-100_2339_05_1N4.cydsn/sgable.c ****                 System.BleNotifyLife = wrReqParam->handleValPair.value.val[0] & 0x01; /* Update loc
 730:..\..\..\..\..\WORK\1N4 Transmitter\SA-100_2339_05_1N4.cydsn/sgable.c ****                 CyBle_GattsWriteRsp(cyBle_connHandle);                          /* respond to the c
 731:..\..\..\..\..\WORK\1N4 Transmitter\SA-100_2339_05_1N4.cydsn/sgable.c ****             }
 732:..\..\..\..\..\WORK\1N4 Transmitter\SA-100_2339_05_1N4.cydsn/sgable.c ****             /* It's a request for notifications for our Sensor.CalClearing */
 733:..\..\..\..\..\WORK\1N4 Transmitter\SA-100_2339_05_1N4.cydsn/sgable.c ****             if( wrReqParam->handleValPair.attrHandle == CYBLE_SGA2_CAL_CLEARING_CLIENT_CHARACTERIST
 734:..\..\..\..\..\WORK\1N4 Transmitter\SA-100_2339_05_1N4.cydsn/sgable.c ****             {
 735:..\..\..\..\..\WORK\1N4 Transmitter\SA-100_2339_05_1N4.cydsn/sgable.c ****                 CyBle_GattsWriteAttributeValue(&wrReqParam->handleValPair,0, &cyBle_connHandle, CYB
 736:..\..\..\..\..\WORK\1N4 Transmitter\SA-100_2339_05_1N4.cydsn/sgable.c ****                 System.BleNotifyCalClearing = wrReqParam->handleValPair.value.val[0] & 0x01; /* Upd
ARM GAS  C:\Users\alexport\AppData\Local\Temp\ccr3ZDs0.s 			page 38


 737:..\..\..\..\..\WORK\1N4 Transmitter\SA-100_2339_05_1N4.cydsn/sgable.c ****                 CyBle_GattsWriteRsp(cyBle_connHandle);                          /* respond to the c
 738:..\..\..\..\..\WORK\1N4 Transmitter\SA-100_2339_05_1N4.cydsn/sgable.c ****             }
 739:..\..\..\..\..\WORK\1N4 Transmitter\SA-100_2339_05_1N4.cydsn/sgable.c ****             /* It's a request for notifications for our System.CalSpanError */
 740:..\..\..\..\..\WORK\1N4 Transmitter\SA-100_2339_05_1N4.cydsn/sgable.c ****             if( wrReqParam->handleValPair.attrHandle == CYBLE_SGA2_CAL_SPAN_ERROR_CLIENT_CHARACTERI
 741:..\..\..\..\..\WORK\1N4 Transmitter\SA-100_2339_05_1N4.cydsn/sgable.c ****             {
 742:..\..\..\..\..\WORK\1N4 Transmitter\SA-100_2339_05_1N4.cydsn/sgable.c ****                 CyBle_GattsWriteAttributeValue(&wrReqParam->handleValPair,0, &cyBle_connHandle, CYB
 743:..\..\..\..\..\WORK\1N4 Transmitter\SA-100_2339_05_1N4.cydsn/sgable.c ****                 System.BleNotifyCalSpanError = wrReqParam->handleValPair.value.val[0] & 0x01; /* Up
 744:..\..\..\..\..\WORK\1N4 Transmitter\SA-100_2339_05_1N4.cydsn/sgable.c ****                 CyBle_GattsWriteRsp(cyBle_connHandle);                          /* respond to the c
 745:..\..\..\..\..\WORK\1N4 Transmitter\SA-100_2339_05_1N4.cydsn/sgable.c ****             }
 746:..\..\..\..\..\WORK\1N4 Transmitter\SA-100_2339_05_1N4.cydsn/sgable.c ****             /* It's a request for notifications for our System.CalibrationStatus */
 747:..\..\..\..\..\WORK\1N4 Transmitter\SA-100_2339_05_1N4.cydsn/sgable.c ****             if( wrReqParam->handleValPair.attrHandle == CYBLE_SGA2_CALIBRATION_STATUS_CLIENT_CHARAC
 748:..\..\..\..\..\WORK\1N4 Transmitter\SA-100_2339_05_1N4.cydsn/sgable.c ****             {
 749:..\..\..\..\..\WORK\1N4 Transmitter\SA-100_2339_05_1N4.cydsn/sgable.c ****                 CyBle_GattsWriteAttributeValue(&wrReqParam->handleValPair,0, &cyBle_connHandle, CYB
 750:..\..\..\..\..\WORK\1N4 Transmitter\SA-100_2339_05_1N4.cydsn/sgable.c ****                 System.BleNotifyCalibrationStatus = wrReqParam->handleValPair.value.val[0] & 0x01; 
 751:..\..\..\..\..\WORK\1N4 Transmitter\SA-100_2339_05_1N4.cydsn/sgable.c ****                 CyBle_GattsWriteRsp(cyBle_connHandle);                          /* respond to the c
 752:..\..\..\..\..\WORK\1N4 Transmitter\SA-100_2339_05_1N4.cydsn/sgable.c ****             }
 753:..\..\..\..\..\WORK\1N4 Transmitter\SA-100_2339_05_1N4.cydsn/sgable.c ****             /* It's a request for notifications for our Sensor.ReadingScaled */
 754:..\..\..\..\..\WORK\1N4 Transmitter\SA-100_2339_05_1N4.cydsn/sgable.c ****             if( wrReqParam->handleValPair.attrHandle == CYBLE_SGA2_READING_SCALED_CLIENT_CHARACTERI
 755:..\..\..\..\..\WORK\1N4 Transmitter\SA-100_2339_05_1N4.cydsn/sgable.c ****             {
 756:..\..\..\..\..\WORK\1N4 Transmitter\SA-100_2339_05_1N4.cydsn/sgable.c ****                 CyBle_GattsWriteAttributeValue(&wrReqParam->handleValPair,0, &cyBle_connHandle, CYB
 757:..\..\..\..\..\WORK\1N4 Transmitter\SA-100_2339_05_1N4.cydsn/sgable.c ****                 System.BleNotifyReadingScaled = wrReqParam->handleValPair.value.val[0] & 0x01; /* U
 758:..\..\..\..\..\WORK\1N4 Transmitter\SA-100_2339_05_1N4.cydsn/sgable.c ****                 CyBle_GattsWriteRsp(cyBle_connHandle);                          /* respond to the c
 759:..\..\..\..\..\WORK\1N4 Transmitter\SA-100_2339_05_1N4.cydsn/sgable.c ****             }
 760:..\..\..\..\..\WORK\1N4 Transmitter\SA-100_2339_05_1N4.cydsn/sgable.c ****             /* It's a request for notifications for our System.AlertStatus */
 761:..\..\..\..\..\WORK\1N4 Transmitter\SA-100_2339_05_1N4.cydsn/sgable.c ****             if( wrReqParam->handleValPair.attrHandle == CYBLE_SGA2_ALERT_STATUS_CLIENT_CHARACTERIST
 762:..\..\..\..\..\WORK\1N4 Transmitter\SA-100_2339_05_1N4.cydsn/sgable.c ****             {
 763:..\..\..\..\..\WORK\1N4 Transmitter\SA-100_2339_05_1N4.cydsn/sgable.c ****                 CyBle_GattsWriteAttributeValue(&wrReqParam->handleValPair,0, &cyBle_connHandle, CYB
 764:..\..\..\..\..\WORK\1N4 Transmitter\SA-100_2339_05_1N4.cydsn/sgable.c ****                 System.BleNotifyAlertStatus = wrReqParam->handleValPair.value.val[0] & 0x01; /* Upd
 765:..\..\..\..\..\WORK\1N4 Transmitter\SA-100_2339_05_1N4.cydsn/sgable.c ****                 CyBle_GattsWriteRsp(cyBle_connHandle);                          /* respond to the c
 766:..\..\..\..\..\WORK\1N4 Transmitter\SA-100_2339_05_1N4.cydsn/sgable.c ****             }
 767:..\..\..\..\..\WORK\1N4 Transmitter\SA-100_2339_05_1N4.cydsn/sgable.c ****             break;
 768:..\..\..\..\..\WORK\1N4 Transmitter\SA-100_2339_05_1N4.cydsn/sgable.c ****         default:
 769:..\..\..\..\..\WORK\1N4 Transmitter\SA-100_2339_05_1N4.cydsn/sgable.c ****             break;
 1373              		.loc 1 769 0
 1374 0016 00F0FDFC 		bl	.L40	@ far jump
 1375              	.L35:
 378:..\..\..\..\..\WORK\1N4 Transmitter\SA-100_2339_05_1N4.cydsn/sgable.c ****     {
 1376              		.loc 1 378 0
 1377 001a 412B     		cmp	r3, #65
 1378 001c 1DD0     		beq	.L37
 1379 001e 4C2B     		cmp	r3, #76
 1380 0020 1FD0     		beq	.L38
 1381              		.loc 1 769 0
 1382 0022 00F0F7FC 		bl	.L40	@ far jump
 1383              	.L36:
 383:..\..\..\..\..\WORK\1N4 Transmitter\SA-100_2339_05_1N4.cydsn/sgable.c ****             CPS_Write(1);
 1384              		.loc 1 383 0
 1385 0026 0120     		movs	r0, #1
 1386 0028 FFF7FEFF 		bl	CSD_Write
 384:..\..\..\..\..\WORK\1N4 Transmitter\SA-100_2339_05_1N4.cydsn/sgable.c ****             /* Configure the Link Layer to automatically switch PA control pin P3[2] and LNA contro
 1387              		.loc 1 384 0
 1388 002c 0120     		movs	r0, #1
 1389 002e FFF7FEFF 		bl	CPS_Write
 386:..\..\..\..\..\WORK\1N4 Transmitter\SA-100_2339_05_1N4.cydsn/sgable.c ****             CY_SET_XTND_REG32((void CYFAR *)(CYREG_SRSS_TST_DDFT_CTRL), 0x80000302);
 1390              		.loc 1 386 0
 1391 0032 C74B     		ldr	r3, .L111
 1392 0034 C74A     		ldr	r2, .L111+4
ARM GAS  C:\Users\alexport\AppData\Local\Temp\ccr3ZDs0.s 			page 39


 1393 0036 1A60     		str	r2, [r3]
 387:..\..\..\..\..\WORK\1N4 Transmitter\SA-100_2339_05_1N4.cydsn/sgable.c ****         case CYBLE_EVT_GAP_DEVICE_DISCONNECTED:                                 /* Handle BLE disco
 1394              		.loc 1 387 0
 1395 0038 C74B     		ldr	r3, .L111+8
 1396 003a C84A     		ldr	r2, .L111+12
 1397 003c 1A60     		str	r2, [r3]
 1398              	.L34:
 389:..\..\..\..\..\WORK\1N4 Transmitter\SA-100_2339_05_1N4.cydsn/sgable.c ****             if( System.BleInAuxCalState == TRUE ) System.BleControl = 0;        /* In loop cal or o
 1399              		.loc 1 389 0
 1400 003e 0020     		movs	r0, #0
 1401 0040 FFF7FEFF 		bl	CyBle_GappStartAdvertisement
 390:..\..\..\..\..\WORK\1N4 Transmitter\SA-100_2339_05_1N4.cydsn/sgable.c ****             break;
 1402              		.loc 1 390 0
 1403 0044 C64B     		ldr	r3, .L111+16
 1404 0046 DB7C     		ldrb	r3, [r3, #19]
 1405 0048 012B     		cmp	r3, #1
 1406 004a 01D0     		beq	.LCB1164
 1407 004c 00F0DFFC 		bl	.L94	@far jump
 1408              	.LCB1164:
 390:..\..\..\..\..\WORK\1N4 Transmitter\SA-100_2339_05_1N4.cydsn/sgable.c ****             break;
 1409              		.loc 1 390 0 is_stmt 0 discriminator 1
 1410 0050 C34B     		ldr	r3, .L111+16
 1411 0052 0022     		movs	r2, #0
 1412 0054 1A70     		strb	r2, [r3]
 391:..\..\..\..\..\WORK\1N4 Transmitter\SA-100_2339_05_1N4.cydsn/sgable.c ****         case CYBLE_EVT_GATT_CONNECT_IND:                                        /* Handle BLE conne
 1413              		.loc 1 391 0 is_stmt 1 discriminator 1
 1414 0056 00F0DAFC 		bl	.L94	@ far jump
 1415              	.L37:
 393:..\..\..\..\..\WORK\1N4 Transmitter\SA-100_2339_05_1N4.cydsn/sgable.c ****             break;
 1416              		.loc 1 393 0
 1417 005a FFF7FEFF 		bl	updateOurBleData
 394:..\..\..\..\..\WORK\1N4 Transmitter\SA-100_2339_05_1N4.cydsn/sgable.c ****         case CYBLE_EVT_GATTS_WRITE_REQ:                                           /* Handle a write
 1418              		.loc 1 394 0
 1419 005e 00F0D9FC 		bl	.L40	@ far jump
 1420              	.L38:
 396:..\..\..\..\..\WORK\1N4 Transmitter\SA-100_2339_05_1N4.cydsn/sgable.c **** 
 1421              		.loc 1 396 0
 1422 0062 3B68     		ldr	r3, [r7]
 1423 0064 BB60     		str	r3, [r7, #8]
 400:..\..\..\..\..\WORK\1N4 Transmitter\SA-100_2339_05_1N4.cydsn/sgable.c ****             {
 1424              		.loc 1 400 0
 1425 0066 BB68     		ldr	r3, [r7, #8]
 1426 0068 9B89     		ldrh	r3, [r3, #12]
 1427 006a 122B     		cmp	r3, #18
 1428 006c 1BD1     		bne	.L41
 403:..\..\..\..\..\WORK\1N4 Transmitter\SA-100_2339_05_1N4.cydsn/sgable.c ****                 {
 1429              		.loc 1 403 0
 1430 006e BB68     		ldr	r3, [r7, #8]
 1431 0070 181D     		adds	r0, r3, #4
 1432 0072 BC4A     		ldr	r2, .L111+20
 1433 0074 4023     		movs	r3, #64
 1434 0076 0021     		movs	r1, #0
 1435 0078 FFF7FEFF 		bl	CyBle_GattsWriteAttributeValue
 1436 007c 031E     		subs	r3, r0, #0
 1437 007e 12D1     		bne	.L41
 405:..\..\..\..\..\WORK\1N4 Transmitter\SA-100_2339_05_1N4.cydsn/sgable.c ****                     CyBle_GattsWriteRsp(cyBle_connHandle);                      /* respond to the c
 1438              		.loc 1 405 0
ARM GAS  C:\Users\alexport\AppData\Local\Temp\ccr3ZDs0.s 			page 40


 1439 0080 BB68     		ldr	r3, [r7, #8]
 1440 0082 5B68     		ldr	r3, [r3, #4]
 1441 0084 1A78     		ldrb	r2, [r3]
 1442 0086 B64B     		ldr	r3, .L111+16
 1443 0088 1A70     		strb	r2, [r3]
 406:..\..\..\..\..\WORK\1N4 Transmitter\SA-100_2339_05_1N4.cydsn/sgable.c ****                 }
 1444              		.loc 1 406 0
 1445 008a B64B     		ldr	r3, .L111+20
 1446 008c 1A78     		ldrb	r2, [r3]
 1447 008e 5B78     		ldrb	r3, [r3, #1]
 1448 0090 1B02     		lsls	r3, r3, #8
 1449 0092 1A43     		orrs	r2, r3
 1450 0094 0023     		movs	r3, #0
 1451 0096 1204     		lsls	r2, r2, #16
 1452 0098 120C     		lsrs	r2, r2, #16
 1453 009a 1B0C     		lsrs	r3, r3, #16
 1454 009c 1B04     		lsls	r3, r3, #16
 1455 009e 1343     		orrs	r3, r2
 1456 00a0 1800     		movs	r0, r3
 1457 00a2 FFF7FEFF 		bl	CyBle_GattsWriteRsp
 1458              	.L41:
 410:..\..\..\..\..\WORK\1N4 Transmitter\SA-100_2339_05_1N4.cydsn/sgable.c ****             {
 1459              		.loc 1 410 0
 1460 00a6 BB68     		ldr	r3, [r7, #8]
 1461 00a8 9B89     		ldrh	r3, [r3, #12]
 1462 00aa 212B     		cmp	r3, #33
 1463 00ac 1CD1     		bne	.L42
 413:..\..\..\..\..\WORK\1N4 Transmitter\SA-100_2339_05_1N4.cydsn/sgable.c ****                 {
 1464              		.loc 1 413 0
 1465 00ae BB68     		ldr	r3, [r7, #8]
 1466 00b0 181D     		adds	r0, r3, #4
 1467 00b2 AC4A     		ldr	r2, .L111+20
 1468 00b4 4023     		movs	r3, #64
 1469 00b6 0021     		movs	r1, #0
 1470 00b8 FFF7FEFF 		bl	CyBle_GattsWriteAttributeValue
 1471 00bc 031E     		subs	r3, r0, #0
 1472 00be 13D1     		bne	.L42
 415:..\..\..\..\..\WORK\1N4 Transmitter\SA-100_2339_05_1N4.cydsn/sgable.c ****                     CyBle_GattsWriteRsp(cyBle_connHandle);                      /* respond to the c
 1473              		.loc 1 415 0
 1474 00c0 BB68     		ldr	r3, [r7, #8]
 1475 00c2 5B68     		ldr	r3, [r3, #4]
 1476 00c4 1978     		ldrb	r1, [r3]
 1477 00c6 A64B     		ldr	r3, .L111+16
 1478 00c8 8022     		movs	r2, #128
 1479 00ca 9954     		strb	r1, [r3, r2]
 416:..\..\..\..\..\WORK\1N4 Transmitter\SA-100_2339_05_1N4.cydsn/sgable.c ****                     //FM24VN10_Write_8( SYS_I2C_FRAM_ADDR_B0, SYS_EE8_CAN_NODE_ID, System.CanNodeId
 1480              		.loc 1 416 0
 1481 00cc A54B     		ldr	r3, .L111+20
 1482 00ce 1A78     		ldrb	r2, [r3]
 1483 00d0 5B78     		ldrb	r3, [r3, #1]
 1484 00d2 1B02     		lsls	r3, r3, #8
 1485 00d4 1A43     		orrs	r2, r3
 1486 00d6 0023     		movs	r3, #0
 1487 00d8 1204     		lsls	r2, r2, #16
 1488 00da 120C     		lsrs	r2, r2, #16
 1489 00dc 1B0C     		lsrs	r3, r3, #16
 1490 00de 1B04     		lsls	r3, r3, #16
ARM GAS  C:\Users\alexport\AppData\Local\Temp\ccr3ZDs0.s 			page 41


 1491 00e0 1343     		orrs	r3, r2
 1492 00e2 1800     		movs	r0, r3
 1493 00e4 FFF7FEFF 		bl	CyBle_GattsWriteRsp
 1494              	.L42:
 424:..\..\..\..\..\WORK\1N4 Transmitter\SA-100_2339_05_1N4.cydsn/sgable.c ****             {
 1495              		.loc 1 424 0
 1496 00e8 BB68     		ldr	r3, [r7, #8]
 1497 00ea 9B89     		ldrh	r3, [r3, #12]
 1498 00ec 1E2B     		cmp	r3, #30
 1499 00ee 1CD1     		bne	.L43
 427:..\..\..\..\..\WORK\1N4 Transmitter\SA-100_2339_05_1N4.cydsn/sgable.c ****                 {
 1500              		.loc 1 427 0
 1501 00f0 BB68     		ldr	r3, [r7, #8]
 1502 00f2 181D     		adds	r0, r3, #4
 1503 00f4 9B4A     		ldr	r2, .L111+20
 1504 00f6 4023     		movs	r3, #64
 1505 00f8 0021     		movs	r1, #0
 1506 00fa FFF7FEFF 		bl	CyBle_GattsWriteAttributeValue
 1507 00fe 031E     		subs	r3, r0, #0
 1508 0100 13D1     		bne	.L43
 429:..\..\..\..\..\WORK\1N4 Transmitter\SA-100_2339_05_1N4.cydsn/sgable.c ****                     CyBle_GattsWriteRsp(cyBle_connHandle);                      /* respond to the c
 1509              		.loc 1 429 0
 1510 0102 BB68     		ldr	r3, [r7, #8]
 1511 0104 5B68     		ldr	r3, [r3, #4]
 1512 0106 1978     		ldrb	r1, [r3]
 1513 0108 954B     		ldr	r3, .L111+16
 1514 010a 8122     		movs	r2, #129
 1515 010c 9954     		strb	r1, [r3, r2]
 430:..\..\..\..\..\WORK\1N4 Transmitter\SA-100_2339_05_1N4.cydsn/sgable.c ****                     //FM24VN10_Write_8( SYS_I2C_FRAM_ADDR_B0, SYS_EE8_CAN_CHANNEL, System.CanChanne
 1516              		.loc 1 430 0
 1517 010e 954B     		ldr	r3, .L111+20
 1518 0110 1A78     		ldrb	r2, [r3]
 1519 0112 5B78     		ldrb	r3, [r3, #1]
 1520 0114 1B02     		lsls	r3, r3, #8
 1521 0116 1A43     		orrs	r2, r3
 1522 0118 0023     		movs	r3, #0
 1523 011a 1204     		lsls	r2, r2, #16
 1524 011c 120C     		lsrs	r2, r2, #16
 1525 011e 1B0C     		lsrs	r3, r3, #16
 1526 0120 1B04     		lsls	r3, r3, #16
 1527 0122 1343     		orrs	r3, r2
 1528 0124 1800     		movs	r0, r3
 1529 0126 FFF7FEFF 		bl	CyBle_GattsWriteRsp
 1530              	.L43:
 438:..\..\..\..\..\WORK\1N4 Transmitter\SA-100_2339_05_1N4.cydsn/sgable.c ****             {
 1531              		.loc 1 438 0
 1532 012a BB68     		ldr	r3, [r7, #8]
 1533 012c 9B89     		ldrh	r3, [r3, #12]
 1534 012e 2B2B     		cmp	r3, #43
 1535 0130 40D1     		bne	.L44
 441:..\..\..\..\..\WORK\1N4 Transmitter\SA-100_2339_05_1N4.cydsn/sgable.c ****                 {
 1536              		.loc 1 441 0
 1537 0132 BB68     		ldr	r3, [r7, #8]
 1538 0134 181D     		adds	r0, r3, #4
 1539 0136 8B4A     		ldr	r2, .L111+20
 1540 0138 4023     		movs	r3, #64
 1541 013a 0021     		movs	r1, #0
ARM GAS  C:\Users\alexport\AppData\Local\Temp\ccr3ZDs0.s 			page 42


 1542 013c FFF7FEFF 		bl	CyBle_GattsWriteAttributeValue
 1543 0140 031E     		subs	r3, r0, #0
 1544 0142 37D1     		bne	.L44
 443:..\..\..\..\..\WORK\1N4 Transmitter\SA-100_2339_05_1N4.cydsn/sgable.c ****                     Sensor.Alert1 <<=8;
 1545              		.loc 1 443 0
 1546 0144 BB68     		ldr	r3, [r7, #8]
 1547 0146 5B68     		ldr	r3, [r3, #4]
 1548 0148 0133     		adds	r3, r3, #1
 1549 014a 1B78     		ldrb	r3, [r3]
 1550 014c 99B2     		uxth	r1, r3
 1551 014e 864B     		ldr	r3, .L111+24
 1552 0150 5822     		movs	r2, #88
 1553 0152 9952     		strh	r1, [r3, r2]
 444:..\..\..\..\..\WORK\1N4 Transmitter\SA-100_2339_05_1N4.cydsn/sgable.c ****                     Sensor.Alert1 |= wrReqParam->handleValPair.value.val[0];  /* Update our local c
 1554              		.loc 1 444 0
 1555 0154 844B     		ldr	r3, .L111+24
 1556 0156 5822     		movs	r2, #88
 1557 0158 9B5A     		ldrh	r3, [r3, r2]
 1558 015a 1B02     		lsls	r3, r3, #8
 1559 015c 99B2     		uxth	r1, r3
 1560 015e 824B     		ldr	r3, .L111+24
 1561 0160 5822     		movs	r2, #88
 1562 0162 9952     		strh	r1, [r3, r2]
 445:..\..\..\..\..\WORK\1N4 Transmitter\SA-100_2339_05_1N4.cydsn/sgable.c ****                     CyBle_GattsWriteRsp(cyBle_connHandle);                      /* respond to the c
 1563              		.loc 1 445 0
 1564 0164 804B     		ldr	r3, .L111+24
 1565 0166 5822     		movs	r2, #88
 1566 0168 9A5A     		ldrh	r2, [r3, r2]
 1567 016a BB68     		ldr	r3, [r7, #8]
 1568 016c 5B68     		ldr	r3, [r3, #4]
 1569 016e 1B78     		ldrb	r3, [r3]
 1570 0170 9BB2     		uxth	r3, r3
 1571 0172 1343     		orrs	r3, r2
 1572 0174 99B2     		uxth	r1, r3
 1573 0176 7C4B     		ldr	r3, .L111+24
 1574 0178 5822     		movs	r2, #88
 1575 017a 9952     		strh	r1, [r3, r2]
 446:..\..\..\..\..\WORK\1N4 Transmitter\SA-100_2339_05_1N4.cydsn/sgable.c ****                     //if( SA100_I2C_INSTALLED ) SA100I2C_Write_8( SA100_CEC_I2C_ADDR, SA100_I2C_Ale
 1576              		.loc 1 446 0
 1577 017c 794B     		ldr	r3, .L111+20
 1578 017e 1A78     		ldrb	r2, [r3]
 1579 0180 5B78     		ldrb	r3, [r3, #1]
 1580 0182 1B02     		lsls	r3, r3, #8
 1581 0184 1A43     		orrs	r2, r3
 1582 0186 0023     		movs	r3, #0
 1583 0188 1204     		lsls	r2, r2, #16
 1584 018a 120C     		lsrs	r2, r2, #16
 1585 018c 1B0C     		lsrs	r3, r3, #16
 1586 018e 1B04     		lsls	r3, r3, #16
 1587 0190 1343     		orrs	r3, r2
 1588 0192 1800     		movs	r0, r3
 1589 0194 FFF7FEFF 		bl	CyBle_GattsWriteRsp
 449:..\..\..\..\..\WORK\1N4 Transmitter\SA-100_2339_05_1N4.cydsn/sgable.c ****                     {
 1590              		.loc 1 449 0
 1591 0198 734B     		ldr	r3, .L111+24
 1592 019a 9B7B     		ldrb	r3, [r3, #14]
 1593 019c 022B     		cmp	r3, #2
ARM GAS  C:\Users\alexport\AppData\Local\Temp\ccr3ZDs0.s 			page 43


 1594 019e 04D0     		beq	.L95
 1595 01a0 032B     		cmp	r3, #3
 1596 01a2 04D0     		beq	.L96
 1597 01a4 012B     		cmp	r3, #1
 1598 01a6 04D0     		beq	.L97
 464:..\..\..\..\..\WORK\1N4 Transmitter\SA-100_2339_05_1N4.cydsn/sgable.c ****                     }
 1599              		.loc 1 464 0
 1600 01a8 04E0     		b	.L44
 1601              	.L95:
 456:..\..\..\..\..\WORK\1N4 Transmitter\SA-100_2339_05_1N4.cydsn/sgable.c ****                         case SENSOR_TYPE_IR:
 1602              		.loc 1 456 0
 1603 01aa C046     		nop
 1604 01ac 02E0     		b	.L44
 1605              	.L96:
 462:..\..\..\..\..\WORK\1N4 Transmitter\SA-100_2339_05_1N4.cydsn/sgable.c ****                         default:
 1606              		.loc 1 462 0
 1607 01ae C046     		nop
 1608 01b0 00E0     		b	.L44
 1609              	.L97:
 453:..\..\..\..\..\WORK\1N4 Transmitter\SA-100_2339_05_1N4.cydsn/sgable.c ****                         case SENSOR_TYPE_ECHEM:
 1610              		.loc 1 453 0
 1611 01b2 C046     		nop
 1612              	.L44:
 469:..\..\..\..\..\WORK\1N4 Transmitter\SA-100_2339_05_1N4.cydsn/sgable.c ****             {
 1613              		.loc 1 469 0
 1614 01b4 BB68     		ldr	r3, [r7, #8]
 1615 01b6 9B89     		ldrh	r3, [r3, #12]
 1616 01b8 2E2B     		cmp	r3, #46
 1617 01ba 40D1     		bne	.L49
 472:..\..\..\..\..\WORK\1N4 Transmitter\SA-100_2339_05_1N4.cydsn/sgable.c ****                 {
 1618              		.loc 1 472 0
 1619 01bc BB68     		ldr	r3, [r7, #8]
 1620 01be 181D     		adds	r0, r3, #4
 1621 01c0 684A     		ldr	r2, .L111+20
 1622 01c2 4023     		movs	r3, #64
 1623 01c4 0021     		movs	r1, #0
 1624 01c6 FFF7FEFF 		bl	CyBle_GattsWriteAttributeValue
 1625 01ca 031E     		subs	r3, r0, #0
 1626 01cc 37D1     		bne	.L49
 474:..\..\..\..\..\WORK\1N4 Transmitter\SA-100_2339_05_1N4.cydsn/sgable.c ****                     Sensor.Alert2 <<=8;
 1627              		.loc 1 474 0
 1628 01ce BB68     		ldr	r3, [r7, #8]
 1629 01d0 5B68     		ldr	r3, [r3, #4]
 1630 01d2 0133     		adds	r3, r3, #1
 1631 01d4 1B78     		ldrb	r3, [r3]
 1632 01d6 99B2     		uxth	r1, r3
 1633 01d8 634B     		ldr	r3, .L111+24
 1634 01da 5A22     		movs	r2, #90
 1635 01dc 9952     		strh	r1, [r3, r2]
 475:..\..\..\..\..\WORK\1N4 Transmitter\SA-100_2339_05_1N4.cydsn/sgable.c ****                     Sensor.Alert2 |= wrReqParam->handleValPair.value.val[0];  /* Update our local c
 1636              		.loc 1 475 0
 1637 01de 624B     		ldr	r3, .L111+24
 1638 01e0 5A22     		movs	r2, #90
 1639 01e2 9B5A     		ldrh	r3, [r3, r2]
 1640 01e4 1B02     		lsls	r3, r3, #8
 1641 01e6 99B2     		uxth	r1, r3
 1642 01e8 5F4B     		ldr	r3, .L111+24
ARM GAS  C:\Users\alexport\AppData\Local\Temp\ccr3ZDs0.s 			page 44


 1643 01ea 5A22     		movs	r2, #90
 1644 01ec 9952     		strh	r1, [r3, r2]
 476:..\..\..\..\..\WORK\1N4 Transmitter\SA-100_2339_05_1N4.cydsn/sgable.c ****                     CyBle_GattsWriteRsp(cyBle_connHandle);                      /* respond to the c
 1645              		.loc 1 476 0
 1646 01ee 5E4B     		ldr	r3, .L111+24
 1647 01f0 5A22     		movs	r2, #90
 1648 01f2 9A5A     		ldrh	r2, [r3, r2]
 1649 01f4 BB68     		ldr	r3, [r7, #8]
 1650 01f6 5B68     		ldr	r3, [r3, #4]
 1651 01f8 1B78     		ldrb	r3, [r3]
 1652 01fa 9BB2     		uxth	r3, r3
 1653 01fc 1343     		orrs	r3, r2
 1654 01fe 99B2     		uxth	r1, r3
 1655 0200 594B     		ldr	r3, .L111+24
 1656 0202 5A22     		movs	r2, #90
 1657 0204 9952     		strh	r1, [r3, r2]
 477:..\..\..\..\..\WORK\1N4 Transmitter\SA-100_2339_05_1N4.cydsn/sgable.c ****                     //if( SA100_I2C_INSTALLED ) SA100I2C_Write_8( SA100_CEC_I2C_ADDR, SA100_I2C_Ale
 1658              		.loc 1 477 0
 1659 0206 574B     		ldr	r3, .L111+20
 1660 0208 1A78     		ldrb	r2, [r3]
 1661 020a 5B78     		ldrb	r3, [r3, #1]
 1662 020c 1B02     		lsls	r3, r3, #8
 1663 020e 1A43     		orrs	r2, r3
 1664 0210 0023     		movs	r3, #0
 1665 0212 1204     		lsls	r2, r2, #16
 1666 0214 120C     		lsrs	r2, r2, #16
 1667 0216 1B0C     		lsrs	r3, r3, #16
 1668 0218 1B04     		lsls	r3, r3, #16
 1669 021a 1343     		orrs	r3, r2
 1670 021c 1800     		movs	r0, r3
 1671 021e FFF7FEFF 		bl	CyBle_GattsWriteRsp
 480:..\..\..\..\..\WORK\1N4 Transmitter\SA-100_2339_05_1N4.cydsn/sgable.c ****                     {
 1672              		.loc 1 480 0
 1673 0222 514B     		ldr	r3, .L111+24
 1674 0224 9B7B     		ldrb	r3, [r3, #14]
 1675 0226 022B     		cmp	r3, #2
 1676 0228 04D0     		beq	.L98
 1677 022a 032B     		cmp	r3, #3
 1678 022c 04D0     		beq	.L99
 1679 022e 012B     		cmp	r3, #1
 1680 0230 04D0     		beq	.L100
 495:..\..\..\..\..\WORK\1N4 Transmitter\SA-100_2339_05_1N4.cydsn/sgable.c ****                     }
 1681              		.loc 1 495 0
 1682 0232 04E0     		b	.L49
 1683              	.L98:
 487:..\..\..\..\..\WORK\1N4 Transmitter\SA-100_2339_05_1N4.cydsn/sgable.c ****                         case SENSOR_TYPE_IR:
 1684              		.loc 1 487 0
 1685 0234 C046     		nop
 1686 0236 02E0     		b	.L49
 1687              	.L99:
 493:..\..\..\..\..\WORK\1N4 Transmitter\SA-100_2339_05_1N4.cydsn/sgable.c ****                         default:
 1688              		.loc 1 493 0
 1689 0238 C046     		nop
 1690 023a 00E0     		b	.L49
 1691              	.L100:
 484:..\..\..\..\..\WORK\1N4 Transmitter\SA-100_2339_05_1N4.cydsn/sgable.c ****                         case SENSOR_TYPE_ECHEM:
 1692              		.loc 1 484 0
ARM GAS  C:\Users\alexport\AppData\Local\Temp\ccr3ZDs0.s 			page 45


 1693 023c C046     		nop
 1694              	.L49:
 500:..\..\..\..\..\WORK\1N4 Transmitter\SA-100_2339_05_1N4.cydsn/sgable.c ****             {
 1695              		.loc 1 500 0
 1696 023e BB68     		ldr	r3, [r7, #8]
 1697 0240 9B89     		ldrh	r3, [r3, #12]
 1698 0242 312B     		cmp	r3, #49
 1699 0244 40D1     		bne	.L54
 503:..\..\..\..\..\WORK\1N4 Transmitter\SA-100_2339_05_1N4.cydsn/sgable.c ****                 {
 1700              		.loc 1 503 0
 1701 0246 BB68     		ldr	r3, [r7, #8]
 1702 0248 181D     		adds	r0, r3, #4
 1703 024a 464A     		ldr	r2, .L111+20
 1704 024c 4023     		movs	r3, #64
 1705 024e 0021     		movs	r1, #0
 1706 0250 FFF7FEFF 		bl	CyBle_GattsWriteAttributeValue
 1707 0254 031E     		subs	r3, r0, #0
 1708 0256 37D1     		bne	.L54
 505:..\..\..\..\..\WORK\1N4 Transmitter\SA-100_2339_05_1N4.cydsn/sgable.c ****                     Sensor.Alert1Ascending <<=8;
 1709              		.loc 1 505 0
 1710 0258 BB68     		ldr	r3, [r7, #8]
 1711 025a 5B68     		ldr	r3, [r3, #4]
 1712 025c 0133     		adds	r3, r3, #1
 1713 025e 1B78     		ldrb	r3, [r3]
 1714 0260 99B2     		uxth	r1, r3
 1715 0262 414B     		ldr	r3, .L111+24
 1716 0264 5C22     		movs	r2, #92
 1717 0266 9952     		strh	r1, [r3, r2]
 506:..\..\..\..\..\WORK\1N4 Transmitter\SA-100_2339_05_1N4.cydsn/sgable.c ****                     Sensor.Alert1Ascending |= wrReqParam->handleValPair.value.val[0];  /* Update ou
 1718              		.loc 1 506 0
 1719 0268 3F4B     		ldr	r3, .L111+24
 1720 026a 5C22     		movs	r2, #92
 1721 026c 9B5A     		ldrh	r3, [r3, r2]
 1722 026e 1B02     		lsls	r3, r3, #8
 1723 0270 99B2     		uxth	r1, r3
 1724 0272 3D4B     		ldr	r3, .L111+24
 1725 0274 5C22     		movs	r2, #92
 1726 0276 9952     		strh	r1, [r3, r2]
 507:..\..\..\..\..\WORK\1N4 Transmitter\SA-100_2339_05_1N4.cydsn/sgable.c ****                     CyBle_GattsWriteRsp(cyBle_connHandle);                      /* respond to the c
 1727              		.loc 1 507 0
 1728 0278 3B4B     		ldr	r3, .L111+24
 1729 027a 5C22     		movs	r2, #92
 1730 027c 9A5A     		ldrh	r2, [r3, r2]
 1731 027e BB68     		ldr	r3, [r7, #8]
 1732 0280 5B68     		ldr	r3, [r3, #4]
 1733 0282 1B78     		ldrb	r3, [r3]
 1734 0284 9BB2     		uxth	r3, r3
 1735 0286 1343     		orrs	r3, r2
 1736 0288 99B2     		uxth	r1, r3
 1737 028a 374B     		ldr	r3, .L111+24
 1738 028c 5C22     		movs	r2, #92
 1739 028e 9952     		strh	r1, [r3, r2]
 508:..\..\..\..\..\WORK\1N4 Transmitter\SA-100_2339_05_1N4.cydsn/sgable.c ****                     //if( SA100_I2C_INSTALLED ) SA100I2C_Write_16( SA100_CEC_I2C_ADDR, SA100_I2C_Al
 1740              		.loc 1 508 0
 1741 0290 344B     		ldr	r3, .L111+20
 1742 0292 1A78     		ldrb	r2, [r3]
 1743 0294 5B78     		ldrb	r3, [r3, #1]
ARM GAS  C:\Users\alexport\AppData\Local\Temp\ccr3ZDs0.s 			page 46


 1744 0296 1B02     		lsls	r3, r3, #8
 1745 0298 1A43     		orrs	r2, r3
 1746 029a 0023     		movs	r3, #0
 1747 029c 1204     		lsls	r2, r2, #16
 1748 029e 120C     		lsrs	r2, r2, #16
 1749 02a0 1B0C     		lsrs	r3, r3, #16
 1750 02a2 1B04     		lsls	r3, r3, #16
 1751 02a4 1343     		orrs	r3, r2
 1752 02a6 1800     		movs	r0, r3
 1753 02a8 FFF7FEFF 		bl	CyBle_GattsWriteRsp
 510:..\..\..\..\..\WORK\1N4 Transmitter\SA-100_2339_05_1N4.cydsn/sgable.c ****                     {
 1754              		.loc 1 510 0
 1755 02ac 2E4B     		ldr	r3, .L111+24
 1756 02ae 9B7B     		ldrb	r3, [r3, #14]
 1757 02b0 022B     		cmp	r3, #2
 1758 02b2 04D0     		beq	.L101
 1759 02b4 032B     		cmp	r3, #3
 1760 02b6 04D0     		beq	.L102
 1761 02b8 012B     		cmp	r3, #1
 1762 02ba 04D0     		beq	.L103
 525:..\..\..\..\..\WORK\1N4 Transmitter\SA-100_2339_05_1N4.cydsn/sgable.c ****                     }
 1763              		.loc 1 525 0
 1764 02bc 04E0     		b	.L54
 1765              	.L101:
 517:..\..\..\..\..\WORK\1N4 Transmitter\SA-100_2339_05_1N4.cydsn/sgable.c ****                         case SENSOR_TYPE_IR:
 1766              		.loc 1 517 0
 1767 02be C046     		nop
 1768 02c0 02E0     		b	.L54
 1769              	.L102:
 523:..\..\..\..\..\WORK\1N4 Transmitter\SA-100_2339_05_1N4.cydsn/sgable.c ****                         default:
 1770              		.loc 1 523 0
 1771 02c2 C046     		nop
 1772 02c4 00E0     		b	.L54
 1773              	.L103:
 514:..\..\..\..\..\WORK\1N4 Transmitter\SA-100_2339_05_1N4.cydsn/sgable.c ****                         case SENSOR_TYPE_ECHEM:
 1774              		.loc 1 514 0
 1775 02c6 C046     		nop
 1776              	.L54:
 530:..\..\..\..\..\WORK\1N4 Transmitter\SA-100_2339_05_1N4.cydsn/sgable.c ****             {
 1777              		.loc 1 530 0
 1778 02c8 BB68     		ldr	r3, [r7, #8]
 1779 02ca 9B89     		ldrh	r3, [r3, #12]
 1780 02cc 342B     		cmp	r3, #52
 1781 02ce 4ED1     		bne	.L59
 533:..\..\..\..\..\WORK\1N4 Transmitter\SA-100_2339_05_1N4.cydsn/sgable.c ****                 {
 1782              		.loc 1 533 0
 1783 02d0 BB68     		ldr	r3, [r7, #8]
 1784 02d2 181D     		adds	r0, r3, #4
 1785 02d4 234A     		ldr	r2, .L111+20
 1786 02d6 4023     		movs	r3, #64
 1787 02d8 0021     		movs	r1, #0
 1788 02da FFF7FEFF 		bl	CyBle_GattsWriteAttributeValue
 1789 02de 031E     		subs	r3, r0, #0
 1790 02e0 45D1     		bne	.L59
 535:..\..\..\..\..\WORK\1N4 Transmitter\SA-100_2339_05_1N4.cydsn/sgable.c ****                     Sensor.Alert2Ascending <<=8;
 1791              		.loc 1 535 0
 1792 02e2 BB68     		ldr	r3, [r7, #8]
ARM GAS  C:\Users\alexport\AppData\Local\Temp\ccr3ZDs0.s 			page 47


 1793 02e4 5B68     		ldr	r3, [r3, #4]
 1794 02e6 0133     		adds	r3, r3, #1
 1795 02e8 1B78     		ldrb	r3, [r3]
 1796 02ea 99B2     		uxth	r1, r3
 1797 02ec 1E4B     		ldr	r3, .L111+24
 1798 02ee 5E22     		movs	r2, #94
 1799 02f0 9952     		strh	r1, [r3, r2]
 536:..\..\..\..\..\WORK\1N4 Transmitter\SA-100_2339_05_1N4.cydsn/sgable.c ****                     Sensor.Alert2Ascending |= wrReqParam->handleValPair.value.val[0];  /* Update ou
 1800              		.loc 1 536 0
 1801 02f2 1D4B     		ldr	r3, .L111+24
 1802 02f4 5E22     		movs	r2, #94
 1803 02f6 9B5A     		ldrh	r3, [r3, r2]
 1804 02f8 1B02     		lsls	r3, r3, #8
 1805 02fa 99B2     		uxth	r1, r3
 1806 02fc 1A4B     		ldr	r3, .L111+24
 1807 02fe 5E22     		movs	r2, #94
 1808 0300 9952     		strh	r1, [r3, r2]
 537:..\..\..\..\..\WORK\1N4 Transmitter\SA-100_2339_05_1N4.cydsn/sgable.c ****                     CyBle_GattsWriteRsp(cyBle_connHandle);                      /* respond to the c
 1809              		.loc 1 537 0
 1810 0302 194B     		ldr	r3, .L111+24
 1811 0304 5E22     		movs	r2, #94
 1812 0306 9A5A     		ldrh	r2, [r3, r2]
 1813 0308 BB68     		ldr	r3, [r7, #8]
 1814 030a 5B68     		ldr	r3, [r3, #4]
 1815 030c 1B78     		ldrb	r3, [r3]
 1816 030e 9BB2     		uxth	r3, r3
 1817 0310 1343     		orrs	r3, r2
 1818 0312 99B2     		uxth	r1, r3
 1819 0314 144B     		ldr	r3, .L111+24
 1820 0316 5E22     		movs	r2, #94
 1821 0318 9952     		strh	r1, [r3, r2]
 538:..\..\..\..\..\WORK\1N4 Transmitter\SA-100_2339_05_1N4.cydsn/sgable.c ****                     //if( SA100_I2C_INSTALLED ) SA100I2C_Write_16( SA100_CEC_I2C_ADDR, SA100_I2C_Al
 1822              		.loc 1 538 0
 1823 031a 124B     		ldr	r3, .L111+20
 1824 031c 1A78     		ldrb	r2, [r3]
 1825 031e 5B78     		ldrb	r3, [r3, #1]
 1826 0320 1B02     		lsls	r3, r3, #8
 1827 0322 1A43     		orrs	r2, r3
 1828 0324 0023     		movs	r3, #0
 1829 0326 1204     		lsls	r2, r2, #16
 1830 0328 120C     		lsrs	r2, r2, #16
 1831 032a 1B0C     		lsrs	r3, r3, #16
 1832 032c 1B04     		lsls	r3, r3, #16
 1833 032e 1343     		orrs	r3, r2
 1834 0330 1800     		movs	r0, r3
 1835 0332 FFF7FEFF 		bl	CyBle_GattsWriteRsp
 540:..\..\..\..\..\WORK\1N4 Transmitter\SA-100_2339_05_1N4.cydsn/sgable.c ****                     {
 1836              		.loc 1 540 0
 1837 0336 0C4B     		ldr	r3, .L111+24
 1838 0338 9B7B     		ldrb	r3, [r3, #14]
 1839 033a 022B     		cmp	r3, #2
 1840 033c 04D0     		beq	.L104
 1841 033e 032B     		cmp	r3, #3
 1842 0340 04D0     		beq	.L105
 1843 0342 012B     		cmp	r3, #1
 1844 0344 12D0     		beq	.L106
 555:..\..\..\..\..\WORK\1N4 Transmitter\SA-100_2339_05_1N4.cydsn/sgable.c ****                     }
ARM GAS  C:\Users\alexport\AppData\Local\Temp\ccr3ZDs0.s 			page 48


 1845              		.loc 1 555 0
 1846 0346 12E0     		b	.L59
 1847              	.L104:
 547:..\..\..\..\..\WORK\1N4 Transmitter\SA-100_2339_05_1N4.cydsn/sgable.c ****                         case SENSOR_TYPE_IR:
 1848              		.loc 1 547 0
 1849 0348 C046     		nop
 1850 034a 10E0     		b	.L59
 1851              	.L105:
 553:..\..\..\..\..\WORK\1N4 Transmitter\SA-100_2339_05_1N4.cydsn/sgable.c ****                         default:
 1852              		.loc 1 553 0
 1853 034c C046     		nop
 1854 034e 0EE0     		b	.L59
 1855              	.L112:
 1856              		.align	2
 1857              	.L111:
 1858 0350 60F02E40 		.word	1076818016
 1859 0354 31030000 		.word	817
 1860 0358 08000340 		.word	1073938440
 1861 035c 02030080 		.word	-2147482878
 1862 0360 00000000 		.word	System
 1863 0364 00000000 		.word	cyBle_connHandle
 1864 0368 00000000 		.word	Sensor
 1865              	.L106:
 544:..\..\..\..\..\WORK\1N4 Transmitter\SA-100_2339_05_1N4.cydsn/sgable.c ****                         case SENSOR_TYPE_ECHEM:
 1866              		.loc 1 544 0
 1867 036c C046     		nop
 1868              	.L59:
 560:..\..\..\..\..\WORK\1N4 Transmitter\SA-100_2339_05_1N4.cydsn/sgable.c ****             {
 1869              		.loc 1 560 0
 1870 036e BB68     		ldr	r3, [r7, #8]
 1871 0370 9B89     		ldrh	r3, [r3, #12]
 1872 0372 4E2B     		cmp	r3, #78
 1873 0374 37D1     		bne	.L64
 563:..\..\..\..\..\WORK\1N4 Transmitter\SA-100_2339_05_1N4.cydsn/sgable.c ****                 {
 1874              		.loc 1 563 0
 1875 0376 BB68     		ldr	r3, [r7, #8]
 1876 0378 181D     		adds	r0, r3, #4
 1877 037a 594A     		ldr	r2, .L113
 1878 037c 4023     		movs	r3, #64
 1879 037e 0021     		movs	r1, #0
 1880 0380 FFF7FEFF 		bl	CyBle_GattsWriteAttributeValue
 1881 0384 031E     		subs	r3, r0, #0
 1882 0386 2ED1     		bne	.L64
 1883              	.LBB2:
 565:..\..\..\..\..\WORK\1N4 Transmitter\SA-100_2339_05_1N4.cydsn/sgable.c ****                     {
 1884              		.loc 1 565 0
 1885 0388 0F23     		movs	r3, #15
 1886 038a FB18     		adds	r3, r7, r3
 1887 038c 0022     		movs	r2, #0
 1888 038e 1A70     		strb	r2, [r3]
 1889 0390 16E0     		b	.L65
 1890              	.L66:
 567:..\..\..\..\..\WORK\1N4 Transmitter\SA-100_2339_05_1N4.cydsn/sgable.c ****                     }
 1891              		.loc 1 567 0 discriminator 3
 1892 0392 0F23     		movs	r3, #15
 1893 0394 FB18     		adds	r3, r7, r3
 1894 0396 1A78     		ldrb	r2, [r3]
ARM GAS  C:\Users\alexport\AppData\Local\Temp\ccr3ZDs0.s 			page 49


 1895 0398 BB68     		ldr	r3, [r7, #8]
 1896 039a 5968     		ldr	r1, [r3, #4]
 1897 039c 0F23     		movs	r3, #15
 1898 039e FB18     		adds	r3, r7, r3
 1899 03a0 1B78     		ldrb	r3, [r3]
 1900 03a2 CB18     		adds	r3, r1, r3
 1901 03a4 1878     		ldrb	r0, [r3]
 1902 03a6 4F4B     		ldr	r3, .L113+4
 1903 03a8 B221     		movs	r1, #178
 1904 03aa 9B18     		adds	r3, r3, r2
 1905 03ac 5B18     		adds	r3, r3, r1
 1906 03ae 021C     		adds	r2, r0, #0
 1907 03b0 1A70     		strb	r2, [r3]
 565:..\..\..\..\..\WORK\1N4 Transmitter\SA-100_2339_05_1N4.cydsn/sgable.c ****                     {
 1908              		.loc 1 565 0 discriminator 3
 1909 03b2 0F23     		movs	r3, #15
 1910 03b4 FB18     		adds	r3, r7, r3
 1911 03b6 1A78     		ldrb	r2, [r3]
 1912 03b8 0F23     		movs	r3, #15
 1913 03ba FB18     		adds	r3, r7, r3
 1914 03bc 0132     		adds	r2, r2, #1
 1915 03be 1A70     		strb	r2, [r3]
 1916              	.L65:
 565:..\..\..\..\..\WORK\1N4 Transmitter\SA-100_2339_05_1N4.cydsn/sgable.c ****                     {
 1917              		.loc 1 565 0 is_stmt 0 discriminator 1
 1918 03c0 0F23     		movs	r3, #15
 1919 03c2 FB18     		adds	r3, r7, r3
 1920 03c4 1B78     		ldrb	r3, [r3]
 1921 03c6 032B     		cmp	r3, #3
 1922 03c8 E3D9     		bls	.L66
 1923              	.LBE2:
 569:..\..\..\..\..\WORK\1N4 Transmitter\SA-100_2339_05_1N4.cydsn/sgable.c ****                     //SysSaveSystemPinString();
 1924              		.loc 1 569 0 is_stmt 1
 1925 03ca 454B     		ldr	r3, .L113
 1926 03cc 1A78     		ldrb	r2, [r3]
 1927 03ce 5B78     		ldrb	r3, [r3, #1]
 1928 03d0 1B02     		lsls	r3, r3, #8
 1929 03d2 1A43     		orrs	r2, r3
 1930 03d4 0023     		movs	r3, #0
 1931 03d6 1204     		lsls	r2, r2, #16
 1932 03d8 120C     		lsrs	r2, r2, #16
 1933 03da 1B0C     		lsrs	r3, r3, #16
 1934 03dc 1B04     		lsls	r3, r3, #16
 1935 03de 1343     		orrs	r3, r2
 1936 03e0 1800     		movs	r0, r3
 1937 03e2 FFF7FEFF 		bl	CyBle_GattsWriteRsp
 1938              	.L64:
 577:..\..\..\..\..\WORK\1N4 Transmitter\SA-100_2339_05_1N4.cydsn/sgable.c ****             {
 1939              		.loc 1 577 0
 1940 03e6 BB68     		ldr	r3, [r7, #8]
 1941 03e8 9B89     		ldrh	r3, [r3, #12]
 1942 03ea 5A2B     		cmp	r3, #90
 1943 03ec 37D1     		bne	.L67
 580:..\..\..\..\..\WORK\1N4 Transmitter\SA-100_2339_05_1N4.cydsn/sgable.c ****                 {
 1944              		.loc 1 580 0
 1945 03ee BB68     		ldr	r3, [r7, #8]
 1946 03f0 181D     		adds	r0, r3, #4
ARM GAS  C:\Users\alexport\AppData\Local\Temp\ccr3ZDs0.s 			page 50


 1947 03f2 3B4A     		ldr	r2, .L113
 1948 03f4 4023     		movs	r3, #64
 1949 03f6 0021     		movs	r1, #0
 1950 03f8 FFF7FEFF 		bl	CyBle_GattsWriteAttributeValue
 1951 03fc 031E     		subs	r3, r0, #0
 1952 03fe 2ED1     		bne	.L67
 1953              	.LBB3:
 582:..\..\..\..\..\WORK\1N4 Transmitter\SA-100_2339_05_1N4.cydsn/sgable.c ****                     {
 1954              		.loc 1 582 0
 1955 0400 0E23     		movs	r3, #14
 1956 0402 FB18     		adds	r3, r7, r3
 1957 0404 0022     		movs	r2, #0
 1958 0406 1A70     		strb	r2, [r3]
 1959 0408 16E0     		b	.L68
 1960              	.L69:
 584:..\..\..\..\..\WORK\1N4 Transmitter\SA-100_2339_05_1N4.cydsn/sgable.c ****                     }
 1961              		.loc 1 584 0 discriminator 3
 1962 040a 0E23     		movs	r3, #14
 1963 040c FB18     		adds	r3, r7, r3
 1964 040e 1A78     		ldrb	r2, [r3]
 1965 0410 BB68     		ldr	r3, [r7, #8]
 1966 0412 5968     		ldr	r1, [r3, #4]
 1967 0414 0E23     		movs	r3, #14
 1968 0416 FB18     		adds	r3, r7, r3
 1969 0418 1B78     		ldrb	r3, [r3]
 1970 041a CB18     		adds	r3, r1, r3
 1971 041c 1878     		ldrb	r0, [r3]
 1972 041e 314B     		ldr	r3, .L113+4
 1973 0420 8621     		movs	r1, #134
 1974 0422 9B18     		adds	r3, r3, r2
 1975 0424 5B18     		adds	r3, r3, r1
 1976 0426 021C     		adds	r2, r0, #0
 1977 0428 1A70     		strb	r2, [r3]
 582:..\..\..\..\..\WORK\1N4 Transmitter\SA-100_2339_05_1N4.cydsn/sgable.c ****                     {
 1978              		.loc 1 582 0 discriminator 3
 1979 042a 0E23     		movs	r3, #14
 1980 042c FB18     		adds	r3, r7, r3
 1981 042e 1A78     		ldrb	r2, [r3]
 1982 0430 0E23     		movs	r3, #14
 1983 0432 FB18     		adds	r3, r7, r3
 1984 0434 0132     		adds	r2, r2, #1
 1985 0436 1A70     		strb	r2, [r3]
 1986              	.L68:
 582:..\..\..\..\..\WORK\1N4 Transmitter\SA-100_2339_05_1N4.cydsn/sgable.c ****                     {
 1987              		.loc 1 582 0 is_stmt 0 discriminator 1
 1988 0438 0E23     		movs	r3, #14
 1989 043a FB18     		adds	r3, r7, r3
 1990 043c 1B78     		ldrb	r3, [r3]
 1991 043e 132B     		cmp	r3, #19
 1992 0440 E3D9     		bls	.L69
 1993              	.LBE3:
 586:..\..\..\..\..\WORK\1N4 Transmitter\SA-100_2339_05_1N4.cydsn/sgable.c ****                     //SysSaveSensorTagString();
 1994              		.loc 1 586 0 is_stmt 1
 1995 0442 274B     		ldr	r3, .L113
 1996 0444 1A78     		ldrb	r2, [r3]
 1997 0446 5B78     		ldrb	r3, [r3, #1]
 1998 0448 1B02     		lsls	r3, r3, #8
ARM GAS  C:\Users\alexport\AppData\Local\Temp\ccr3ZDs0.s 			page 51


 1999 044a 1A43     		orrs	r2, r3
 2000 044c 0023     		movs	r3, #0
 2001 044e 1204     		lsls	r2, r2, #16
 2002 0450 120C     		lsrs	r2, r2, #16
 2003 0452 1B0C     		lsrs	r3, r3, #16
 2004 0454 1B04     		lsls	r3, r3, #16
 2005 0456 1343     		orrs	r3, r2
 2006 0458 1800     		movs	r0, r3
 2007 045a FFF7FEFF 		bl	CyBle_GattsWriteRsp
 2008              	.L67:
 593:..\..\..\..\..\WORK\1N4 Transmitter\SA-100_2339_05_1N4.cydsn/sgable.c ****             {
 2009              		.loc 1 593 0
 2010 045e BB68     		ldr	r3, [r7, #8]
 2011 0460 9B89     		ldrh	r3, [r3, #12]
 2012 0462 612B     		cmp	r3, #97
 2013 0464 43D1     		bne	.L70
 596:..\..\..\..\..\WORK\1N4 Transmitter\SA-100_2339_05_1N4.cydsn/sgable.c ****                 {
 2014              		.loc 1 596 0
 2015 0466 BB68     		ldr	r3, [r7, #8]
 2016 0468 181D     		adds	r0, r3, #4
 2017 046a 1D4A     		ldr	r2, .L113
 2018 046c 4023     		movs	r3, #64
 2019 046e 0021     		movs	r1, #0
 2020 0470 FFF7FEFF 		bl	CyBle_GattsWriteAttributeValue
 2021 0474 031E     		subs	r3, r0, #0
 2022 0476 3AD1     		bne	.L70
 598:..\..\..\..\..\WORK\1N4 Transmitter\SA-100_2339_05_1N4.cydsn/sgable.c ****                     Sensor.CalLevel <<=8;
 2023              		.loc 1 598 0
 2024 0478 BB68     		ldr	r3, [r7, #8]
 2025 047a 5B68     		ldr	r3, [r3, #4]
 2026 047c 0133     		adds	r3, r3, #1
 2027 047e 1B78     		ldrb	r3, [r3]
 2028 0480 1AB2     		sxth	r2, r3
 2029 0482 194B     		ldr	r3, .L113+8
 2030 0484 1A87     		strh	r2, [r3, #56]
 599:..\..\..\..\..\WORK\1N4 Transmitter\SA-100_2339_05_1N4.cydsn/sgable.c ****                     Sensor.CalLevel |= wrReqParam->handleValPair.value.val[0];  /* Update our local
 2031              		.loc 1 599 0
 2032 0486 184B     		ldr	r3, .L113+8
 2033 0488 3822     		movs	r2, #56
 2034 048a 9B5E     		ldrsh	r3, [r3, r2]
 2035 048c 1B02     		lsls	r3, r3, #8
 2036 048e 1AB2     		sxth	r2, r3
 2037 0490 154B     		ldr	r3, .L113+8
 2038 0492 1A87     		strh	r2, [r3, #56]
 600:..\..\..\..\..\WORK\1N4 Transmitter\SA-100_2339_05_1N4.cydsn/sgable.c ****                     CyBle_GattsWriteRsp(cyBle_connHandle);                      /* respond to the c
 2039              		.loc 1 600 0
 2040 0494 144B     		ldr	r3, .L113+8
 2041 0496 3822     		movs	r2, #56
 2042 0498 9A5E     		ldrsh	r2, [r3, r2]
 2043 049a BB68     		ldr	r3, [r7, #8]
 2044 049c 5B68     		ldr	r3, [r3, #4]
 2045 049e 1B78     		ldrb	r3, [r3]
 2046 04a0 1BB2     		sxth	r3, r3
 2047 04a2 1343     		orrs	r3, r2
 2048 04a4 1AB2     		sxth	r2, r3
 2049 04a6 104B     		ldr	r3, .L113+8
 2050 04a8 1A87     		strh	r2, [r3, #56]
ARM GAS  C:\Users\alexport\AppData\Local\Temp\ccr3ZDs0.s 			page 52


 601:..\..\..\..\..\WORK\1N4 Transmitter\SA-100_2339_05_1N4.cydsn/sgable.c ****                     //if( SA100_I2C_INSTALLED ) SA100I2C_Write_16( SA100_CEC_I2C_ADDR, SA100_I2C_Ca
 2051              		.loc 1 601 0
 2052 04aa 0D4B     		ldr	r3, .L113
 2053 04ac 1A78     		ldrb	r2, [r3]
 2054 04ae 5B78     		ldrb	r3, [r3, #1]
 2055 04b0 1B02     		lsls	r3, r3, #8
 2056 04b2 1A43     		orrs	r2, r3
 2057 04b4 0023     		movs	r3, #0
 2058 04b6 1204     		lsls	r2, r2, #16
 2059 04b8 120C     		lsrs	r2, r2, #16
 2060 04ba 1B0C     		lsrs	r3, r3, #16
 2061 04bc 1B04     		lsls	r3, r3, #16
 2062 04be 1343     		orrs	r3, r2
 2063 04c0 1800     		movs	r0, r3
 2064 04c2 FFF7FEFF 		bl	CyBle_GattsWriteRsp
 604:..\..\..\..\..\WORK\1N4 Transmitter\SA-100_2339_05_1N4.cydsn/sgable.c ****                     {
 2065              		.loc 1 604 0
 2066 04c6 084B     		ldr	r3, .L113+8
 2067 04c8 9B7B     		ldrb	r3, [r3, #14]
 2068 04ca 022B     		cmp	r3, #2
 2069 04cc 04D0     		beq	.L107
 2070 04ce 032B     		cmp	r3, #3
 2071 04d0 04D0     		beq	.L108
 2072 04d2 012B     		cmp	r3, #1
 2073 04d4 0AD0     		beq	.L109
 620:..\..\..\..\..\WORK\1N4 Transmitter\SA-100_2339_05_1N4.cydsn/sgable.c ****                     }
 2074              		.loc 1 620 0
 2075 04d6 0AE0     		b	.L70
 2076              	.L107:
 611:..\..\..\..\..\WORK\1N4 Transmitter\SA-100_2339_05_1N4.cydsn/sgable.c ****                         case SENSOR_TYPE_IR:
 2077              		.loc 1 611 0
 2078 04d8 C046     		nop
 2079 04da 08E0     		b	.L70
 2080              	.L108:
 618:..\..\..\..\..\WORK\1N4 Transmitter\SA-100_2339_05_1N4.cydsn/sgable.c ****                         default:
 2081              		.loc 1 618 0
 2082 04dc C046     		nop
 2083 04de 06E0     		b	.L70
 2084              	.L114:
 2085              		.align	2
 2086              	.L113:
 2087 04e0 00000000 		.word	cyBle_connHandle
 2088 04e4 00000000 		.word	System
 2089 04e8 00000000 		.word	Sensor
 2090              	.L109:
 608:..\..\..\..\..\WORK\1N4 Transmitter\SA-100_2339_05_1N4.cydsn/sgable.c ****                         case SENSOR_TYPE_ECHEM:
 2091              		.loc 1 608 0
 2092 04ec C046     		nop
 2093              	.L70:
 625:..\..\..\..\..\WORK\1N4 Transmitter\SA-100_2339_05_1N4.cydsn/sgable.c ****             {
 2094              		.loc 1 625 0
 2095 04ee BB68     		ldr	r3, [r7, #8]
 2096 04f0 9B89     		ldrh	r3, [r3, #12]
 2097 04f2 242B     		cmp	r3, #36
 2098 04f4 32D1     		bne	.L75
 628:..\..\..\..\..\WORK\1N4 Transmitter\SA-100_2339_05_1N4.cydsn/sgable.c ****                 {
 2099              		.loc 1 628 0
ARM GAS  C:\Users\alexport\AppData\Local\Temp\ccr3ZDs0.s 			page 53


 2100 04f6 BB68     		ldr	r3, [r7, #8]
 2101 04f8 181D     		adds	r0, r3, #4
 2102 04fa E74A     		ldr	r2, .L115
 2103 04fc 4023     		movs	r3, #64
 2104 04fe 0021     		movs	r1, #0
 2105 0500 FFF7FEFF 		bl	CyBle_GattsWriteAttributeValue
 2106 0504 031E     		subs	r3, r0, #0
 2107 0506 29D1     		bne	.L75
 630:..\..\..\..\..\WORK\1N4 Transmitter\SA-100_2339_05_1N4.cydsn/sgable.c ****                     System.BleCalLoop <<=8;
 2108              		.loc 1 630 0
 2109 0508 BB68     		ldr	r3, [r7, #8]
 2110 050a 5B68     		ldr	r3, [r3, #4]
 2111 050c 0133     		adds	r3, r3, #1
 2112 050e 1B78     		ldrb	r3, [r3]
 2113 0510 99B2     		uxth	r1, r3
 2114 0512 E24B     		ldr	r3, .L115+4
 2115 0514 8422     		movs	r2, #132
 2116 0516 9952     		strh	r1, [r3, r2]
 631:..\..\..\..\..\WORK\1N4 Transmitter\SA-100_2339_05_1N4.cydsn/sgable.c ****                     System.BleCalLoop |= wrReqParam->handleValPair.value.val[0];  /* Update our loc
 2117              		.loc 1 631 0
 2118 0518 E04B     		ldr	r3, .L115+4
 2119 051a 8422     		movs	r2, #132
 2120 051c 9B5A     		ldrh	r3, [r3, r2]
 2121 051e 1B02     		lsls	r3, r3, #8
 2122 0520 99B2     		uxth	r1, r3
 2123 0522 DE4B     		ldr	r3, .L115+4
 2124 0524 8422     		movs	r2, #132
 2125 0526 9952     		strh	r1, [r3, r2]
 632:..\..\..\..\..\WORK\1N4 Transmitter\SA-100_2339_05_1N4.cydsn/sgable.c ****                     CyBle_GattsWriteRsp(cyBle_connHandle);                      /* respond to the c
 2126              		.loc 1 632 0
 2127 0528 DC4B     		ldr	r3, .L115+4
 2128 052a 8422     		movs	r2, #132
 2129 052c 9A5A     		ldrh	r2, [r3, r2]
 2130 052e BB68     		ldr	r3, [r7, #8]
 2131 0530 5B68     		ldr	r3, [r3, #4]
 2132 0532 1B78     		ldrb	r3, [r3]
 2133 0534 9BB2     		uxth	r3, r3
 2134 0536 1343     		orrs	r3, r2
 2135 0538 99B2     		uxth	r1, r3
 2136 053a D84B     		ldr	r3, .L115+4
 2137 053c 8422     		movs	r2, #132
 2138 053e 9952     		strh	r1, [r3, r2]
 633:..\..\..\..\..\WORK\1N4 Transmitter\SA-100_2339_05_1N4.cydsn/sgable.c ****                 }
 2139              		.loc 1 633 0
 2140 0540 D54B     		ldr	r3, .L115
 2141 0542 1A78     		ldrb	r2, [r3]
 2142 0544 5B78     		ldrb	r3, [r3, #1]
 2143 0546 1B02     		lsls	r3, r3, #8
 2144 0548 1A43     		orrs	r2, r3
 2145 054a 0023     		movs	r3, #0
 2146 054c 1204     		lsls	r2, r2, #16
 2147 054e 120C     		lsrs	r2, r2, #16
 2148 0550 1B0C     		lsrs	r3, r3, #16
 2149 0552 1B04     		lsls	r3, r3, #16
 2150 0554 1343     		orrs	r3, r2
 2151 0556 1800     		movs	r0, r3
 2152 0558 FFF7FEFF 		bl	CyBle_GattsWriteRsp
ARM GAS  C:\Users\alexport\AppData\Local\Temp\ccr3ZDs0.s 			page 54


 2153              	.L75:
 637:..\..\..\..\..\WORK\1N4 Transmitter\SA-100_2339_05_1N4.cydsn/sgable.c ****             {
 2154              		.loc 1 637 0
 2155 055c BB68     		ldr	r3, [r7, #8]
 2156 055e 9B89     		ldrh	r3, [r3, #12]
 2157 0560 8F2B     		cmp	r3, #143
 2158 0562 1CD1     		bne	.L76
 640:..\..\..\..\..\WORK\1N4 Transmitter\SA-100_2339_05_1N4.cydsn/sgable.c ****                 {
 2159              		.loc 1 640 0
 2160 0564 BB68     		ldr	r3, [r7, #8]
 2161 0566 181D     		adds	r0, r3, #4
 2162 0568 CB4A     		ldr	r2, .L115
 2163 056a 4023     		movs	r3, #64
 2164 056c 0021     		movs	r1, #0
 2165 056e FFF7FEFF 		bl	CyBle_GattsWriteAttributeValue
 2166 0572 031E     		subs	r3, r0, #0
 2167 0574 13D1     		bne	.L76
 642:..\..\..\..\..\WORK\1N4 Transmitter\SA-100_2339_05_1N4.cydsn/sgable.c ****                     CyBle_GattsWriteRsp(cyBle_connHandle);                      /* respond to the c
 2168              		.loc 1 642 0
 2169 0576 BB68     		ldr	r3, [r7, #8]
 2170 0578 5B68     		ldr	r3, [r3, #4]
 2171 057a 1978     		ldrb	r1, [r3]
 2172 057c C74B     		ldr	r3, .L115+4
 2173 057e 9E22     		movs	r2, #158
 2174 0580 9954     		strb	r1, [r3, r2]
 643:..\..\..\..\..\WORK\1N4 Transmitter\SA-100_2339_05_1N4.cydsn/sgable.c ****                 }
 2175              		.loc 1 643 0
 2176 0582 C54B     		ldr	r3, .L115
 2177 0584 1A78     		ldrb	r2, [r3]
 2178 0586 5B78     		ldrb	r3, [r3, #1]
 2179 0588 1B02     		lsls	r3, r3, #8
 2180 058a 1A43     		orrs	r2, r3
 2181 058c 0023     		movs	r3, #0
 2182 058e 1204     		lsls	r2, r2, #16
 2183 0590 120C     		lsrs	r2, r2, #16
 2184 0592 1B0C     		lsrs	r3, r3, #16
 2185 0594 1B04     		lsls	r3, r3, #16
 2186 0596 1343     		orrs	r3, r2
 2187 0598 1800     		movs	r0, r3
 2188 059a FFF7FEFF 		bl	CyBle_GattsWriteRsp
 2189              	.L76:
 649:..\..\..\..\..\WORK\1N4 Transmitter\SA-100_2339_05_1N4.cydsn/sgable.c ****             {
 2190              		.loc 1 649 0
 2191 059e BB68     		ldr	r3, [r7, #8]
 2192 05a0 9B89     		ldrh	r3, [r3, #12]
 2193 05a2 142B     		cmp	r3, #20
 2194 05a4 1CD1     		bne	.L77
 651:..\..\..\..\..\WORK\1N4 Transmitter\SA-100_2339_05_1N4.cydsn/sgable.c ****                 System.BleNotifyControl = wrReqParam->handleValPair.value.val[0] & 0x01; /* Update 
 2195              		.loc 1 651 0
 2196 05a6 BB68     		ldr	r3, [r7, #8]
 2197 05a8 181D     		adds	r0, r3, #4
 2198 05aa BB4A     		ldr	r2, .L115
 2199 05ac 4023     		movs	r3, #64
 2200 05ae 0021     		movs	r1, #0
 2201 05b0 FFF7FEFF 		bl	CyBle_GattsWriteAttributeValue
 652:..\..\..\..\..\WORK\1N4 Transmitter\SA-100_2339_05_1N4.cydsn/sgable.c ****                 CyBle_GattsWriteRsp(cyBle_connHandle);                          /* respond to the c
 2202              		.loc 1 652 0
ARM GAS  C:\Users\alexport\AppData\Local\Temp\ccr3ZDs0.s 			page 55


 2203 05b4 BB68     		ldr	r3, [r7, #8]
 2204 05b6 5B68     		ldr	r3, [r3, #4]
 2205 05b8 1B78     		ldrb	r3, [r3]
 2206 05ba 0122     		movs	r2, #1
 2207 05bc 1340     		ands	r3, r2
 2208 05be DAB2     		uxtb	r2, r3
 2209 05c0 B64B     		ldr	r3, .L115+4
 2210 05c2 5A71     		strb	r2, [r3, #5]
 653:..\..\..\..\..\WORK\1N4 Transmitter\SA-100_2339_05_1N4.cydsn/sgable.c ****             }
 2211              		.loc 1 653 0
 2212 05c4 B44B     		ldr	r3, .L115
 2213 05c6 1A78     		ldrb	r2, [r3]
 2214 05c8 5B78     		ldrb	r3, [r3, #1]
 2215 05ca 1B02     		lsls	r3, r3, #8
 2216 05cc 1A43     		orrs	r2, r3
 2217 05ce 0023     		movs	r3, #0
 2218 05d0 1204     		lsls	r2, r2, #16
 2219 05d2 120C     		lsrs	r2, r2, #16
 2220 05d4 1B0C     		lsrs	r3, r3, #16
 2221 05d6 1B04     		lsls	r3, r3, #16
 2222 05d8 1343     		orrs	r3, r2
 2223 05da 1800     		movs	r0, r3
 2224 05dc FFF7FEFF 		bl	CyBle_GattsWriteRsp
 2225              	.L77:
 656:..\..\..\..\..\WORK\1N4 Transmitter\SA-100_2339_05_1N4.cydsn/sgable.c ****             {
 2226              		.loc 1 656 0
 2227 05e0 BB68     		ldr	r3, [r7, #8]
 2228 05e2 9B89     		ldrh	r3, [r3, #12]
 2229 05e4 182B     		cmp	r3, #24
 2230 05e6 1CD1     		bne	.L78
 658:..\..\..\..\..\WORK\1N4 Transmitter\SA-100_2339_05_1N4.cydsn/sgable.c ****                 System.BleNotifyReading = wrReqParam->handleValPair.value.val[0] & 0x01; /* Update 
 2231              		.loc 1 658 0
 2232 05e8 BB68     		ldr	r3, [r7, #8]
 2233 05ea 181D     		adds	r0, r3, #4
 2234 05ec AA4A     		ldr	r2, .L115
 2235 05ee 4023     		movs	r3, #64
 2236 05f0 0021     		movs	r1, #0
 2237 05f2 FFF7FEFF 		bl	CyBle_GattsWriteAttributeValue
 659:..\..\..\..\..\WORK\1N4 Transmitter\SA-100_2339_05_1N4.cydsn/sgable.c ****                 CyBle_GattsWriteRsp(cyBle_connHandle);                          /* respond to the c
 2238              		.loc 1 659 0
 2239 05f6 BB68     		ldr	r3, [r7, #8]
 2240 05f8 5B68     		ldr	r3, [r3, #4]
 2241 05fa 1B78     		ldrb	r3, [r3]
 2242 05fc 0122     		movs	r2, #1
 2243 05fe 1340     		ands	r3, r2
 2244 0600 DAB2     		uxtb	r2, r3
 2245 0602 A64B     		ldr	r3, .L115+4
 2246 0604 9A70     		strb	r2, [r3, #2]
 660:..\..\..\..\..\WORK\1N4 Transmitter\SA-100_2339_05_1N4.cydsn/sgable.c ****             }
 2247              		.loc 1 660 0
 2248 0606 A44B     		ldr	r3, .L115
 2249 0608 1A78     		ldrb	r2, [r3]
 2250 060a 5B78     		ldrb	r3, [r3, #1]
 2251 060c 1B02     		lsls	r3, r3, #8
 2252 060e 1A43     		orrs	r2, r3
 2253 0610 0023     		movs	r3, #0
 2254 0612 1204     		lsls	r2, r2, #16
ARM GAS  C:\Users\alexport\AppData\Local\Temp\ccr3ZDs0.s 			page 56


 2255 0614 120C     		lsrs	r2, r2, #16
 2256 0616 1B0C     		lsrs	r3, r3, #16
 2257 0618 1B04     		lsls	r3, r3, #16
 2258 061a 1343     		orrs	r3, r2
 2259 061c 1800     		movs	r0, r3
 2260 061e FFF7FEFF 		bl	CyBle_GattsWriteRsp
 2261              	.L78:
 663:..\..\..\..\..\WORK\1N4 Transmitter\SA-100_2339_05_1N4.cydsn/sgable.c ****             {
 2262              		.loc 1 663 0
 2263 0622 BB68     		ldr	r3, [r7, #8]
 2264 0624 9B89     		ldrh	r3, [r3, #12]
 2265 0626 1C2B     		cmp	r3, #28
 2266 0628 1CD1     		bne	.L79
 665:..\..\..\..\..\WORK\1N4 Transmitter\SA-100_2339_05_1N4.cydsn/sgable.c ****                 System.BleNotifyStatus = wrReqParam->handleValPair.value.val[0] & 0x01; /* Update l
 2267              		.loc 1 665 0
 2268 062a BB68     		ldr	r3, [r7, #8]
 2269 062c 181D     		adds	r0, r3, #4
 2270 062e 9A4A     		ldr	r2, .L115
 2271 0630 4023     		movs	r3, #64
 2272 0632 0021     		movs	r1, #0
 2273 0634 FFF7FEFF 		bl	CyBle_GattsWriteAttributeValue
 666:..\..\..\..\..\WORK\1N4 Transmitter\SA-100_2339_05_1N4.cydsn/sgable.c ****                 CyBle_GattsWriteRsp(cyBle_connHandle);                          /* respond to the c
 2274              		.loc 1 666 0
 2275 0638 BB68     		ldr	r3, [r7, #8]
 2276 063a 5B68     		ldr	r3, [r3, #4]
 2277 063c 1B78     		ldrb	r3, [r3]
 2278 063e 0122     		movs	r2, #1
 2279 0640 1340     		ands	r3, r2
 2280 0642 DAB2     		uxtb	r2, r3
 2281 0644 954B     		ldr	r3, .L115+4
 2282 0646 DA70     		strb	r2, [r3, #3]
 667:..\..\..\..\..\WORK\1N4 Transmitter\SA-100_2339_05_1N4.cydsn/sgable.c ****             }
 2283              		.loc 1 667 0
 2284 0648 934B     		ldr	r3, .L115
 2285 064a 1A78     		ldrb	r2, [r3]
 2286 064c 5B78     		ldrb	r3, [r3, #1]
 2287 064e 1B02     		lsls	r3, r3, #8
 2288 0650 1A43     		orrs	r2, r3
 2289 0652 0023     		movs	r3, #0
 2290 0654 1204     		lsls	r2, r2, #16
 2291 0656 120C     		lsrs	r2, r2, #16
 2292 0658 1B0C     		lsrs	r3, r3, #16
 2293 065a 1B04     		lsls	r3, r3, #16
 2294 065c 1343     		orrs	r3, r2
 2295 065e 1800     		movs	r0, r3
 2296 0660 FFF7FEFF 		bl	CyBle_GattsWriteRsp
 2297              	.L79:
 670:..\..\..\..\..\WORK\1N4 Transmitter\SA-100_2339_05_1N4.cydsn/sgable.c ****             {
 2298              		.loc 1 670 0
 2299 0664 BB68     		ldr	r3, [r7, #8]
 2300 0666 9B89     		ldrh	r3, [r3, #12]
 2301 0668 292B     		cmp	r3, #41
 2302 066a 1CD1     		bne	.L80
 672:..\..\..\..\..\WORK\1N4 Transmitter\SA-100_2339_05_1N4.cydsn/sgable.c ****                 System.BleNotifyAdcCounts = wrReqParam->handleValPair.value.val[0] & 0x01; /* Updat
 2303              		.loc 1 672 0
 2304 066c BB68     		ldr	r3, [r7, #8]
 2305 066e 181D     		adds	r0, r3, #4
ARM GAS  C:\Users\alexport\AppData\Local\Temp\ccr3ZDs0.s 			page 57


 2306 0670 894A     		ldr	r2, .L115
 2307 0672 4023     		movs	r3, #64
 2308 0674 0021     		movs	r1, #0
 2309 0676 FFF7FEFF 		bl	CyBle_GattsWriteAttributeValue
 673:..\..\..\..\..\WORK\1N4 Transmitter\SA-100_2339_05_1N4.cydsn/sgable.c ****                 CyBle_GattsWriteRsp(cyBle_connHandle);                          /* respond to the c
 2310              		.loc 1 673 0
 2311 067a BB68     		ldr	r3, [r7, #8]
 2312 067c 5B68     		ldr	r3, [r3, #4]
 2313 067e 1B78     		ldrb	r3, [r3]
 2314 0680 0122     		movs	r2, #1
 2315 0682 1340     		ands	r3, r2
 2316 0684 DAB2     		uxtb	r2, r3
 2317 0686 854B     		ldr	r3, .L115+4
 2318 0688 9A74     		strb	r2, [r3, #18]
 674:..\..\..\..\..\WORK\1N4 Transmitter\SA-100_2339_05_1N4.cydsn/sgable.c ****             }
 2319              		.loc 1 674 0
 2320 068a 834B     		ldr	r3, .L115
 2321 068c 1A78     		ldrb	r2, [r3]
 2322 068e 5B78     		ldrb	r3, [r3, #1]
 2323 0690 1B02     		lsls	r3, r3, #8
 2324 0692 1A43     		orrs	r2, r3
 2325 0694 0023     		movs	r3, #0
 2326 0696 1204     		lsls	r2, r2, #16
 2327 0698 120C     		lsrs	r2, r2, #16
 2328 069a 1B0C     		lsrs	r3, r3, #16
 2329 069c 1B04     		lsls	r3, r3, #16
 2330 069e 1343     		orrs	r3, r2
 2331 06a0 1800     		movs	r0, r3
 2332 06a2 FFF7FEFF 		bl	CyBle_GattsWriteRsp
 2333              	.L80:
 677:..\..\..\..\..\WORK\1N4 Transmitter\SA-100_2339_05_1N4.cydsn/sgable.c ****             {
 2334              		.loc 1 677 0
 2335 06a6 BB68     		ldr	r3, [r7, #8]
 2336 06a8 9B89     		ldrh	r3, [r3, #12]
 2337 06aa 5F2B     		cmp	r3, #95
 2338 06ac 1CD1     		bne	.L81
 679:..\..\..\..\..\WORK\1N4 Transmitter\SA-100_2339_05_1N4.cydsn/sgable.c ****                 System.BleNotifyTemperature = wrReqParam->handleValPair.value.val[0] & 0x01; /* Upd
 2339              		.loc 1 679 0
 2340 06ae BB68     		ldr	r3, [r7, #8]
 2341 06b0 181D     		adds	r0, r3, #4
 2342 06b2 794A     		ldr	r2, .L115
 2343 06b4 4023     		movs	r3, #64
 2344 06b6 0021     		movs	r1, #0
 2345 06b8 FFF7FEFF 		bl	CyBle_GattsWriteAttributeValue
 680:..\..\..\..\..\WORK\1N4 Transmitter\SA-100_2339_05_1N4.cydsn/sgable.c ****                 CyBle_GattsWriteRsp(cyBle_connHandle);                          /* respond to the c
 2346              		.loc 1 680 0
 2347 06bc BB68     		ldr	r3, [r7, #8]
 2348 06be 5B68     		ldr	r3, [r3, #4]
 2349 06c0 1B78     		ldrb	r3, [r3]
 2350 06c2 0122     		movs	r2, #1
 2351 06c4 1340     		ands	r3, r2
 2352 06c6 DAB2     		uxtb	r2, r3
 2353 06c8 744B     		ldr	r3, .L115+4
 2354 06ca 9A71     		strb	r2, [r3, #6]
 681:..\..\..\..\..\WORK\1N4 Transmitter\SA-100_2339_05_1N4.cydsn/sgable.c ****             }
 2355              		.loc 1 681 0
 2356 06cc 724B     		ldr	r3, .L115
ARM GAS  C:\Users\alexport\AppData\Local\Temp\ccr3ZDs0.s 			page 58


 2357 06ce 1A78     		ldrb	r2, [r3]
 2358 06d0 5B78     		ldrb	r3, [r3, #1]
 2359 06d2 1B02     		lsls	r3, r3, #8
 2360 06d4 1A43     		orrs	r2, r3
 2361 06d6 0023     		movs	r3, #0
 2362 06d8 1204     		lsls	r2, r2, #16
 2363 06da 120C     		lsrs	r2, r2, #16
 2364 06dc 1B0C     		lsrs	r3, r3, #16
 2365 06de 1B04     		lsls	r3, r3, #16
 2366 06e0 1343     		orrs	r3, r2
 2367 06e2 1800     		movs	r0, r3
 2368 06e4 FFF7FEFF 		bl	CyBle_GattsWriteRsp
 2369              	.L81:
 684:..\..\..\..\..\WORK\1N4 Transmitter\SA-100_2339_05_1N4.cydsn/sgable.c ****             {
 2370              		.loc 1 684 0
 2371 06e8 BB68     		ldr	r3, [r7, #8]
 2372 06ea 9B89     		ldrh	r3, [r3, #12]
 2373 06ec 632B     		cmp	r3, #99
 2374 06ee 1CD1     		bne	.L82
 686:..\..\..\..\..\WORK\1N4 Transmitter\SA-100_2339_05_1N4.cydsn/sgable.c ****                 System.BleNotifyCalLevel = wrReqParam->handleValPair.value.val[0] & 0x01; /* Update
 2375              		.loc 1 686 0
 2376 06f0 BB68     		ldr	r3, [r7, #8]
 2377 06f2 181D     		adds	r0, r3, #4
 2378 06f4 684A     		ldr	r2, .L115
 2379 06f6 4023     		movs	r3, #64
 2380 06f8 0021     		movs	r1, #0
 2381 06fa FFF7FEFF 		bl	CyBle_GattsWriteAttributeValue
 687:..\..\..\..\..\WORK\1N4 Transmitter\SA-100_2339_05_1N4.cydsn/sgable.c ****                 CyBle_GattsWriteRsp(cyBle_connHandle);                          /* respond to the c
 2382              		.loc 1 687 0
 2383 06fe BB68     		ldr	r3, [r7, #8]
 2384 0700 5B68     		ldr	r3, [r3, #4]
 2385 0702 1B78     		ldrb	r3, [r3]
 2386 0704 0122     		movs	r2, #1
 2387 0706 1340     		ands	r3, r2
 2388 0708 DAB2     		uxtb	r2, r3
 2389 070a 644B     		ldr	r3, .L115+4
 2390 070c 1A72     		strb	r2, [r3, #8]
 688:..\..\..\..\..\WORK\1N4 Transmitter\SA-100_2339_05_1N4.cydsn/sgable.c ****             }
 2391              		.loc 1 688 0
 2392 070e 624B     		ldr	r3, .L115
 2393 0710 1A78     		ldrb	r2, [r3]
 2394 0712 5B78     		ldrb	r3, [r3, #1]
 2395 0714 1B02     		lsls	r3, r3, #8
 2396 0716 1A43     		orrs	r2, r3
 2397 0718 0023     		movs	r3, #0
 2398 071a 1204     		lsls	r2, r2, #16
 2399 071c 120C     		lsrs	r2, r2, #16
 2400 071e 1B0C     		lsrs	r3, r3, #16
 2401 0720 1B04     		lsls	r3, r3, #16
 2402 0722 1343     		orrs	r3, r2
 2403 0724 1800     		movs	r0, r3
 2404 0726 FFF7FEFF 		bl	CyBle_GattsWriteRsp
 2405              	.L82:
 691:..\..\..\..\..\WORK\1N4 Transmitter\SA-100_2339_05_1N4.cydsn/sgable.c ****             {
 2406              		.loc 1 691 0
 2407 072a BB68     		ldr	r3, [r7, #8]
 2408 072c 9B89     		ldrh	r3, [r3, #12]
ARM GAS  C:\Users\alexport\AppData\Local\Temp\ccr3ZDs0.s 			page 59


 2409 072e 6E2B     		cmp	r3, #110
 2410 0730 1CD1     		bne	.L83
 693:..\..\..\..\..\WORK\1N4 Transmitter\SA-100_2339_05_1N4.cydsn/sgable.c ****                 System.BleNotifyCalZeroError = wrReqParam->handleValPair.value.val[0] & 0x01; /* Up
 2411              		.loc 1 693 0
 2412 0732 BB68     		ldr	r3, [r7, #8]
 2413 0734 181D     		adds	r0, r3, #4
 2414 0736 584A     		ldr	r2, .L115
 2415 0738 4023     		movs	r3, #64
 2416 073a 0021     		movs	r1, #0
 2417 073c FFF7FEFF 		bl	CyBle_GattsWriteAttributeValue
 694:..\..\..\..\..\WORK\1N4 Transmitter\SA-100_2339_05_1N4.cydsn/sgable.c ****                 CyBle_GattsWriteRsp(cyBle_connHandle);                          /* respond to the c
 2418              		.loc 1 694 0
 2419 0740 BB68     		ldr	r3, [r7, #8]
 2420 0742 5B68     		ldr	r3, [r3, #4]
 2421 0744 1B78     		ldrb	r3, [r3]
 2422 0746 0122     		movs	r2, #1
 2423 0748 1340     		ands	r3, r2
 2424 074a DAB2     		uxtb	r2, r3
 2425 074c 534B     		ldr	r3, .L115+4
 2426 074e DA72     		strb	r2, [r3, #11]
 695:..\..\..\..\..\WORK\1N4 Transmitter\SA-100_2339_05_1N4.cydsn/sgable.c ****             }
 2427              		.loc 1 695 0
 2428 0750 514B     		ldr	r3, .L115
 2429 0752 1A78     		ldrb	r2, [r3]
 2430 0754 5B78     		ldrb	r3, [r3, #1]
 2431 0756 1B02     		lsls	r3, r3, #8
 2432 0758 1A43     		orrs	r2, r3
 2433 075a 0023     		movs	r3, #0
 2434 075c 1204     		lsls	r2, r2, #16
 2435 075e 120C     		lsrs	r2, r2, #16
 2436 0760 1B0C     		lsrs	r3, r3, #16
 2437 0762 1B04     		lsls	r3, r3, #16
 2438 0764 1343     		orrs	r3, r2
 2439 0766 1800     		movs	r0, r3
 2440 0768 FFF7FEFF 		bl	CyBle_GattsWriteRsp
 2441              	.L83:
 698:..\..\..\..\..\WORK\1N4 Transmitter\SA-100_2339_05_1N4.cydsn/sgable.c ****             {
 2442              		.loc 1 698 0
 2443 076c BB68     		ldr	r3, [r7, #8]
 2444 076e 9B89     		ldrh	r3, [r3, #12]
 2445 0770 722B     		cmp	r3, #114
 2446 0772 1CD1     		bne	.L84
 700:..\..\..\..\..\WORK\1N4 Transmitter\SA-100_2339_05_1N4.cydsn/sgable.c ****                 System.BleNotifyCalStep = wrReqParam->handleValPair.value.val[0] & 0x01; /* Update 
 2447              		.loc 1 700 0
 2448 0774 BB68     		ldr	r3, [r7, #8]
 2449 0776 181D     		adds	r0, r3, #4
 2450 0778 474A     		ldr	r2, .L115
 2451 077a 4023     		movs	r3, #64
 2452 077c 0021     		movs	r1, #0
 2453 077e FFF7FEFF 		bl	CyBle_GattsWriteAttributeValue
 701:..\..\..\..\..\WORK\1N4 Transmitter\SA-100_2339_05_1N4.cydsn/sgable.c ****                 CyBle_GattsWriteRsp(cyBle_connHandle);                          /* respond to the c
 2454              		.loc 1 701 0
 2455 0782 BB68     		ldr	r3, [r7, #8]
 2456 0784 5B68     		ldr	r3, [r3, #4]
 2457 0786 1B78     		ldrb	r3, [r3]
 2458 0788 0122     		movs	r2, #1
 2459 078a 1340     		ands	r3, r2
ARM GAS  C:\Users\alexport\AppData\Local\Temp\ccr3ZDs0.s 			page 60


 2460 078c DAB2     		uxtb	r2, r3
 2461 078e 434B     		ldr	r3, .L115+4
 2462 0790 1A73     		strb	r2, [r3, #12]
 702:..\..\..\..\..\WORK\1N4 Transmitter\SA-100_2339_05_1N4.cydsn/sgable.c ****             }
 2463              		.loc 1 702 0
 2464 0792 414B     		ldr	r3, .L115
 2465 0794 1A78     		ldrb	r2, [r3]
 2466 0796 5B78     		ldrb	r3, [r3, #1]
 2467 0798 1B02     		lsls	r3, r3, #8
 2468 079a 1A43     		orrs	r2, r3
 2469 079c 0023     		movs	r3, #0
 2470 079e 1204     		lsls	r2, r2, #16
 2471 07a0 120C     		lsrs	r2, r2, #16
 2472 07a2 1B0C     		lsrs	r3, r3, #16
 2473 07a4 1B04     		lsls	r3, r3, #16
 2474 07a6 1343     		orrs	r3, r2
 2475 07a8 1800     		movs	r0, r3
 2476 07aa FFF7FEFF 		bl	CyBle_GattsWriteRsp
 2477              	.L84:
 705:..\..\..\..\..\WORK\1N4 Transmitter\SA-100_2339_05_1N4.cydsn/sgable.c ****             {
 2478              		.loc 1 705 0
 2479 07ae BB68     		ldr	r3, [r7, #8]
 2480 07b0 9B89     		ldrh	r3, [r3, #12]
 2481 07b2 762B     		cmp	r3, #118
 2482 07b4 1CD1     		bne	.L85
 707:..\..\..\..\..\WORK\1N4 Transmitter\SA-100_2339_05_1N4.cydsn/sgable.c ****                 System.BleNotifyCalSpeed = wrReqParam->handleValPair.value.val[0] & 0x01; /* Update
 2483              		.loc 1 707 0
 2484 07b6 BB68     		ldr	r3, [r7, #8]
 2485 07b8 181D     		adds	r0, r3, #4
 2486 07ba 374A     		ldr	r2, .L115
 2487 07bc 4023     		movs	r3, #64
 2488 07be 0021     		movs	r1, #0
 2489 07c0 FFF7FEFF 		bl	CyBle_GattsWriteAttributeValue
 708:..\..\..\..\..\WORK\1N4 Transmitter\SA-100_2339_05_1N4.cydsn/sgable.c ****                 CyBle_GattsWriteRsp(cyBle_connHandle);                          /* respond to the c
 2490              		.loc 1 708 0
 2491 07c4 BB68     		ldr	r3, [r7, #8]
 2492 07c6 5B68     		ldr	r3, [r3, #4]
 2493 07c8 1B78     		ldrb	r3, [r3]
 2494 07ca 0122     		movs	r2, #1
 2495 07cc 1340     		ands	r3, r2
 2496 07ce DAB2     		uxtb	r2, r3
 2497 07d0 324B     		ldr	r3, .L115+4
 2498 07d2 5A73     		strb	r2, [r3, #13]
 709:..\..\..\..\..\WORK\1N4 Transmitter\SA-100_2339_05_1N4.cydsn/sgable.c ****             }
 2499              		.loc 1 709 0
 2500 07d4 304B     		ldr	r3, .L115
 2501 07d6 1A78     		ldrb	r2, [r3]
 2502 07d8 5B78     		ldrb	r3, [r3, #1]
 2503 07da 1B02     		lsls	r3, r3, #8
 2504 07dc 1A43     		orrs	r2, r3
 2505 07de 0023     		movs	r3, #0
 2506 07e0 1204     		lsls	r2, r2, #16
 2507 07e2 120C     		lsrs	r2, r2, #16
 2508 07e4 1B0C     		lsrs	r3, r3, #16
 2509 07e6 1B04     		lsls	r3, r3, #16
 2510 07e8 1343     		orrs	r3, r2
 2511 07ea 1800     		movs	r0, r3
ARM GAS  C:\Users\alexport\AppData\Local\Temp\ccr3ZDs0.s 			page 61


 2512 07ec FFF7FEFF 		bl	CyBle_GattsWriteRsp
 2513              	.L85:
 712:..\..\..\..\..\WORK\1N4 Transmitter\SA-100_2339_05_1N4.cydsn/sgable.c ****             {
 2514              		.loc 1 712 0
 2515 07f0 BB68     		ldr	r3, [r7, #8]
 2516 07f2 9B89     		ldrh	r3, [r3, #12]
 2517 07f4 7A2B     		cmp	r3, #122
 2518 07f6 1CD1     		bne	.L86
 714:..\..\..\..\..\WORK\1N4 Transmitter\SA-100_2339_05_1N4.cydsn/sgable.c ****                 System.BleNotifyCalAsFound = wrReqParam->handleValPair.value.val[0] & 0x01; /* Upda
 2519              		.loc 1 714 0
 2520 07f8 BB68     		ldr	r3, [r7, #8]
 2521 07fa 181D     		adds	r0, r3, #4
 2522 07fc 264A     		ldr	r2, .L115
 2523 07fe 4023     		movs	r3, #64
 2524 0800 0021     		movs	r1, #0
 2525 0802 FFF7FEFF 		bl	CyBle_GattsWriteAttributeValue
 715:..\..\..\..\..\WORK\1N4 Transmitter\SA-100_2339_05_1N4.cydsn/sgable.c ****                 CyBle_GattsWriteRsp(cyBle_connHandle);                          /* respond to the c
 2526              		.loc 1 715 0
 2527 0806 BB68     		ldr	r3, [r7, #8]
 2528 0808 5B68     		ldr	r3, [r3, #4]
 2529 080a 1B78     		ldrb	r3, [r3]
 2530 080c 0122     		movs	r2, #1
 2531 080e 1340     		ands	r3, r2
 2532 0810 DAB2     		uxtb	r2, r3
 2533 0812 224B     		ldr	r3, .L115+4
 2534 0814 5A72     		strb	r2, [r3, #9]
 716:..\..\..\..\..\WORK\1N4 Transmitter\SA-100_2339_05_1N4.cydsn/sgable.c ****             }
 2535              		.loc 1 716 0
 2536 0816 204B     		ldr	r3, .L115
 2537 0818 1A78     		ldrb	r2, [r3]
 2538 081a 5B78     		ldrb	r3, [r3, #1]
 2539 081c 1B02     		lsls	r3, r3, #8
 2540 081e 1A43     		orrs	r2, r3
 2541 0820 0023     		movs	r3, #0
 2542 0822 1204     		lsls	r2, r2, #16
 2543 0824 120C     		lsrs	r2, r2, #16
 2544 0826 1B0C     		lsrs	r3, r3, #16
 2545 0828 1B04     		lsls	r3, r3, #16
 2546 082a 1343     		orrs	r3, r2
 2547 082c 1800     		movs	r0, r3
 2548 082e FFF7FEFF 		bl	CyBle_GattsWriteRsp
 2549              	.L86:
 719:..\..\..\..\..\WORK\1N4 Transmitter\SA-100_2339_05_1N4.cydsn/sgable.c ****             {
 2550              		.loc 1 719 0
 2551 0832 BB68     		ldr	r3, [r7, #8]
 2552 0834 9B89     		ldrh	r3, [r3, #12]
 2553 0836 7E2B     		cmp	r3, #126
 2554 0838 1CD1     		bne	.L87
 721:..\..\..\..\..\WORK\1N4 Transmitter\SA-100_2339_05_1N4.cydsn/sgable.c ****                 System.BleNotifyCalAdjusted = wrReqParam->handleValPair.value.val[0] & 0x01; /* Upd
 2555              		.loc 1 721 0
 2556 083a BB68     		ldr	r3, [r7, #8]
 2557 083c 181D     		adds	r0, r3, #4
 2558 083e 164A     		ldr	r2, .L115
 2559 0840 4023     		movs	r3, #64
 2560 0842 0021     		movs	r1, #0
 2561 0844 FFF7FEFF 		bl	CyBle_GattsWriteAttributeValue
 722:..\..\..\..\..\WORK\1N4 Transmitter\SA-100_2339_05_1N4.cydsn/sgable.c ****                 CyBle_GattsWriteRsp(cyBle_connHandle);                          /* respond to the c
ARM GAS  C:\Users\alexport\AppData\Local\Temp\ccr3ZDs0.s 			page 62


 2562              		.loc 1 722 0
 2563 0848 BB68     		ldr	r3, [r7, #8]
 2564 084a 5B68     		ldr	r3, [r3, #4]
 2565 084c 1B78     		ldrb	r3, [r3]
 2566 084e 0122     		movs	r2, #1
 2567 0850 1340     		ands	r3, r2
 2568 0852 DAB2     		uxtb	r2, r3
 2569 0854 114B     		ldr	r3, .L115+4
 2570 0856 9A72     		strb	r2, [r3, #10]
 723:..\..\..\..\..\WORK\1N4 Transmitter\SA-100_2339_05_1N4.cydsn/sgable.c ****             }
 2571              		.loc 1 723 0
 2572 0858 0F4B     		ldr	r3, .L115
 2573 085a 1A78     		ldrb	r2, [r3]
 2574 085c 5B78     		ldrb	r3, [r3, #1]
 2575 085e 1B02     		lsls	r3, r3, #8
 2576 0860 1A43     		orrs	r2, r3
 2577 0862 0023     		movs	r3, #0
 2578 0864 1204     		lsls	r2, r2, #16
 2579 0866 120C     		lsrs	r2, r2, #16
 2580 0868 1B0C     		lsrs	r3, r3, #16
 2581 086a 1B04     		lsls	r3, r3, #16
 2582 086c 1343     		orrs	r3, r2
 2583 086e 1800     		movs	r0, r3
 2584 0870 FFF7FEFF 		bl	CyBle_GattsWriteRsp
 2585              	.L87:
 726:..\..\..\..\..\WORK\1N4 Transmitter\SA-100_2339_05_1N4.cydsn/sgable.c ****             {
 2586              		.loc 1 726 0
 2587 0874 BB68     		ldr	r3, [r7, #8]
 2588 0876 9B89     		ldrh	r3, [r3, #12]
 2589 0878 852B     		cmp	r3, #133
 2590 087a 22D1     		bne	.L88
 728:..\..\..\..\..\WORK\1N4 Transmitter\SA-100_2339_05_1N4.cydsn/sgable.c ****                 System.BleNotifyLife = wrReqParam->handleValPair.value.val[0] & 0x01; /* Update loc
 2591              		.loc 1 728 0
 2592 087c BB68     		ldr	r3, [r7, #8]
 2593 087e 181D     		adds	r0, r3, #4
 2594 0880 054A     		ldr	r2, .L115
 2595 0882 4023     		movs	r3, #64
 2596 0884 0021     		movs	r1, #0
 2597 0886 FFF7FEFF 		bl	CyBle_GattsWriteAttributeValue
 729:..\..\..\..\..\WORK\1N4 Transmitter\SA-100_2339_05_1N4.cydsn/sgable.c ****                 CyBle_GattsWriteRsp(cyBle_connHandle);                          /* respond to the c
 2598              		.loc 1 729 0
 2599 088a BB68     		ldr	r3, [r7, #8]
 2600 088c 5B68     		ldr	r3, [r3, #4]
 2601 088e 1B78     		ldrb	r3, [r3]
 2602 0890 0122     		movs	r2, #1
 2603 0892 1340     		ands	r3, r2
 2604 0894 04E0     		b	.L116
 2605              	.L117:
 2606 0896 C046     		.align	2
 2607              	.L115:
 2608 0898 00000000 		.word	cyBle_connHandle
 2609 089c 00000000 		.word	System
 2610              	.L116:
 2611 08a0 DAB2     		uxtb	r2, r3
 2612 08a2 5E4B     		ldr	r3, .L118
 2613 08a4 DA71     		strb	r2, [r3, #7]
 730:..\..\..\..\..\WORK\1N4 Transmitter\SA-100_2339_05_1N4.cydsn/sgable.c ****             }
ARM GAS  C:\Users\alexport\AppData\Local\Temp\ccr3ZDs0.s 			page 63


 2614              		.loc 1 730 0
 2615 08a6 5E4B     		ldr	r3, .L118+4
 2616 08a8 1A78     		ldrb	r2, [r3]
 2617 08aa 5B78     		ldrb	r3, [r3, #1]
 2618 08ac 1B02     		lsls	r3, r3, #8
 2619 08ae 1A43     		orrs	r2, r3
 2620 08b0 0023     		movs	r3, #0
 2621 08b2 1204     		lsls	r2, r2, #16
 2622 08b4 120C     		lsrs	r2, r2, #16
 2623 08b6 1B0C     		lsrs	r3, r3, #16
 2624 08b8 1B04     		lsls	r3, r3, #16
 2625 08ba 1343     		orrs	r3, r2
 2626 08bc 1800     		movs	r0, r3
 2627 08be FFF7FEFF 		bl	CyBle_GattsWriteRsp
 2628              	.L88:
 733:..\..\..\..\..\WORK\1N4 Transmitter\SA-100_2339_05_1N4.cydsn/sgable.c ****             {
 2629              		.loc 1 733 0
 2630 08c2 BB68     		ldr	r3, [r7, #8]
 2631 08c4 9B89     		ldrh	r3, [r3, #12]
 2632 08c6 892B     		cmp	r3, #137
 2633 08c8 1CD1     		bne	.L89
 735:..\..\..\..\..\WORK\1N4 Transmitter\SA-100_2339_05_1N4.cydsn/sgable.c ****                 System.BleNotifyCalClearing = wrReqParam->handleValPair.value.val[0] & 0x01; /* Upd
 2634              		.loc 1 735 0
 2635 08ca BB68     		ldr	r3, [r7, #8]
 2636 08cc 181D     		adds	r0, r3, #4
 2637 08ce 544A     		ldr	r2, .L118+4
 2638 08d0 4023     		movs	r3, #64
 2639 08d2 0021     		movs	r1, #0
 2640 08d4 FFF7FEFF 		bl	CyBle_GattsWriteAttributeValue
 736:..\..\..\..\..\WORK\1N4 Transmitter\SA-100_2339_05_1N4.cydsn/sgable.c ****                 CyBle_GattsWriteRsp(cyBle_connHandle);                          /* respond to the c
 2641              		.loc 1 736 0
 2642 08d8 BB68     		ldr	r3, [r7, #8]
 2643 08da 5B68     		ldr	r3, [r3, #4]
 2644 08dc 1B78     		ldrb	r3, [r3]
 2645 08de 0122     		movs	r2, #1
 2646 08e0 1340     		ands	r3, r2
 2647 08e2 DAB2     		uxtb	r2, r3
 2648 08e4 4D4B     		ldr	r3, .L118
 2649 08e6 9A73     		strb	r2, [r3, #14]
 737:..\..\..\..\..\WORK\1N4 Transmitter\SA-100_2339_05_1N4.cydsn/sgable.c ****             }
 2650              		.loc 1 737 0
 2651 08e8 4D4B     		ldr	r3, .L118+4
 2652 08ea 1A78     		ldrb	r2, [r3]
 2653 08ec 5B78     		ldrb	r3, [r3, #1]
 2654 08ee 1B02     		lsls	r3, r3, #8
 2655 08f0 1A43     		orrs	r2, r3
 2656 08f2 0023     		movs	r3, #0
 2657 08f4 1204     		lsls	r2, r2, #16
 2658 08f6 120C     		lsrs	r2, r2, #16
 2659 08f8 1B0C     		lsrs	r3, r3, #16
 2660 08fa 1B04     		lsls	r3, r3, #16
 2661 08fc 1343     		orrs	r3, r2
 2662 08fe 1800     		movs	r0, r3
 2663 0900 FFF7FEFF 		bl	CyBle_GattsWriteRsp
 2664              	.L89:
 740:..\..\..\..\..\WORK\1N4 Transmitter\SA-100_2339_05_1N4.cydsn/sgable.c ****             {
 2665              		.loc 1 740 0
ARM GAS  C:\Users\alexport\AppData\Local\Temp\ccr3ZDs0.s 			page 64


 2666 0904 BB68     		ldr	r3, [r7, #8]
 2667 0906 9B89     		ldrh	r3, [r3, #12]
 2668 0908 8D2B     		cmp	r3, #141
 2669 090a 1CD1     		bne	.L90
 742:..\..\..\..\..\WORK\1N4 Transmitter\SA-100_2339_05_1N4.cydsn/sgable.c ****                 System.BleNotifyCalSpanError = wrReqParam->handleValPair.value.val[0] & 0x01; /* Up
 2670              		.loc 1 742 0
 2671 090c BB68     		ldr	r3, [r7, #8]
 2672 090e 181D     		adds	r0, r3, #4
 2673 0910 434A     		ldr	r2, .L118+4
 2674 0912 4023     		movs	r3, #64
 2675 0914 0021     		movs	r1, #0
 2676 0916 FFF7FEFF 		bl	CyBle_GattsWriteAttributeValue
 743:..\..\..\..\..\WORK\1N4 Transmitter\SA-100_2339_05_1N4.cydsn/sgable.c ****                 CyBle_GattsWriteRsp(cyBle_connHandle);                          /* respond to the c
 2677              		.loc 1 743 0
 2678 091a BB68     		ldr	r3, [r7, #8]
 2679 091c 5B68     		ldr	r3, [r3, #4]
 2680 091e 1B78     		ldrb	r3, [r3]
 2681 0920 0122     		movs	r2, #1
 2682 0922 1340     		ands	r3, r2
 2683 0924 DAB2     		uxtb	r2, r3
 2684 0926 3D4B     		ldr	r3, .L118
 2685 0928 DA73     		strb	r2, [r3, #15]
 744:..\..\..\..\..\WORK\1N4 Transmitter\SA-100_2339_05_1N4.cydsn/sgable.c ****             }
 2686              		.loc 1 744 0
 2687 092a 3D4B     		ldr	r3, .L118+4
 2688 092c 1A78     		ldrb	r2, [r3]
 2689 092e 5B78     		ldrb	r3, [r3, #1]
 2690 0930 1B02     		lsls	r3, r3, #8
 2691 0932 1A43     		orrs	r2, r3
 2692 0934 0023     		movs	r3, #0
 2693 0936 1204     		lsls	r2, r2, #16
 2694 0938 120C     		lsrs	r2, r2, #16
 2695 093a 1B0C     		lsrs	r3, r3, #16
 2696 093c 1B04     		lsls	r3, r3, #16
 2697 093e 1343     		orrs	r3, r2
 2698 0940 1800     		movs	r0, r3
 2699 0942 FFF7FEFF 		bl	CyBle_GattsWriteRsp
 2700              	.L90:
 747:..\..\..\..\..\WORK\1N4 Transmitter\SA-100_2339_05_1N4.cydsn/sgable.c ****             {
 2701              		.loc 1 747 0
 2702 0946 BB68     		ldr	r3, [r7, #8]
 2703 0948 9B89     		ldrh	r3, [r3, #12]
 2704 094a 912B     		cmp	r3, #145
 2705 094c 1CD1     		bne	.L91
 749:..\..\..\..\..\WORK\1N4 Transmitter\SA-100_2339_05_1N4.cydsn/sgable.c ****                 System.BleNotifyCalibrationStatus = wrReqParam->handleValPair.value.val[0] & 0x01; 
 2706              		.loc 1 749 0
 2707 094e BB68     		ldr	r3, [r7, #8]
 2708 0950 181D     		adds	r0, r3, #4
 2709 0952 334A     		ldr	r2, .L118+4
 2710 0954 4023     		movs	r3, #64
 2711 0956 0021     		movs	r1, #0
 2712 0958 FFF7FEFF 		bl	CyBle_GattsWriteAttributeValue
 750:..\..\..\..\..\WORK\1N4 Transmitter\SA-100_2339_05_1N4.cydsn/sgable.c ****                 CyBle_GattsWriteRsp(cyBle_connHandle);                          /* respond to the c
 2713              		.loc 1 750 0
 2714 095c BB68     		ldr	r3, [r7, #8]
 2715 095e 5B68     		ldr	r3, [r3, #4]
 2716 0960 1B78     		ldrb	r3, [r3]
ARM GAS  C:\Users\alexport\AppData\Local\Temp\ccr3ZDs0.s 			page 65


 2717 0962 0122     		movs	r2, #1
 2718 0964 1340     		ands	r3, r2
 2719 0966 DAB2     		uxtb	r2, r3
 2720 0968 2C4B     		ldr	r3, .L118
 2721 096a 5A74     		strb	r2, [r3, #17]
 751:..\..\..\..\..\WORK\1N4 Transmitter\SA-100_2339_05_1N4.cydsn/sgable.c ****             }
 2722              		.loc 1 751 0
 2723 096c 2C4B     		ldr	r3, .L118+4
 2724 096e 1A78     		ldrb	r2, [r3]
 2725 0970 5B78     		ldrb	r3, [r3, #1]
 2726 0972 1B02     		lsls	r3, r3, #8
 2727 0974 1A43     		orrs	r2, r3
 2728 0976 0023     		movs	r3, #0
 2729 0978 1204     		lsls	r2, r2, #16
 2730 097a 120C     		lsrs	r2, r2, #16
 2731 097c 1B0C     		lsrs	r3, r3, #16
 2732 097e 1B04     		lsls	r3, r3, #16
 2733 0980 1343     		orrs	r3, r2
 2734 0982 1800     		movs	r0, r3
 2735 0984 FFF7FEFF 		bl	CyBle_GattsWriteRsp
 2736              	.L91:
 754:..\..\..\..\..\WORK\1N4 Transmitter\SA-100_2339_05_1N4.cydsn/sgable.c ****             {
 2737              		.loc 1 754 0
 2738 0988 BB68     		ldr	r3, [r7, #8]
 2739 098a 9B89     		ldrh	r3, [r3, #12]
 2740 098c 952B     		cmp	r3, #149
 2741 098e 1CD1     		bne	.L92
 756:..\..\..\..\..\WORK\1N4 Transmitter\SA-100_2339_05_1N4.cydsn/sgable.c ****                 System.BleNotifyReadingScaled = wrReqParam->handleValPair.value.val[0] & 0x01; /* U
 2742              		.loc 1 756 0
 2743 0990 BB68     		ldr	r3, [r7, #8]
 2744 0992 181D     		adds	r0, r3, #4
 2745 0994 224A     		ldr	r2, .L118+4
 2746 0996 4023     		movs	r3, #64
 2747 0998 0021     		movs	r1, #0
 2748 099a FFF7FEFF 		bl	CyBle_GattsWriteAttributeValue
 757:..\..\..\..\..\WORK\1N4 Transmitter\SA-100_2339_05_1N4.cydsn/sgable.c ****                 CyBle_GattsWriteRsp(cyBle_connHandle);                          /* respond to the c
 2749              		.loc 1 757 0
 2750 099e BB68     		ldr	r3, [r7, #8]
 2751 09a0 5B68     		ldr	r3, [r3, #4]
 2752 09a2 1B78     		ldrb	r3, [r3]
 2753 09a4 0122     		movs	r2, #1
 2754 09a6 1340     		ands	r3, r2
 2755 09a8 DAB2     		uxtb	r2, r3
 2756 09aa 1C4B     		ldr	r3, .L118
 2757 09ac 1A74     		strb	r2, [r3, #16]
 758:..\..\..\..\..\WORK\1N4 Transmitter\SA-100_2339_05_1N4.cydsn/sgable.c ****             }
 2758              		.loc 1 758 0
 2759 09ae 1C4B     		ldr	r3, .L118+4
 2760 09b0 1A78     		ldrb	r2, [r3]
 2761 09b2 5B78     		ldrb	r3, [r3, #1]
 2762 09b4 1B02     		lsls	r3, r3, #8
 2763 09b6 1A43     		orrs	r2, r3
 2764 09b8 0023     		movs	r3, #0
 2765 09ba 1204     		lsls	r2, r2, #16
 2766 09bc 120C     		lsrs	r2, r2, #16
 2767 09be 1B0C     		lsrs	r3, r3, #16
 2768 09c0 1B04     		lsls	r3, r3, #16
ARM GAS  C:\Users\alexport\AppData\Local\Temp\ccr3ZDs0.s 			page 66


 2769 09c2 1343     		orrs	r3, r2
 2770 09c4 1800     		movs	r0, r3
 2771 09c6 FFF7FEFF 		bl	CyBle_GattsWriteRsp
 2772              	.L92:
 761:..\..\..\..\..\WORK\1N4 Transmitter\SA-100_2339_05_1N4.cydsn/sgable.c ****             {
 2773              		.loc 1 761 0
 2774 09ca BB68     		ldr	r3, [r7, #8]
 2775 09cc 9B89     		ldrh	r3, [r3, #12]
 2776 09ce 992B     		cmp	r3, #153
 2777 09d0 1FD1     		bne	.L110
 763:..\..\..\..\..\WORK\1N4 Transmitter\SA-100_2339_05_1N4.cydsn/sgable.c ****                 System.BleNotifyAlertStatus = wrReqParam->handleValPair.value.val[0] & 0x01; /* Upd
 2778              		.loc 1 763 0
 2779 09d2 BB68     		ldr	r3, [r7, #8]
 2780 09d4 181D     		adds	r0, r3, #4
 2781 09d6 124A     		ldr	r2, .L118+4
 2782 09d8 4023     		movs	r3, #64
 2783 09da 0021     		movs	r1, #0
 2784 09dc FFF7FEFF 		bl	CyBle_GattsWriteAttributeValue
 764:..\..\..\..\..\WORK\1N4 Transmitter\SA-100_2339_05_1N4.cydsn/sgable.c ****                 CyBle_GattsWriteRsp(cyBle_connHandle);                          /* respond to the c
 2785              		.loc 1 764 0
 2786 09e0 BB68     		ldr	r3, [r7, #8]
 2787 09e2 5B68     		ldr	r3, [r3, #4]
 2788 09e4 1B78     		ldrb	r3, [r3]
 2789 09e6 0122     		movs	r2, #1
 2790 09e8 1340     		ands	r3, r2
 2791 09ea DAB2     		uxtb	r2, r3
 2792 09ec 0B4B     		ldr	r3, .L118
 2793 09ee 1A71     		strb	r2, [r3, #4]
 765:..\..\..\..\..\WORK\1N4 Transmitter\SA-100_2339_05_1N4.cydsn/sgable.c ****             }
 2794              		.loc 1 765 0
 2795 09f0 0B4B     		ldr	r3, .L118+4
 2796 09f2 1A78     		ldrb	r2, [r3]
 2797 09f4 5B78     		ldrb	r3, [r3, #1]
 2798 09f6 1B02     		lsls	r3, r3, #8
 2799 09f8 1A43     		orrs	r2, r3
 2800 09fa 0023     		movs	r3, #0
 2801 09fc 1204     		lsls	r2, r2, #16
 2802 09fe 120C     		lsrs	r2, r2, #16
 2803 0a00 1B0C     		lsrs	r3, r3, #16
 2804 0a02 1B04     		lsls	r3, r3, #16
 2805 0a04 1343     		orrs	r3, r2
 2806 0a06 1800     		movs	r0, r3
 2807 0a08 FFF7FEFF 		bl	CyBle_GattsWriteRsp
 767:..\..\..\..\..\WORK\1N4 Transmitter\SA-100_2339_05_1N4.cydsn/sgable.c ****         default:
 2808              		.loc 1 767 0
 2809 0a0c 01E0     		b	.L110
 2810              	.L94:
 391:..\..\..\..\..\WORK\1N4 Transmitter\SA-100_2339_05_1N4.cydsn/sgable.c ****         case CYBLE_EVT_GATT_CONNECT_IND:                                        /* Handle BLE conne
 2811              		.loc 1 391 0
 2812 0a0e C046     		nop
 2813 0a10 00E0     		b	.L40
 2814              	.L110:
 767:..\..\..\..\..\WORK\1N4 Transmitter\SA-100_2339_05_1N4.cydsn/sgable.c ****         default:
 2815              		.loc 1 767 0
 2816 0a12 C046     		nop
 2817              	.L40:
 770:..\..\..\..\..\WORK\1N4 Transmitter\SA-100_2339_05_1N4.cydsn/sgable.c ****             
ARM GAS  C:\Users\alexport\AppData\Local\Temp\ccr3ZDs0.s 			page 67


 771:..\..\..\..\..\WORK\1N4 Transmitter\SA-100_2339_05_1N4.cydsn/sgable.c ****     }
 772:..\..\..\..\..\WORK\1N4 Transmitter\SA-100_2339_05_1N4.cydsn/sgable.c **** }
 2818              		.loc 1 772 0
 2819 0a14 C046     		nop
 2820 0a16 BD46     		mov	sp, r7
 2821 0a18 04B0     		add	sp, sp, #16
 2822              		@ sp needed
 2823 0a1a 80BD     		pop	{r7, pc}
 2824              	.L119:
 2825              		.align	2
 2826              	.L118:
 2827 0a1c 00000000 		.word	System
 2828 0a20 00000000 		.word	cyBle_connHandle
 2829              		.cfi_endproc
 2830              	.LFE36:
 2831              		.size	Stack_Handler, .-Stack_Handler
 2832              		.text
 2833              	.Letext0:
 2834              		.file 2 "Generated_Source\\PSoC4/cytypes.h"
 2835              		.file 3 "Generated_Source\\PSoC4/blue_Stack.h"
 2836              		.file 4 "Generated_Source\\PSoC4/blue_StackGatt.h"
 2837              		.file 5 "Generated_Source\\PSoC4/blue_StackGattServer.h"
 2838              		.file 6 "Generated_Source\\PSoC4/blue_dis.h"
 2839              		.file 7 "Generated_Source\\PSoC4/blue_eventHandler.h"
 2840              		.file 8 "c:\\work\\1n4 transmitter\\sa-100_2339_05_1n4.cydsn\\sensors.h"
 2841              		.file 9 "c:\\work\\1n4 transmitter\\sa-100_2339_05_1n4.cydsn\\system.h"
 2842              		.file 10 "c:\\work\\1n4 transmitter\\sa-100_2339_05_1n4.cydsn\\at24cs01.h"
 2843              		.file 11 "c:\\work\\1n4 transmitter\\sa-100_2339_05_1n4.cydsn\\maxad12.h"
 2844              		.file 12 "c:\\work\\1n4 transmitter\\sa-100_2339_05_1n4.cydsn\\sgable.h"
 2845              		.file 13 "c:\\work\\1n4 transmitter\\sa-100_2339_05_1n4.cydsn\\sa100cec.h"
 2846              		.file 14 "c:\\work\\1n4 transmitter\\sa-100_2339_05_1n4.cydsn\\ModbusInterrupts.h"
 2847              		.file 15 "c:\\work\\1n4 transmitter\\sa-100_2339_05_1n4.cydsn\\ModbusMaster.h"
 2848              		.section	.debug_info,"",%progbits
 2849              	.Ldebug_info0:
 2850 0000 640F0000 		.4byte	0xf64
 2851 0004 0400     		.2byte	0x4
 2852 0006 00000000 		.4byte	.Ldebug_abbrev0
 2853 000a 04       		.byte	0x4
 2854 000b 01       		.uleb128 0x1
 2855 000c 0B040000 		.4byte	.LASF344
 2856 0010 0C       		.byte	0xc
 2857 0011 6C010000 		.4byte	.LASF345
 2858 0015 DD060000 		.4byte	.LASF346
 2859 0019 00000000 		.4byte	.Ldebug_ranges0+0
 2860 001d 00000000 		.4byte	0
 2861 0021 00000000 		.4byte	.Ldebug_line0
 2862 0025 02       		.uleb128 0x2
 2863 0026 01       		.byte	0x1
 2864 0027 06       		.byte	0x6
 2865 0028 601B0000 		.4byte	.LASF0
 2866 002c 02       		.uleb128 0x2
 2867 002d 01       		.byte	0x1
 2868 002e 08       		.byte	0x8
 2869 002f 18190000 		.4byte	.LASF1
 2870 0033 02       		.uleb128 0x2
 2871 0034 02       		.byte	0x2
 2872 0035 05       		.byte	0x5
ARM GAS  C:\Users\alexport\AppData\Local\Temp\ccr3ZDs0.s 			page 68


 2873 0036 F7130000 		.4byte	.LASF2
 2874 003a 02       		.uleb128 0x2
 2875 003b 02       		.byte	0x2
 2876 003c 07       		.byte	0x7
 2877 003d 6C1B0000 		.4byte	.LASF3
 2878 0041 02       		.uleb128 0x2
 2879 0042 04       		.byte	0x4
 2880 0043 05       		.byte	0x5
 2881 0044 79140000 		.4byte	.LASF4
 2882 0048 02       		.uleb128 0x2
 2883 0049 04       		.byte	0x4
 2884 004a 07       		.byte	0x7
 2885 004b C8170000 		.4byte	.LASF5
 2886 004f 02       		.uleb128 0x2
 2887 0050 08       		.byte	0x8
 2888 0051 05       		.byte	0x5
 2889 0052 280F0000 		.4byte	.LASF6
 2890 0056 02       		.uleb128 0x2
 2891 0057 08       		.byte	0x8
 2892 0058 07       		.byte	0x7
 2893 0059 13080000 		.4byte	.LASF7
 2894 005d 03       		.uleb128 0x3
 2895 005e 04       		.byte	0x4
 2896 005f 05       		.byte	0x5
 2897 0060 696E7400 		.ascii	"int\000"
 2898 0064 02       		.uleb128 0x2
 2899 0065 04       		.byte	0x4
 2900 0066 07       		.byte	0x7
 2901 0067 19030000 		.4byte	.LASF8
 2902 006b 04       		.uleb128 0x4
 2903 006c C01B0000 		.4byte	.LASF9
 2904 0070 02       		.byte	0x2
 2905 0071 FC01     		.2byte	0x1fc
 2906 0073 2C000000 		.4byte	0x2c
 2907 0077 04       		.uleb128 0x4
 2908 0078 D50E0000 		.4byte	.LASF10
 2909 007c 02       		.byte	0x2
 2910 007d FD01     		.2byte	0x1fd
 2911 007f 3A000000 		.4byte	0x3a
 2912 0083 04       		.uleb128 0x4
 2913 0084 EB100000 		.4byte	.LASF11
 2914 0088 02       		.byte	0x2
 2915 0089 FE01     		.2byte	0x1fe
 2916 008b 48000000 		.4byte	0x48
 2917 008f 04       		.uleb128 0x4
 2918 0090 D5120000 		.4byte	.LASF12
 2919 0094 02       		.byte	0x2
 2920 0095 FF01     		.2byte	0x1ff
 2921 0097 25000000 		.4byte	0x25
 2922 009b 04       		.uleb128 0x4
 2923 009c E3030000 		.4byte	.LASF13
 2924 00a0 02       		.byte	0x2
 2925 00a1 0002     		.2byte	0x200
 2926 00a3 33000000 		.4byte	0x33
 2927 00a7 02       		.uleb128 0x2
 2928 00a8 04       		.byte	0x4
 2929 00a9 04       		.byte	0x4
ARM GAS  C:\Users\alexport\AppData\Local\Temp\ccr3ZDs0.s 			page 69


 2930 00aa 74070000 		.4byte	.LASF14
 2931 00ae 02       		.uleb128 0x2
 2932 00af 08       		.byte	0x8
 2933 00b0 04       		.byte	0x4
 2934 00b1 C61B0000 		.4byte	.LASF15
 2935 00b5 04       		.uleb128 0x4
 2936 00b6 D3040000 		.4byte	.LASF16
 2937 00ba 02       		.byte	0x2
 2938 00bb 0802     		.2byte	0x208
 2939 00bd 56000000 		.4byte	0x56
 2940 00c1 02       		.uleb128 0x2
 2941 00c2 01       		.byte	0x1
 2942 00c3 08       		.byte	0x8
 2943 00c4 600D0000 		.4byte	.LASF17
 2944 00c8 04       		.uleb128 0x4
 2945 00c9 06130000 		.4byte	.LASF18
 2946 00cd 02       		.byte	0x2
 2947 00ce A802     		.2byte	0x2a8
 2948 00d0 D4000000 		.4byte	0xd4
 2949 00d4 05       		.uleb128 0x5
 2950 00d5 83000000 		.4byte	0x83
 2951 00d9 02       		.uleb128 0x2
 2952 00da 08       		.byte	0x8
 2953 00db 04       		.byte	0x4
 2954 00dc 99100000 		.4byte	.LASF19
 2955 00e0 02       		.uleb128 0x2
 2956 00e1 04       		.byte	0x4
 2957 00e2 07       		.byte	0x7
 2958 00e3 AD170000 		.4byte	.LASF20
 2959 00e7 06       		.uleb128 0x6
 2960 00e8 04       		.byte	0x4
 2961 00e9 07       		.uleb128 0x7
 2962 00ea 04       		.byte	0x4
 2963 00eb 6B000000 		.4byte	0x6b
 2964 00ef 07       		.uleb128 0x7
 2965 00f0 04       		.byte	0x4
 2966 00f1 77000000 		.4byte	0x77
 2967 00f5 08       		.uleb128 0x8
 2968 00f6 01       		.byte	0x1
 2969 00f7 2C000000 		.4byte	0x2c
 2970 00fb 03       		.byte	0x3
 2971 00fc 3501     		.2byte	0x135
 2972 00fe B3020000 		.4byte	0x2b3
 2973 0102 09       		.uleb128 0x9
 2974 0103 09160000 		.4byte	.LASF21
 2975 0107 00       		.byte	0
 2976 0108 09       		.uleb128 0x9
 2977 0109 010E0000 		.4byte	.LASF22
 2978 010d 01       		.byte	0x1
 2979 010e 09       		.uleb128 0x9
 2980 010f 35130000 		.4byte	.LASF23
 2981 0113 02       		.byte	0x2
 2982 0114 09       		.uleb128 0x9
 2983 0115 F8020000 		.4byte	.LASF24
 2984 0119 03       		.byte	0x3
 2985 011a 09       		.uleb128 0x9
 2986 011b 390D0000 		.4byte	.LASF25
ARM GAS  C:\Users\alexport\AppData\Local\Temp\ccr3ZDs0.s 			page 70


 2987 011f 04       		.byte	0x4
 2988 0120 09       		.uleb128 0x9
 2989 0121 38080000 		.4byte	.LASF26
 2990 0125 05       		.byte	0x5
 2991 0126 09       		.uleb128 0x9
 2992 0127 BE180000 		.4byte	.LASF27
 2993 012b 06       		.byte	0x6
 2994 012c 09       		.uleb128 0x9
 2995 012d DD070000 		.4byte	.LASF28
 2996 0131 20       		.byte	0x20
 2997 0132 09       		.uleb128 0x9
 2998 0133 2D010000 		.4byte	.LASF29
 2999 0137 21       		.byte	0x21
 3000 0138 09       		.uleb128 0x9
 3001 0139 DA040000 		.4byte	.LASF30
 3002 013d 22       		.byte	0x22
 3003 013e 09       		.uleb128 0x9
 3004 013f FC170000 		.4byte	.LASF31
 3005 0143 23       		.byte	0x23
 3006 0144 09       		.uleb128 0x9
 3007 0145 D70A0000 		.4byte	.LASF32
 3008 0149 24       		.byte	0x24
 3009 014a 09       		.uleb128 0x9
 3010 014b A4180000 		.4byte	.LASF33
 3011 014f 25       		.byte	0x25
 3012 0150 09       		.uleb128 0x9
 3013 0151 A5100000 		.4byte	.LASF34
 3014 0155 26       		.byte	0x26
 3015 0156 09       		.uleb128 0x9
 3016 0157 191A0000 		.4byte	.LASF35
 3017 015b 27       		.byte	0x27
 3018 015c 09       		.uleb128 0x9
 3019 015d CF160000 		.4byte	.LASF36
 3020 0161 28       		.byte	0x28
 3021 0162 09       		.uleb128 0x9
 3022 0163 57130000 		.4byte	.LASF37
 3023 0167 29       		.byte	0x29
 3024 0168 09       		.uleb128 0x9
 3025 0169 1A1C0000 		.4byte	.LASF38
 3026 016d 2A       		.byte	0x2a
 3027 016e 09       		.uleb128 0x9
 3028 016f 7F1C0000 		.4byte	.LASF39
 3029 0173 2B       		.byte	0x2b
 3030 0174 09       		.uleb128 0x9
 3031 0175 70160000 		.4byte	.LASF40
 3032 0179 2C       		.byte	0x2c
 3033 017a 09       		.uleb128 0x9
 3034 017b 9B0F0000 		.4byte	.LASF41
 3035 017f 2D       		.byte	0x2d
 3036 0180 09       		.uleb128 0x9
 3037 0181 F4180000 		.4byte	.LASF42
 3038 0185 2E       		.byte	0x2e
 3039 0186 09       		.uleb128 0x9
 3040 0187 75110000 		.4byte	.LASF43
 3041 018b 2F       		.byte	0x2f
 3042 018c 09       		.uleb128 0x9
 3043 018d 82140000 		.4byte	.LASF44
ARM GAS  C:\Users\alexport\AppData\Local\Temp\ccr3ZDs0.s 			page 71


 3044 0191 30       		.byte	0x30
 3045 0192 09       		.uleb128 0x9
 3046 0193 00150000 		.4byte	.LASF45
 3047 0197 31       		.byte	0x31
 3048 0198 09       		.uleb128 0x9
 3049 0199 2A160000 		.4byte	.LASF46
 3050 019d 32       		.byte	0x32
 3051 019e 09       		.uleb128 0x9
 3052 019f 010F0000 		.4byte	.LASF47
 3053 01a3 33       		.byte	0x33
 3054 01a4 09       		.uleb128 0x9
 3055 01a5 E41A0000 		.4byte	.LASF48
 3056 01a9 34       		.byte	0x34
 3057 01aa 09       		.uleb128 0x9
 3058 01ab 17020000 		.4byte	.LASF49
 3059 01af 35       		.byte	0x35
 3060 01b0 09       		.uleb128 0x9
 3061 01b1 E5120000 		.4byte	.LASF50
 3062 01b5 36       		.byte	0x36
 3063 01b6 09       		.uleb128 0x9
 3064 01b7 DC190000 		.4byte	.LASF51
 3065 01bb 37       		.byte	0x37
 3066 01bc 09       		.uleb128 0x9
 3067 01bd 6D0F0000 		.4byte	.LASF52
 3068 01c1 40       		.byte	0x40
 3069 01c2 09       		.uleb128 0x9
 3070 01c3 AE140000 		.4byte	.LASF53
 3071 01c7 41       		.byte	0x41
 3072 01c8 09       		.uleb128 0x9
 3073 01c9 EF010000 		.4byte	.LASF54
 3074 01cd 42       		.byte	0x42
 3075 01ce 09       		.uleb128 0x9
 3076 01cf 94020000 		.4byte	.LASF55
 3077 01d3 43       		.byte	0x43
 3078 01d4 09       		.uleb128 0x9
 3079 01d5 800B0000 		.4byte	.LASF56
 3080 01d9 44       		.byte	0x44
 3081 01da 09       		.uleb128 0x9
 3082 01db 74130000 		.4byte	.LASF57
 3083 01df 45       		.byte	0x45
 3084 01e0 09       		.uleb128 0x9
 3085 01e1 BA130000 		.4byte	.LASF58
 3086 01e5 46       		.byte	0x46
 3087 01e6 09       		.uleb128 0x9
 3088 01e7 60090000 		.4byte	.LASF59
 3089 01eb 47       		.byte	0x47
 3090 01ec 09       		.uleb128 0x9
 3091 01ed D3090000 		.4byte	.LASF60
 3092 01f1 48       		.byte	0x48
 3093 01f2 09       		.uleb128 0x9
 3094 01f3 46190000 		.4byte	.LASF61
 3095 01f7 49       		.byte	0x49
 3096 01f8 09       		.uleb128 0x9
 3097 01f9 F00B0000 		.4byte	.LASF62
 3098 01fd 4A       		.byte	0x4a
 3099 01fe 09       		.uleb128 0x9
 3100 01ff 24150000 		.4byte	.LASF63
ARM GAS  C:\Users\alexport\AppData\Local\Temp\ccr3ZDs0.s 			page 72


 3101 0203 4B       		.byte	0x4b
 3102 0204 09       		.uleb128 0x9
 3103 0205 54080000 		.4byte	.LASF64
 3104 0209 4C       		.byte	0x4c
 3105 020a 09       		.uleb128 0x9
 3106 020b 2F070000 		.4byte	.LASF65
 3107 020f 4D       		.byte	0x4d
 3108 0210 09       		.uleb128 0x9
 3109 0211 B60B0000 		.4byte	.LASF66
 3110 0215 4E       		.byte	0x4e
 3111 0216 09       		.uleb128 0x9
 3112 0217 9D1A0000 		.4byte	.LASF67
 3113 021b 4F       		.byte	0x4f
 3114 021c 09       		.uleb128 0x9
 3115 021d 0B0A0000 		.4byte	.LASF68
 3116 0221 50       		.byte	0x50
 3117 0222 09       		.uleb128 0x9
 3118 0223 370A0000 		.4byte	.LASF69
 3119 0227 51       		.byte	0x51
 3120 0228 09       		.uleb128 0x9
 3121 0229 77000000 		.4byte	.LASF70
 3122 022d 52       		.byte	0x52
 3123 022e 09       		.uleb128 0x9
 3124 022f 480B0000 		.4byte	.LASF71
 3125 0233 53       		.byte	0x53
 3126 0234 09       		.uleb128 0x9
 3127 0235 AF050000 		.4byte	.LASF72
 3128 0239 54       		.byte	0x54
 3129 023a 09       		.uleb128 0x9
 3130 023b C9020000 		.4byte	.LASF73
 3131 023f 55       		.byte	0x55
 3132 0240 09       		.uleb128 0x9
 3133 0241 55000000 		.4byte	.LASF74
 3134 0245 56       		.byte	0x56
 3135 0246 09       		.uleb128 0x9
 3136 0247 A30A0000 		.4byte	.LASF75
 3137 024b 57       		.byte	0x57
 3138 024c 09       		.uleb128 0x9
 3139 024d 47120000 		.4byte	.LASF76
 3140 0251 58       		.byte	0x58
 3141 0252 09       		.uleb128 0x9
 3142 0253 CA080000 		.4byte	.LASF77
 3143 0257 70       		.byte	0x70
 3144 0258 09       		.uleb128 0x9
 3145 0259 230C0000 		.4byte	.LASF78
 3146 025d 71       		.byte	0x71
 3147 025e 09       		.uleb128 0x9
 3148 025f C1070000 		.4byte	.LASF79
 3149 0263 72       		.byte	0x72
 3150 0264 09       		.uleb128 0x9
 3151 0265 32170000 		.4byte	.LASF80
 3152 0269 73       		.byte	0x73
 3153 026a 09       		.uleb128 0x9
 3154 026b 620C0000 		.4byte	.LASF81
 3155 026f 74       		.byte	0x74
 3156 0270 09       		.uleb128 0x9
 3157 0271 AE150000 		.4byte	.LASF82
ARM GAS  C:\Users\alexport\AppData\Local\Temp\ccr3ZDs0.s 			page 73


 3158 0275 75       		.byte	0x75
 3159 0276 09       		.uleb128 0x9
 3160 0277 030B0000 		.4byte	.LASF83
 3161 027b 76       		.byte	0x76
 3162 027c 09       		.uleb128 0x9
 3163 027d 0D110000 		.4byte	.LASF84
 3164 0281 77       		.byte	0x77
 3165 0282 09       		.uleb128 0x9
 3166 0283 1E050000 		.4byte	.LASF85
 3167 0287 78       		.byte	0x78
 3168 0288 09       		.uleb128 0x9
 3169 0289 8B030000 		.4byte	.LASF86
 3170 028d 79       		.byte	0x79
 3171 028e 09       		.uleb128 0x9
 3172 028f 4A180000 		.4byte	.LASF87
 3173 0293 7A       		.byte	0x7a
 3174 0294 09       		.uleb128 0x9
 3175 0295 FC1A0000 		.4byte	.LASF88
 3176 0299 FA       		.byte	0xfa
 3177 029a 09       		.uleb128 0x9
 3178 029b 50030000 		.4byte	.LASF89
 3179 029f FB       		.byte	0xfb
 3180 02a0 09       		.uleb128 0x9
 3181 02a1 C4110000 		.4byte	.LASF90
 3182 02a5 FC       		.byte	0xfc
 3183 02a6 09       		.uleb128 0x9
 3184 02a7 9E0B0000 		.4byte	.LASF91
 3185 02ab FD       		.byte	0xfd
 3186 02ac 09       		.uleb128 0x9
 3187 02ad C9140000 		.4byte	.LASF92
 3188 02b1 FF       		.byte	0xff
 3189 02b2 00       		.byte	0
 3190 02b3 0A       		.uleb128 0xa
 3191 02b4 6B000000 		.4byte	0x6b
 3192 02b8 C3020000 		.4byte	0x2c3
 3193 02bc 0B       		.uleb128 0xb
 3194 02bd E0000000 		.4byte	0xe0
 3195 02c1 0F       		.byte	0xf
 3196 02c2 00       		.byte	0
 3197 02c3 0A       		.uleb128 0xa
 3198 02c4 6B000000 		.4byte	0x6b
 3199 02c8 D3020000 		.4byte	0x2d3
 3200 02cc 0B       		.uleb128 0xb
 3201 02cd E0000000 		.4byte	0xe0
 3202 02d1 09       		.byte	0x9
 3203 02d2 00       		.byte	0
 3204 02d3 0C       		.uleb128 0xc
 3205 02d4 01       		.byte	0x1
 3206 02d5 2C000000 		.4byte	0x2c
 3207 02d9 04       		.byte	0x4
 3208 02da A5       		.byte	0xa5
 3209 02db CA030000 		.4byte	0x3ca
 3210 02df 09       		.uleb128 0x9
 3211 02e0 65060000 		.4byte	.LASF93
 3212 02e4 00       		.byte	0
 3213 02e5 09       		.uleb128 0x9
 3214 02e6 29120000 		.4byte	.LASF94
ARM GAS  C:\Users\alexport\AppData\Local\Temp\ccr3ZDs0.s 			page 74


 3215 02ea 01       		.byte	0x1
 3216 02eb 09       		.uleb128 0x9
 3217 02ec 62020000 		.4byte	.LASF95
 3218 02f0 02       		.byte	0x2
 3219 02f1 09       		.uleb128 0x9
 3220 02f2 8E120000 		.4byte	.LASF96
 3221 02f6 03       		.byte	0x3
 3222 02f7 09       		.uleb128 0x9
 3223 02f8 5F190000 		.4byte	.LASF97
 3224 02fc 04       		.byte	0x4
 3225 02fd 09       		.uleb128 0x9
 3226 02fe C4010000 		.4byte	.LASF98
 3227 0302 05       		.byte	0x5
 3228 0303 09       		.uleb128 0x9
 3229 0304 431C0000 		.4byte	.LASF99
 3230 0308 06       		.byte	0x6
 3231 0309 09       		.uleb128 0x9
 3232 030a 05000000 		.4byte	.LASF100
 3233 030e 07       		.byte	0x7
 3234 030f 09       		.uleb128 0x9
 3235 0310 650D0000 		.4byte	.LASF101
 3236 0314 08       		.byte	0x8
 3237 0315 09       		.uleb128 0x9
 3238 0316 A20C0000 		.4byte	.LASF102
 3239 031a 09       		.byte	0x9
 3240 031b 09       		.uleb128 0x9
 3241 031c 1A1B0000 		.4byte	.LASF103
 3242 0320 0A       		.byte	0xa
 3243 0321 09       		.uleb128 0x9
 3244 0322 7A190000 		.4byte	.LASF104
 3245 0326 0B       		.byte	0xb
 3246 0327 09       		.uleb128 0x9
 3247 0328 D7140000 		.4byte	.LASF105
 3248 032c 0C       		.byte	0xc
 3249 032d 09       		.uleb128 0x9
 3250 032e 00090000 		.4byte	.LASF106
 3251 0332 0D       		.byte	0xd
 3252 0333 09       		.uleb128 0x9
 3253 0334 42090000 		.4byte	.LASF107
 3254 0338 0E       		.byte	0xe
 3255 0339 09       		.uleb128 0x9
 3256 033a 40100000 		.4byte	.LASF108
 3257 033e 0F       		.byte	0xf
 3258 033f 09       		.uleb128 0x9
 3259 0340 9E110000 		.4byte	.LASF109
 3260 0344 10       		.byte	0x10
 3261 0345 09       		.uleb128 0x9
 3262 0346 67100000 		.4byte	.LASF110
 3263 034a 11       		.byte	0x11
 3264 034b 09       		.uleb128 0x9
 3265 034c 691A0000 		.4byte	.LASF111
 3266 0350 80       		.byte	0x80
 3267 0351 09       		.uleb128 0x9
 3268 0352 EB0C0000 		.4byte	.LASF112
 3269 0356 80       		.byte	0x80
 3270 0357 09       		.uleb128 0x9
 3271 0358 34020000 		.4byte	.LASF113
ARM GAS  C:\Users\alexport\AppData\Local\Temp\ccr3ZDs0.s 			page 75


 3272 035c 80       		.byte	0x80
 3273 035d 09       		.uleb128 0x9
 3274 035e 6E080000 		.4byte	.LASF114
 3275 0362 80       		.byte	0x80
 3276 0363 09       		.uleb128 0x9
 3277 0364 FE040000 		.4byte	.LASF115
 3278 0368 80       		.byte	0x80
 3279 0369 09       		.uleb128 0x9
 3280 036a 4B140000 		.4byte	.LASF116
 3281 036e 80       		.byte	0x80
 3282 036f 09       		.uleb128 0x9
 3283 0370 A5060000 		.4byte	.LASF117
 3284 0374 80       		.byte	0x80
 3285 0375 09       		.uleb128 0x9
 3286 0376 93150000 		.4byte	.LASF118
 3287 037a 80       		.byte	0x80
 3288 037b 09       		.uleb128 0x9
 3289 037c 49070000 		.4byte	.LASF119
 3290 0380 81       		.byte	0x81
 3291 0381 09       		.uleb128 0x9
 3292 0382 01140000 		.4byte	.LASF120
 3293 0386 81       		.byte	0x81
 3294 0387 09       		.uleb128 0x9
 3295 0388 F2100000 		.4byte	.LASF121
 3296 038c 81       		.byte	0x81
 3297 038d 09       		.uleb128 0x9
 3298 038e 81060000 		.4byte	.LASF122
 3299 0392 81       		.byte	0x81
 3300 0393 09       		.uleb128 0x9
 3301 0394 F41B0000 		.4byte	.LASF123
 3302 0398 82       		.byte	0x82
 3303 0399 09       		.uleb128 0x9
 3304 039a 22140000 		.4byte	.LASF124
 3305 039e A0       		.byte	0xa0
 3306 039f 09       		.uleb128 0x9
 3307 03a0 E9110000 		.4byte	.LASF125
 3308 03a4 A0       		.byte	0xa0
 3309 03a5 09       		.uleb128 0x9
 3310 03a6 6A0E0000 		.4byte	.LASF126
 3311 03aa A1       		.byte	0xa1
 3312 03ab 09       		.uleb128 0x9
 3313 03ac 2C110000 		.4byte	.LASF127
 3314 03b0 A2       		.byte	0xa2
 3315 03b1 09       		.uleb128 0x9
 3316 03b2 FD160000 		.4byte	.LASF128
 3317 03b6 A3       		.byte	0xa3
 3318 03b7 09       		.uleb128 0x9
 3319 03b8 CF150000 		.4byte	.LASF129
 3320 03bc FD       		.byte	0xfd
 3321 03bd 09       		.uleb128 0x9
 3322 03be 68050000 		.4byte	.LASF130
 3323 03c2 FE       		.byte	0xfe
 3324 03c3 09       		.uleb128 0x9
 3325 03c4 DB130000 		.4byte	.LASF131
 3326 03c8 FF       		.byte	0xff
 3327 03c9 00       		.byte	0
 3328 03ca 04       		.uleb128 0x4
ARM GAS  C:\Users\alexport\AppData\Local\Temp\ccr3ZDs0.s 			page 76


 3329 03cb 28060000 		.4byte	.LASF132
 3330 03cf 04       		.byte	0x4
 3331 03d0 8901     		.2byte	0x189
 3332 03d2 77000000 		.4byte	0x77
 3333 03d6 0D       		.uleb128 0xd
 3334 03d7 02       		.byte	0x2
 3335 03d8 04       		.byte	0x4
 3336 03d9 9301     		.2byte	0x193
 3337 03db FA030000 		.4byte	0x3fa
 3338 03df 0E       		.uleb128 0xe
 3339 03e0 3D1B0000 		.4byte	.LASF133
 3340 03e4 04       		.byte	0x4
 3341 03e5 9A01     		.2byte	0x19a
 3342 03e7 6B000000 		.4byte	0x6b
 3343 03eb 00       		.byte	0
 3344 03ec 0E       		.uleb128 0xe
 3345 03ed D6110000 		.4byte	.LASF134
 3346 03f1 04       		.byte	0x4
 3347 03f2 A001     		.2byte	0x1a0
 3348 03f4 6B000000 		.4byte	0x6b
 3349 03f8 01       		.byte	0x1
 3350 03f9 00       		.byte	0
 3351 03fa 04       		.uleb128 0x4
 3352 03fb 620A0000 		.4byte	.LASF135
 3353 03ff 04       		.byte	0x4
 3354 0400 A201     		.2byte	0x1a2
 3355 0402 D6030000 		.4byte	0x3d6
 3356 0406 0D       		.uleb128 0xd
 3357 0407 08       		.byte	0x8
 3358 0408 04       		.byte	0x4
 3359 0409 BE01     		.2byte	0x1be
 3360 040b 37040000 		.4byte	0x437
 3361 040f 0F       		.uleb128 0xf
 3362 0410 76616C00 		.ascii	"val\000"
 3363 0414 04       		.byte	0x4
 3364 0415 C101     		.2byte	0x1c1
 3365 0417 E9000000 		.4byte	0xe9
 3366 041b 00       		.byte	0
 3367 041c 0F       		.uleb128 0xf
 3368 041d 6C656E00 		.ascii	"len\000"
 3369 0421 04       		.byte	0x4
 3370 0422 C401     		.2byte	0x1c4
 3371 0424 77000000 		.4byte	0x77
 3372 0428 04       		.byte	0x4
 3373 0429 0E       		.uleb128 0xe
 3374 042a 9C160000 		.4byte	.LASF136
 3375 042e 04       		.byte	0x4
 3376 042f CB01     		.2byte	0x1cb
 3377 0431 77000000 		.4byte	0x77
 3378 0435 06       		.byte	0x6
 3379 0436 00       		.byte	0
 3380 0437 04       		.uleb128 0x4
 3381 0438 D40D0000 		.4byte	.LASF137
 3382 043c 04       		.byte	0x4
 3383 043d CD01     		.2byte	0x1cd
 3384 043f 06040000 		.4byte	0x406
 3385 0443 0D       		.uleb128 0xd
ARM GAS  C:\Users\alexport\AppData\Local\Temp\ccr3ZDs0.s 			page 77


 3386 0444 0C       		.byte	0xc
 3387 0445 04       		.byte	0x4
 3388 0446 D001     		.2byte	0x1d0
 3389 0448 67040000 		.4byte	0x467
 3390 044c 0E       		.uleb128 0xe
 3391 044d FA090000 		.4byte	.LASF138
 3392 0451 04       		.byte	0x4
 3393 0452 D301     		.2byte	0x1d3
 3394 0454 37040000 		.4byte	0x437
 3395 0458 00       		.byte	0
 3396 0459 0E       		.uleb128 0xe
 3397 045a E50B0000 		.4byte	.LASF139
 3398 045e 04       		.byte	0x4
 3399 045f D601     		.2byte	0x1d6
 3400 0461 CA030000 		.4byte	0x3ca
 3401 0465 08       		.byte	0x8
 3402 0466 00       		.byte	0
 3403 0467 04       		.uleb128 0x4
 3404 0468 2B180000 		.4byte	.LASF140
 3405 046c 04       		.byte	0x4
 3406 046d D801     		.2byte	0x1d8
 3407 046f 43040000 		.4byte	0x443
 3408 0473 10       		.uleb128 0x10
 3409 0474 ED000000 		.4byte	.LASF141
 3410 0478 05       		.byte	0x5
 3411 0479 34       		.byte	0x34
 3412 047a 67040000 		.4byte	0x467
 3413 047e 11       		.uleb128 0x11
 3414 047f 10       		.byte	0x10
 3415 0480 05       		.byte	0x5
 3416 0481 8A       		.byte	0x8a
 3417 0482 9F040000 		.4byte	0x49f
 3418 0486 12       		.uleb128 0x12
 3419 0487 681C0000 		.4byte	.LASF142
 3420 048b 05       		.byte	0x5
 3421 048c 8D       		.byte	0x8d
 3422 048d FA030000 		.4byte	0x3fa
 3423 0491 00       		.byte	0
 3424 0492 12       		.uleb128 0x12
 3425 0493 62160000 		.4byte	.LASF143
 3426 0497 05       		.byte	0x5
 3427 0498 90       		.byte	0x90
 3428 0499 67040000 		.4byte	0x467
 3429 049d 04       		.byte	0x4
 3430 049e 00       		.byte	0
 3431 049f 10       		.uleb128 0x10
 3432 04a0 CD100000 		.4byte	.LASF144
 3433 04a4 05       		.byte	0x5
 3434 04a5 92       		.byte	0x92
 3435 04a6 7E040000 		.4byte	0x47e
 3436 04aa 0C       		.uleb128 0xc
 3437 04ab 01       		.byte	0x1
 3438 04ac 2C000000 		.4byte	0x2c
 3439 04b0 06       		.byte	0x6
 3440 04b1 22       		.byte	0x22
 3441 04b2 F3040000 		.4byte	0x4f3
 3442 04b6 09       		.uleb128 0x9
ARM GAS  C:\Users\alexport\AppData\Local\Temp\ccr3ZDs0.s 			page 78


 3443 04b7 B80D0000 		.4byte	.LASF145
 3444 04bb 00       		.byte	0
 3445 04bc 09       		.uleb128 0x9
 3446 04bd FB0F0000 		.4byte	.LASF146
 3447 04c1 01       		.byte	0x1
 3448 04c2 09       		.uleb128 0x9
 3449 04c3 DC0E0000 		.4byte	.LASF147
 3450 04c7 02       		.byte	0x2
 3451 04c8 09       		.uleb128 0x9
 3452 04c9 760A0000 		.4byte	.LASF148
 3453 04cd 03       		.byte	0x3
 3454 04ce 09       		.uleb128 0x9
 3455 04cf 4B160000 		.4byte	.LASF149
 3456 04d3 04       		.byte	0x4
 3457 04d4 09       		.uleb128 0x9
 3458 04d5 140E0000 		.4byte	.LASF150
 3459 04d9 05       		.byte	0x5
 3460 04da 09       		.uleb128 0x9
 3461 04db 8E0C0000 		.4byte	.LASF151
 3462 04df 06       		.byte	0x6
 3463 04e0 09       		.uleb128 0x9
 3464 04e1 A50E0000 		.4byte	.LASF152
 3465 04e5 07       		.byte	0x7
 3466 04e6 09       		.uleb128 0x9
 3467 04e7 9C190000 		.4byte	.LASF153
 3468 04eb 08       		.byte	0x8
 3469 04ec 09       		.uleb128 0x9
 3470 04ed 23000000 		.4byte	.LASF154
 3471 04f1 09       		.byte	0x9
 3472 04f2 00       		.byte	0
 3473 04f3 08       		.uleb128 0x8
 3474 04f4 01       		.byte	0x1
 3475 04f5 2C000000 		.4byte	0x2c
 3476 04f9 07       		.byte	0x7
 3477 04fa 5A08     		.2byte	0x85a
 3478 04fc 1F050000 		.4byte	0x51f
 3479 0500 09       		.uleb128 0x9
 3480 0501 B6080000 		.4byte	.LASF155
 3481 0505 00       		.byte	0
 3482 0506 09       		.uleb128 0x9
 3483 0507 E20F0000 		.4byte	.LASF156
 3484 050b 01       		.byte	0x1
 3485 050c 09       		.uleb128 0x9
 3486 050d 7E090000 		.4byte	.LASF157
 3487 0511 02       		.byte	0x2
 3488 0512 09       		.uleb128 0x9
 3489 0513 B71C0000 		.4byte	.LASF158
 3490 0517 03       		.byte	0x3
 3491 0518 09       		.uleb128 0x9
 3492 0519 5C110000 		.4byte	.LASF159
 3493 051d 04       		.byte	0x4
 3494 051e 00       		.byte	0
 3495 051f 04       		.uleb128 0x4
 3496 0520 800C0000 		.4byte	.LASF160
 3497 0524 07       		.byte	0x7
 3498 0525 6808     		.2byte	0x868
 3499 0527 F3040000 		.4byte	0x4f3
ARM GAS  C:\Users\alexport\AppData\Local\Temp\ccr3ZDs0.s 			page 79


 3500 052b 13       		.uleb128 0x13
 3501 052c 0801     		.2byte	0x108
 3502 052e 08       		.byte	0x8
 3503 052f 19       		.byte	0x19
 3504 0530 1B090000 		.4byte	0x91b
 3505 0534 12       		.uleb128 0x12
 3506 0535 8D0A0000 		.4byte	.LASF161
 3507 0539 08       		.byte	0x8
 3508 053a 1A       		.byte	0x1a
 3509 053b 77000000 		.4byte	0x77
 3510 053f 00       		.byte	0
 3511 0540 12       		.uleb128 0x12
 3512 0541 F0080000 		.4byte	.LASF162
 3513 0545 08       		.byte	0x8
 3514 0546 1B       		.byte	0x1b
 3515 0547 77000000 		.4byte	0x77
 3516 054b 02       		.byte	0x2
 3517 054c 12       		.uleb128 0x12
 3518 054d BD030000 		.4byte	.LASF163
 3519 0551 08       		.byte	0x8
 3520 0552 1C       		.byte	0x1c
 3521 0553 C3020000 		.4byte	0x2c3
 3522 0557 04       		.byte	0x4
 3523 0558 12       		.uleb128 0x12
 3524 0559 BD0E0000 		.4byte	.LASF164
 3525 055d 08       		.byte	0x8
 3526 055e 1D       		.byte	0x1d
 3527 055f 6B000000 		.4byte	0x6b
 3528 0563 0E       		.byte	0xe
 3529 0564 14       		.uleb128 0x14
 3530 0565 4D666700 		.ascii	"Mfg\000"
 3531 0569 08       		.byte	0x8
 3532 056a 1E       		.byte	0x1e
 3533 056b 6B000000 		.4byte	0x6b
 3534 056f 0F       		.byte	0xf
 3535 0570 12       		.uleb128 0x12
 3536 0571 4C060000 		.4byte	.LASF165
 3537 0575 08       		.byte	0x8
 3538 0576 1F       		.byte	0x1f
 3539 0577 9B000000 		.4byte	0x9b
 3540 057b 10       		.byte	0x10
 3541 057c 12       		.uleb128 0x12
 3542 057d 26190000 		.4byte	.LASF166
 3543 0581 08       		.byte	0x8
 3544 0582 20       		.byte	0x20
 3545 0583 9B000000 		.4byte	0x9b
 3546 0587 12       		.byte	0x12
 3547 0588 12       		.uleb128 0x12
 3548 0589 CC0A0000 		.4byte	.LASF167
 3549 058d 08       		.byte	0x8
 3550 058e 21       		.byte	0x21
 3551 058f A7000000 		.4byte	0xa7
 3552 0593 14       		.byte	0x14
 3553 0594 12       		.uleb128 0x12
 3554 0595 DA170000 		.4byte	.LASF168
 3555 0599 08       		.byte	0x8
 3556 059a 22       		.byte	0x22
ARM GAS  C:\Users\alexport\AppData\Local\Temp\ccr3ZDs0.s 			page 80


 3557 059b A7000000 		.4byte	0xa7
 3558 059f 18       		.byte	0x18
 3559 05a0 12       		.uleb128 0x12
 3560 05a1 AB0D0000 		.4byte	.LASF169
 3561 05a5 08       		.byte	0x8
 3562 05a6 23       		.byte	0x23
 3563 05a7 A7000000 		.4byte	0xa7
 3564 05ab 1C       		.byte	0x1c
 3565 05ac 12       		.uleb128 0x12
 3566 05ad 47000000 		.4byte	.LASF170
 3567 05b1 08       		.byte	0x8
 3568 05b2 24       		.byte	0x24
 3569 05b3 A7000000 		.4byte	0xa7
 3570 05b7 20       		.byte	0x20
 3571 05b8 12       		.uleb128 0x12
 3572 05b9 41050000 		.4byte	.LASF171
 3573 05bd 08       		.byte	0x8
 3574 05be 25       		.byte	0x25
 3575 05bf A7000000 		.4byte	0xa7
 3576 05c3 24       		.byte	0x24
 3577 05c4 12       		.uleb128 0x12
 3578 05c5 AD190000 		.4byte	.LASF172
 3579 05c9 08       		.byte	0x8
 3580 05ca 26       		.byte	0x26
 3581 05cb 8F000000 		.4byte	0x8f
 3582 05cf 28       		.byte	0x28
 3583 05d0 12       		.uleb128 0x12
 3584 05d1 B2190000 		.4byte	.LASF173
 3585 05d5 08       		.byte	0x8
 3586 05d6 27       		.byte	0x27
 3587 05d7 8F000000 		.4byte	0x8f
 3588 05db 29       		.byte	0x29
 3589 05dc 12       		.uleb128 0x12
 3590 05dd DA050000 		.4byte	.LASF174
 3591 05e1 08       		.byte	0x8
 3592 05e2 28       		.byte	0x28
 3593 05e3 8F000000 		.4byte	0x8f
 3594 05e7 2A       		.byte	0x2a
 3595 05e8 12       		.uleb128 0x12
 3596 05e9 9B130000 		.4byte	.LASF175
 3597 05ed 08       		.byte	0x8
 3598 05ee 29       		.byte	0x29
 3599 05ef 8F000000 		.4byte	0x8f
 3600 05f3 2B       		.byte	0x2b
 3601 05f4 12       		.uleb128 0x12
 3602 05f5 7A070000 		.4byte	.LASF176
 3603 05f9 08       		.byte	0x8
 3604 05fa 2A       		.byte	0x2a
 3605 05fb 8F000000 		.4byte	0x8f
 3606 05ff 2C       		.byte	0x2c
 3607 0600 12       		.uleb128 0x12
 3608 0601 1B010000 		.4byte	.LASF177
 3609 0605 08       		.byte	0x8
 3610 0606 2B       		.byte	0x2b
 3611 0607 8F000000 		.4byte	0x8f
 3612 060b 2D       		.byte	0x2d
 3613 060c 12       		.uleb128 0x12
ARM GAS  C:\Users\alexport\AppData\Local\Temp\ccr3ZDs0.s 			page 81


 3614 060d AE1C0000 		.4byte	.LASF178
 3615 0611 08       		.byte	0x8
 3616 0612 2C       		.byte	0x2c
 3617 0613 77000000 		.4byte	0x77
 3618 0617 2E       		.byte	0x2e
 3619 0618 12       		.uleb128 0x12
 3620 0619 920F0000 		.4byte	.LASF179
 3621 061d 08       		.byte	0x8
 3622 061e 2D       		.byte	0x2d
 3623 061f 77000000 		.4byte	0x77
 3624 0623 30       		.byte	0x30
 3625 0624 12       		.uleb128 0x12
 3626 0625 B1120000 		.4byte	.LASF180
 3627 0629 08       		.byte	0x8
 3628 062a 2E       		.byte	0x2e
 3629 062b 77000000 		.4byte	0x77
 3630 062f 32       		.byte	0x32
 3631 0630 12       		.uleb128 0x12
 3632 0631 FB050000 		.4byte	.LASF181
 3633 0635 08       		.byte	0x8
 3634 0636 2F       		.byte	0x2f
 3635 0637 77000000 		.4byte	0x77
 3636 063b 34       		.byte	0x34
 3637 063c 12       		.uleb128 0x12
 3638 063d A3090000 		.4byte	.LASF182
 3639 0641 08       		.byte	0x8
 3640 0642 30       		.byte	0x30
 3641 0643 8F000000 		.4byte	0x8f
 3642 0647 36       		.byte	0x36
 3643 0648 12       		.uleb128 0x12
 3644 0649 2C130000 		.4byte	.LASF183
 3645 064d 08       		.byte	0x8
 3646 064e 31       		.byte	0x31
 3647 064f 9B000000 		.4byte	0x9b
 3648 0653 38       		.byte	0x38
 3649 0654 12       		.uleb128 0x12
 3650 0655 88170000 		.4byte	.LASF184
 3651 0659 08       		.byte	0x8
 3652 065a 32       		.byte	0x32
 3653 065b 9B000000 		.4byte	0x9b
 3654 065f 3A       		.byte	0x3a
 3655 0660 12       		.uleb128 0x12
 3656 0661 00000000 		.4byte	.LASF185
 3657 0665 08       		.byte	0x8
 3658 0666 33       		.byte	0x33
 3659 0667 77000000 		.4byte	0x77
 3660 066b 3C       		.byte	0x3c
 3661 066c 12       		.uleb128 0x12
 3662 066d 0D020000 		.4byte	.LASF186
 3663 0671 08       		.byte	0x8
 3664 0672 34       		.byte	0x34
 3665 0673 6B000000 		.4byte	0x6b
 3666 0677 3E       		.byte	0x3e
 3667 0678 12       		.uleb128 0x12
 3668 0679 A6160000 		.4byte	.LASF187
 3669 067d 08       		.byte	0x8
 3670 067e 35       		.byte	0x35
ARM GAS  C:\Users\alexport\AppData\Local\Temp\ccr3ZDs0.s 			page 82


 3671 067f 9B000000 		.4byte	0x9b
 3672 0683 40       		.byte	0x40
 3673 0684 12       		.uleb128 0x12
 3674 0685 560E0000 		.4byte	.LASF188
 3675 0689 08       		.byte	0x8
 3676 068a 36       		.byte	0x36
 3677 068b 9B000000 		.4byte	0x9b
 3678 068f 42       		.byte	0x42
 3679 0690 12       		.uleb128 0x12
 3680 0691 2B100000 		.4byte	.LASF189
 3681 0695 08       		.byte	0x8
 3682 0696 37       		.byte	0x37
 3683 0697 9B000000 		.4byte	0x9b
 3684 069b 44       		.byte	0x44
 3685 069c 12       		.uleb128 0x12
 3686 069d 731C0000 		.4byte	.LASF190
 3687 06a1 08       		.byte	0x8
 3688 06a2 38       		.byte	0x38
 3689 06a3 77000000 		.4byte	0x77
 3690 06a7 46       		.byte	0x46
 3691 06a8 12       		.uleb128 0x12
 3692 06a9 E21B0000 		.4byte	.LASF191
 3693 06ad 08       		.byte	0x8
 3694 06ae 39       		.byte	0x39
 3695 06af 9B000000 		.4byte	0x9b
 3696 06b3 48       		.byte	0x48
 3697 06b4 12       		.uleb128 0x12
 3698 06b5 D40B0000 		.4byte	.LASF192
 3699 06b9 08       		.byte	0x8
 3700 06ba 3A       		.byte	0x3a
 3701 06bb 77000000 		.4byte	0x77
 3702 06bf 4A       		.byte	0x4a
 3703 06c0 12       		.uleb128 0x12
 3704 06c1 33030000 		.4byte	.LASF193
 3705 06c5 08       		.byte	0x8
 3706 06c6 3B       		.byte	0x3b
 3707 06c7 9B000000 		.4byte	0x9b
 3708 06cb 4C       		.byte	0x4c
 3709 06cc 12       		.uleb128 0x12
 3710 06cd CF030000 		.4byte	.LASF194
 3711 06d1 08       		.byte	0x8
 3712 06d2 3C       		.byte	0x3c
 3713 06d3 77000000 		.4byte	0x77
 3714 06d7 4E       		.byte	0x4e
 3715 06d8 12       		.uleb128 0x12
 3716 06d9 E70D0000 		.4byte	.LASF195
 3717 06dd 08       		.byte	0x8
 3718 06de 3D       		.byte	0x3d
 3719 06df 77000000 		.4byte	0x77
 3720 06e3 50       		.byte	0x50
 3721 06e4 12       		.uleb128 0x12
 3722 06e5 B2020000 		.4byte	.LASF196
 3723 06e9 08       		.byte	0x8
 3724 06ea 3E       		.byte	0x3e
 3725 06eb 9B000000 		.4byte	0x9b
 3726 06ef 52       		.byte	0x52
 3727 06f0 12       		.uleb128 0x12
ARM GAS  C:\Users\alexport\AppData\Local\Temp\ccr3ZDs0.s 			page 83


 3728 06f1 17120000 		.4byte	.LASF197
 3729 06f5 08       		.byte	0x8
 3730 06f6 3F       		.byte	0x3f
 3731 06f7 77000000 		.4byte	0x77
 3732 06fb 54       		.byte	0x54
 3733 06fc 12       		.uleb128 0x12
 3734 06fd 560F0000 		.4byte	.LASF198
 3735 0701 08       		.byte	0x8
 3736 0702 40       		.byte	0x40
 3737 0703 77000000 		.4byte	0x77
 3738 0707 56       		.byte	0x56
 3739 0708 12       		.uleb128 0x12
 3740 0709 54060000 		.4byte	.LASF199
 3741 070d 08       		.byte	0x8
 3742 070e 41       		.byte	0x41
 3743 070f 77000000 		.4byte	0x77
 3744 0713 58       		.byte	0x58
 3745 0714 12       		.uleb128 0x12
 3746 0715 CA0C0000 		.4byte	.LASF200
 3747 0719 08       		.byte	0x8
 3748 071a 42       		.byte	0x42
 3749 071b 77000000 		.4byte	0x77
 3750 071f 5A       		.byte	0x5a
 3751 0720 12       		.uleb128 0x12
 3752 0721 F9150000 		.4byte	.LASF201
 3753 0725 08       		.byte	0x8
 3754 0726 43       		.byte	0x43
 3755 0727 77000000 		.4byte	0x77
 3756 072b 5C       		.byte	0x5c
 3757 072c 12       		.uleb128 0x12
 3758 072d B01B0000 		.4byte	.LASF202
 3759 0731 08       		.byte	0x8
 3760 0732 44       		.byte	0x44
 3761 0733 77000000 		.4byte	0x77
 3762 0737 5E       		.byte	0x5e
 3763 0738 12       		.uleb128 0x12
 3764 0739 22070000 		.4byte	.LASF203
 3765 073d 08       		.byte	0x8
 3766 073e 45       		.byte	0x45
 3767 073f 77000000 		.4byte	0x77
 3768 0743 60       		.byte	0x60
 3769 0744 12       		.uleb128 0x12
 3770 0745 7B170000 		.4byte	.LASF204
 3771 0749 08       		.byte	0x8
 3772 074a 46       		.byte	0x46
 3773 074b A7000000 		.4byte	0xa7
 3774 074f 64       		.byte	0x64
 3775 0750 12       		.uleb128 0x12
 3776 0751 C6040000 		.4byte	.LASF205
 3777 0755 08       		.byte	0x8
 3778 0756 47       		.byte	0x47
 3779 0757 77000000 		.4byte	0x77
 3780 075b 68       		.byte	0x68
 3781 075c 12       		.uleb128 0x12
 3782 075d 530D0000 		.4byte	.LASF206
 3783 0761 08       		.byte	0x8
 3784 0762 48       		.byte	0x48
ARM GAS  C:\Users\alexport\AppData\Local\Temp\ccr3ZDs0.s 			page 84


 3785 0763 A7000000 		.4byte	0xa7
 3786 0767 6C       		.byte	0x6c
 3787 0768 12       		.uleb128 0x12
 3788 0769 50170000 		.4byte	.LASF207
 3789 076d 08       		.byte	0x8
 3790 076e 49       		.byte	0x49
 3791 076f 77000000 		.4byte	0x77
 3792 0773 70       		.byte	0x70
 3793 0774 12       		.uleb128 0x12
 3794 0775 E9030000 		.4byte	.LASF208
 3795 0779 08       		.byte	0x8
 3796 077a 4A       		.byte	0x4a
 3797 077b A7000000 		.4byte	0xa7
 3798 077f 74       		.byte	0x74
 3799 0780 12       		.uleb128 0x12
 3800 0781 C7030000 		.4byte	.LASF209
 3801 0785 08       		.byte	0x8
 3802 0786 4B       		.byte	0x4b
 3803 0787 A7000000 		.4byte	0xa7
 3804 078b 78       		.byte	0x78
 3805 078c 12       		.uleb128 0x12
 3806 078d CF000000 		.4byte	.LASF210
 3807 0791 08       		.byte	0x8
 3808 0792 4C       		.byte	0x4c
 3809 0793 A7000000 		.4byte	0xa7
 3810 0797 7C       		.byte	0x7c
 3811 0798 12       		.uleb128 0x12
 3812 0799 9D050000 		.4byte	.LASF211
 3813 079d 08       		.byte	0x8
 3814 079e 4D       		.byte	0x4d
 3815 079f A7000000 		.4byte	0xa7
 3816 07a3 80       		.byte	0x80
 3817 07a4 12       		.uleb128 0x12
 3818 07a5 95050000 		.4byte	.LASF212
 3819 07a9 08       		.byte	0x8
 3820 07aa 4E       		.byte	0x4e
 3821 07ab A7000000 		.4byte	0xa7
 3822 07af 84       		.byte	0x84
 3823 07b0 12       		.uleb128 0x12
 3824 07b1 11030000 		.4byte	.LASF213
 3825 07b5 08       		.byte	0x8
 3826 07b6 4F       		.byte	0x4f
 3827 07b7 A7000000 		.4byte	0xa7
 3828 07bb 88       		.byte	0x88
 3829 07bc 12       		.uleb128 0x12
 3830 07bd 79060000 		.4byte	.LASF214
 3831 07c1 08       		.byte	0x8
 3832 07c2 50       		.byte	0x50
 3833 07c3 A7000000 		.4byte	0xa7
 3834 07c7 8C       		.byte	0x8c
 3835 07c8 12       		.uleb128 0x12
 3836 07c9 210D0000 		.4byte	.LASF215
 3837 07cd 08       		.byte	0x8
 3838 07ce 51       		.byte	0x51
 3839 07cf A7000000 		.4byte	0xa7
 3840 07d3 90       		.byte	0x90
 3841 07d4 12       		.uleb128 0x12
ARM GAS  C:\Users\alexport\AppData\Local\Temp\ccr3ZDs0.s 			page 85


 3842 07d5 2D0D0000 		.4byte	.LASF216
 3843 07d9 08       		.byte	0x8
 3844 07da 52       		.byte	0x52
 3845 07db A7000000 		.4byte	0xa7
 3846 07df 94       		.byte	0x94
 3847 07e0 12       		.uleb128 0x12
 3848 07e1 BA040000 		.4byte	.LASF217
 3849 07e5 08       		.byte	0x8
 3850 07e6 53       		.byte	0x53
 3851 07e7 A7000000 		.4byte	0xa7
 3852 07eb 98       		.byte	0x98
 3853 07ec 12       		.uleb128 0x12
 3854 07ed 6A120000 		.4byte	.LASF218
 3855 07f1 08       		.byte	0x8
 3856 07f2 54       		.byte	0x54
 3857 07f3 A7000000 		.4byte	0xa7
 3858 07f7 9C       		.byte	0x9c
 3859 07f8 12       		.uleb128 0x12
 3860 07f9 76120000 		.4byte	.LASF219
 3861 07fd 08       		.byte	0x8
 3862 07fe 55       		.byte	0x55
 3863 07ff A7000000 		.4byte	0xa7
 3864 0803 A0       		.byte	0xa0
 3865 0804 12       		.uleb128 0x12
 3866 0805 82120000 		.4byte	.LASF220
 3867 0809 08       		.byte	0x8
 3868 080a 56       		.byte	0x56
 3869 080b A7000000 		.4byte	0xa7
 3870 080f A4       		.byte	0xa4
 3871 0810 12       		.uleb128 0x12
 3872 0811 25090000 		.4byte	.LASF221
 3873 0815 08       		.byte	0x8
 3874 0816 57       		.byte	0x57
 3875 0817 A7000000 		.4byte	0xa7
 3876 081b A8       		.byte	0xa8
 3877 081c 12       		.uleb128 0x12
 3878 081d D7180000 		.4byte	.LASF222
 3879 0821 08       		.byte	0x8
 3880 0822 58       		.byte	0x58
 3881 0823 A7000000 		.4byte	0xa7
 3882 0827 AC       		.byte	0xac
 3883 0828 12       		.uleb128 0x12
 3884 0829 D0050000 		.4byte	.LASF223
 3885 082d 08       		.byte	0x8
 3886 082e 59       		.byte	0x59
 3887 082f A7000000 		.4byte	0xa7
 3888 0833 B0       		.byte	0xb0
 3889 0834 12       		.uleb128 0x12
 3890 0835 A5050000 		.4byte	.LASF224
 3891 0839 08       		.byte	0x8
 3892 083a 5A       		.byte	0x5a
 3893 083b A7000000 		.4byte	0xa7
 3894 083f B4       		.byte	0xb4
 3895 0840 12       		.uleb128 0x12
 3896 0841 84150000 		.4byte	.LASF225
 3897 0845 08       		.byte	0x8
 3898 0846 5B       		.byte	0x5b
ARM GAS  C:\Users\alexport\AppData\Local\Temp\ccr3ZDs0.s 			page 86


 3899 0847 77000000 		.4byte	0x77
 3900 084b B8       		.byte	0xb8
 3901 084c 12       		.uleb128 0x12
 3902 084d AF130000 		.4byte	.LASF226
 3903 0851 08       		.byte	0x8
 3904 0852 5C       		.byte	0x5c
 3905 0853 77000000 		.4byte	0x77
 3906 0857 BA       		.byte	0xba
 3907 0858 12       		.uleb128 0x12
 3908 0859 94090000 		.4byte	.LASF227
 3909 085d 08       		.byte	0x8
 3910 085e 5D       		.byte	0x5d
 3911 085f B5000000 		.4byte	0xb5
 3912 0863 C0       		.byte	0xc0
 3913 0864 12       		.uleb128 0x12
 3914 0865 7B030000 		.4byte	.LASF228
 3915 0869 08       		.byte	0x8
 3916 086a 5E       		.byte	0x5e
 3917 086b B5000000 		.4byte	0xb5
 3918 086f C8       		.byte	0xc8
 3919 0870 12       		.uleb128 0x12
 3920 0871 6B170000 		.4byte	.LASF229
 3921 0875 08       		.byte	0x8
 3922 0876 5F       		.byte	0x5f
 3923 0877 B5000000 		.4byte	0xb5
 3924 087b D0       		.byte	0xd0
 3925 087c 12       		.uleb128 0x12
 3926 087d 2A0A0000 		.4byte	.LASF230
 3927 0881 08       		.byte	0x8
 3928 0882 60       		.byte	0x60
 3929 0883 1B090000 		.4byte	0x91b
 3930 0887 D8       		.byte	0xd8
 3931 0888 12       		.uleb128 0x12
 3932 0889 EE180000 		.4byte	.LASF231
 3933 088d 08       		.byte	0x8
 3934 088e 61       		.byte	0x61
 3935 088f 77000000 		.4byte	0x77
 3936 0893 E4       		.byte	0xe4
 3937 0894 12       		.uleb128 0x12
 3938 0895 F90D0000 		.4byte	.LASF232
 3939 0899 08       		.byte	0x8
 3940 089a 62       		.byte	0x62
 3941 089b 2B090000 		.4byte	0x92b
 3942 089f E6       		.byte	0xe6
 3943 08a0 12       		.uleb128 0x12
 3944 08a1 2A080000 		.4byte	.LASF233
 3945 08a5 08       		.byte	0x8
 3946 08a6 64       		.byte	0x64
 3947 08a7 77000000 		.4byte	0x77
 3948 08ab F0       		.byte	0xf0
 3949 08ac 12       		.uleb128 0x12
 3950 08ad BC1A0000 		.4byte	.LASF234
 3951 08b1 08       		.byte	0x8
 3952 08b2 65       		.byte	0x65
 3953 08b3 77000000 		.4byte	0x77
 3954 08b7 F2       		.byte	0xf2
 3955 08b8 12       		.uleb128 0x12
ARM GAS  C:\Users\alexport\AppData\Local\Temp\ccr3ZDs0.s 			page 87


 3956 08b9 370E0000 		.4byte	.LASF235
 3957 08bd 08       		.byte	0x8
 3958 08be 66       		.byte	0x66
 3959 08bf 77000000 		.4byte	0x77
 3960 08c3 F4       		.byte	0xf4
 3961 08c4 12       		.uleb128 0x12
 3962 08c5 500C0000 		.4byte	.LASF236
 3963 08c9 08       		.byte	0x8
 3964 08ca 67       		.byte	0x67
 3965 08cb 77000000 		.4byte	0x77
 3966 08cf F6       		.byte	0xf6
 3967 08d0 12       		.uleb128 0x12
 3968 08d1 01080000 		.4byte	.LASF237
 3969 08d5 08       		.byte	0x8
 3970 08d6 68       		.byte	0x68
 3971 08d7 77000000 		.4byte	0x77
 3972 08db F8       		.byte	0xf8
 3973 08dc 12       		.uleb128 0x12
 3974 08dd 0A080000 		.4byte	.LASF238
 3975 08e1 08       		.byte	0x8
 3976 08e2 69       		.byte	0x69
 3977 08e3 77000000 		.4byte	0x77
 3978 08e7 FA       		.byte	0xfa
 3979 08e8 12       		.uleb128 0x12
 3980 08e9 52110000 		.4byte	.LASF239
 3981 08ed 08       		.byte	0x8
 3982 08ee 6A       		.byte	0x6a
 3983 08ef 77000000 		.4byte	0x77
 3984 08f3 FC       		.byte	0xfc
 3985 08f4 12       		.uleb128 0x12
 3986 08f5 1F100000 		.4byte	.LASF240
 3987 08f9 08       		.byte	0x8
 3988 08fa 6B       		.byte	0x6b
 3989 08fb 9B000000 		.4byte	0x9b
 3990 08ff FE       		.byte	0xfe
 3991 0900 15       		.uleb128 0x15
 3992 0901 98000000 		.4byte	.LASF241
 3993 0905 08       		.byte	0x8
 3994 0906 6C       		.byte	0x6c
 3995 0907 9B000000 		.4byte	0x9b
 3996 090b 0001     		.2byte	0x100
 3997 090d 15       		.uleb128 0x15
 3998 090e A3140000 		.4byte	.LASF242
 3999 0912 08       		.byte	0x8
 4000 0913 6D       		.byte	0x6d
 4001 0914 77000000 		.4byte	0x77
 4002 0918 0201     		.2byte	0x102
 4003 091a 00       		.byte	0
 4004 091b 0A       		.uleb128 0xa
 4005 091c C1000000 		.4byte	0xc1
 4006 0920 2B090000 		.4byte	0x92b
 4007 0924 0B       		.uleb128 0xb
 4008 0925 E0000000 		.4byte	0xe0
 4009 0929 0B       		.byte	0xb
 4010 092a 00       		.byte	0
 4011 092b 0A       		.uleb128 0xa
 4012 092c C1000000 		.4byte	0xc1
ARM GAS  C:\Users\alexport\AppData\Local\Temp\ccr3ZDs0.s 			page 88


 4013 0930 3B090000 		.4byte	0x93b
 4014 0934 0B       		.uleb128 0xb
 4015 0935 E0000000 		.4byte	0xe0
 4016 0939 09       		.byte	0x9
 4017 093a 00       		.byte	0
 4018 093b 11       		.uleb128 0x11
 4019 093c 18       		.byte	0x18
 4020 093d 09       		.byte	0x9
 4021 093e 1F       		.byte	0x1f
 4022 093f B0090000 		.4byte	0x9b0
 4023 0943 12       		.uleb128 0x12
 4024 0944 FE0A0000 		.4byte	.LASF243
 4025 0948 09       		.byte	0x9
 4026 0949 20       		.byte	0x20
 4027 094a 77000000 		.4byte	0x77
 4028 094e 00       		.byte	0
 4029 094f 12       		.uleb128 0x12
 4030 0950 461B0000 		.4byte	.LASF244
 4031 0954 09       		.byte	0x9
 4032 0955 21       		.byte	0x21
 4033 0956 6B000000 		.4byte	0x6b
 4034 095a 02       		.byte	0x2
 4035 095b 12       		.uleb128 0x12
 4036 095c 111A0000 		.4byte	.LASF245
 4037 0960 09       		.byte	0x9
 4038 0961 22       		.byte	0x22
 4039 0962 6B000000 		.4byte	0x6b
 4040 0966 03       		.byte	0x3
 4041 0967 12       		.uleb128 0x12
 4042 0968 94160000 		.4byte	.LASF246
 4043 096c 09       		.byte	0x9
 4044 096d 23       		.byte	0x23
 4045 096e 6B000000 		.4byte	0x6b
 4046 0972 04       		.byte	0x4
 4047 0973 12       		.uleb128 0x12
 4048 0974 240B0000 		.4byte	.LASF247
 4049 0978 09       		.byte	0x9
 4050 0979 24       		.byte	0x24
 4051 097a 83000000 		.4byte	0x83
 4052 097e 08       		.byte	0x8
 4053 097f 12       		.uleb128 0x12
 4054 0980 AE030000 		.4byte	.LASF248
 4055 0984 09       		.byte	0x9
 4056 0985 25       		.byte	0x25
 4057 0986 83000000 		.4byte	0x83
 4058 098a 0C       		.byte	0xc
 4059 098b 12       		.uleb128 0x12
 4060 098c ED020000 		.4byte	.LASF249
 4061 0990 09       		.byte	0x9
 4062 0991 26       		.byte	0x26
 4063 0992 83000000 		.4byte	0x83
 4064 0996 10       		.byte	0x10
 4065 0997 12       		.uleb128 0x12
 4066 0998 C40F0000 		.4byte	.LASF250
 4067 099c 09       		.byte	0x9
 4068 099d 27       		.byte	0x27
 4069 099e 77000000 		.4byte	0x77
ARM GAS  C:\Users\alexport\AppData\Local\Temp\ccr3ZDs0.s 			page 89


 4070 09a2 14       		.byte	0x14
 4071 09a3 12       		.uleb128 0x12
 4072 09a4 690B0000 		.4byte	.LASF251
 4073 09a8 09       		.byte	0x9
 4074 09a9 28       		.byte	0x28
 4075 09aa 9B000000 		.4byte	0x9b
 4076 09ae 16       		.byte	0x16
 4077 09af 00       		.byte	0
 4078 09b0 11       		.uleb128 0x11
 4079 09b1 C0       		.byte	0xc0
 4080 09b2 09       		.byte	0x9
 4081 09b3 2B       		.byte	0x2b
 4082 09b4 DD0C0000 		.4byte	0xcdd
 4083 09b8 12       		.uleb128 0x12
 4084 09b9 000A0000 		.4byte	.LASF252
 4085 09bd 09       		.byte	0x9
 4086 09be 2C       		.byte	0x2c
 4087 09bf 6B000000 		.4byte	0x6b
 4088 09c3 00       		.byte	0
 4089 09c4 12       		.uleb128 0x12
 4090 09c5 1F170000 		.4byte	.LASF253
 4091 09c9 09       		.byte	0x9
 4092 09ca 2D       		.byte	0x2d
 4093 09cb 6B000000 		.4byte	0x6b
 4094 09cf 01       		.byte	0x1
 4095 09d0 12       		.uleb128 0x12
 4096 09d1 53150000 		.4byte	.LASF254
 4097 09d5 09       		.byte	0x9
 4098 09d6 2E       		.byte	0x2e
 4099 09d7 6B000000 		.4byte	0x6b
 4100 09db 02       		.byte	0x2
 4101 09dc 12       		.uleb128 0x12
 4102 09dd 36190000 		.4byte	.LASF255
 4103 09e1 09       		.byte	0x9
 4104 09e2 2F       		.byte	0x2f
 4105 09e3 6B000000 		.4byte	0x6b
 4106 09e7 03       		.byte	0x3
 4107 09e8 12       		.uleb128 0x12
 4108 09e9 0E0C0000 		.4byte	.LASF256
 4109 09ed 09       		.byte	0x9
 4110 09ee 30       		.byte	0x30
 4111 09ef 6B000000 		.4byte	0x6b
 4112 09f3 04       		.byte	0x4
 4113 09f4 12       		.uleb128 0x12
 4114 09f5 A5080000 		.4byte	.LASF257
 4115 09f9 09       		.byte	0x9
 4116 09fa 31       		.byte	0x31
 4117 09fb 6B000000 		.4byte	0x6b
 4118 09ff 05       		.byte	0x5
 4119 0a00 12       		.uleb128 0x12
 4120 0a01 E6050000 		.4byte	.LASF258
 4121 0a05 09       		.byte	0x9
 4122 0a06 32       		.byte	0x32
 4123 0a07 6B000000 		.4byte	0x6b
 4124 0a0b 06       		.byte	0x6
 4125 0a0c 12       		.uleb128 0x12
 4126 0a0d C1000000 		.4byte	.LASF259
ARM GAS  C:\Users\alexport\AppData\Local\Temp\ccr3ZDs0.s 			page 90


 4127 0a11 09       		.byte	0x9
 4128 0a12 33       		.byte	0x33
 4129 0a13 6B000000 		.4byte	0x6b
 4130 0a17 07       		.byte	0x7
 4131 0a18 12       		.uleb128 0x12
 4132 0a19 A8000000 		.4byte	.LASF260
 4133 0a1d 09       		.byte	0x9
 4134 0a1e 34       		.byte	0x34
 4135 0a1f 6B000000 		.4byte	0x6b
 4136 0a23 08       		.byte	0x8
 4137 0a24 12       		.uleb128 0x12
 4138 0a25 C1120000 		.4byte	.LASF261
 4139 0a29 09       		.byte	0x9
 4140 0a2a 35       		.byte	0x35
 4141 0a2b 6B000000 		.4byte	0x6b
 4142 0a2f 09       		.byte	0x9
 4143 0a30 12       		.uleb128 0x12
 4144 0a31 0C130000 		.4byte	.LASF262
 4145 0a35 09       		.byte	0x9
 4146 0a36 36       		.byte	0x36
 4147 0a37 6B000000 		.4byte	0x6b
 4148 0a3b 0A       		.byte	0xa
 4149 0a3c 12       		.uleb128 0x12
 4150 0a3d AB070000 		.4byte	.LASF263
 4151 0a41 09       		.byte	0x9
 4152 0a42 37       		.byte	0x37
 4153 0a43 6B000000 		.4byte	0x6b
 4154 0a47 0B       		.byte	0xb
 4155 0a48 12       		.uleb128 0x12
 4156 0a49 51010000 		.4byte	.LASF264
 4157 0a4d 09       		.byte	0x9
 4158 0a4e 38       		.byte	0x38
 4159 0a4f 6B000000 		.4byte	0x6b
 4160 0a53 0C       		.byte	0xc
 4161 0a54 12       		.uleb128 0x12
 4162 0a55 0B060000 		.4byte	.LASF265
 4163 0a59 09       		.byte	0x9
 4164 0a5a 39       		.byte	0x39
 4165 0a5b 6B000000 		.4byte	0x6b
 4166 0a5f 0D       		.byte	0xd
 4167 0a60 12       		.uleb128 0x12
 4168 0a61 410F0000 		.4byte	.LASF266
 4169 0a65 09       		.byte	0x9
 4170 0a66 3A       		.byte	0x3a
 4171 0a67 6B000000 		.4byte	0x6b
 4172 0a6b 0E       		.byte	0xe
 4173 0a6c 12       		.uleb128 0x12
 4174 0a6d 99040000 		.4byte	.LASF267
 4175 0a71 09       		.byte	0x9
 4176 0a72 3B       		.byte	0x3b
 4177 0a73 6B000000 		.4byte	0x6b
 4178 0a77 0F       		.byte	0xf
 4179 0a78 12       		.uleb128 0x12
 4180 0a79 8E0E0000 		.4byte	.LASF268
 4181 0a7d 09       		.byte	0x9
 4182 0a7e 3C       		.byte	0x3c
 4183 0a7f 6B000000 		.4byte	0x6b
ARM GAS  C:\Users\alexport\AppData\Local\Temp\ccr3ZDs0.s 			page 91


 4184 0a83 10       		.byte	0x10
 4185 0a84 12       		.uleb128 0x12
 4186 0a85 89180000 		.4byte	.LASF269
 4187 0a89 09       		.byte	0x9
 4188 0a8a 3D       		.byte	0x3d
 4189 0a8b 6B000000 		.4byte	0x6b
 4190 0a8f 11       		.byte	0x11
 4191 0a90 12       		.uleb128 0x12
 4192 0a91 C20E0000 		.4byte	.LASF270
 4193 0a95 09       		.byte	0x9
 4194 0a96 3E       		.byte	0x3e
 4195 0a97 6B000000 		.4byte	0x6b
 4196 0a9b 12       		.byte	0x12
 4197 0a9c 12       		.uleb128 0x12
 4198 0a9d 57050000 		.4byte	.LASF271
 4199 0aa1 09       		.byte	0x9
 4200 0aa2 3F       		.byte	0x3f
 4201 0aa3 6B000000 		.4byte	0x6b
 4202 0aa7 13       		.byte	0x13
 4203 0aa8 12       		.uleb128 0x12
 4204 0aa9 4C060000 		.4byte	.LASF165
 4205 0aad 09       		.byte	0x9
 4206 0aae 40       		.byte	0x40
 4207 0aaf 9B000000 		.4byte	0x9b
 4208 0ab3 14       		.byte	0x14
 4209 0ab4 12       		.uleb128 0x12
 4210 0ab5 DA1A0000 		.4byte	.LASF272
 4211 0ab9 09       		.byte	0x9
 4212 0aba 41       		.byte	0x41
 4213 0abb 77000000 		.4byte	0x77
 4214 0abf 16       		.byte	0x16
 4215 0ac0 12       		.uleb128 0x12
 4216 0ac1 B2010000 		.4byte	.LASF273
 4217 0ac5 09       		.byte	0x9
 4218 0ac6 42       		.byte	0x42
 4219 0ac7 77000000 		.4byte	0x77
 4220 0acb 18       		.byte	0x18
 4221 0acc 12       		.uleb128 0x12
 4222 0acd 49030000 		.4byte	.LASF274
 4223 0ad1 09       		.byte	0x9
 4224 0ad2 43       		.byte	0x43
 4225 0ad3 77000000 		.4byte	0x77
 4226 0ad7 1A       		.byte	0x1a
 4227 0ad8 12       		.uleb128 0x12
 4228 0ad9 7A180000 		.4byte	.LASF275
 4229 0add 09       		.byte	0x9
 4230 0ade 44       		.byte	0x44
 4231 0adf 77000000 		.4byte	0x77
 4232 0ae3 1C       		.byte	0x1c
 4233 0ae4 12       		.uleb128 0x12
 4234 0ae5 6E180000 		.4byte	.LASF276
 4235 0ae9 09       		.byte	0x9
 4236 0aea 45       		.byte	0x45
 4237 0aeb 6B000000 		.4byte	0x6b
 4238 0aef 1E       		.byte	0x1e
 4239 0af0 12       		.uleb128 0x12
 4240 0af1 5B060000 		.4byte	.LASF277
ARM GAS  C:\Users\alexport\AppData\Local\Temp\ccr3ZDs0.s 			page 92


 4241 0af5 09       		.byte	0x9
 4242 0af6 46       		.byte	0x46
 4243 0af7 6B000000 		.4byte	0x6b
 4244 0afb 1F       		.byte	0x1f
 4245 0afc 12       		.uleb128 0x12
 4246 0afd E8170000 		.4byte	.LASF278
 4247 0b01 09       		.byte	0x9
 4248 0b02 47       		.byte	0x47
 4249 0b03 6B000000 		.4byte	0x6b
 4250 0b07 20       		.byte	0x20
 4251 0b08 12       		.uleb128 0x12
 4252 0b09 861B0000 		.4byte	.LASF279
 4253 0b0d 09       		.byte	0x9
 4254 0b0e 48       		.byte	0x48
 4255 0b0f DD0C0000 		.4byte	0xcdd
 4256 0b13 21       		.byte	0x21
 4257 0b14 12       		.uleb128 0x12
 4258 0b15 D7000000 		.4byte	.LASF280
 4259 0b19 09       		.byte	0x9
 4260 0b1a 49       		.byte	0x49
 4261 0b1b ED0C0000 		.4byte	0xced
 4262 0b1f 29       		.byte	0x29
 4263 0b20 12       		.uleb128 0x12
 4264 0b21 B8160000 		.4byte	.LASF281
 4265 0b25 09       		.byte	0x9
 4266 0b26 4A       		.byte	0x4a
 4267 0b27 FD0C0000 		.4byte	0xcfd
 4268 0b2b 39       		.byte	0x39
 4269 0b2c 12       		.uleb128 0x12
 4270 0b2d 381A0000 		.4byte	.LASF282
 4271 0b31 09       		.byte	0x9
 4272 0b32 4B       		.byte	0x4b
 4273 0b33 B5000000 		.4byte	0xb5
 4274 0b37 60       		.byte	0x60
 4275 0b38 12       		.uleb128 0x12
 4276 0b39 2B0E0000 		.4byte	.LASF283
 4277 0b3d 09       		.byte	0x9
 4278 0b3e 4C       		.byte	0x4c
 4279 0b3f B5000000 		.4byte	0xb5
 4280 0b43 68       		.byte	0x68
 4281 0b44 12       		.uleb128 0x12
 4282 0b45 490C0000 		.4byte	.LASF284
 4283 0b49 09       		.byte	0x9
 4284 0b4a 4D       		.byte	0x4d
 4285 0b4b 77000000 		.4byte	0x77
 4286 0b4f 70       		.byte	0x70
 4287 0b50 12       		.uleb128 0x12
 4288 0b51 4F1A0000 		.4byte	.LASF285
 4289 0b55 09       		.byte	0x9
 4290 0b56 4E       		.byte	0x4e
 4291 0b57 77000000 		.4byte	0x77
 4292 0b5b 72       		.byte	0x72
 4293 0b5c 12       		.uleb128 0x12
 4294 0b5d 44060000 		.4byte	.LASF286
 4295 0b61 09       		.byte	0x9
 4296 0b62 4F       		.byte	0x4f
 4297 0b63 77000000 		.4byte	0x77
ARM GAS  C:\Users\alexport\AppData\Local\Temp\ccr3ZDs0.s 			page 93


 4298 0b67 74       		.byte	0x74
 4299 0b68 12       		.uleb128 0x12
 4300 0b69 D0190000 		.4byte	.LASF287
 4301 0b6d 09       		.byte	0x9
 4302 0b6e 50       		.byte	0x50
 4303 0b6f 77000000 		.4byte	0x77
 4304 0b73 76       		.byte	0x76
 4305 0b74 12       		.uleb128 0x12
 4306 0b75 38000000 		.4byte	.LASF288
 4307 0b79 09       		.byte	0x9
 4308 0b7a 51       		.byte	0x51
 4309 0b7b 77000000 		.4byte	0x77
 4310 0b7f 78       		.byte	0x78
 4311 0b80 12       		.uleb128 0x12
 4312 0b81 F6030000 		.4byte	.LASF289
 4313 0b85 09       		.byte	0x9
 4314 0b86 52       		.byte	0x52
 4315 0b87 A7000000 		.4byte	0xa7
 4316 0b8b 7C       		.byte	0x7c
 4317 0b8c 12       		.uleb128 0x12
 4318 0b8d 62010000 		.4byte	.LASF290
 4319 0b91 09       		.byte	0x9
 4320 0b92 53       		.byte	0x53
 4321 0b93 6B000000 		.4byte	0x6b
 4322 0b97 80       		.byte	0x80
 4323 0b98 12       		.uleb128 0x12
 4324 0b99 980A0000 		.4byte	.LASF291
 4325 0b9d 09       		.byte	0x9
 4326 0b9e 54       		.byte	0x54
 4327 0b9f 6B000000 		.4byte	0x6b
 4328 0ba3 81       		.byte	0x81
 4329 0ba4 12       		.uleb128 0x12
 4330 0ba5 21130000 		.4byte	.LASF292
 4331 0ba9 09       		.byte	0x9
 4332 0baa 55       		.byte	0x55
 4333 0bab 6B000000 		.4byte	0x6b
 4334 0baf 82       		.byte	0x82
 4335 0bb0 12       		.uleb128 0x12
 4336 0bb1 F30A0000 		.4byte	.LASF293
 4337 0bb5 09       		.byte	0x9
 4338 0bb6 56       		.byte	0x56
 4339 0bb7 77000000 		.4byte	0x77
 4340 0bbb 84       		.byte	0x84
 4341 0bbc 12       		.uleb128 0x12
 4342 0bbd BA090000 		.4byte	.LASF294
 4343 0bc1 09       		.byte	0x9
 4344 0bc2 57       		.byte	0x57
 4345 0bc3 0D0D0000 		.4byte	0xd0d
 4346 0bc7 86       		.byte	0x86
 4347 0bc8 12       		.uleb128 0x12
 4348 0bc9 360F0000 		.4byte	.LASF295
 4349 0bcd 09       		.byte	0x9
 4350 0bce 58       		.byte	0x58
 4351 0bcf 8F000000 		.4byte	0x8f
 4352 0bd3 9A       		.byte	0x9a
 4353 0bd4 12       		.uleb128 0x12
 4354 0bd5 CA060000 		.4byte	.LASF296
ARM GAS  C:\Users\alexport\AppData\Local\Temp\ccr3ZDs0.s 			page 94


 4355 0bd9 09       		.byte	0x9
 4356 0bda 59       		.byte	0x59
 4357 0bdb 8F000000 		.4byte	0x8f
 4358 0bdf 9B       		.byte	0x9b
 4359 0be0 12       		.uleb128 0x12
 4360 0be1 6F030000 		.4byte	.LASF297
 4361 0be5 09       		.byte	0x9
 4362 0be6 5A       		.byte	0x5a
 4363 0be7 8F000000 		.4byte	0x8f
 4364 0beb 9C       		.byte	0x9c
 4365 0bec 12       		.uleb128 0x12
 4366 0bed 99170000 		.4byte	.LASF298
 4367 0bf1 09       		.byte	0x9
 4368 0bf2 5B       		.byte	0x5b
 4369 0bf3 8F000000 		.4byte	0x8f
 4370 0bf7 9D       		.byte	0x9d
 4371 0bf8 12       		.uleb128 0x12
 4372 0bf9 B6170000 		.4byte	.LASF299
 4373 0bfd 09       		.byte	0x9
 4374 0bfe 5C       		.byte	0x5c
 4375 0bff 6B000000 		.4byte	0x6b
 4376 0c03 9E       		.byte	0x9e
 4377 0c04 12       		.uleb128 0x12
 4378 0c05 961B0000 		.4byte	.LASF300
 4379 0c09 09       		.byte	0x9
 4380 0c0a 5D       		.byte	0x5d
 4381 0c0b 6B000000 		.4byte	0x6b
 4382 0c0f 9F       		.byte	0x9f
 4383 0c10 12       		.uleb128 0x12
 4384 0c11 AF040000 		.4byte	.LASF301
 4385 0c15 09       		.byte	0x9
 4386 0c16 5E       		.byte	0x5e
 4387 0c17 77000000 		.4byte	0x77
 4388 0c1b A0       		.byte	0xa0
 4389 0c1c 12       		.uleb128 0x12
 4390 0c1d 12100000 		.4byte	.LASF302
 4391 0c21 09       		.byte	0x9
 4392 0c22 5F       		.byte	0x5f
 4393 0c23 6B000000 		.4byte	0x6b
 4394 0c27 A2       		.byte	0xa2
 4395 0c28 12       		.uleb128 0x12
 4396 0c29 8C070000 		.4byte	.LASF303
 4397 0c2d 09       		.byte	0x9
 4398 0c2e 60       		.byte	0x60
 4399 0c2f 6B000000 		.4byte	0x6b
 4400 0c33 A3       		.byte	0xa3
 4401 0c34 12       		.uleb128 0x12
 4402 0c35 DA0F0000 		.4byte	.LASF304
 4403 0c39 09       		.byte	0x9
 4404 0c3a 61       		.byte	0x61
 4405 0c3b 6B000000 		.4byte	0x6b
 4406 0c3f A4       		.byte	0xa4
 4407 0c40 12       		.uleb128 0x12
 4408 0c41 47130000 		.4byte	.LASF305
 4409 0c45 09       		.byte	0x9
 4410 0c46 62       		.byte	0x62
 4411 0c47 6B000000 		.4byte	0x6b
ARM GAS  C:\Users\alexport\AppData\Local\Temp\ccr3ZDs0.s 			page 95


 4412 0c4b A5       		.byte	0xa5
 4413 0c4c 12       		.uleb128 0x12
 4414 0c4d 22180000 		.4byte	.LASF306
 4415 0c51 09       		.byte	0x9
 4416 0c52 63       		.byte	0x63
 4417 0c53 77000000 		.4byte	0x77
 4418 0c57 A6       		.byte	0xa6
 4419 0c58 12       		.uleb128 0x12
 4420 0c59 73150000 		.4byte	.LASF307
 4421 0c5d 09       		.byte	0x9
 4422 0c5e 64       		.byte	0x64
 4423 0c5f 77000000 		.4byte	0x77
 4424 0c63 A8       		.byte	0xa8
 4425 0c64 12       		.uleb128 0x12
 4426 0c65 8F0D0000 		.4byte	.LASF308
 4427 0c69 09       		.byte	0x9
 4428 0c6a 65       		.byte	0x65
 4429 0c6b 77000000 		.4byte	0x77
 4430 0c6f AA       		.byte	0xaa
 4431 0c70 12       		.uleb128 0x12
 4432 0c71 CE1A0000 		.4byte	.LASF309
 4433 0c75 09       		.byte	0x9
 4434 0c76 66       		.byte	0x66
 4435 0c77 77000000 		.4byte	0x77
 4436 0c7b AC       		.byte	0xac
 4437 0c7c 12       		.uleb128 0x12
 4438 0c7d 4C1B0000 		.4byte	.LASF310
 4439 0c81 09       		.byte	0x9
 4440 0c82 67       		.byte	0x67
 4441 0c83 77000000 		.4byte	0x77
 4442 0c87 AE       		.byte	0xae
 4443 0c88 12       		.uleb128 0x12
 4444 0c89 44010000 		.4byte	.LASF311
 4445 0c8d 09       		.byte	0x9
 4446 0c8e 68       		.byte	0x68
 4447 0c8f 6B000000 		.4byte	0x6b
 4448 0c93 B0       		.byte	0xb0
 4449 0c94 12       		.uleb128 0x12
 4450 0c95 CD1B0000 		.4byte	.LASF312
 4451 0c99 09       		.byte	0x9
 4452 0c9a 69       		.byte	0x69
 4453 0c9b 6B000000 		.4byte	0x6b
 4454 0c9f B1       		.byte	0xb1
 4455 0ca0 14       		.uleb128 0x14
 4456 0ca1 50696E00 		.ascii	"Pin\000"
 4457 0ca5 09       		.byte	0x9
 4458 0ca6 6A       		.byte	0x6a
 4459 0ca7 1D0D0000 		.4byte	0xd1d
 4460 0cab B2       		.byte	0xb2
 4461 0cac 12       		.uleb128 0x12
 4462 0cad E10C0000 		.4byte	.LASF313
 4463 0cb1 09       		.byte	0x9
 4464 0cb2 6B       		.byte	0x6b
 4465 0cb3 6B000000 		.4byte	0x6b
 4466 0cb7 B6       		.byte	0xb6
 4467 0cb8 12       		.uleb128 0x12
 4468 0cb9 1D060000 		.4byte	.LASF314
ARM GAS  C:\Users\alexport\AppData\Local\Temp\ccr3ZDs0.s 			page 96


 4469 0cbd 09       		.byte	0x9
 4470 0cbe 6C       		.byte	0x6c
 4471 0cbf 77000000 		.4byte	0x77
 4472 0cc3 B8       		.byte	0xb8
 4473 0cc4 12       		.uleb128 0x12
 4474 0cc5 561A0000 		.4byte	.LASF315
 4475 0cc9 09       		.byte	0x9
 4476 0cca 6D       		.byte	0x6d
 4477 0ccb 77000000 		.4byte	0x77
 4478 0ccf BA       		.byte	0xba
 4479 0cd0 12       		.uleb128 0x12
 4480 0cd1 0C010000 		.4byte	.LASF316
 4481 0cd5 09       		.byte	0x9
 4482 0cd6 6E       		.byte	0x6e
 4483 0cd7 6B000000 		.4byte	0x6b
 4484 0cdb BC       		.byte	0xbc
 4485 0cdc 00       		.byte	0
 4486 0cdd 0A       		.uleb128 0xa
 4487 0cde 6B000000 		.4byte	0x6b
 4488 0ce2 ED0C0000 		.4byte	0xced
 4489 0ce6 0B       		.uleb128 0xb
 4490 0ce7 E0000000 		.4byte	0xe0
 4491 0ceb 07       		.byte	0x7
 4492 0cec 00       		.byte	0
 4493 0ced 0A       		.uleb128 0xa
 4494 0cee C1000000 		.4byte	0xc1
 4495 0cf2 FD0C0000 		.4byte	0xcfd
 4496 0cf6 0B       		.uleb128 0xb
 4497 0cf7 E0000000 		.4byte	0xe0
 4498 0cfb 0F       		.byte	0xf
 4499 0cfc 00       		.byte	0
 4500 0cfd 0A       		.uleb128 0xa
 4501 0cfe C1000000 		.4byte	0xc1
 4502 0d02 0D0D0000 		.4byte	0xd0d
 4503 0d06 0B       		.uleb128 0xb
 4504 0d07 E0000000 		.4byte	0xe0
 4505 0d0b 1F       		.byte	0x1f
 4506 0d0c 00       		.byte	0
 4507 0d0d 0A       		.uleb128 0xa
 4508 0d0e C1000000 		.4byte	0xc1
 4509 0d12 1D0D0000 		.4byte	0xd1d
 4510 0d16 0B       		.uleb128 0xb
 4511 0d17 E0000000 		.4byte	0xe0
 4512 0d1b 13       		.byte	0x13
 4513 0d1c 00       		.byte	0
 4514 0d1d 0A       		.uleb128 0xa
 4515 0d1e C1000000 		.4byte	0xc1
 4516 0d22 2D0D0000 		.4byte	0xd2d
 4517 0d26 0B       		.uleb128 0xb
 4518 0d27 E0000000 		.4byte	0xe0
 4519 0d2b 03       		.byte	0x3
 4520 0d2c 00       		.byte	0
 4521 0d2d 16       		.uleb128 0x16
 4522 0d2e BF190000 		.4byte	.LASF347
 4523 0d32 01       		.byte	0x1
 4524 0d33 2C       		.byte	0x2c
 4525 0d34 00000000 		.4byte	.LFB35
ARM GAS  C:\Users\alexport\AppData\Local\Temp\ccr3ZDs0.s 			page 97


 4526 0d38 F0080000 		.4byte	.LFE35-.LFB35
 4527 0d3c 01       		.uleb128 0x1
 4528 0d3d 9C       		.byte	0x9c
 4529 0d3e 5F0D0000 		.4byte	0xd5f
 4530 0d42 17       		.uleb128 0x17
 4531 0d43 E3180000 		.4byte	.LASF317
 4532 0d47 01       		.byte	0x1
 4533 0d48 2E       		.byte	0x2e
 4534 0d49 73040000 		.4byte	0x473
 4535 0d4d 02       		.uleb128 0x2
 4536 0d4e 91       		.byte	0x91
 4537 0d4f 60       		.sleb128 -32
 4538 0d50 17       		.uleb128 0x17
 4539 0d51 F1160000 		.4byte	.LASF318
 4540 0d55 01       		.byte	0x1
 4541 0d56 2F       		.byte	0x2f
 4542 0d57 9B000000 		.4byte	0x9b
 4543 0d5b 02       		.uleb128 0x2
 4544 0d5c 91       		.byte	0x91
 4545 0d5d 6E       		.sleb128 -18
 4546 0d5e 00       		.byte	0
 4547 0d5f 18       		.uleb128 0x18
 4548 0d60 5D170000 		.4byte	.LASF348
 4549 0d64 01       		.byte	0x1
 4550 0d65 7601     		.2byte	0x176
 4551 0d67 00000000 		.4byte	.LFB36
 4552 0d6b 240A0000 		.4byte	.LFE36-.LFB36
 4553 0d6f 01       		.uleb128 0x1
 4554 0d70 9C       		.byte	0x9c
 4555 0d71 D50D0000 		.4byte	0xdd5
 4556 0d75 19       		.uleb128 0x19
 4557 0d76 20160000 		.4byte	.LASF319
 4558 0d7a 01       		.byte	0x1
 4559 0d7b 7601     		.2byte	0x176
 4560 0d7d 83000000 		.4byte	0x83
 4561 0d81 02       		.uleb128 0x2
 4562 0d82 91       		.byte	0x91
 4563 0d83 6C       		.sleb128 -20
 4564 0d84 19       		.uleb128 0x19
 4565 0d85 441A0000 		.4byte	.LASF320
 4566 0d89 01       		.byte	0x1
 4567 0d8a 7601     		.2byte	0x176
 4568 0d8c E7000000 		.4byte	0xe7
 4569 0d90 02       		.uleb128 0x2
 4570 0d91 91       		.byte	0x91
 4571 0d92 68       		.sleb128 -24
 4572 0d93 1A       		.uleb128 0x1a
 4573 0d94 870F0000 		.4byte	.LASF321
 4574 0d98 01       		.byte	0x1
 4575 0d99 7801     		.2byte	0x178
 4576 0d9b D50D0000 		.4byte	0xdd5
 4577 0d9f 02       		.uleb128 0x2
 4578 0da0 91       		.byte	0x91
 4579 0da1 70       		.sleb128 -16
 4580 0da2 1B       		.uleb128 0x1b
 4581 0da3 88030000 		.4byte	.LBB2
 4582 0da7 42000000 		.4byte	.LBE2-.LBB2
ARM GAS  C:\Users\alexport\AppData\Local\Temp\ccr3ZDs0.s 			page 98


 4583 0dab BD0D0000 		.4byte	0xdbd
 4584 0daf 1C       		.uleb128 0x1c
 4585 0db0 6900     		.ascii	"i\000"
 4586 0db2 01       		.byte	0x1
 4587 0db3 3502     		.2byte	0x235
 4588 0db5 6B000000 		.4byte	0x6b
 4589 0db9 02       		.uleb128 0x2
 4590 0dba 91       		.byte	0x91
 4591 0dbb 77       		.sleb128 -9
 4592 0dbc 00       		.byte	0
 4593 0dbd 1D       		.uleb128 0x1d
 4594 0dbe 00040000 		.4byte	.LBB3
 4595 0dc2 42000000 		.4byte	.LBE3-.LBB3
 4596 0dc6 1C       		.uleb128 0x1c
 4597 0dc7 6900     		.ascii	"i\000"
 4598 0dc9 01       		.byte	0x1
 4599 0dca 4602     		.2byte	0x246
 4600 0dcc 6B000000 		.4byte	0x6b
 4601 0dd0 02       		.uleb128 0x2
 4602 0dd1 91       		.byte	0x91
 4603 0dd2 76       		.sleb128 -10
 4604 0dd3 00       		.byte	0
 4605 0dd4 00       		.byte	0
 4606 0dd5 07       		.uleb128 0x7
 4607 0dd6 04       		.byte	0x4
 4608 0dd7 9F040000 		.4byte	0x49f
 4609 0ddb 1E       		.uleb128 0x1e
 4610 0ddc 560A0000 		.4byte	.LASF322
 4611 0de0 07       		.byte	0x7
 4612 0de1 B30A     		.2byte	0xab3
 4613 0de3 1F050000 		.4byte	0x51f
 4614 0de7 1E       		.uleb128 0x1e
 4615 0de8 31090000 		.4byte	.LASF323
 4616 0dec 07       		.byte	0x7
 4617 0ded B40A     		.2byte	0xab4
 4618 0def FA030000 		.4byte	0x3fa
 4619 0df3 1F       		.uleb128 0x1f
 4620 0df4 84020000 		.4byte	.LASF324
 4621 0df8 0A       		.byte	0xa
 4622 0df9 17       		.byte	0x17
 4623 0dfa B5000000 		.4byte	0xb5
 4624 0dfe 05       		.uleb128 0x5
 4625 0dff 03       		.byte	0x3
 4626 0e00 00000000 		.4byte	at24cs01SnUpper
 4627 0e04 1F       		.uleb128 0x1f
 4628 0e05 D10C0000 		.4byte	.LASF325
 4629 0e09 0A       		.byte	0xa
 4630 0e0a 18       		.byte	0x18
 4631 0e0b B5000000 		.4byte	0xb5
 4632 0e0f 05       		.uleb128 0x5
 4633 0e10 03       		.byte	0x3
 4634 0e11 00000000 		.4byte	at24cs01SnLower
 4635 0e15 1F       		.uleb128 0x1f
 4636 0e16 450E0000 		.4byte	.LASF326
 4637 0e1a 0A       		.byte	0xa
 4638 0e1b 19       		.byte	0x19
 4639 0e1c B3020000 		.4byte	0x2b3
ARM GAS  C:\Users\alexport\AppData\Local\Temp\ccr3ZDs0.s 			page 99


 4640 0e20 05       		.uleb128 0x5
 4641 0e21 03       		.byte	0x3
 4642 0e22 00000000 		.4byte	adfeSerialNumber
 4643 0e26 1F       		.uleb128 0x1f
 4644 0e27 C4090000 		.4byte	.LASF327
 4645 0e2b 0B       		.byte	0xb
 4646 0e2c 17       		.byte	0x17
 4647 0e2d EF000000 		.4byte	0xef
 4648 0e31 05       		.uleb128 0x5
 4649 0e32 03       		.byte	0x3
 4650 0e33 00000000 		.4byte	ad12ResultBuff
 4651 0e37 1F       		.uleb128 0x1f
 4652 0e38 BA000000 		.4byte	.LASF328
 4653 0e3c 08       		.byte	0x8
 4654 0e3d 6E       		.byte	0x6e
 4655 0e3e 2B050000 		.4byte	0x52b
 4656 0e42 05       		.uleb128 0x5
 4657 0e43 03       		.byte	0x3
 4658 0e44 00000000 		.4byte	Sensor
 4659 0e48 1F       		.uleb128 0x1f
 4660 0e49 380B0000 		.4byte	.LASF329
 4661 0e4d 0C       		.byte	0xc
 4662 0e4e 1A       		.byte	0x1a
 4663 0e4f 5D000000 		.4byte	0x5d
 4664 0e53 05       		.uleb128 0x5
 4665 0e54 03       		.byte	0x3
 4666 0e55 00000000 		.4byte	myBatteryNotify
 4667 0e59 0A       		.uleb128 0xa
 4668 0e5a 6B000000 		.4byte	0x6b
 4669 0e5e 690E0000 		.4byte	0xe69
 4670 0e62 0B       		.uleb128 0xb
 4671 0e63 E0000000 		.4byte	0xe0
 4672 0e67 31       		.byte	0x31
 4673 0e68 00       		.byte	0
 4674 0e69 1F       		.uleb128 0x1f
 4675 0e6a A1070000 		.4byte	.LASF330
 4676 0e6e 0D       		.byte	0xd
 4677 0e6f 16       		.byte	0x16
 4678 0e70 590E0000 		.4byte	0xe59
 4679 0e74 05       		.uleb128 0x5
 4680 0e75 03       		.byte	0x3
 4681 0e76 00000000 		.4byte	cecPacket
 4682 0e7a 1F       		.uleb128 0x1f
 4683 0e7b 64150000 		.4byte	.LASF331
 4684 0e7f 0D       		.byte	0xd
 4685 0e80 17       		.byte	0x17
 4686 0e81 77000000 		.4byte	0x77
 4687 0e85 05       		.uleb128 0x5
 4688 0e86 03       		.byte	0x3
 4689 0e87 00000000 		.4byte	cecPacketIndex
 4690 0e8b 1F       		.uleb128 0x1f
 4691 0e8c F40E0000 		.4byte	.LASF332
 4692 0e90 0D       		.byte	0xd
 4693 0e91 18       		.byte	0x18
 4694 0e92 77000000 		.4byte	0x77
 4695 0e96 05       		.uleb128 0x5
 4696 0e97 03       		.byte	0x3
ARM GAS  C:\Users\alexport\AppData\Local\Temp\ccr3ZDs0.s 			page 100


 4697 0e98 00000000 		.4byte	cecPacketEnd
 4698 0e9c 1F       		.uleb128 0x1f
 4699 0e9d DA120000 		.4byte	.LASF333
 4700 0ea1 0D       		.byte	0xd
 4701 0ea2 19       		.byte	0x19
 4702 0ea3 6B000000 		.4byte	0x6b
 4703 0ea7 05       		.uleb128 0x5
 4704 0ea8 03       		.byte	0x3
 4705 0ea9 00000000 		.4byte	cecCrcHigh
 4706 0ead 1F       		.uleb128 0x1f
 4707 0eae 0D120000 		.4byte	.LASF334
 4708 0eb2 0D       		.byte	0xd
 4709 0eb3 1A       		.byte	0x1a
 4710 0eb4 6B000000 		.4byte	0x6b
 4711 0eb8 05       		.uleb128 0x5
 4712 0eb9 03       		.byte	0x3
 4713 0eba 00000000 		.4byte	cecCrcLow
 4714 0ebe 0A       		.uleb128 0xa
 4715 0ebf 6B000000 		.4byte	0x6b
 4716 0ec3 CE0E0000 		.4byte	0xece
 4717 0ec7 0B       		.uleb128 0xb
 4718 0ec8 E0000000 		.4byte	0xe0
 4719 0ecc 13       		.byte	0x13
 4720 0ecd 00       		.byte	0
 4721 0ece 1F       		.uleb128 0x1f
 4722 0ecf 8C100000 		.4byte	.LASF335
 4723 0ed3 0E       		.byte	0xe
 4724 0ed4 17       		.byte	0x17
 4725 0ed5 BE0E0000 		.4byte	0xebe
 4726 0ed9 05       		.uleb128 0x5
 4727 0eda 03       		.byte	0x3
 4728 0edb 00000000 		.4byte	modbusPacket
 4729 0edf 1F       		.uleb128 0x1f
 4730 0ee0 990D0000 		.4byte	.LASF336
 4731 0ee4 0E       		.byte	0xe
 4732 0ee5 18       		.byte	0x18
 4733 0ee6 77000000 		.4byte	0x77
 4734 0eea 05       		.uleb128 0x5
 4735 0eeb 03       		.byte	0x3
 4736 0eec 00000000 		.4byte	modbusPacketIndex
 4737 0ef0 1F       		.uleb128 0x1f
 4738 0ef1 9E1C0000 		.4byte	.LASF337
 4739 0ef5 0E       		.byte	0xe
 4740 0ef6 19       		.byte	0x19
 4741 0ef7 77000000 		.4byte	0x77
 4742 0efb 05       		.uleb128 0x5
 4743 0efc 03       		.byte	0x3
 4744 0efd 00000000 		.4byte	modbusPacketEnd
 4745 0f01 1F       		.uleb128 0x1f
 4746 0f02 AD090000 		.4byte	.LASF338
 4747 0f06 0F       		.byte	0xf
 4748 0f07 14       		.byte	0x14
 4749 0f08 A7000000 		.4byte	0xa7
 4750 0f0c 05       		.uleb128 0x5
 4751 0f0d 03       		.byte	0x3
 4752 0f0e 00000000 		.4byte	mbFloatValue
 4753 0f12 1F       		.uleb128 0x1f
ARM GAS  C:\Users\alexport\AppData\Local\Temp\ccr3ZDs0.s 			page 101


 4754 0f13 26030000 		.4byte	.LASF339
 4755 0f17 0F       		.byte	0xf
 4756 0f18 15       		.byte	0x15
 4757 0f19 77000000 		.4byte	0x77
 4758 0f1d 05       		.uleb128 0x5
 4759 0f1e 03       		.byte	0x3
 4760 0f1f 00000000 		.4byte	mbInt16Value
 4761 0f23 1F       		.uleb128 0x1f
 4762 0f24 DC110000 		.4byte	.LASF340
 4763 0f28 09       		.byte	0x9
 4764 0f29 1E       		.byte	0x1e
 4765 0f2a 6B000000 		.4byte	0x6b
 4766 0f2e 05       		.uleb128 0x5
 4767 0f2f 03       		.byte	0x3
 4768 0f30 00000000 		.4byte	sysTopSwitch
 4769 0f34 1F       		.uleb128 0x1f
 4770 0f35 43150000 		.4byte	.LASF341
 4771 0f39 09       		.byte	0x9
 4772 0f3a 1E       		.byte	0x1e
 4773 0f3b 6B000000 		.4byte	0x6b
 4774 0f3f 05       		.uleb128 0x5
 4775 0f40 03       		.byte	0x3
 4776 0f41 00000000 		.4byte	sysBottomSwitch
 4777 0f45 1F       		.uleb128 0x1f
 4778 0f46 4E0D0000 		.4byte	.LASF342
 4779 0f4a 09       		.byte	0x9
 4780 0f4b 29       		.byte	0x29
 4781 0f4c 3B090000 		.4byte	0x93b
 4782 0f50 05       		.uleb128 0x5
 4783 0f51 03       		.byte	0x3
 4784 0f52 00000000 		.4byte	Time
 4785 0f56 1F       		.uleb128 0x1f
 4786 0f57 7F1B0000 		.4byte	.LASF343
 4787 0f5b 09       		.byte	0x9
 4788 0f5c 6F       		.byte	0x6f
 4789 0f5d B0090000 		.4byte	0x9b0
 4790 0f61 05       		.uleb128 0x5
 4791 0f62 03       		.byte	0x3
 4792 0f63 00000000 		.4byte	System
 4793 0f67 00       		.byte	0
 4794              		.section	.debug_abbrev,"",%progbits
 4795              	.Ldebug_abbrev0:
 4796 0000 01       		.uleb128 0x1
 4797 0001 11       		.uleb128 0x11
 4798 0002 01       		.byte	0x1
 4799 0003 25       		.uleb128 0x25
 4800 0004 0E       		.uleb128 0xe
 4801 0005 13       		.uleb128 0x13
 4802 0006 0B       		.uleb128 0xb
 4803 0007 03       		.uleb128 0x3
 4804 0008 0E       		.uleb128 0xe
 4805 0009 1B       		.uleb128 0x1b
 4806 000a 0E       		.uleb128 0xe
 4807 000b 55       		.uleb128 0x55
 4808 000c 17       		.uleb128 0x17
 4809 000d 11       		.uleb128 0x11
 4810 000e 01       		.uleb128 0x1
ARM GAS  C:\Users\alexport\AppData\Local\Temp\ccr3ZDs0.s 			page 102


 4811 000f 10       		.uleb128 0x10
 4812 0010 17       		.uleb128 0x17
 4813 0011 00       		.byte	0
 4814 0012 00       		.byte	0
 4815 0013 02       		.uleb128 0x2
 4816 0014 24       		.uleb128 0x24
 4817 0015 00       		.byte	0
 4818 0016 0B       		.uleb128 0xb
 4819 0017 0B       		.uleb128 0xb
 4820 0018 3E       		.uleb128 0x3e
 4821 0019 0B       		.uleb128 0xb
 4822 001a 03       		.uleb128 0x3
 4823 001b 0E       		.uleb128 0xe
 4824 001c 00       		.byte	0
 4825 001d 00       		.byte	0
 4826 001e 03       		.uleb128 0x3
 4827 001f 24       		.uleb128 0x24
 4828 0020 00       		.byte	0
 4829 0021 0B       		.uleb128 0xb
 4830 0022 0B       		.uleb128 0xb
 4831 0023 3E       		.uleb128 0x3e
 4832 0024 0B       		.uleb128 0xb
 4833 0025 03       		.uleb128 0x3
 4834 0026 08       		.uleb128 0x8
 4835 0027 00       		.byte	0
 4836 0028 00       		.byte	0
 4837 0029 04       		.uleb128 0x4
 4838 002a 16       		.uleb128 0x16
 4839 002b 00       		.byte	0
 4840 002c 03       		.uleb128 0x3
 4841 002d 0E       		.uleb128 0xe
 4842 002e 3A       		.uleb128 0x3a
 4843 002f 0B       		.uleb128 0xb
 4844 0030 3B       		.uleb128 0x3b
 4845 0031 05       		.uleb128 0x5
 4846 0032 49       		.uleb128 0x49
 4847 0033 13       		.uleb128 0x13
 4848 0034 00       		.byte	0
 4849 0035 00       		.byte	0
 4850 0036 05       		.uleb128 0x5
 4851 0037 35       		.uleb128 0x35
 4852 0038 00       		.byte	0
 4853 0039 49       		.uleb128 0x49
 4854 003a 13       		.uleb128 0x13
 4855 003b 00       		.byte	0
 4856 003c 00       		.byte	0
 4857 003d 06       		.uleb128 0x6
 4858 003e 0F       		.uleb128 0xf
 4859 003f 00       		.byte	0
 4860 0040 0B       		.uleb128 0xb
 4861 0041 0B       		.uleb128 0xb
 4862 0042 00       		.byte	0
 4863 0043 00       		.byte	0
 4864 0044 07       		.uleb128 0x7
 4865 0045 0F       		.uleb128 0xf
 4866 0046 00       		.byte	0
 4867 0047 0B       		.uleb128 0xb
ARM GAS  C:\Users\alexport\AppData\Local\Temp\ccr3ZDs0.s 			page 103


 4868 0048 0B       		.uleb128 0xb
 4869 0049 49       		.uleb128 0x49
 4870 004a 13       		.uleb128 0x13
 4871 004b 00       		.byte	0
 4872 004c 00       		.byte	0
 4873 004d 08       		.uleb128 0x8
 4874 004e 04       		.uleb128 0x4
 4875 004f 01       		.byte	0x1
 4876 0050 0B       		.uleb128 0xb
 4877 0051 0B       		.uleb128 0xb
 4878 0052 49       		.uleb128 0x49
 4879 0053 13       		.uleb128 0x13
 4880 0054 3A       		.uleb128 0x3a
 4881 0055 0B       		.uleb128 0xb
 4882 0056 3B       		.uleb128 0x3b
 4883 0057 05       		.uleb128 0x5
 4884 0058 01       		.uleb128 0x1
 4885 0059 13       		.uleb128 0x13
 4886 005a 00       		.byte	0
 4887 005b 00       		.byte	0
 4888 005c 09       		.uleb128 0x9
 4889 005d 28       		.uleb128 0x28
 4890 005e 00       		.byte	0
 4891 005f 03       		.uleb128 0x3
 4892 0060 0E       		.uleb128 0xe
 4893 0061 1C       		.uleb128 0x1c
 4894 0062 0B       		.uleb128 0xb
 4895 0063 00       		.byte	0
 4896 0064 00       		.byte	0
 4897 0065 0A       		.uleb128 0xa
 4898 0066 01       		.uleb128 0x1
 4899 0067 01       		.byte	0x1
 4900 0068 49       		.uleb128 0x49
 4901 0069 13       		.uleb128 0x13
 4902 006a 01       		.uleb128 0x1
 4903 006b 13       		.uleb128 0x13
 4904 006c 00       		.byte	0
 4905 006d 00       		.byte	0
 4906 006e 0B       		.uleb128 0xb
 4907 006f 21       		.uleb128 0x21
 4908 0070 00       		.byte	0
 4909 0071 49       		.uleb128 0x49
 4910 0072 13       		.uleb128 0x13
 4911 0073 2F       		.uleb128 0x2f
 4912 0074 0B       		.uleb128 0xb
 4913 0075 00       		.byte	0
 4914 0076 00       		.byte	0
 4915 0077 0C       		.uleb128 0xc
 4916 0078 04       		.uleb128 0x4
 4917 0079 01       		.byte	0x1
 4918 007a 0B       		.uleb128 0xb
 4919 007b 0B       		.uleb128 0xb
 4920 007c 49       		.uleb128 0x49
 4921 007d 13       		.uleb128 0x13
 4922 007e 3A       		.uleb128 0x3a
 4923 007f 0B       		.uleb128 0xb
 4924 0080 3B       		.uleb128 0x3b
ARM GAS  C:\Users\alexport\AppData\Local\Temp\ccr3ZDs0.s 			page 104


 4925 0081 0B       		.uleb128 0xb
 4926 0082 01       		.uleb128 0x1
 4927 0083 13       		.uleb128 0x13
 4928 0084 00       		.byte	0
 4929 0085 00       		.byte	0
 4930 0086 0D       		.uleb128 0xd
 4931 0087 13       		.uleb128 0x13
 4932 0088 01       		.byte	0x1
 4933 0089 0B       		.uleb128 0xb
 4934 008a 0B       		.uleb128 0xb
 4935 008b 3A       		.uleb128 0x3a
 4936 008c 0B       		.uleb128 0xb
 4937 008d 3B       		.uleb128 0x3b
 4938 008e 05       		.uleb128 0x5
 4939 008f 01       		.uleb128 0x1
 4940 0090 13       		.uleb128 0x13
 4941 0091 00       		.byte	0
 4942 0092 00       		.byte	0
 4943 0093 0E       		.uleb128 0xe
 4944 0094 0D       		.uleb128 0xd
 4945 0095 00       		.byte	0
 4946 0096 03       		.uleb128 0x3
 4947 0097 0E       		.uleb128 0xe
 4948 0098 3A       		.uleb128 0x3a
 4949 0099 0B       		.uleb128 0xb
 4950 009a 3B       		.uleb128 0x3b
 4951 009b 05       		.uleb128 0x5
 4952 009c 49       		.uleb128 0x49
 4953 009d 13       		.uleb128 0x13
 4954 009e 38       		.uleb128 0x38
 4955 009f 0B       		.uleb128 0xb
 4956 00a0 00       		.byte	0
 4957 00a1 00       		.byte	0
 4958 00a2 0F       		.uleb128 0xf
 4959 00a3 0D       		.uleb128 0xd
 4960 00a4 00       		.byte	0
 4961 00a5 03       		.uleb128 0x3
 4962 00a6 08       		.uleb128 0x8
 4963 00a7 3A       		.uleb128 0x3a
 4964 00a8 0B       		.uleb128 0xb
 4965 00a9 3B       		.uleb128 0x3b
 4966 00aa 05       		.uleb128 0x5
 4967 00ab 49       		.uleb128 0x49
 4968 00ac 13       		.uleb128 0x13
 4969 00ad 38       		.uleb128 0x38
 4970 00ae 0B       		.uleb128 0xb
 4971 00af 00       		.byte	0
 4972 00b0 00       		.byte	0
 4973 00b1 10       		.uleb128 0x10
 4974 00b2 16       		.uleb128 0x16
 4975 00b3 00       		.byte	0
 4976 00b4 03       		.uleb128 0x3
 4977 00b5 0E       		.uleb128 0xe
 4978 00b6 3A       		.uleb128 0x3a
 4979 00b7 0B       		.uleb128 0xb
 4980 00b8 3B       		.uleb128 0x3b
 4981 00b9 0B       		.uleb128 0xb
ARM GAS  C:\Users\alexport\AppData\Local\Temp\ccr3ZDs0.s 			page 105


 4982 00ba 49       		.uleb128 0x49
 4983 00bb 13       		.uleb128 0x13
 4984 00bc 00       		.byte	0
 4985 00bd 00       		.byte	0
 4986 00be 11       		.uleb128 0x11
 4987 00bf 13       		.uleb128 0x13
 4988 00c0 01       		.byte	0x1
 4989 00c1 0B       		.uleb128 0xb
 4990 00c2 0B       		.uleb128 0xb
 4991 00c3 3A       		.uleb128 0x3a
 4992 00c4 0B       		.uleb128 0xb
 4993 00c5 3B       		.uleb128 0x3b
 4994 00c6 0B       		.uleb128 0xb
 4995 00c7 01       		.uleb128 0x1
 4996 00c8 13       		.uleb128 0x13
 4997 00c9 00       		.byte	0
 4998 00ca 00       		.byte	0
 4999 00cb 12       		.uleb128 0x12
 5000 00cc 0D       		.uleb128 0xd
 5001 00cd 00       		.byte	0
 5002 00ce 03       		.uleb128 0x3
 5003 00cf 0E       		.uleb128 0xe
 5004 00d0 3A       		.uleb128 0x3a
 5005 00d1 0B       		.uleb128 0xb
 5006 00d2 3B       		.uleb128 0x3b
 5007 00d3 0B       		.uleb128 0xb
 5008 00d4 49       		.uleb128 0x49
 5009 00d5 13       		.uleb128 0x13
 5010 00d6 38       		.uleb128 0x38
 5011 00d7 0B       		.uleb128 0xb
 5012 00d8 00       		.byte	0
 5013 00d9 00       		.byte	0
 5014 00da 13       		.uleb128 0x13
 5015 00db 13       		.uleb128 0x13
 5016 00dc 01       		.byte	0x1
 5017 00dd 0B       		.uleb128 0xb
 5018 00de 05       		.uleb128 0x5
 5019 00df 3A       		.uleb128 0x3a
 5020 00e0 0B       		.uleb128 0xb
 5021 00e1 3B       		.uleb128 0x3b
 5022 00e2 0B       		.uleb128 0xb
 5023 00e3 01       		.uleb128 0x1
 5024 00e4 13       		.uleb128 0x13
 5025 00e5 00       		.byte	0
 5026 00e6 00       		.byte	0
 5027 00e7 14       		.uleb128 0x14
 5028 00e8 0D       		.uleb128 0xd
 5029 00e9 00       		.byte	0
 5030 00ea 03       		.uleb128 0x3
 5031 00eb 08       		.uleb128 0x8
 5032 00ec 3A       		.uleb128 0x3a
 5033 00ed 0B       		.uleb128 0xb
 5034 00ee 3B       		.uleb128 0x3b
 5035 00ef 0B       		.uleb128 0xb
 5036 00f0 49       		.uleb128 0x49
 5037 00f1 13       		.uleb128 0x13
 5038 00f2 38       		.uleb128 0x38
ARM GAS  C:\Users\alexport\AppData\Local\Temp\ccr3ZDs0.s 			page 106


 5039 00f3 0B       		.uleb128 0xb
 5040 00f4 00       		.byte	0
 5041 00f5 00       		.byte	0
 5042 00f6 15       		.uleb128 0x15
 5043 00f7 0D       		.uleb128 0xd
 5044 00f8 00       		.byte	0
 5045 00f9 03       		.uleb128 0x3
 5046 00fa 0E       		.uleb128 0xe
 5047 00fb 3A       		.uleb128 0x3a
 5048 00fc 0B       		.uleb128 0xb
 5049 00fd 3B       		.uleb128 0x3b
 5050 00fe 0B       		.uleb128 0xb
 5051 00ff 49       		.uleb128 0x49
 5052 0100 13       		.uleb128 0x13
 5053 0101 38       		.uleb128 0x38
 5054 0102 05       		.uleb128 0x5
 5055 0103 00       		.byte	0
 5056 0104 00       		.byte	0
 5057 0105 16       		.uleb128 0x16
 5058 0106 2E       		.uleb128 0x2e
 5059 0107 01       		.byte	0x1
 5060 0108 3F       		.uleb128 0x3f
 5061 0109 19       		.uleb128 0x19
 5062 010a 03       		.uleb128 0x3
 5063 010b 0E       		.uleb128 0xe
 5064 010c 3A       		.uleb128 0x3a
 5065 010d 0B       		.uleb128 0xb
 5066 010e 3B       		.uleb128 0x3b
 5067 010f 0B       		.uleb128 0xb
 5068 0110 11       		.uleb128 0x11
 5069 0111 01       		.uleb128 0x1
 5070 0112 12       		.uleb128 0x12
 5071 0113 06       		.uleb128 0x6
 5072 0114 40       		.uleb128 0x40
 5073 0115 18       		.uleb128 0x18
 5074 0116 9642     		.uleb128 0x2116
 5075 0118 19       		.uleb128 0x19
 5076 0119 01       		.uleb128 0x1
 5077 011a 13       		.uleb128 0x13
 5078 011b 00       		.byte	0
 5079 011c 00       		.byte	0
 5080 011d 17       		.uleb128 0x17
 5081 011e 34       		.uleb128 0x34
 5082 011f 00       		.byte	0
 5083 0120 03       		.uleb128 0x3
 5084 0121 0E       		.uleb128 0xe
 5085 0122 3A       		.uleb128 0x3a
 5086 0123 0B       		.uleb128 0xb
 5087 0124 3B       		.uleb128 0x3b
 5088 0125 0B       		.uleb128 0xb
 5089 0126 49       		.uleb128 0x49
 5090 0127 13       		.uleb128 0x13
 5091 0128 02       		.uleb128 0x2
 5092 0129 18       		.uleb128 0x18
 5093 012a 00       		.byte	0
 5094 012b 00       		.byte	0
 5095 012c 18       		.uleb128 0x18
ARM GAS  C:\Users\alexport\AppData\Local\Temp\ccr3ZDs0.s 			page 107


 5096 012d 2E       		.uleb128 0x2e
 5097 012e 01       		.byte	0x1
 5098 012f 3F       		.uleb128 0x3f
 5099 0130 19       		.uleb128 0x19
 5100 0131 03       		.uleb128 0x3
 5101 0132 0E       		.uleb128 0xe
 5102 0133 3A       		.uleb128 0x3a
 5103 0134 0B       		.uleb128 0xb
 5104 0135 3B       		.uleb128 0x3b
 5105 0136 05       		.uleb128 0x5
 5106 0137 27       		.uleb128 0x27
 5107 0138 19       		.uleb128 0x19
 5108 0139 11       		.uleb128 0x11
 5109 013a 01       		.uleb128 0x1
 5110 013b 12       		.uleb128 0x12
 5111 013c 06       		.uleb128 0x6
 5112 013d 40       		.uleb128 0x40
 5113 013e 18       		.uleb128 0x18
 5114 013f 9642     		.uleb128 0x2116
 5115 0141 19       		.uleb128 0x19
 5116 0142 01       		.uleb128 0x1
 5117 0143 13       		.uleb128 0x13
 5118 0144 00       		.byte	0
 5119 0145 00       		.byte	0
 5120 0146 19       		.uleb128 0x19
 5121 0147 05       		.uleb128 0x5
 5122 0148 00       		.byte	0
 5123 0149 03       		.uleb128 0x3
 5124 014a 0E       		.uleb128 0xe
 5125 014b 3A       		.uleb128 0x3a
 5126 014c 0B       		.uleb128 0xb
 5127 014d 3B       		.uleb128 0x3b
 5128 014e 05       		.uleb128 0x5
 5129 014f 49       		.uleb128 0x49
 5130 0150 13       		.uleb128 0x13
 5131 0151 02       		.uleb128 0x2
 5132 0152 18       		.uleb128 0x18
 5133 0153 00       		.byte	0
 5134 0154 00       		.byte	0
 5135 0155 1A       		.uleb128 0x1a
 5136 0156 34       		.uleb128 0x34
 5137 0157 00       		.byte	0
 5138 0158 03       		.uleb128 0x3
 5139 0159 0E       		.uleb128 0xe
 5140 015a 3A       		.uleb128 0x3a
 5141 015b 0B       		.uleb128 0xb
 5142 015c 3B       		.uleb128 0x3b
 5143 015d 05       		.uleb128 0x5
 5144 015e 49       		.uleb128 0x49
 5145 015f 13       		.uleb128 0x13
 5146 0160 02       		.uleb128 0x2
 5147 0161 18       		.uleb128 0x18
 5148 0162 00       		.byte	0
 5149 0163 00       		.byte	0
 5150 0164 1B       		.uleb128 0x1b
 5151 0165 0B       		.uleb128 0xb
 5152 0166 01       		.byte	0x1
ARM GAS  C:\Users\alexport\AppData\Local\Temp\ccr3ZDs0.s 			page 108


 5153 0167 11       		.uleb128 0x11
 5154 0168 01       		.uleb128 0x1
 5155 0169 12       		.uleb128 0x12
 5156 016a 06       		.uleb128 0x6
 5157 016b 01       		.uleb128 0x1
 5158 016c 13       		.uleb128 0x13
 5159 016d 00       		.byte	0
 5160 016e 00       		.byte	0
 5161 016f 1C       		.uleb128 0x1c
 5162 0170 34       		.uleb128 0x34
 5163 0171 00       		.byte	0
 5164 0172 03       		.uleb128 0x3
 5165 0173 08       		.uleb128 0x8
 5166 0174 3A       		.uleb128 0x3a
 5167 0175 0B       		.uleb128 0xb
 5168 0176 3B       		.uleb128 0x3b
 5169 0177 05       		.uleb128 0x5
 5170 0178 49       		.uleb128 0x49
 5171 0179 13       		.uleb128 0x13
 5172 017a 02       		.uleb128 0x2
 5173 017b 18       		.uleb128 0x18
 5174 017c 00       		.byte	0
 5175 017d 00       		.byte	0
 5176 017e 1D       		.uleb128 0x1d
 5177 017f 0B       		.uleb128 0xb
 5178 0180 01       		.byte	0x1
 5179 0181 11       		.uleb128 0x11
 5180 0182 01       		.uleb128 0x1
 5181 0183 12       		.uleb128 0x12
 5182 0184 06       		.uleb128 0x6
 5183 0185 00       		.byte	0
 5184 0186 00       		.byte	0
 5185 0187 1E       		.uleb128 0x1e
 5186 0188 34       		.uleb128 0x34
 5187 0189 00       		.byte	0
 5188 018a 03       		.uleb128 0x3
 5189 018b 0E       		.uleb128 0xe
 5190 018c 3A       		.uleb128 0x3a
 5191 018d 0B       		.uleb128 0xb
 5192 018e 3B       		.uleb128 0x3b
 5193 018f 05       		.uleb128 0x5
 5194 0190 49       		.uleb128 0x49
 5195 0191 13       		.uleb128 0x13
 5196 0192 3F       		.uleb128 0x3f
 5197 0193 19       		.uleb128 0x19
 5198 0194 3C       		.uleb128 0x3c
 5199 0195 19       		.uleb128 0x19
 5200 0196 00       		.byte	0
 5201 0197 00       		.byte	0
 5202 0198 1F       		.uleb128 0x1f
 5203 0199 34       		.uleb128 0x34
 5204 019a 00       		.byte	0
 5205 019b 03       		.uleb128 0x3
 5206 019c 0E       		.uleb128 0xe
 5207 019d 3A       		.uleb128 0x3a
 5208 019e 0B       		.uleb128 0xb
 5209 019f 3B       		.uleb128 0x3b
ARM GAS  C:\Users\alexport\AppData\Local\Temp\ccr3ZDs0.s 			page 109


 5210 01a0 0B       		.uleb128 0xb
 5211 01a1 49       		.uleb128 0x49
 5212 01a2 13       		.uleb128 0x13
 5213 01a3 3F       		.uleb128 0x3f
 5214 01a4 19       		.uleb128 0x19
 5215 01a5 02       		.uleb128 0x2
 5216 01a6 18       		.uleb128 0x18
 5217 01a7 00       		.byte	0
 5218 01a8 00       		.byte	0
 5219 01a9 00       		.byte	0
 5220              		.section	.debug_aranges,"",%progbits
 5221 0000 24000000 		.4byte	0x24
 5222 0004 0200     		.2byte	0x2
 5223 0006 00000000 		.4byte	.Ldebug_info0
 5224 000a 04       		.byte	0x4
 5225 000b 00       		.byte	0
 5226 000c 0000     		.2byte	0
 5227 000e 0000     		.2byte	0
 5228 0010 00000000 		.4byte	.LFB35
 5229 0014 F0080000 		.4byte	.LFE35-.LFB35
 5230 0018 00000000 		.4byte	.LFB36
 5231 001c 240A0000 		.4byte	.LFE36-.LFB36
 5232 0020 00000000 		.4byte	0
 5233 0024 00000000 		.4byte	0
 5234              		.section	.debug_ranges,"",%progbits
 5235              	.Ldebug_ranges0:
 5236 0000 00000000 		.4byte	.LFB35
 5237 0004 F0080000 		.4byte	.LFE35
 5238 0008 00000000 		.4byte	.LFB36
 5239 000c 240A0000 		.4byte	.LFE36
 5240 0010 00000000 		.4byte	0
 5241 0014 00000000 		.4byte	0
 5242              		.section	.debug_line,"",%progbits
 5243              	.Ldebug_line0:
 5244 0000 FC030000 		.section	.debug_str,"MS",%progbits,1
 5244      02008A01 
 5244      00000201 
 5244      FB0E0D00 
 5244      01010101 
 5245              	.LASF185:
 5246 0000 4761696E 		.ascii	"Gain\000"
 5246      00
 5247              	.LASF100:
 5248 0005 4359424C 		.ascii	"CYBLE_GATT_ERR_INVALID_OFFSET\000"
 5248      455F4741 
 5248      54545F45 
 5248      52525F49 
 5248      4E56414C 
 5249              	.LASF154:
 5250 0023 4359424C 		.ascii	"CYBLE_DIS_CHAR_COUNT\000"
 5250      455F4449 
 5250      535F4348 
 5250      41525F43 
 5250      4F554E54 
 5251              	.LASF288:
 5252 0038 5379734D 		.ascii	"SysMaOverRange\000"
 5252      614F7665 
ARM GAS  C:\Users\alexport\AppData\Local\Temp\ccr3ZDs0.s 			page 110


 5252      7252616E 
 5252      676500
 5253              	.LASF170:
 5254 0047 52656164 		.ascii	"ReadingScaled\000"
 5254      696E6753 
 5254      63616C65 
 5254      6400
 5255              	.LASF74:
 5256 0055 4359424C 		.ascii	"CYBLE_EVT_GATTC_STOP_CMD_COMPLETE\000"
 5256      455F4556 
 5256      545F4741 
 5256      5454435F 
 5256      53544F50 
 5257              	.LASF70:
 5258 0077 4359424C 		.ascii	"CYBLE_EVT_GATTC_HANDLE_VALUE_NTF\000"
 5258      455F4556 
 5258      545F4741 
 5258      5454435F 
 5258      48414E44 
 5259              	.LASF241:
 5260 0098 4175746F 		.ascii	"AutoZeroDisable\000"
 5260      5A65726F 
 5260      44697361 
 5260      626C6500 
 5261              	.LASF260:
 5262 00a8 426C654E 		.ascii	"BleNotifyCalLevel\000"
 5262      6F746966 
 5262      7943616C 
 5262      4C657665 
 5262      6C00
 5263              	.LASF328:
 5264 00ba 53656E73 		.ascii	"Sensor\000"
 5264      6F7200
 5265              	.LASF259:
 5266 00c1 426C654E 		.ascii	"BleNotifyLife\000"
 5266      6F746966 
 5266      794C6966 
 5266      6500
 5267              	.LASF210:
 5268 00cf 5A74635F 		.ascii	"Ztc_p35\000"
 5268      70333500 
 5269              	.LASF280:
 5270 00d7 53797353 		.ascii	"SysSerialNumberString\000"
 5270      65726961 
 5270      6C4E756D 
 5270      62657253 
 5270      7472696E 
 5271              	.LASF141:
 5272 00ed 4359424C 		.ascii	"CYBLE_GATTS_HANDLE_VALUE_NTF_T\000"
 5272      455F4741 
 5272      5454535F 
 5272      48414E44 
 5272      4C455F56 
 5273              	.LASF316:
 5274 010c 4F706572 		.ascii	"OperationState\000"
 5274      6174696F 
 5274      6E537461 
ARM GAS  C:\Users\alexport\AppData\Local\Temp\ccr3ZDs0.s 			page 111


 5274      746500
 5275              	.LASF177:
 5276 011b 54656D70 		.ascii	"TemperatureAtSpan\000"
 5276      65726174 
 5276      75726541 
 5276      74537061 
 5276      6E00
 5277              	.LASF29:
 5278 012d 4359424C 		.ascii	"CYBLE_EVT_GAP_AUTH_REQ\000"
 5278      455F4556 
 5278      545F4741 
 5278      505F4155 
 5278      54485F52 
 5279              	.LASF311:
 5280 0144 43616C53 		.ascii	"CalSpanError\000"
 5280      70616E45 
 5280      72726F72 
 5280      00
 5281              	.LASF264:
 5282 0151 426C654E 		.ascii	"BleNotifyCalStep\000"
 5282      6F746966 
 5282      7943616C 
 5282      53746570 
 5282      00
 5283              	.LASF290:
 5284 0162 43616E4E 		.ascii	"CanNodeId\000"
 5284      6F646549 
 5284      6400
 5285              	.LASF345:
 5286 016c 2E2E5C2E 		.ascii	"..\\..\\..\\..\\..\\WORK\\1N4 Transmitter\\SA-100_2"
 5286      2E5C2E2E 
 5286      5C2E2E5C 
 5286      2E2E5C57 
 5286      4F524B5C 
 5287 0198 3333395F 		.ascii	"339_05_1N4.cydsn\\sgable.c\000"
 5287      30355F31 
 5287      4E342E63 
 5287      7964736E 
 5287      5C736761 
 5288              	.LASF273:
 5289 01b2 41646343 		.ascii	"AdcCountsPrevious\000"
 5289      6F756E74 
 5289      73507265 
 5289      76696F75 
 5289      7300
 5290              	.LASF98:
 5291 01c4 4359424C 		.ascii	"CYBLE_GATT_ERR_INSUFFICIENT_AUTHENTICATION\000"
 5291      455F4741 
 5291      54545F45 
 5291      52525F49 
 5291      4E535546 
 5292              	.LASF54:
 5293 01ef 4359424C 		.ascii	"CYBLE_EVT_GATT_DISCONNECT_IND\000"
 5293      455F4556 
 5293      545F4741 
 5293      54545F44 
 5293      4953434F 
ARM GAS  C:\Users\alexport\AppData\Local\Temp\ccr3ZDs0.s 			page 112


 5294              	.LASF186:
 5295 020d 43616C52 		.ascii	"CalResult\000"
 5295      6573756C 
 5295      7400
 5296              	.LASF49:
 5297 0217 4359424C 		.ascii	"CYBLE_EVT_GAP_SCAN_REQ_RECVD\000"
 5297      455F4556 
 5297      545F4741 
 5297      505F5343 
 5297      414E5F52 
 5298              	.LASF113:
 5299 0234 4359424C 		.ascii	"CYBLE_GATT_ERR_USER_DATA_ACCESS_NOT_PERMITTED\000"
 5299      455F4741 
 5299      54545F45 
 5299      52525F55 
 5299      5345525F 
 5300              	.LASF95:
 5301 0262 4359424C 		.ascii	"CYBLE_GATT_ERR_READ_NOT_PERMITTED\000"
 5301      455F4741 
 5301      54545F45 
 5301      52525F52 
 5301      4541445F 
 5302              	.LASF324:
 5303 0284 61743234 		.ascii	"at24cs01SnUpper\000"
 5303      63733031 
 5303      536E5570 
 5303      70657200 
 5304              	.LASF55:
 5305 0294 4359424C 		.ascii	"CYBLE_EVT_GATTS_XCNHG_MTU_REQ\000"
 5305      455F4556 
 5305      545F4741 
 5305      5454535F 
 5305      58434E48 
 5306              	.LASF196:
 5307 02b2 5370616E 		.ascii	"SpanCalStableThreshold\000"
 5307      43616C53 
 5307      7461626C 
 5307      65546872 
 5307      6573686F 
 5308              	.LASF73:
 5309 02c9 4359424C 		.ascii	"CYBLE_EVT_GATTS_DATA_SIGNED_CMD_REQ\000"
 5309      455F4556 
 5309      545F4741 
 5309      5454535F 
 5309      44415441 
 5310              	.LASF249:
 5311 02ed 53637261 		.ascii	"ScratchPad\000"
 5311      74636850 
 5311      616400
 5312              	.LASF24:
 5313 02f8 4359424C 		.ascii	"CYBLE_EVT_HARDWARE_ERROR\000"
 5313      455F4556 
 5313      545F4841 
 5313      52445741 
 5313      52455F45 
 5314              	.LASF213:
 5315 0311 5374635F 		.ascii	"Stc_p35\000"
ARM GAS  C:\Users\alexport\AppData\Local\Temp\ccr3ZDs0.s 			page 113


 5315      70333500 
 5316              	.LASF8:
 5317 0319 756E7369 		.ascii	"unsigned int\000"
 5317      676E6564 
 5317      20696E74 
 5317      00
 5318              	.LASF339:
 5319 0326 6D62496E 		.ascii	"mbInt16Value\000"
 5319      74313656 
 5319      616C7565 
 5319      00
 5320              	.LASF193:
 5321 0333 5370616E 		.ascii	"SpanCalApplyThreshold\000"
 5321      43616C41 
 5321      70706C79 
 5321      54687265 
 5321      73686F6C 
 5322              	.LASF274:
 5323 0349 53746174 		.ascii	"Status\000"
 5323      757300
 5324              	.LASF89:
 5325 0350 4359424C 		.ascii	"CYBLE_EVT_LE_PING_AUTH_TIMEOUT\000"
 5325      455F4556 
 5325      545F4C45 
 5325      5F50494E 
 5325      475F4155 
 5326              	.LASF297:
 5327 036f 43616C41 		.ascii	"CalAdjusted\000"
 5327      646A7573 
 5327      74656400 
 5328              	.LASF228:
 5329 037b 446E5365 		.ascii	"DnSerialNumberH\000"
 5329      7269616C 
 5329      4E756D62 
 5329      65724800 
 5330              	.LASF86:
 5331 038b 4359424C 		.ascii	"CYBLE_EVT_L2CAP_CBFC_TX_CREDIT_IND\000"
 5331      455F4556 
 5331      545F4C32 
 5331      4341505F 
 5331      43424643 
 5332              	.LASF248:
 5333 03ae 51756172 		.ascii	"QuarterSeconds\000"
 5333      74657253 
 5333      65636F6E 
 5333      647300
 5334              	.LASF163:
 5335 03bd 50696442 		.ascii	"PidBuffer\000"
 5335      75666665 
 5335      7200
 5336              	.LASF209:
 5337 03c7 5A74635F 		.ascii	"Ztc_n10\000"
 5337      6E313000 
 5338              	.LASF194:
 5339 03cf 5370616E 		.ascii	"SpanCalLeveloffTime\000"
 5339      43616C4C 
 5339      6576656C 
ARM GAS  C:\Users\alexport\AppData\Local\Temp\ccr3ZDs0.s 			page 114


 5339      6F666654 
 5339      696D6500 
 5340              	.LASF13:
 5341 03e3 696E7431 		.ascii	"int16\000"
 5341      3600
 5342              	.LASF208:
 5343 03e9 4C696E65 		.ascii	"Linear3Value\000"
 5343      61723356 
 5343      616C7565 
 5343      00
 5344              	.LASF289:
 5345 03f6 5379734D 		.ascii	"SysMaPerPctFullScale\000"
 5345      61506572 
 5345      50637446 
 5345      756C6C53 
 5345      63616C65 
 5346              	.LASF344:
 5347 040b 474E5520 		.ascii	"GNU C11 5.4.1 20160609 (release) [ARM/embedded-5-br"
 5347      43313120 
 5347      352E342E 
 5347      31203230 
 5347      31363036 
 5348 043e 616E6368 		.ascii	"anch revision 237715] -mcpu=cortex-m0 -mthumb -g -O"
 5348      20726576 
 5348      6973696F 
 5348      6E203233 
 5348      37373135 
 5349 0471 30202D66 		.ascii	"0 -ffunction-sections -ffat-lto-objects\000"
 5349      66756E63 
 5349      74696F6E 
 5349      2D736563 
 5349      74696F6E 
 5350              	.LASF267:
 5351 0499 426C654E 		.ascii	"BleNotifyCalSpanError\000"
 5351      6F746966 
 5351      7943616C 
 5351      5370616E 
 5351      4572726F 
 5352              	.LASF301:
 5353 04af 43616C5A 		.ascii	"CalZCounts\000"
 5353      436F756E 
 5353      747300
 5354              	.LASF217:
 5355 04ba 5A74635F 		.ascii	"Ztc_curve_3\000"
 5355      63757276 
 5355      655F3300 
 5356              	.LASF205:
 5357 04c6 4C696E65 		.ascii	"Linear2Level\000"
 5357      6172324C 
 5357      6576656C 
 5357      00
 5358              	.LASF16:
 5359 04d3 75696E74 		.ascii	"uint64\000"
 5359      363400
 5360              	.LASF30:
 5361 04da 4359424C 		.ascii	"CYBLE_EVT_GAP_PASSKEY_ENTRY_REQUEST\000"
 5361      455F4556 
ARM GAS  C:\Users\alexport\AppData\Local\Temp\ccr3ZDs0.s 			page 115


 5361      545F4741 
 5361      505F5041 
 5361      53534B45 
 5362              	.LASF115:
 5363 04fe 4359424C 		.ascii	"CYBLE_GATT_ERR_HTS_OUT_OF_RANGE\000"
 5363      455F4741 
 5363      54545F45 
 5363      52525F48 
 5363      54535F4F 
 5364              	.LASF85:
 5365 051e 4359424C 		.ascii	"CYBLE_EVT_L2CAP_CBFC_RX_CREDIT_IND\000"
 5365      455F4556 
 5365      545F4C32 
 5365      4341505F 
 5365      43424643 
 5366              	.LASF171:
 5367 0541 52656164 		.ascii	"ReadingScaledPrevious\000"
 5367      696E6753 
 5367      63616C65 
 5367      64507265 
 5367      76696F75 
 5368              	.LASF271:
 5369 0557 426C6549 		.ascii	"BleInAuxCalState\000"
 5369      6E417578 
 5369      43616C53 
 5369      74617465 
 5369      00
 5370              	.LASF130:
 5371 0568 4359424C 		.ascii	"CYBLE_GATT_ERR_PROCEDURE_ALREADY_IN_PROGRESS\000"
 5371      455F4741 
 5371      54545F45 
 5371      52525F50 
 5371      524F4345 
 5372              	.LASF212:
 5373 0595 5374635F 		.ascii	"Stc_n10\000"
 5373      6E313000 
 5374              	.LASF211:
 5375 059d 5A74635F 		.ascii	"Ztc_p50\000"
 5375      70353000 
 5376              	.LASF224:
 5377 05a5 5374635F 		.ascii	"Stc_apply\000"
 5377      6170706C 
 5377      7900
 5378              	.LASF72:
 5379 05af 4359424C 		.ascii	"CYBLE_EVT_GATTS_HANDLE_VALUE_CNF\000"
 5379      455F4556 
 5379      545F4741 
 5379      5454535F 
 5379      48414E44 
 5380              	.LASF223:
 5381 05d0 5A74635F 		.ascii	"Ztc_apply\000"
 5381      6170706C 
 5381      7900
 5382              	.LASF174:
 5383 05da 54656D70 		.ascii	"Temperature\000"
 5383      65726174 
 5383      75726500 
ARM GAS  C:\Users\alexport\AppData\Local\Temp\ccr3ZDs0.s 			page 116


 5384              	.LASF258:
 5385 05e6 426C654E 		.ascii	"BleNotifyTemperature\000"
 5385      6F746966 
 5385      7954656D 
 5385      70657261 
 5385      74757265 
 5386              	.LASF181:
 5387 05fb 436F756E 		.ascii	"CountsHalfScale\000"
 5387      74734861 
 5387      6C665363 
 5387      616C6500 
 5388              	.LASF265:
 5389 060b 426C654E 		.ascii	"BleNotifyCalSpeed\000"
 5389      6F746966 
 5389      7943616C 
 5389      53706565 
 5389      6400
 5390              	.LASF314:
 5391 061d 54657374 		.ascii	"TestStatus\000"
 5391      53746174 
 5391      757300
 5392              	.LASF132:
 5393 0628 4359424C 		.ascii	"CYBLE_GATT_DB_ATTR_HANDLE_T\000"
 5393      455F4741 
 5393      54545F44 
 5393      425F4154 
 5393      54525F48 
 5394              	.LASF286:
 5395 0644 5379734D 		.ascii	"SysMa20\000"
 5395      61323000 
 5396              	.LASF165:
 5397 064c 52656164 		.ascii	"Reading\000"
 5397      696E6700 
 5398              	.LASF199:
 5399 0654 416C6572 		.ascii	"Alert1\000"
 5399      743100
 5400              	.LASF277:
 5401 065b 416C6572 		.ascii	"AlertBits\000"
 5401      74426974 
 5401      7300
 5402              	.LASF93:
 5403 0665 4359424C 		.ascii	"CYBLE_GATT_ERR_NONE\000"
 5403      455F4741 
 5403      54545F45 
 5403      52525F4E 
 5403      4F4E4500 
 5404              	.LASF214:
 5405 0679 5374635F 		.ascii	"Stc_p50\000"
 5405      70353000 
 5406              	.LASF122:
 5407 0681 4359424C 		.ascii	"CYBLE_GATTS_ERR_HPS_INVALID_REQUEST\000"
 5407      455F4741 
 5407      5454535F 
 5407      4552525F 
 5407      4850535F 
 5408              	.LASF117:
 5409 06a5 4359424C 		.ascii	"CYBLE_GATT_ERR_OP_CODE_NOT_SUPPORTED\000"
ARM GAS  C:\Users\alexport\AppData\Local\Temp\ccr3ZDs0.s 			page 117


 5409      455F4741 
 5409      54545F45 
 5409      52525F4F 
 5409      505F434F 
 5410              	.LASF296:
 5411 06ca 43616C41 		.ascii	"CalAsFoundPrevious\000"
 5411      73466F75 
 5411      6E645072 
 5411      6576696F 
 5411      757300
 5412              	.LASF346:
 5413 06dd 433A5C55 		.ascii	"C:\\Users\\alexport\\OneDrive - Safeguard Analytics"
 5413      73657273 
 5413      5C616C65 
 5413      78706F72 
 5413      745C4F6E 
 5414 070d 5C53412D 		.ascii	"\\SA-1AQ\\SA-1AQ.cydsn\000"
 5414      3141515C 
 5414      53412D31 
 5414      41512E63 
 5414      7964736E 
 5415              	.LASF203:
 5416 0722 4C696E65 		.ascii	"Linear1Level\000"
 5416      6172314C 
 5416      6576656C 
 5416      00
 5417              	.LASF65:
 5418 072f 4359424C 		.ascii	"CYBLE_EVT_GATTC_WRITE_RSP\000"
 5418      455F4556 
 5418      545F4741 
 5418      5454435F 
 5418      57524954 
 5419              	.LASF119:
 5420 0749 4359424C 		.ascii	"CYBLE_GATTS_ERR_CCCD_IMPROPERLY_CONFIGURED\000"
 5420      455F4741 
 5420      5454535F 
 5420      4552525F 
 5420      43434344 
 5421              	.LASF14:
 5422 0774 666C6F61 		.ascii	"float\000"
 5422      7400
 5423              	.LASF176:
 5424 077a 54656D70 		.ascii	"TemperatureAtZero\000"
 5424      65726174 
 5424      75726541 
 5424      745A6572 
 5424      6F00
 5425              	.LASF303:
 5426 078c 43616C5A 		.ascii	"CalZeroErrorPrevious\000"
 5426      65726F45 
 5426      72726F72 
 5426      50726576 
 5426      696F7573 
 5427              	.LASF330:
 5428 07a1 63656350 		.ascii	"cecPacket\000"
 5428      61636B65 
 5428      7400
ARM GAS  C:\Users\alexport\AppData\Local\Temp\ccr3ZDs0.s 			page 118


 5429              	.LASF263:
 5430 07ab 426C654E 		.ascii	"BleNotifyCalZeroError\000"
 5430      6F746966 
 5430      7943616C 
 5430      5A65726F 
 5430      4572726F 
 5431              	.LASF79:
 5432 07c1 4359424C 		.ascii	"CYBLE_EVT_L2CAP_COMMAND_REJ\000"
 5432      455F4556 
 5432      545F4C32 
 5432      4341505F 
 5432      434F4D4D 
 5433              	.LASF28:
 5434 07dd 4359424C 		.ascii	"CYBLE_EVT_GAPC_SCAN_PROGRESS_RESULT\000"
 5434      455F4556 
 5434      545F4741 
 5434      50435F53 
 5434      43414E5F 
 5435              	.LASF237:
 5436 0801 45635469 		.ascii	"EcTiaReg\000"
 5436      61526567 
 5436      00
 5437              	.LASF238:
 5438 080a 45635265 		.ascii	"EcRefReg\000"
 5438      66526567 
 5438      00
 5439              	.LASF7:
 5440 0813 6C6F6E67 		.ascii	"long long unsigned int\000"
 5440      206C6F6E 
 5440      6720756E 
 5440      7369676E 
 5440      65642069 
 5441              	.LASF233:
 5442 082a 43624272 		.ascii	"CbBridgeVolts\000"
 5442      69646765 
 5442      566F6C74 
 5442      7300
 5443              	.LASF26:
 5444 0838 4359424C 		.ascii	"CYBLE_EVT_STACK_BUSY_STATUS\000"
 5444      455F4556 
 5444      545F5354 
 5444      41434B5F 
 5444      42555359 
 5445              	.LASF64:
 5446 0854 4359424C 		.ascii	"CYBLE_EVT_GATTS_WRITE_REQ\000"
 5446      455F4556 
 5446      545F4741 
 5446      5454535F 
 5446      57524954 
 5447              	.LASF114:
 5448 086e 4359424C 		.ascii	"CYBLE_GATT_ERR_CPS_INAPPROPRIATE_CONNECTION_PARAMET"
 5448      455F4741 
 5448      54545F45 
 5448      52525F43 
 5448      50535F49 
 5449 08a1 45525300 		.ascii	"ERS\000"
 5450              	.LASF257:
ARM GAS  C:\Users\alexport\AppData\Local\Temp\ccr3ZDs0.s 			page 119


 5451 08a5 426C654E 		.ascii	"BleNotifyControl\000"
 5451      6F746966 
 5451      79436F6E 
 5451      74726F6C 
 5451      00
 5452              	.LASF155:
 5453 08b6 4359424C 		.ascii	"CYBLE_STATE_STOPPED\000"
 5453      455F5354 
 5453      4154455F 
 5453      53544F50 
 5453      50454400 
 5454              	.LASF77:
 5455 08ca 4359424C 		.ascii	"CYBLE_EVT_L2CAP_CONN_PARAM_UPDATE_REQ\000"
 5455      455F4556 
 5455      545F4C32 
 5455      4341505F 
 5455      434F4E4E 
 5456              	.LASF162:
 5457 08f0 50696455 		.ascii	"PidUnderCurrent\000"
 5457      6E646572 
 5457      43757272 
 5457      656E7400 
 5458              	.LASF106:
 5459 0900 4359424C 		.ascii	"CYBLE_GATT_ERR_INVALID_ATTRIBUTE_LEN\000"
 5459      455F4741 
 5459      54545F45 
 5459      52525F49 
 5459      4E56414C 
 5460              	.LASF221:
 5461 0925 5A65726F 		.ascii	"Zero_adjust\000"
 5461      5F61646A 
 5461      75737400 
 5462              	.LASF323:
 5463 0931 6379426C 		.ascii	"cyBle_connHandle\000"
 5463      655F636F 
 5463      6E6E4861 
 5463      6E646C65 
 5463      00
 5464              	.LASF107:
 5465 0942 4359424C 		.ascii	"CYBLE_GATT_ERR_UNLIKELY_ERROR\000"
 5465      455F4741 
 5465      54545F45 
 5465      52525F55 
 5465      4E4C494B 
 5466              	.LASF59:
 5467 0960 4359424C 		.ascii	"CYBLE_EVT_GATTC_FIND_INFO_RSP\000"
 5467      455F4556 
 5467      545F4741 
 5467      5454435F 
 5467      46494E44 
 5468              	.LASF157:
 5469 097e 4359424C 		.ascii	"CYBLE_STATE_CONNECTED\000"
 5469      455F5354 
 5469      4154455F 
 5469      434F4E4E 
 5469      45435445 
 5470              	.LASF227:
ARM GAS  C:\Users\alexport\AppData\Local\Temp\ccr3ZDs0.s 			page 120


 5471 0994 55705365 		.ascii	"UpSerialNumber\000"
 5471      7269616C 
 5471      4E756D62 
 5471      657200
 5472              	.LASF182:
 5473 09a3 5A65726F 		.ascii	"ZeroBlock\000"
 5473      426C6F63 
 5473      6B00
 5474              	.LASF338:
 5475 09ad 6D62466C 		.ascii	"mbFloatValue\000"
 5475      6F617456 
 5475      616C7565 
 5475      00
 5476              	.LASF294:
 5477 09ba 53656E73 		.ascii	"SensorTag\000"
 5477      6F725461 
 5477      6700
 5478              	.LASF327:
 5479 09c4 61643132 		.ascii	"ad12ResultBuff\000"
 5479      52657375 
 5479      6C744275 
 5479      666600
 5480              	.LASF60:
 5481 09d3 4359424C 		.ascii	"CYBLE_EVT_GATTC_FIND_BY_TYPE_VALUE_RSP\000"
 5481      455F4556 
 5481      545F4741 
 5481      5454435F 
 5481      46494E44 
 5482              	.LASF138:
 5483 09fa 76616C75 		.ascii	"value\000"
 5483      6500
 5484              	.LASF252:
 5485 0a00 426C6543 		.ascii	"BleControl\000"
 5485      6F6E7472 
 5485      6F6C00
 5486              	.LASF68:
 5487 0a0b 4359424C 		.ascii	"CYBLE_EVT_GATTS_EXEC_WRITE_REQ\000"
 5487      455F4556 
 5487      545F4741 
 5487      5454535F 
 5487      45584543 
 5488              	.LASF230:
 5489 0a2a 53657269 		.ascii	"SerialNumber\000"
 5489      616C4E75 
 5489      6D626572 
 5489      00
 5490              	.LASF69:
 5491 0a37 4359424C 		.ascii	"CYBLE_EVT_GATTC_EXEC_WRITE_RSP\000"
 5491      455F4556 
 5491      545F4741 
 5491      5454435F 
 5491      45584543 
 5492              	.LASF322:
 5493 0a56 6379426C 		.ascii	"cyBle_state\000"
 5493      655F7374 
 5493      61746500 
 5494              	.LASF135:
ARM GAS  C:\Users\alexport\AppData\Local\Temp\ccr3ZDs0.s 			page 121


 5495 0a62 4359424C 		.ascii	"CYBLE_CONN_HANDLE_T\000"
 5495      455F434F 
 5495      4E4E5F48 
 5495      414E444C 
 5495      455F5400 
 5496              	.LASF148:
 5497 0a76 4359424C 		.ascii	"CYBLE_DIS_HARDWARE_REV\000"
 5497      455F4449 
 5497      535F4841 
 5497      52445741 
 5497      52455F52 
 5498              	.LASF161:
 5499 0a8d 50696443 		.ascii	"PidCurrent\000"
 5499      75727265 
 5499      6E7400
 5500              	.LASF291:
 5501 0a98 43616E43 		.ascii	"CanChannel\000"
 5501      68616E6E 
 5501      656C00
 5502              	.LASF75:
 5503 0aa3 4359424C 		.ascii	"CYBLE_EVT_GATTS_READ_CHAR_VAL_ACCESS_REQ\000"
 5503      455F4556 
 5503      545F4741 
 5503      5454535F 
 5503      52454144 
 5504              	.LASF167:
 5505 0acc 52656164 		.ascii	"ReadingRaw\000"
 5505      696E6752 
 5505      617700
 5506              	.LASF32:
 5507 0ad7 4359424C 		.ascii	"CYBLE_EVT_GAP_AUTH_COMPLETE\000"
 5507      455F4556 
 5507      545F4741 
 5507      505F4155 
 5507      54485F43 
 5508              	.LASF293:
 5509 0af3 426C6543 		.ascii	"BleCalLoop\000"
 5509      616C4C6F 
 5509      6F7000
 5510              	.LASF243:
 5511 0afe 44617973 		.ascii	"Days\000"
 5511      00
 5512              	.LASF83:
 5513 0b03 4359424C 		.ascii	"CYBLE_EVT_L2CAP_CBFC_DISCONN_CNF\000"
 5513      455F4556 
 5513      545F4C32 
 5513      4341505F 
 5513      43424643 
 5514              	.LASF247:
 5515 0b24 44656C61 		.ascii	"DelayQuarterSeconds\000"
 5515      79517561 
 5515      72746572 
 5515      5365636F 
 5515      6E647300 
 5516              	.LASF329:
 5517 0b38 6D794261 		.ascii	"myBatteryNotify\000"
 5517      74746572 
ARM GAS  C:\Users\alexport\AppData\Local\Temp\ccr3ZDs0.s 			page 122


 5517      794E6F74 
 5517      69667900 
 5518              	.LASF71:
 5519 0b48 4359424C 		.ascii	"CYBLE_EVT_GATTC_HANDLE_VALUE_IND\000"
 5519      455F4556 
 5519      545F4741 
 5519      5454435F 
 5519      48414E44 
 5520              	.LASF251:
 5521 0b69 4175746F 		.ascii	"AutoZeroQuarterSeconds\000"
 5521      5A65726F 
 5521      51756172 
 5521      74657253 
 5521      65636F6E 
 5522              	.LASF56:
 5523 0b80 4359424C 		.ascii	"CYBLE_EVT_GATTC_XCHNG_MTU_RSP\000"
 5523      455F4556 
 5523      545F4741 
 5523      5454435F 
 5523      5843484E 
 5524              	.LASF91:
 5525 0b9e 4359424C 		.ascii	"CYBLE_EVT_FLASH_CORRUPT\000"
 5525      455F4556 
 5525      545F464C 
 5525      4153485F 
 5525      434F5252 
 5526              	.LASF66:
 5527 0bb6 4359424C 		.ascii	"CYBLE_EVT_GATTS_WRITE_CMD_REQ\000"
 5527      455F4556 
 5527      545F4741 
 5527      5454535F 
 5527      57524954 
 5528              	.LASF192:
 5529 0bd4 5370616E 		.ascii	"SpanCalApplyTime\000"
 5529      43616C41 
 5529      70706C79 
 5529      54696D65 
 5529      00
 5530              	.LASF139:
 5531 0be5 61747472 		.ascii	"attrHandle\000"
 5531      48616E64 
 5531      6C6500
 5532              	.LASF62:
 5533 0bf0 4359424C 		.ascii	"CYBLE_EVT_GATTC_READ_BLOB_RSP\000"
 5533      455F4556 
 5533      545F4741 
 5533      5454435F 
 5533      52454144 
 5534              	.LASF256:
 5535 0c0e 426C654E 		.ascii	"BleNotifyAlertStatus\000"
 5535      6F746966 
 5535      79416C65 
 5535      72745374 
 5535      61747573 
 5536              	.LASF78:
 5537 0c23 4359424C 		.ascii	"CYBLE_EVT_L2CAP_CONN_PARAM_UPDATE_RSP\000"
 5537      455F4556 
ARM GAS  C:\Users\alexport\AppData\Local\Temp\ccr3ZDs0.s 			page 123


 5537      545F4C32 
 5537      4341505F 
 5537      434F4E4E 
 5538              	.LASF284:
 5539 0c49 5379734D 		.ascii	"SysMa2\000"
 5539      613200
 5540              	.LASF236:
 5541 0c50 43624272 		.ascii	"CbBridgeMampsToll\000"
 5541      69646765 
 5541      4D616D70 
 5541      73546F6C 
 5541      6C00
 5542              	.LASF81:
 5543 0c62 4359424C 		.ascii	"CYBLE_EVT_L2CAP_CBFC_CONN_CNF\000"
 5543      455F4556 
 5543      545F4C32 
 5543      4341505F 
 5543      43424643 
 5544              	.LASF160:
 5545 0c80 4359424C 		.ascii	"CYBLE_STATE_T\000"
 5545      455F5354 
 5545      4154455F 
 5545      5400
 5546              	.LASF151:
 5547 0c8e 4359424C 		.ascii	"CYBLE_DIS_SYSTEM_ID\000"
 5547      455F4449 
 5547      535F5359 
 5547      5354454D 
 5547      5F494400 
 5548              	.LASF102:
 5549 0ca2 4359424C 		.ascii	"CYBLE_GATT_ERR_PREPARE_WRITE_QUEUE_FULL\000"
 5549      455F4741 
 5549      54545F45 
 5549      52525F50 
 5549      52455041 
 5550              	.LASF200:
 5551 0cca 416C6572 		.ascii	"Alert2\000"
 5551      743200
 5552              	.LASF325:
 5553 0cd1 61743234 		.ascii	"at24cs01SnLower\000"
 5553      63733031 
 5553      536E4C6F 
 5553      77657200 
 5554              	.LASF313:
 5555 0ce1 44656D6F 		.ascii	"DemoState\000"
 5555      53746174 
 5555      6500
 5556              	.LASF112:
 5557 0ceb 4359424C 		.ascii	"CYBLE_GATT_ERR_HEART_RATE_CONTROL_POINT_NOT_SUPPORT"
 5557      455F4741 
 5557      54545F45 
 5557      52525F48 
 5557      45415254 
 5558 0d1e 454400   		.ascii	"ED\000"
 5559              	.LASF215:
 5560 0d21 5A74635F 		.ascii	"Ztc_curve_1\000"
 5560      63757276 
ARM GAS  C:\Users\alexport\AppData\Local\Temp\ccr3ZDs0.s 			page 124


 5560      655F3100 
 5561              	.LASF216:
 5562 0d2d 5A74635F 		.ascii	"Ztc_curve_2\000"
 5562      63757276 
 5562      655F3200 
 5563              	.LASF25:
 5564 0d39 4359424C 		.ascii	"CYBLE_EVT_HCI_STATUS\000"
 5564      455F4556 
 5564      545F4843 
 5564      495F5354 
 5564      41545553 
 5565              	.LASF342:
 5566 0d4e 54696D65 		.ascii	"Time\000"
 5566      00
 5567              	.LASF206:
 5568 0d53 4C696E65 		.ascii	"Linear2Value\000"
 5568      61723256 
 5568      616C7565 
 5568      00
 5569              	.LASF17:
 5570 0d60 63686172 		.ascii	"char\000"
 5570      00
 5571              	.LASF101:
 5572 0d65 4359424C 		.ascii	"CYBLE_GATT_ERR_INSUFFICIENT_AUTHORIZATION\000"
 5572      455F4741 
 5572      54545F45 
 5572      52525F49 
 5572      4E535546 
 5573              	.LASF308:
 5574 0d8f 43616C43 		.ascii	"CalCounts\000"
 5574      6F756E74 
 5574      7300
 5575              	.LASF336:
 5576 0d99 6D6F6462 		.ascii	"modbusPacketIndex\000"
 5576      75735061 
 5576      636B6574 
 5576      496E6465 
 5576      7800
 5577              	.LASF169:
 5578 0dab 52656164 		.ascii	"ReadingFloat\000"
 5578      696E6746 
 5578      6C6F6174 
 5578      00
 5579              	.LASF145:
 5580 0db8 4359424C 		.ascii	"CYBLE_DIS_MANUFACTURER_NAME\000"
 5580      455F4449 
 5580      535F4D41 
 5580      4E554641 
 5580      43545552 
 5581              	.LASF137:
 5582 0dd4 4359424C 		.ascii	"CYBLE_GATT_VALUE_T\000"
 5582      455F4741 
 5582      54545F56 
 5582      414C5545 
 5582      5F5400
 5583              	.LASF195:
 5584 0de7 5370616E 		.ascii	"SpanCalStableTime\000"
ARM GAS  C:\Users\alexport\AppData\Local\Temp\ccr3ZDs0.s 			page 125


 5584      43616C53 
 5584      7461626C 
 5584      6554696D 
 5584      6500
 5585              	.LASF232:
 5586 0df9 4761734E 		.ascii	"GasNote\000"
 5586      6F746500 
 5587              	.LASF22:
 5588 0e01 4359424C 		.ascii	"CYBLE_EVT_STACK_ON\000"
 5588      455F4556 
 5588      545F5354 
 5588      41434B5F 
 5588      4F4E00
 5589              	.LASF150:
 5590 0e14 4359424C 		.ascii	"CYBLE_DIS_SOFTWARE_REV\000"
 5590      455F4449 
 5590      535F534F 
 5590      46545741 
 5590      52455F52 
 5591              	.LASF283:
 5592 0e2b 53656E73 		.ascii	"SensorSnU64\000"
 5592      6F72536E 
 5592      55363400 
 5593              	.LASF235:
 5594 0e37 43624272 		.ascii	"CbBridgeMamps\000"
 5594      69646765 
 5594      4D616D70 
 5594      7300
 5595              	.LASF326:
 5596 0e45 61646665 		.ascii	"adfeSerialNumber\000"
 5596      53657269 
 5596      616C4E75 
 5596      6D626572 
 5596      00
 5597              	.LASF188:
 5598 0e56 54656D70 		.ascii	"TemperatureLowFault\000"
 5598      65726174 
 5598      7572654C 
 5598      6F774661 
 5598      756C7400 
 5599              	.LASF126:
 5600 0e6a 4359424C 		.ascii	"CYBLE_GATT_ERR_ANCS_INVALID_COMMAND\000"
 5600      455F4741 
 5600      54545F45 
 5600      52525F41 
 5600      4E43535F 
 5601              	.LASF268:
 5602 0e8e 426C654E 		.ascii	"BleNotifyReadingScaled\000"
 5602      6F746966 
 5602      79526561 
 5602      64696E67 
 5602      5363616C 
 5603              	.LASF152:
 5604 0ea5 4359424C 		.ascii	"CYBLE_DIS_REG_CERT_DATA\000"
 5604      455F4449 
 5604      535F5245 
 5604      475F4345 
ARM GAS  C:\Users\alexport\AppData\Local\Temp\ccr3ZDs0.s 			page 126


 5604      52545F44 
 5605              	.LASF164:
 5606 0ebd 54797065 		.ascii	"Type\000"
 5606      00
 5607              	.LASF270:
 5608 0ec2 426C654E 		.ascii	"BleNotifyAdcCounts\000"
 5608      6F746966 
 5608      79416463 
 5608      436F756E 
 5608      747300
 5609              	.LASF10:
 5610 0ed5 75696E74 		.ascii	"uint16\000"
 5610      313600
 5611              	.LASF147:
 5612 0edc 4359424C 		.ascii	"CYBLE_DIS_SERIAL_NUMBER\000"
 5612      455F4449 
 5612      535F5345 
 5612      5249414C 
 5612      5F4E554D 
 5613              	.LASF332:
 5614 0ef4 63656350 		.ascii	"cecPacketEnd\000"
 5614      61636B65 
 5614      74456E64 
 5614      00
 5615              	.LASF47:
 5616 0f01 4359424C 		.ascii	"CYBLE_EVT_GAP_SMP_NEGOTIATED_AUTH_INFO\000"
 5616      455F4556 
 5616      545F4741 
 5616      505F534D 
 5616      505F4E45 
 5617              	.LASF6:
 5618 0f28 6C6F6E67 		.ascii	"long long int\000"
 5618      206C6F6E 
 5618      6720696E 
 5618      7400
 5619              	.LASF295:
 5620 0f36 43616C41 		.ascii	"CalAsFound\000"
 5620      73466F75 
 5620      6E6400
 5621              	.LASF266:
 5622 0f41 426C654E 		.ascii	"BleNotifyCalClearing\000"
 5622      6F746966 
 5622      7943616C 
 5622      436C6561 
 5622      72696E67 
 5623              	.LASF198:
 5624 0f56 5370616E 		.ascii	"SpanCalRemoveThreshold\000"
 5624      43616C52 
 5624      656D6F76 
 5624      65546872 
 5624      6573686F 
 5625              	.LASF52:
 5626 0f6d 4359424C 		.ascii	"CYBLE_EVT_GATTC_ERROR_RSP\000"
 5626      455F4556 
 5626      545F4741 
 5626      5454435F 
 5626      4552524F 
ARM GAS  C:\Users\alexport\AppData\Local\Temp\ccr3ZDs0.s 			page 127


 5627              	.LASF321:
 5628 0f87 77725265 		.ascii	"wrReqParam\000"
 5628      71506172 
 5628      616D00
 5629              	.LASF179:
 5630 0f92 48775374 		.ascii	"HwStatus\000"
 5630      61747573 
 5630      00
 5631              	.LASF41:
 5632 0f9b 4359424C 		.ascii	"CYBLE_EVT_GAP_NUMERIC_COMPARISON_REQUEST\000"
 5632      455F4556 
 5632      545F4741 
 5632      505F4E55 
 5632      4D455249 
 5633              	.LASF250:
 5634 0fc4 53637261 		.ascii	"ScratchQuarterSeconds\000"
 5634      74636851 
 5634      75617274 
 5634      65725365 
 5634      636F6E64 
 5635              	.LASF304:
 5636 0fda 43616C53 		.ascii	"CalStep\000"
 5636      74657000 
 5637              	.LASF156:
 5638 0fe2 4359424C 		.ascii	"CYBLE_STATE_INITIALIZING\000"
 5638      455F5354 
 5638      4154455F 
 5638      494E4954 
 5638      49414C49 
 5639              	.LASF146:
 5640 0ffb 4359424C 		.ascii	"CYBLE_DIS_MODEL_NUMBER\000"
 5640      455F4449 
 5640      535F4D4F 
 5640      44454C5F 
 5640      4E554D42 
 5641              	.LASF302:
 5642 1012 43616C5A 		.ascii	"CalZeroError\000"
 5642      65726F45 
 5642      72726F72 
 5642      00
 5643              	.LASF240:
 5644 101f 4175746F 		.ascii	"AutoZeroMax\000"
 5644      5A65726F 
 5644      4D617800 
 5645              	.LASF189:
 5646 102b 54656D70 		.ascii	"TemperatureHighFault\000"
 5646      65726174 
 5646      75726548 
 5646      69676846 
 5646      61756C74 
 5647              	.LASF108:
 5648 1040 4359424C 		.ascii	"CYBLE_GATT_ERR_INSUFFICIENT_ENCRYPTION\000"
 5648      455F4741 
 5648      54545F45 
 5648      52525F49 
 5648      4E535546 
 5649              	.LASF110:
ARM GAS  C:\Users\alexport\AppData\Local\Temp\ccr3ZDs0.s 			page 128


 5650 1067 4359424C 		.ascii	"CYBLE_GATT_ERR_INSUFFICIENT_RESOURCE\000"
 5650      455F4741 
 5650      54545F45 
 5650      52525F49 
 5650      4E535546 
 5651              	.LASF335:
 5652 108c 6D6F6462 		.ascii	"modbusPacket\000"
 5652      75735061 
 5652      636B6574 
 5652      00
 5653              	.LASF19:
 5654 1099 6C6F6E67 		.ascii	"long double\000"
 5654      20646F75 
 5654      626C6500 
 5655              	.LASF34:
 5656 10a5 4359424C 		.ascii	"CYBLE_EVT_GAPP_ADVERTISEMENT_START_STOP\000"
 5656      455F4556 
 5656      545F4741 
 5656      50505F41 
 5656      44564552 
 5657              	.LASF144:
 5658 10cd 4359424C 		.ascii	"CYBLE_GATTS_WRITE_REQ_PARAM_T\000"
 5658      455F4741 
 5658      5454535F 
 5658      57524954 
 5658      455F5245 
 5659              	.LASF11:
 5660 10eb 75696E74 		.ascii	"uint32\000"
 5660      333200
 5661              	.LASF121:
 5662 10f2 4359424C 		.ascii	"CYBLE_GATT_ERR_INVALID_CRC\000"
 5662      455F4741 
 5662      54545F45 
 5662      52525F49 
 5662      4E56414C 
 5663              	.LASF84:
 5664 110d 4359424C 		.ascii	"CYBLE_EVT_L2CAP_CBFC_DATA_READ\000"
 5664      455F4556 
 5664      545F4C32 
 5664      4341505F 
 5664      43424643 
 5665              	.LASF127:
 5666 112c 4359424C 		.ascii	"CYBLE_GATT_ERR_ANCS_INVALID_PARAMETER\000"
 5666      455F4741 
 5666      54545F45 
 5666      52525F41 
 5666      4E43535F 
 5667              	.LASF239:
 5668 1152 45634D6F 		.ascii	"EcModeReg\000"
 5668      64655265 
 5668      6700
 5669              	.LASF159:
 5670 115c 4359424C 		.ascii	"CYBLE_STATE_DISCONNECTED\000"
 5670      455F5354 
 5670      4154455F 
 5670      44495343 
 5670      4F4E4E45 
ARM GAS  C:\Users\alexport\AppData\Local\Temp\ccr3ZDs0.s 			page 129


 5671              	.LASF43:
 5672 1175 4359424C 		.ascii	"CYBLE_EVT_GAP_OOB_GENERATED_NOTIFICATION\000"
 5672      455F4556 
 5672      545F4741 
 5672      505F4F4F 
 5672      425F4745 
 5673              	.LASF109:
 5674 119e 4359424C 		.ascii	"CYBLE_GATT_ERR_UNSUPPORTED_GROUP_TYPE\000"
 5674      455F4741 
 5674      54545F45 
 5674      52525F55 
 5674      4E535550 
 5675              	.LASF90:
 5676 11c4 4359424C 		.ascii	"CYBLE_EVT_HCI_PKT\000"
 5676      455F4556 
 5676      545F4843 
 5676      495F504B 
 5676      5400
 5677              	.LASF134:
 5678 11d6 61747449 		.ascii	"attId\000"
 5678      6400
 5679              	.LASF340:
 5680 11dc 73797354 		.ascii	"sysTopSwitch\000"
 5680      6F705377 
 5680      69746368 
 5680      00
 5681              	.LASF125:
 5682 11e9 4359424C 		.ascii	"CYBLE_GATT_ERR_ANCS_UNKNOWN_COMMAND\000"
 5682      455F4741 
 5682      54545F45 
 5682      52525F41 
 5682      4E43535F 
 5683              	.LASF334:
 5684 120d 63656343 		.ascii	"cecCrcLow\000"
 5684      72634C6F 
 5684      7700
 5685              	.LASF197:
 5686 1217 5370616E 		.ascii	"SpanCalRemoveTime\000"
 5686      43616C52 
 5686      656D6F76 
 5686      6554696D 
 5686      6500
 5687              	.LASF94:
 5688 1229 4359424C 		.ascii	"CYBLE_GATT_ERR_INVALID_HANDLE\000"
 5688      455F4741 
 5688      54545F45 
 5688      52525F49 
 5688      4E56414C 
 5689              	.LASF76:
 5690 1247 4359424C 		.ascii	"CYBLE_EVT_GATTC_LONG_PROCEDURE_END\000"
 5690      455F4556 
 5690      545F4741 
 5690      5454435F 
 5690      4C4F4E47 
 5691              	.LASF218:
 5692 126a 5374635F 		.ascii	"Stc_curve_1\000"
 5692      63757276 
ARM GAS  C:\Users\alexport\AppData\Local\Temp\ccr3ZDs0.s 			page 130


 5692      655F3100 
 5693              	.LASF219:
 5694 1276 5374635F 		.ascii	"Stc_curve_2\000"
 5694      63757276 
 5694      655F3200 
 5695              	.LASF220:
 5696 1282 5374635F 		.ascii	"Stc_curve_3\000"
 5696      63757276 
 5696      655F3300 
 5697              	.LASF96:
 5698 128e 4359424C 		.ascii	"CYBLE_GATT_ERR_WRITE_NOT_PERMITTED\000"
 5698      455F4741 
 5698      54545F45 
 5698      52525F57 
 5698      52495445 
 5699              	.LASF180:
 5700 12b1 436F756E 		.ascii	"CountsZeroScale\000"
 5700      74735A65 
 5700      726F5363 
 5700      616C6500 
 5701              	.LASF261:
 5702 12c1 426C654E 		.ascii	"BleNotifyCalAsFound\000"
 5702      6F746966 
 5702      7943616C 
 5702      4173466F 
 5702      756E6400 
 5703              	.LASF12:
 5704 12d5 696E7438 		.ascii	"int8\000"
 5704      00
 5705              	.LASF333:
 5706 12da 63656343 		.ascii	"cecCrcHigh\000"
 5706      72634869 
 5706      676800
 5707              	.LASF50:
 5708 12e5 4359424C 		.ascii	"CYBLE_EVT_GAP_AUTH_REQ_REPLY_ERR\000"
 5708      455F4556 
 5708      545F4741 
 5708      505F4155 
 5708      54485F52 
 5709              	.LASF18:
 5710 1306 72656733 		.ascii	"reg32\000"
 5710      3200
 5711              	.LASF262:
 5712 130c 426C654E 		.ascii	"BleNotifyCalAdjusted\000"
 5712      6F746966 
 5712      7943616C 
 5712      41646A75 
 5712      73746564 
 5713              	.LASF292:
 5714 1321 43616E43 		.ascii	"CanControl\000"
 5714      6F6E7472 
 5714      6F6C00
 5715              	.LASF183:
 5716 132c 43616C4C 		.ascii	"CalLevel\000"
 5716      6576656C 
 5716      00
 5717              	.LASF23:
ARM GAS  C:\Users\alexport\AppData\Local\Temp\ccr3ZDs0.s 			page 131


 5718 1335 4359424C 		.ascii	"CYBLE_EVT_TIMEOUT\000"
 5718      455F4556 
 5718      545F5449 
 5718      4D454F55 
 5718      5400
 5719              	.LASF305:
 5720 1347 43616C53 		.ascii	"CalStepPrevious\000"
 5720      74657050 
 5720      72657669 
 5720      6F757300 
 5721              	.LASF37:
 5722 1357 4359424C 		.ascii	"CYBLE_EVT_GAP_ENCRYPT_CHANGE\000"
 5722      455F4556 
 5722      545F4741 
 5722      505F454E 
 5722      43525950 
 5723              	.LASF57:
 5724 1374 4359424C 		.ascii	"CYBLE_EVT_GATTC_READ_BY_GROUP_TYPE_RSP\000"
 5724      455F4556 
 5724      545F4741 
 5724      5454435F 
 5724      52454144 
 5725              	.LASF175:
 5726 139b 54656D70 		.ascii	"TemperaturePrevious\000"
 5726      65726174 
 5726      75726550 
 5726      72657669 
 5726      6F757300 
 5727              	.LASF226:
 5728 13af 5761726D 		.ascii	"WarmupTime\000"
 5728      75705469 
 5728      6D6500
 5729              	.LASF58:
 5730 13ba 4359424C 		.ascii	"CYBLE_EVT_GATTC_READ_BY_TYPE_RSP\000"
 5730      455F4556 
 5730      545F4741 
 5730      5454435F 
 5730      52454144 
 5731              	.LASF131:
 5732 13db 4359424C 		.ascii	"CYBLE_GATT_ERR_OUT_OF_RANGE\000"
 5732      455F4741 
 5732      54545F45 
 5732      52525F4F 
 5732      55545F4F 
 5733              	.LASF2:
 5734 13f7 73686F72 		.ascii	"short int\000"
 5734      7420696E 
 5734      7400
 5735              	.LASF120:
 5736 1401 4359424C 		.ascii	"CYBLE_GATTS_ERR_OPERATION_FAILED\000"
 5736      455F4741 
 5736      5454535F 
 5736      4552525F 
 5736      4F504552 
 5737              	.LASF124:
 5738 1422 4359424C 		.ascii	"CYBLE_GATT_ERR_ANS_COMMAND_NOT_SUPPORTED\000"
 5738      455F4741 
ARM GAS  C:\Users\alexport\AppData\Local\Temp\ccr3ZDs0.s 			page 132


 5738      54545F45 
 5738      52525F41 
 5738      4E535F43 
 5739              	.LASF116:
 5740 144b 4359424C 		.ascii	"CYBLE_GATTS_ERR_PROCEDURE_ALREADY_IN_PROGRESS\000"
 5740      455F4741 
 5740      5454535F 
 5740      4552525F 
 5740      50524F43 
 5741              	.LASF4:
 5742 1479 6C6F6E67 		.ascii	"long int\000"
 5742      20696E74 
 5742      00
 5743              	.LASF44:
 5744 1482 4359424C 		.ascii	"CYBLE_EVT_GAP_DATA_LENGTH_CHANGE\000"
 5744      455F4556 
 5744      545F4741 
 5744      505F4441 
 5744      54415F4C 
 5745              	.LASF242:
 5746 14a3 46726163 		.ascii	"Fractional\000"
 5746      74696F6E 
 5746      616C00
 5747              	.LASF53:
 5748 14ae 4359424C 		.ascii	"CYBLE_EVT_GATT_CONNECT_IND\000"
 5748      455F4556 
 5748      545F4741 
 5748      54545F43 
 5748      4F4E4E45 
 5749              	.LASF92:
 5750 14c9 4359424C 		.ascii	"CYBLE_EVT_MAX\000"
 5750      455F4556 
 5750      545F4D41 
 5750      5800
 5751              	.LASF105:
 5752 14d7 4359424C 		.ascii	"CYBLE_GATT_ERR_INSUFFICIENT_ENC_KEY_SIZE\000"
 5752      455F4741 
 5752      54545F45 
 5752      52525F49 
 5752      4E535546 
 5753              	.LASF45:
 5754 1500 4359424C 		.ascii	"CYBLE_EVT_GAP_ENHANCE_CONN_COMPLETE\000"
 5754      455F4556 
 5754      545F4741 
 5754      505F454E 
 5754      48414E43 
 5755              	.LASF63:
 5756 1524 4359424C 		.ascii	"CYBLE_EVT_GATTC_READ_MULTI_RSP\000"
 5756      455F4556 
 5756      545F4741 
 5756      5454435F 
 5756      52454144 
 5757              	.LASF341:
 5758 1543 73797342 		.ascii	"sysBottomSwitch\000"
 5758      6F74746F 
 5758      6D537769 
 5758      74636800 
ARM GAS  C:\Users\alexport\AppData\Local\Temp\ccr3ZDs0.s 			page 133


 5759              	.LASF254:
 5760 1553 426C654E 		.ascii	"BleNotifyReading\000"
 5760      6F746966 
 5760      79526561 
 5760      64696E67 
 5760      00
 5761              	.LASF331:
 5762 1564 63656350 		.ascii	"cecPacketIndex\000"
 5762      61636B65 
 5762      74496E64 
 5762      657800
 5763              	.LASF307:
 5764 1573 43616C53 		.ascii	"CalSpeedPrevious\000"
 5764      70656564 
 5764      50726576 
 5764      696F7573 
 5764      00
 5765              	.LASF225:
 5766 1584 56726566 		.ascii	"VrefTollerance\000"
 5766      546F6C6C 
 5766      6572616E 
 5766      636500
 5767              	.LASF118:
 5768 1593 4359424C 		.ascii	"CYBLE_GATT_ERR_MISSING_CRC\000"
 5768      455F4741 
 5768      54545F45 
 5768      52525F4D 
 5768      49535349 
 5769              	.LASF82:
 5770 15ae 4359424C 		.ascii	"CYBLE_EVT_L2CAP_CBFC_DISCONN_IND\000"
 5770      455F4556 
 5770      545F4C32 
 5770      4341505F 
 5770      43424643 
 5771              	.LASF129:
 5772 15cf 4359424C 		.ascii	"CYBLE_GATT_ERR_CCCD_IMPROPERLY_CONFIGURED\000"
 5772      455F4741 
 5772      54545F45 
 5772      52525F43 
 5772      4343445F 
 5773              	.LASF201:
 5774 15f9 416C6572 		.ascii	"Alert1Ascending\000"
 5774      74314173 
 5774      63656E64 
 5774      696E6700 
 5775              	.LASF21:
 5776 1609 4359424C 		.ascii	"CYBLE_EVT_HOST_INVALID\000"
 5776      455F4556 
 5776      545F484F 
 5776      53545F49 
 5776      4E56414C 
 5777              	.LASF319:
 5778 1620 6576656E 		.ascii	"eventCode\000"
 5778      74436F64 
 5778      6500
 5779              	.LASF46:
 5780 162a 4359424C 		.ascii	"CYBLE_EVT_GAPC_DIRECT_ADV_REPORT\000"
ARM GAS  C:\Users\alexport\AppData\Local\Temp\ccr3ZDs0.s 			page 134


 5780      455F4556 
 5780      545F4741 
 5780      50435F44 
 5780      49524543 
 5781              	.LASF149:
 5782 164b 4359424C 		.ascii	"CYBLE_DIS_FIRMWARE_REV\000"
 5782      455F4449 
 5782      535F4649 
 5782      524D5741 
 5782      52455F52 
 5783              	.LASF143:
 5784 1662 68616E64 		.ascii	"handleValPair\000"
 5784      6C655661 
 5784      6C506169 
 5784      7200
 5785              	.LASF40:
 5786 1670 4359424C 		.ascii	"CYBLE_EVT_GAP_KEYINFO_EXCHNGE_CMPLT\000"
 5786      455F4556 
 5786      545F4741 
 5786      505F4B45 
 5786      59494E46 
 5787              	.LASF246:
 5788 1694 5365636F 		.ascii	"Seconds\000"
 5788      6E647300 
 5789              	.LASF136:
 5790 169c 61637475 		.ascii	"actualLen\000"
 5790      616C4C65 
 5790      6E00
 5791              	.LASF187:
 5792 16a6 54656D70 		.ascii	"TemperatureOffset\000"
 5792      65726174 
 5792      7572654F 
 5792      66667365 
 5792      7400
 5793              	.LASF281:
 5794 16b8 41444645 		.ascii	"ADFESerialNumberString\000"
 5794      53657269 
 5794      616C4E75 
 5794      6D626572 
 5794      53747269 
 5795              	.LASF36:
 5796 16cf 4359424C 		.ascii	"CYBLE_EVT_GAP_DEVICE_DISCONNECTED\000"
 5796      455F4556 
 5796      545F4741 
 5796      505F4445 
 5796      56494345 
 5797              	.LASF318:
 5798 16f1 52656164 		.ascii	"ReadingCast\000"
 5798      696E6743 
 5798      61737400 
 5799              	.LASF128:
 5800 16fd 4359424C 		.ascii	"CYBLE_GATT_ERR_ANCS_ACTION_FAILED\000"
 5800      455F4741 
 5800      54545F45 
 5800      52525F41 
 5800      4E43535F 
 5801              	.LASF253:
ARM GAS  C:\Users\alexport\AppData\Local\Temp\ccr3ZDs0.s 			page 135


 5802 171f 426C6543 		.ascii	"BleControlPrevious\000"
 5802      6F6E7472 
 5802      6F6C5072 
 5802      6576696F 
 5802      757300
 5803              	.LASF80:
 5804 1732 4359424C 		.ascii	"CYBLE_EVT_L2CAP_CBFC_CONN_IND\000"
 5804      455F4556 
 5804      545F4C32 
 5804      4341505F 
 5804      43424643 
 5805              	.LASF207:
 5806 1750 4C696E65 		.ascii	"Linear3Level\000"
 5806      6172334C 
 5806      6576656C 
 5806      00
 5807              	.LASF348:
 5808 175d 53746163 		.ascii	"Stack_Handler\000"
 5808      6B5F4861 
 5808      6E646C65 
 5808      7200
 5809              	.LASF229:
 5810 176b 446E5365 		.ascii	"DnSerialNumberL\000"
 5810      7269616C 
 5810      4E756D62 
 5810      65724C00 
 5811              	.LASF204:
 5812 177b 4C696E65 		.ascii	"Linear1Value\000"
 5812      61723156 
 5812      616C7565 
 5812      00
 5813              	.LASF184:
 5814 1788 43616C4C 		.ascii	"CalLevelPrevious\000"
 5814      6576656C 
 5814      50726576 
 5814      696F7573 
 5814      00
 5815              	.LASF298:
 5816 1799 43616C41 		.ascii	"CalAdjustedPrevious\000"
 5816      646A7573 
 5816      74656450 
 5816      72657669 
 5816      6F757300 
 5817              	.LASF20:
 5818 17ad 73697A65 		.ascii	"sizetype\000"
 5818      74797065 
 5818      00
 5819              	.LASF299:
 5820 17b6 43616C69 		.ascii	"CalibrationStatus\000"
 5820      62726174 
 5820      696F6E53 
 5820      74617475 
 5820      7300
 5821              	.LASF5:
 5822 17c8 6C6F6E67 		.ascii	"long unsigned int\000"
 5822      20756E73 
 5822      69676E65 
ARM GAS  C:\Users\alexport\AppData\Local\Temp\ccr3ZDs0.s 			page 136


 5822      6420696E 
 5822      7400
 5823              	.LASF168:
 5824 17da 52656164 		.ascii	"ReadingLinear\000"
 5824      696E674C 
 5824      696E6561 
 5824      7200
 5825              	.LASF278:
 5826 17e8 416C6572 		.ascii	"AlertStatusPrevious\000"
 5826      74537461 
 5826      74757350 
 5826      72657669 
 5826      6F757300 
 5827              	.LASF31:
 5828 17fc 4359424C 		.ascii	"CYBLE_EVT_GAP_PASSKEY_DISPLAY_REQUEST\000"
 5828      455F4556 
 5828      545F4741 
 5828      505F5041 
 5828      53534B45 
 5829              	.LASF306:
 5830 1822 43616C53 		.ascii	"CalSpeed\000"
 5830      70656564 
 5830      00
 5831              	.LASF140:
 5832 182b 4359424C 		.ascii	"CYBLE_GATT_HANDLE_VALUE_PAIR_T\000"
 5832      455F4741 
 5832      54545F48 
 5832      414E444C 
 5832      455F5641 
 5833              	.LASF87:
 5834 184a 4359424C 		.ascii	"CYBLE_EVT_L2CAP_CBFC_DATA_WRITE_IND\000"
 5834      455F4556 
 5834      545F4C32 
 5834      4341505F 
 5834      43424643 
 5835              	.LASF276:
 5836 186e 416C6572 		.ascii	"AlertStatus\000"
 5836      74537461 
 5836      74757300 
 5837              	.LASF275:
 5838 187a 53746174 		.ascii	"StatusPrevious\000"
 5838      75735072 
 5838      6576696F 
 5838      757300
 5839              	.LASF269:
 5840 1889 426C654E 		.ascii	"BleNotifyCalibrationStatus\000"
 5840      6F746966 
 5840      7943616C 
 5840      69627261 
 5840      74696F6E 
 5841              	.LASF33:
 5842 18a4 4359424C 		.ascii	"CYBLE_EVT_GAP_AUTH_FAILED\000"
 5842      455F4556 
 5842      545F4741 
 5842      505F4155 
 5842      54485F46 
 5843              	.LASF27:
ARM GAS  C:\Users\alexport\AppData\Local\Temp\ccr3ZDs0.s 			page 137


 5844 18be 4359424C 		.ascii	"CYBLE_EVT_MEMORY_REQUEST\000"
 5844      455F4556 
 5844      545F4D45 
 5844      4D4F5259 
 5844      5F524551 
 5845              	.LASF222:
 5846 18d7 5370616E 		.ascii	"Span_adjust\000"
 5846      5F61646A 
 5846      75737400 
 5847              	.LASF317:
 5848 18e3 74656D70 		.ascii	"tempHandle\000"
 5848      48616E64 
 5848      6C6500
 5849              	.LASF231:
 5850 18ee 52616E67 		.ascii	"Range\000"
 5850      6500
 5851              	.LASF42:
 5852 18f4 4359424C 		.ascii	"CYBLE_EVT_GAP_KEYPRESS_NOTIFICATION\000"
 5852      455F4556 
 5852      545F4741 
 5852      505F4B45 
 5852      59505245 
 5853              	.LASF1:
 5854 1918 756E7369 		.ascii	"unsigned char\000"
 5854      676E6564 
 5854      20636861 
 5854      7200
 5855              	.LASF166:
 5856 1926 52656164 		.ascii	"ReadingPrevious\000"
 5856      696E6750 
 5856      72657669 
 5856      6F757300 
 5857              	.LASF255:
 5858 1936 426C654E 		.ascii	"BleNotifyStatus\000"
 5858      6F746966 
 5858      79537461 
 5858      74757300 
 5859              	.LASF61:
 5860 1946 4359424C 		.ascii	"CYBLE_EVT_GATTC_READ_RSP\000"
 5860      455F4556 
 5860      545F4741 
 5860      5454435F 
 5860      52454144 
 5861              	.LASF97:
 5862 195f 4359424C 		.ascii	"CYBLE_GATT_ERR_INVALID_PDU\000"
 5862      455F4741 
 5862      54545F45 
 5862      52525F49 
 5862      4E56414C 
 5863              	.LASF104:
 5864 197a 4359424C 		.ascii	"CYBLE_GATT_ERR_ATTRIBUTE_NOT_LONG\000"
 5864      455F4741 
 5864      54545F45 
 5864      52525F41 
 5864      54545249 
 5865              	.LASF153:
 5866 199c 4359424C 		.ascii	"CYBLE_DIS_PNP_ID\000"
ARM GAS  C:\Users\alexport\AppData\Local\Temp\ccr3ZDs0.s 			page 138


 5866      455F4449 
 5866      535F504E 
 5866      505F4944 
 5866      00
 5867              	.LASF172:
 5868 19ad 4C696665 		.ascii	"Life\000"
 5868      00
 5869              	.LASF173:
 5870 19b2 4C696665 		.ascii	"LifePrevious\000"
 5870      50726576 
 5870      696F7573 
 5870      00
 5871              	.LASF347:
 5872 19bf 75706461 		.ascii	"updateOurBleData\000"
 5872      74654F75 
 5872      72426C65 
 5872      44617461 
 5872      00
 5873              	.LASF287:
 5874 19d0 5379734D 		.ascii	"SysMaWarmup\000"
 5874      61576172 
 5874      6D757000 
 5875              	.LASF51:
 5876 19dc 4359424C 		.ascii	"CYBLE_EVT_GAP_SMP_LOC_P256_KEYS_GEN_AND_SET_COMPLET"
 5876      455F4556 
 5876      545F4741 
 5876      505F534D 
 5876      505F4C4F 
 5877 1a0f 4500     		.ascii	"E\000"
 5878              	.LASF245:
 5879 1a11 4D696E75 		.ascii	"Minutes\000"
 5879      74657300 
 5880              	.LASF35:
 5881 1a19 4359424C 		.ascii	"CYBLE_EVT_GAP_DEVICE_CONNECTED\000"
 5881      455F4556 
 5881      545F4741 
 5881      505F4445 
 5881      56494345 
 5882              	.LASF282:
 5883 1a38 53656E73 		.ascii	"SensorSnL64\000"
 5883      6F72536E 
 5883      4C363400 
 5884              	.LASF320:
 5885 1a44 6576656E 		.ascii	"eventParam\000"
 5885      74506172 
 5885      616D00
 5886              	.LASF285:
 5887 1a4f 5379734D 		.ascii	"SysMa4\000"
 5887      613400
 5888              	.LASF315:
 5889 1a56 54657374 		.ascii	"TestStatusPrevious\000"
 5889      53746174 
 5889      75735072 
 5889      6576696F 
 5889      757300
 5890              	.LASF111:
 5891 1a69 4359424C 		.ascii	"CYBLE_GATT_ERR_TRIGGER_CODITION_VALUE_NOT_SUPPORTED"
ARM GAS  C:\Users\alexport\AppData\Local\Temp\ccr3ZDs0.s 			page 139


 5891      455F4741 
 5891      54545F45 
 5891      52525F54 
 5891      52494747 
 5892 1a9c 00       		.ascii	"\000"
 5893              	.LASF67:
 5894 1a9d 4359424C 		.ascii	"CYBLE_EVT_GATTS_PREP_WRITE_REQ\000"
 5894      455F4556 
 5894      545F4741 
 5894      5454535F 
 5894      50524550 
 5895              	.LASF234:
 5896 1abc 43624272 		.ascii	"CbBridgeVoltsToll\000"
 5896      69646765 
 5896      566F6C74 
 5896      73546F6C 
 5896      6C00
 5897              	.LASF309:
 5898 1ace 43616C43 		.ascii	"CalClearing\000"
 5898      6C656172 
 5898      696E6700 
 5899              	.LASF272:
 5900 1ada 41646343 		.ascii	"AdcCounts\000"
 5900      6F756E74 
 5900      7300
 5901              	.LASF48:
 5902 1ae4 4359424C 		.ascii	"CYBLE_EVT_GAP_CONN_ESTB\000"
 5902      455F4556 
 5902      545F4741 
 5902      505F434F 
 5902      4E4E5F45 
 5903              	.LASF88:
 5904 1afc 4359424C 		.ascii	"CYBLE_EVT_PENDING_FLASH_WRITE\000"
 5904      455F4556 
 5904      545F5045 
 5904      4E44494E 
 5904      475F464C 
 5905              	.LASF103:
 5906 1b1a 4359424C 		.ascii	"CYBLE_GATT_ERR_ATTRIBUTE_NOT_FOUND\000"
 5906      455F4741 
 5906      54545F45 
 5906      52525F41 
 5906      54545249 
 5907              	.LASF133:
 5908 1b3d 62644861 		.ascii	"bdHandle\000"
 5908      6E646C65 
 5908      00
 5909              	.LASF244:
 5910 1b46 486F7572 		.ascii	"Hours\000"
 5910      7300
 5911              	.LASF310:
 5912 1b4c 43616C43 		.ascii	"CalClearingPrevious\000"
 5912      6C656172 
 5912      696E6750 
 5912      72657669 
 5912      6F757300 
 5913              	.LASF0:
ARM GAS  C:\Users\alexport\AppData\Local\Temp\ccr3ZDs0.s 			page 140


 5914 1b60 7369676E 		.ascii	"signed char\000"
 5914      65642063 
 5914      68617200 
 5915              	.LASF3:
 5916 1b6c 73686F72 		.ascii	"short unsigned int\000"
 5916      7420756E 
 5916      7369676E 
 5916      65642069 
 5916      6E7400
 5917              	.LASF343:
 5918 1b7f 53797374 		.ascii	"System\000"
 5918      656D00
 5919              	.LASF279:
 5920 1b86 53797353 		.ascii	"SysSerialNumber\000"
 5920      65726961 
 5920      6C4E756D 
 5920      62657200 
 5921              	.LASF300:
 5922 1b96 43616C69 		.ascii	"CalibrationStatusPrevious\000"
 5922      62726174 
 5922      696F6E53 
 5922      74617475 
 5922      73507265 
 5923              	.LASF202:
 5924 1bb0 416C6572 		.ascii	"Alert2Ascending\000"
 5924      74324173 
 5924      63656E64 
 5924      696E6700 
 5925              	.LASF9:
 5926 1bc0 75696E74 		.ascii	"uint8\000"
 5926      3800
 5927              	.LASF15:
 5928 1bc6 646F7562 		.ascii	"double\000"
 5928      6C6500
 5929              	.LASF312:
 5930 1bcd 43616C53 		.ascii	"CalSpanErrorPrevious\000"
 5930      70616E45 
 5930      72726F72 
 5930      50726576 
 5930      696F7573 
 5931              	.LASF191:
 5932 1be2 5A65726F 		.ascii	"ZeroCalTollerance\000"
 5932      43616C54 
 5932      6F6C6C65 
 5932      72616E63 
 5932      6500
 5933              	.LASF123:
 5934 1bf4 4359424C 		.ascii	"CYBLE_GATTS_ERR_NETWORK_NOT_AVAILABLE\000"
 5934      455F4741 
 5934      5454535F 
 5934      4552525F 
 5934      4E455457 
 5935              	.LASF38:
 5936 1c1a 4359424C 		.ascii	"CYBLE_EVT_GAP_CONNECTION_UPDATE_COMPLETE\000"
 5936      455F4556 
 5936      545F4741 
 5936      505F434F 
ARM GAS  C:\Users\alexport\AppData\Local\Temp\ccr3ZDs0.s 			page 141


 5936      4E4E4543 
 5937              	.LASF99:
 5938 1c43 4359424C 		.ascii	"CYBLE_GATT_ERR_REQUEST_NOT_SUPPORTED\000"
 5938      455F4741 
 5938      54545F45 
 5938      52525F52 
 5938      45515545 
 5939              	.LASF142:
 5940 1c68 636F6E6E 		.ascii	"connHandle\000"
 5940      48616E64 
 5940      6C6500
 5941              	.LASF190:
 5942 1c73 5A65726F 		.ascii	"ZeroCalTime\000"
 5942      43616C54 
 5942      696D6500 
 5943              	.LASF39:
 5944 1c7f 4359424C 		.ascii	"CYBLE_EVT_GAPC_SCAN_START_STOP\000"
 5944      455F4556 
 5944      545F4741 
 5944      50435F53 
 5944      43414E5F 
 5945              	.LASF337:
 5946 1c9e 6D6F6462 		.ascii	"modbusPacketEnd\000"
 5946      75735061 
 5946      636B6574 
 5946      456E6400 
 5947              	.LASF178:
 5948 1cae 4D614F75 		.ascii	"MaOutput\000"
 5948      74707574 
 5948      00
 5949              	.LASF158:
 5950 1cb7 4359424C 		.ascii	"CYBLE_STATE_ADVERTISING\000"
 5950      455F5354 
 5950      4154455F 
 5950      41445645 
 5950      52544953 
 5951              		.ident	"GCC: (GNU Tools for ARM Embedded Processors) 5.4.1 20160609 (release) [ARM/embedded-5-bran
