ARM GAS  C:\Users\alexport\AppData\Local\Temp\ccKALwZl.s 			page 1


   1              		.syntax unified
   2              		.cpu cortex-m0
   3              		.fpu softvfp
   4              		.eabi_attribute 20, 1
   5              		.eabi_attribute 21, 1
   6              		.eabi_attribute 23, 3
   7              		.eabi_attribute 24, 1
   8              		.eabi_attribute 25, 1
   9              		.eabi_attribute 26, 1
  10              		.eabi_attribute 30, 6
  11              		.eabi_attribute 34, 0
  12              		.eabi_attribute 18, 4
  13              		.thumb
  14              		.syntax unified
  15              		.file	"SPIM_1_PM.c"
  16              		.text
  17              	.Ltext0:
  18              		.cfi_sections	.debug_frame
  19              		.data
  20              		.align	2
  21              		.type	SPIM_1_backup, %object
  22              		.size	SPIM_1_backup, 2
  23              	SPIM_1_backup:
  24 0000 00       		.byte	0
  25 0001 0F       		.byte	15
  26              		.section	.text.SPIM_1_SaveConfig,"ax",%progbits
  27              		.align	2
  28              		.global	SPIM_1_SaveConfig
  29              		.code	16
  30              		.thumb_func
  31              		.type	SPIM_1_SaveConfig, %function
  32              	SPIM_1_SaveConfig:
  33              	.LFB2:
  34              		.file 1 "Generated_Source\\PSoC4\\SPIM_1_PM.c"
   1:Generated_Source\PSoC4/SPIM_1_PM.c **** /*******************************************************************************
   2:Generated_Source\PSoC4/SPIM_1_PM.c **** * File Name: SPIM_1_PM.c
   3:Generated_Source\PSoC4/SPIM_1_PM.c **** * Version 2.50
   4:Generated_Source\PSoC4/SPIM_1_PM.c **** *
   5:Generated_Source\PSoC4/SPIM_1_PM.c **** * Description:
   6:Generated_Source\PSoC4/SPIM_1_PM.c **** *  This file contains the setup, control and status commands to support
   7:Generated_Source\PSoC4/SPIM_1_PM.c **** *  component operations in low power mode.
   8:Generated_Source\PSoC4/SPIM_1_PM.c **** *
   9:Generated_Source\PSoC4/SPIM_1_PM.c **** * Note:
  10:Generated_Source\PSoC4/SPIM_1_PM.c **** *
  11:Generated_Source\PSoC4/SPIM_1_PM.c **** ********************************************************************************
  12:Generated_Source\PSoC4/SPIM_1_PM.c **** * Copyright 2008-2015, Cypress Semiconductor Corporation.  All rights reserved.
  13:Generated_Source\PSoC4/SPIM_1_PM.c **** * You may use this file only in accordance with the license, terms, conditions,
  14:Generated_Source\PSoC4/SPIM_1_PM.c **** * disclaimers, and limitations in the end user license agreement accompanying
  15:Generated_Source\PSoC4/SPIM_1_PM.c **** * the software package with which this file was provided.
  16:Generated_Source\PSoC4/SPIM_1_PM.c **** *******************************************************************************/
  17:Generated_Source\PSoC4/SPIM_1_PM.c **** 
  18:Generated_Source\PSoC4/SPIM_1_PM.c **** #include "SPIM_1_PVT.h"
  19:Generated_Source\PSoC4/SPIM_1_PM.c **** 
  20:Generated_Source\PSoC4/SPIM_1_PM.c **** static SPIM_1_BACKUP_STRUCT SPIM_1_backup =
  21:Generated_Source\PSoC4/SPIM_1_PM.c **** {
  22:Generated_Source\PSoC4/SPIM_1_PM.c ****     SPIM_1_DISABLED,
  23:Generated_Source\PSoC4/SPIM_1_PM.c ****     SPIM_1_BITCTR_INIT,
ARM GAS  C:\Users\alexport\AppData\Local\Temp\ccKALwZl.s 			page 2


  24:Generated_Source\PSoC4/SPIM_1_PM.c **** };
  25:Generated_Source\PSoC4/SPIM_1_PM.c **** 
  26:Generated_Source\PSoC4/SPIM_1_PM.c **** 
  27:Generated_Source\PSoC4/SPIM_1_PM.c **** /*******************************************************************************
  28:Generated_Source\PSoC4/SPIM_1_PM.c **** * Function Name: SPIM_1_SaveConfig
  29:Generated_Source\PSoC4/SPIM_1_PM.c **** ********************************************************************************
  30:Generated_Source\PSoC4/SPIM_1_PM.c **** *
  31:Generated_Source\PSoC4/SPIM_1_PM.c **** * Summary:
  32:Generated_Source\PSoC4/SPIM_1_PM.c **** *  Empty function. Included for consistency with other components.
  33:Generated_Source\PSoC4/SPIM_1_PM.c **** *
  34:Generated_Source\PSoC4/SPIM_1_PM.c **** * Parameters:
  35:Generated_Source\PSoC4/SPIM_1_PM.c **** *  None.
  36:Generated_Source\PSoC4/SPIM_1_PM.c **** *
  37:Generated_Source\PSoC4/SPIM_1_PM.c **** * Return:
  38:Generated_Source\PSoC4/SPIM_1_PM.c **** *  None.
  39:Generated_Source\PSoC4/SPIM_1_PM.c **** *
  40:Generated_Source\PSoC4/SPIM_1_PM.c **** *******************************************************************************/
  41:Generated_Source\PSoC4/SPIM_1_PM.c **** void SPIM_1_SaveConfig(void) 
  42:Generated_Source\PSoC4/SPIM_1_PM.c **** {
  35              		.loc 1 42 0
  36              		.cfi_startproc
  37              		@ args = 0, pretend = 0, frame = 0
  38              		@ frame_needed = 1, uses_anonymous_args = 0
  39 0000 80B5     		push	{r7, lr}
  40              		.cfi_def_cfa_offset 8
  41              		.cfi_offset 7, -8
  42              		.cfi_offset 14, -4
  43 0002 00AF     		add	r7, sp, #0
  44              		.cfi_def_cfa_register 7
  43:Generated_Source\PSoC4/SPIM_1_PM.c **** 
  44:Generated_Source\PSoC4/SPIM_1_PM.c **** }
  45              		.loc 1 44 0
  46 0004 C046     		nop
  47 0006 BD46     		mov	sp, r7
  48              		@ sp needed
  49 0008 80BD     		pop	{r7, pc}
  50              		.cfi_endproc
  51              	.LFE2:
  52              		.size	SPIM_1_SaveConfig, .-SPIM_1_SaveConfig
  53 000a C046     		.section	.text.SPIM_1_RestoreConfig,"ax",%progbits
  54              		.align	2
  55              		.global	SPIM_1_RestoreConfig
  56              		.code	16
  57              		.thumb_func
  58              		.type	SPIM_1_RestoreConfig, %function
  59              	SPIM_1_RestoreConfig:
  60              	.LFB3:
  45:Generated_Source\PSoC4/SPIM_1_PM.c **** 
  46:Generated_Source\PSoC4/SPIM_1_PM.c **** 
  47:Generated_Source\PSoC4/SPIM_1_PM.c **** /*******************************************************************************
  48:Generated_Source\PSoC4/SPIM_1_PM.c **** * Function Name: SPIM_1_RestoreConfig
  49:Generated_Source\PSoC4/SPIM_1_PM.c **** ********************************************************************************
  50:Generated_Source\PSoC4/SPIM_1_PM.c **** *
  51:Generated_Source\PSoC4/SPIM_1_PM.c **** * Summary:
  52:Generated_Source\PSoC4/SPIM_1_PM.c **** *  Empty function. Included for consistency with other components.
  53:Generated_Source\PSoC4/SPIM_1_PM.c **** *
  54:Generated_Source\PSoC4/SPIM_1_PM.c **** * Parameters:
ARM GAS  C:\Users\alexport\AppData\Local\Temp\ccKALwZl.s 			page 3


  55:Generated_Source\PSoC4/SPIM_1_PM.c **** *  None.
  56:Generated_Source\PSoC4/SPIM_1_PM.c **** *
  57:Generated_Source\PSoC4/SPIM_1_PM.c **** * Return:
  58:Generated_Source\PSoC4/SPIM_1_PM.c **** *  None.
  59:Generated_Source\PSoC4/SPIM_1_PM.c **** *
  60:Generated_Source\PSoC4/SPIM_1_PM.c **** *******************************************************************************/
  61:Generated_Source\PSoC4/SPIM_1_PM.c **** void SPIM_1_RestoreConfig(void) 
  62:Generated_Source\PSoC4/SPIM_1_PM.c **** {
  61              		.loc 1 62 0
  62              		.cfi_startproc
  63              		@ args = 0, pretend = 0, frame = 0
  64              		@ frame_needed = 1, uses_anonymous_args = 0
  65 0000 80B5     		push	{r7, lr}
  66              		.cfi_def_cfa_offset 8
  67              		.cfi_offset 7, -8
  68              		.cfi_offset 14, -4
  69 0002 00AF     		add	r7, sp, #0
  70              		.cfi_def_cfa_register 7
  63:Generated_Source\PSoC4/SPIM_1_PM.c **** 
  64:Generated_Source\PSoC4/SPIM_1_PM.c **** }
  71              		.loc 1 64 0
  72 0004 C046     		nop
  73 0006 BD46     		mov	sp, r7
  74              		@ sp needed
  75 0008 80BD     		pop	{r7, pc}
  76              		.cfi_endproc
  77              	.LFE3:
  78              		.size	SPIM_1_RestoreConfig, .-SPIM_1_RestoreConfig
  79              		.section	.text.SPIM_1_Sleep,"ax",%progbits
  80              		.align	2
  81              		.global	SPIM_1_Sleep
  82              		.code	16
  83              		.thumb_func
  84              		.type	SPIM_1_Sleep, %function
  85              	SPIM_1_Sleep:
  86              	.LFB4:
  65:Generated_Source\PSoC4/SPIM_1_PM.c **** 
  66:Generated_Source\PSoC4/SPIM_1_PM.c **** 
  67:Generated_Source\PSoC4/SPIM_1_PM.c **** /*******************************************************************************
  68:Generated_Source\PSoC4/SPIM_1_PM.c **** * Function Name: SPIM_1_Sleep
  69:Generated_Source\PSoC4/SPIM_1_PM.c **** ********************************************************************************
  70:Generated_Source\PSoC4/SPIM_1_PM.c **** *
  71:Generated_Source\PSoC4/SPIM_1_PM.c **** * Summary:
  72:Generated_Source\PSoC4/SPIM_1_PM.c **** *  Prepare SPIM Component goes to sleep.
  73:Generated_Source\PSoC4/SPIM_1_PM.c **** *
  74:Generated_Source\PSoC4/SPIM_1_PM.c **** * Parameters:
  75:Generated_Source\PSoC4/SPIM_1_PM.c **** *  None.
  76:Generated_Source\PSoC4/SPIM_1_PM.c **** *
  77:Generated_Source\PSoC4/SPIM_1_PM.c **** * Return:
  78:Generated_Source\PSoC4/SPIM_1_PM.c **** *  None.
  79:Generated_Source\PSoC4/SPIM_1_PM.c **** *
  80:Generated_Source\PSoC4/SPIM_1_PM.c **** * Global Variables:
  81:Generated_Source\PSoC4/SPIM_1_PM.c **** *  SPIM_1_backup - modified when non-retention registers are saved.
  82:Generated_Source\PSoC4/SPIM_1_PM.c **** *
  83:Generated_Source\PSoC4/SPIM_1_PM.c **** * Reentrant:
  84:Generated_Source\PSoC4/SPIM_1_PM.c **** *  No.
  85:Generated_Source\PSoC4/SPIM_1_PM.c **** *
ARM GAS  C:\Users\alexport\AppData\Local\Temp\ccKALwZl.s 			page 4


  86:Generated_Source\PSoC4/SPIM_1_PM.c **** *******************************************************************************/
  87:Generated_Source\PSoC4/SPIM_1_PM.c **** void SPIM_1_Sleep(void) 
  88:Generated_Source\PSoC4/SPIM_1_PM.c **** {
  87              		.loc 1 88 0
  88              		.cfi_startproc
  89              		@ args = 0, pretend = 0, frame = 0
  90              		@ frame_needed = 1, uses_anonymous_args = 0
  91 0000 80B5     		push	{r7, lr}
  92              		.cfi_def_cfa_offset 8
  93              		.cfi_offset 7, -8
  94              		.cfi_offset 14, -4
  95 0002 00AF     		add	r7, sp, #0
  96              		.cfi_def_cfa_register 7
  89:Generated_Source\PSoC4/SPIM_1_PM.c ****     /* Save components enable state */
  90:Generated_Source\PSoC4/SPIM_1_PM.c ****     SPIM_1_backup.enableState = ((uint8) SPIM_1_IS_ENABLED);
  97              		.loc 1 90 0
  98 0004 084B     		ldr	r3, .L4
  99 0006 1B78     		ldrb	r3, [r3]
 100 0008 DBB2     		uxtb	r3, r3
 101 000a 1A00     		movs	r2, r3
 102 000c 1023     		movs	r3, #16
 103 000e 1340     		ands	r3, r2
 104 0010 5A1E     		subs	r2, r3, #1
 105 0012 9341     		sbcs	r3, r3, r2
 106 0014 DBB2     		uxtb	r3, r3
 107 0016 1A00     		movs	r2, r3
 108 0018 044B     		ldr	r3, .L4+4
 109 001a 1A70     		strb	r2, [r3]
  91:Generated_Source\PSoC4/SPIM_1_PM.c **** 
  92:Generated_Source\PSoC4/SPIM_1_PM.c ****     SPIM_1_Stop();
 110              		.loc 1 92 0
 111 001c FFF7FEFF 		bl	SPIM_1_Stop
  93:Generated_Source\PSoC4/SPIM_1_PM.c **** }
 112              		.loc 1 93 0
 113 0020 C046     		nop
 114 0022 BD46     		mov	sp, r7
 115              		@ sp needed
 116 0024 80BD     		pop	{r7, pc}
 117              	.L5:
 118 0026 C046     		.align	2
 119              	.L4:
 120 0028 92000F40 		.word	1074725010
 121 002c 00000000 		.word	SPIM_1_backup
 122              		.cfi_endproc
 123              	.LFE4:
 124              		.size	SPIM_1_Sleep, .-SPIM_1_Sleep
 125              		.section	.text.SPIM_1_Wakeup,"ax",%progbits
 126              		.align	2
 127              		.global	SPIM_1_Wakeup
 128              		.code	16
 129              		.thumb_func
 130              		.type	SPIM_1_Wakeup, %function
 131              	SPIM_1_Wakeup:
 132              	.LFB5:
  94:Generated_Source\PSoC4/SPIM_1_PM.c **** 
  95:Generated_Source\PSoC4/SPIM_1_PM.c **** 
  96:Generated_Source\PSoC4/SPIM_1_PM.c **** /*******************************************************************************
ARM GAS  C:\Users\alexport\AppData\Local\Temp\ccKALwZl.s 			page 5


  97:Generated_Source\PSoC4/SPIM_1_PM.c **** * Function Name: SPIM_1_Wakeup
  98:Generated_Source\PSoC4/SPIM_1_PM.c **** ********************************************************************************
  99:Generated_Source\PSoC4/SPIM_1_PM.c **** *
 100:Generated_Source\PSoC4/SPIM_1_PM.c **** * Summary:
 101:Generated_Source\PSoC4/SPIM_1_PM.c **** *  Prepare SPIM Component to wake up.
 102:Generated_Source\PSoC4/SPIM_1_PM.c **** *
 103:Generated_Source\PSoC4/SPIM_1_PM.c **** * Parameters:
 104:Generated_Source\PSoC4/SPIM_1_PM.c **** *  None.
 105:Generated_Source\PSoC4/SPIM_1_PM.c **** *
 106:Generated_Source\PSoC4/SPIM_1_PM.c **** * Return:
 107:Generated_Source\PSoC4/SPIM_1_PM.c **** *  None.
 108:Generated_Source\PSoC4/SPIM_1_PM.c **** *
 109:Generated_Source\PSoC4/SPIM_1_PM.c **** * Global Variables:
 110:Generated_Source\PSoC4/SPIM_1_PM.c **** *  SPIM_1_backup - used when non-retention registers are restored.
 111:Generated_Source\PSoC4/SPIM_1_PM.c **** *  SPIM_1_txBufferWrite - modified every function call - resets to
 112:Generated_Source\PSoC4/SPIM_1_PM.c **** *  zero.
 113:Generated_Source\PSoC4/SPIM_1_PM.c **** *  SPIM_1_txBufferRead - modified every function call - resets to
 114:Generated_Source\PSoC4/SPIM_1_PM.c **** *  zero.
 115:Generated_Source\PSoC4/SPIM_1_PM.c **** *  SPIM_1_rxBufferWrite - modified every function call - resets to
 116:Generated_Source\PSoC4/SPIM_1_PM.c **** *  zero.
 117:Generated_Source\PSoC4/SPIM_1_PM.c **** *  SPIM_1_rxBufferRead - modified every function call - resets to
 118:Generated_Source\PSoC4/SPIM_1_PM.c **** *  zero.
 119:Generated_Source\PSoC4/SPIM_1_PM.c **** *
 120:Generated_Source\PSoC4/SPIM_1_PM.c **** * Reentrant:
 121:Generated_Source\PSoC4/SPIM_1_PM.c **** *  No.
 122:Generated_Source\PSoC4/SPIM_1_PM.c **** *
 123:Generated_Source\PSoC4/SPIM_1_PM.c **** *******************************************************************************/
 124:Generated_Source\PSoC4/SPIM_1_PM.c **** void SPIM_1_Wakeup(void) 
 125:Generated_Source\PSoC4/SPIM_1_PM.c **** {
 133              		.loc 1 125 0
 134              		.cfi_startproc
 135              		@ args = 0, pretend = 0, frame = 0
 136              		@ frame_needed = 1, uses_anonymous_args = 0
 137 0000 80B5     		push	{r7, lr}
 138              		.cfi_def_cfa_offset 8
 139              		.cfi_offset 7, -8
 140              		.cfi_offset 14, -4
 141 0002 00AF     		add	r7, sp, #0
 142              		.cfi_def_cfa_register 7
 126:Generated_Source\PSoC4/SPIM_1_PM.c ****     #if(SPIM_1_RX_SOFTWARE_BUF_ENABLED)
 127:Generated_Source\PSoC4/SPIM_1_PM.c ****         SPIM_1_rxBufferFull  = 0u;
 128:Generated_Source\PSoC4/SPIM_1_PM.c ****         SPIM_1_rxBufferRead  = 0u;
 129:Generated_Source\PSoC4/SPIM_1_PM.c ****         SPIM_1_rxBufferWrite = 0u;
 130:Generated_Source\PSoC4/SPIM_1_PM.c ****     #endif /* (SPIM_1_RX_SOFTWARE_BUF_ENABLED) */
 131:Generated_Source\PSoC4/SPIM_1_PM.c **** 
 132:Generated_Source\PSoC4/SPIM_1_PM.c ****     #if(SPIM_1_TX_SOFTWARE_BUF_ENABLED)
 133:Generated_Source\PSoC4/SPIM_1_PM.c ****         SPIM_1_txBufferFull  = 0u;
 134:Generated_Source\PSoC4/SPIM_1_PM.c ****         SPIM_1_txBufferRead  = 0u;
 135:Generated_Source\PSoC4/SPIM_1_PM.c ****         SPIM_1_txBufferWrite = 0u;
 136:Generated_Source\PSoC4/SPIM_1_PM.c ****     #endif /* (SPIM_1_TX_SOFTWARE_BUF_ENABLED) */
 137:Generated_Source\PSoC4/SPIM_1_PM.c **** 
 138:Generated_Source\PSoC4/SPIM_1_PM.c ****     /* Clear any data from the RX and TX FIFO */
 139:Generated_Source\PSoC4/SPIM_1_PM.c ****     SPIM_1_ClearFIFO();
 143              		.loc 1 139 0
 144 0004 FFF7FEFF 		bl	SPIM_1_ClearFIFO
 140:Generated_Source\PSoC4/SPIM_1_PM.c **** 
 141:Generated_Source\PSoC4/SPIM_1_PM.c ****     /* Restore components block enable state */
ARM GAS  C:\Users\alexport\AppData\Local\Temp\ccKALwZl.s 			page 6


 142:Generated_Source\PSoC4/SPIM_1_PM.c ****     if(0u != SPIM_1_backup.enableState)
 145              		.loc 1 142 0
 146 0008 044B     		ldr	r3, .L9
 147 000a 1B78     		ldrb	r3, [r3]
 148 000c 002B     		cmp	r3, #0
 149 000e 01D0     		beq	.L8
 143:Generated_Source\PSoC4/SPIM_1_PM.c ****     {
 144:Generated_Source\PSoC4/SPIM_1_PM.c ****         SPIM_1_Enable();
 150              		.loc 1 144 0
 151 0010 FFF7FEFF 		bl	SPIM_1_Enable
 152              	.L8:
 145:Generated_Source\PSoC4/SPIM_1_PM.c ****     }
 146:Generated_Source\PSoC4/SPIM_1_PM.c **** }
 153              		.loc 1 146 0
 154 0014 C046     		nop
 155 0016 BD46     		mov	sp, r7
 156              		@ sp needed
 157 0018 80BD     		pop	{r7, pc}
 158              	.L10:
 159 001a C046     		.align	2
 160              	.L9:
 161 001c 00000000 		.word	SPIM_1_backup
 162              		.cfi_endproc
 163              	.LFE5:
 164              		.size	SPIM_1_Wakeup, .-SPIM_1_Wakeup
 165              		.text
 166              	.Letext0:
 167              		.file 2 "Generated_Source\\PSoC4\\cytypes.h"
 168              		.file 3 "Generated_Source\\PSoC4\\SPIM_1.h"