ARM GAS  C:\Users\alexport\AppData\Local\Temp\ccqwHV3G.s 			page 1


   1              		.syntax unified
   2              		.cpu cortex-m0
   3              		.fpu softvfp
   4              		.eabi_attribute 20, 1
   5              		.eabi_attribute 21, 1
   6              		.eabi_attribute 23, 3
   7              		.eabi_attribute 24, 1
   8              		.eabi_attribute 25, 1
   9              		.eabi_attribute 26, 1
  10              		.eabi_attribute 30, 6
  11              		.eabi_attribute 34, 0
  12              		.eabi_attribute 18, 4
  13              		.thumb
  14              		.syntax unified
  15              		.file	"UART2_INT.c"
  16              		.text
  17              	.Ltext0:
  18              		.cfi_sections	.debug_frame
  19              		.section	.text.UART2_RXISR,"ax",%progbits
  20              		.align	2
  21              		.global	UART2_RXISR
  22              		.code	16
  23              		.thumb_func
  24              		.type	UART2_RXISR, %function
  25              	UART2_RXISR:
  26              	.LFB2:
  27              		.file 1 "Generated_Source\\PSoC4\\UART2_INT.c"
   1:Generated_Source\PSoC4/UART2_INT.c **** /*******************************************************************************
   2:Generated_Source\PSoC4/UART2_INT.c **** * File Name: UART2INT.c
   3:Generated_Source\PSoC4/UART2_INT.c **** * Version 2.50
   4:Generated_Source\PSoC4/UART2_INT.c **** *
   5:Generated_Source\PSoC4/UART2_INT.c **** * Description:
   6:Generated_Source\PSoC4/UART2_INT.c **** *  This file provides all Interrupt Service functionality of the UART component
   7:Generated_Source\PSoC4/UART2_INT.c **** *
   8:Generated_Source\PSoC4/UART2_INT.c **** ********************************************************************************
   9:Generated_Source\PSoC4/UART2_INT.c **** * Copyright 2008-2015, Cypress Semiconductor Corporation.  All rights reserved.
  10:Generated_Source\PSoC4/UART2_INT.c **** * You may use this file only in accordance with the license, terms, conditions,
  11:Generated_Source\PSoC4/UART2_INT.c **** * disclaimers, and limitations in the end user license agreement accompanying
  12:Generated_Source\PSoC4/UART2_INT.c **** * the software package with which this file was provided.
  13:Generated_Source\PSoC4/UART2_INT.c **** *******************************************************************************/
  14:Generated_Source\PSoC4/UART2_INT.c **** 
  15:Generated_Source\PSoC4/UART2_INT.c **** #include "UART2.h"
  16:Generated_Source\PSoC4/UART2_INT.c **** #include "cyapicallbacks.h"
  17:Generated_Source\PSoC4/UART2_INT.c **** 
  18:Generated_Source\PSoC4/UART2_INT.c **** 
  19:Generated_Source\PSoC4/UART2_INT.c **** /***************************************
  20:Generated_Source\PSoC4/UART2_INT.c **** * Custom Declarations
  21:Generated_Source\PSoC4/UART2_INT.c **** ***************************************/
  22:Generated_Source\PSoC4/UART2_INT.c **** /* `#START CUSTOM_DECLARATIONS` Place your declaration here */
  23:Generated_Source\PSoC4/UART2_INT.c **** 
  24:Generated_Source\PSoC4/UART2_INT.c **** /* `#END` */
  25:Generated_Source\PSoC4/UART2_INT.c **** 
  26:Generated_Source\PSoC4/UART2_INT.c **** #if (UART2_RX_INTERRUPT_ENABLED && (UART2_RX_ENABLED || UART2_HD_ENABLED))
  27:Generated_Source\PSoC4/UART2_INT.c ****     /*******************************************************************************
  28:Generated_Source\PSoC4/UART2_INT.c ****     * Function Name: UART2_RXISR
  29:Generated_Source\PSoC4/UART2_INT.c ****     ********************************************************************************
  30:Generated_Source\PSoC4/UART2_INT.c ****     *
ARM GAS  C:\Users\alexport\AppData\Local\Temp\ccqwHV3G.s 			page 2


  31:Generated_Source\PSoC4/UART2_INT.c ****     * Summary:
  32:Generated_Source\PSoC4/UART2_INT.c ****     *  Interrupt Service Routine for RX portion of the UART
  33:Generated_Source\PSoC4/UART2_INT.c ****     *
  34:Generated_Source\PSoC4/UART2_INT.c ****     * Parameters:
  35:Generated_Source\PSoC4/UART2_INT.c ****     *  None.
  36:Generated_Source\PSoC4/UART2_INT.c ****     *
  37:Generated_Source\PSoC4/UART2_INT.c ****     * Return:
  38:Generated_Source\PSoC4/UART2_INT.c ****     *  None.
  39:Generated_Source\PSoC4/UART2_INT.c ****     *
  40:Generated_Source\PSoC4/UART2_INT.c ****     * Global Variables:
  41:Generated_Source\PSoC4/UART2_INT.c ****     *  UART2_rxBuffer - RAM buffer pointer for save received data.
  42:Generated_Source\PSoC4/UART2_INT.c ****     *  UART2_rxBufferWrite - cyclic index for write to rxBuffer,
  43:Generated_Source\PSoC4/UART2_INT.c ****     *     increments after each byte saved to buffer.
  44:Generated_Source\PSoC4/UART2_INT.c ****     *  UART2_rxBufferRead - cyclic index for read from rxBuffer,
  45:Generated_Source\PSoC4/UART2_INT.c ****     *     checked to detect overflow condition.
  46:Generated_Source\PSoC4/UART2_INT.c ****     *  UART2_rxBufferOverflow - software overflow flag. Set to one
  47:Generated_Source\PSoC4/UART2_INT.c ****     *     when UART2_rxBufferWrite index overtakes
  48:Generated_Source\PSoC4/UART2_INT.c ****     *     UART2_rxBufferRead index.
  49:Generated_Source\PSoC4/UART2_INT.c ****     *  UART2_rxBufferLoopDetect - additional variable to detect overflow.
  50:Generated_Source\PSoC4/UART2_INT.c ****     *     Set to one when UART2_rxBufferWrite is equal to
  51:Generated_Source\PSoC4/UART2_INT.c ****     *    UART2_rxBufferRead
  52:Generated_Source\PSoC4/UART2_INT.c ****     *  UART2_rxAddressMode - this variable contains the Address mode,
  53:Generated_Source\PSoC4/UART2_INT.c ****     *     selected in customizer or set by UART_SetRxAddressMode() API.
  54:Generated_Source\PSoC4/UART2_INT.c ****     *  UART2_rxAddressDetected - set to 1 when correct address received,
  55:Generated_Source\PSoC4/UART2_INT.c ****     *     and analysed to store following addressed data bytes to the buffer.
  56:Generated_Source\PSoC4/UART2_INT.c ****     *     When not correct address received, set to 0 to skip following data bytes.
  57:Generated_Source\PSoC4/UART2_INT.c ****     *
  58:Generated_Source\PSoC4/UART2_INT.c ****     *******************************************************************************/
  59:Generated_Source\PSoC4/UART2_INT.c ****     CY_ISR(UART2_RXISR)
  60:Generated_Source\PSoC4/UART2_INT.c ****     {
  28              		.loc 1 60 0
  29              		.cfi_startproc
  30              		@ args = 0, pretend = 0, frame = 8
  31              		@ frame_needed = 1, uses_anonymous_args = 0
  32 0000 80B5     		push	{r7, lr}
  33              		.cfi_def_cfa_offset 8
  34              		.cfi_offset 7, -8
  35              		.cfi_offset 14, -4
  36 0002 82B0     		sub	sp, sp, #8
  37              		.cfi_def_cfa_offset 16
  38 0004 00AF     		add	r7, sp, #0
  39              		.cfi_def_cfa_register 7
  61:Generated_Source\PSoC4/UART2_INT.c ****         uint8 readData;
  62:Generated_Source\PSoC4/UART2_INT.c ****         uint8 readStatus;
  63:Generated_Source\PSoC4/UART2_INT.c ****         uint8 increment_pointer = 0u;
  40              		.loc 1 63 0
  41 0006 FB1D     		adds	r3, r7, #7
  42 0008 0022     		movs	r2, #0
  43 000a 1A70     		strb	r2, [r3]
  44              	.L6:
  64:Generated_Source\PSoC4/UART2_INT.c **** 
  65:Generated_Source\PSoC4/UART2_INT.c ****     #if(CY_PSOC3)
  66:Generated_Source\PSoC4/UART2_INT.c ****         uint8 int_en;
  67:Generated_Source\PSoC4/UART2_INT.c ****     #endif /* (CY_PSOC3) */
  68:Generated_Source\PSoC4/UART2_INT.c **** 
  69:Generated_Source\PSoC4/UART2_INT.c ****     #ifdef UART2_RXISR_ENTRY_CALLBACK
  70:Generated_Source\PSoC4/UART2_INT.c ****         UART2_RXISR_EntryCallback();
ARM GAS  C:\Users\alexport\AppData\Local\Temp\ccqwHV3G.s 			page 3


  71:Generated_Source\PSoC4/UART2_INT.c ****     #endif /* UART2_RXISR_ENTRY_CALLBACK */
  72:Generated_Source\PSoC4/UART2_INT.c **** 
  73:Generated_Source\PSoC4/UART2_INT.c ****         /* User code required at start of ISR */
  74:Generated_Source\PSoC4/UART2_INT.c ****         /* `#START UART2_RXISR_START` */
  75:Generated_Source\PSoC4/UART2_INT.c **** 
  76:Generated_Source\PSoC4/UART2_INT.c ****         /* `#END` */
  77:Generated_Source\PSoC4/UART2_INT.c **** 
  78:Generated_Source\PSoC4/UART2_INT.c ****     #if(CY_PSOC3)   /* Make sure nested interrupt is enabled */
  79:Generated_Source\PSoC4/UART2_INT.c ****         int_en = EA;
  80:Generated_Source\PSoC4/UART2_INT.c ****         CyGlobalIntEnable;
  81:Generated_Source\PSoC4/UART2_INT.c ****     #endif /* (CY_PSOC3) */
  82:Generated_Source\PSoC4/UART2_INT.c **** 
  83:Generated_Source\PSoC4/UART2_INT.c ****         do
  84:Generated_Source\PSoC4/UART2_INT.c ****         {
  85:Generated_Source\PSoC4/UART2_INT.c ****             /* Read receiver status register */
  86:Generated_Source\PSoC4/UART2_INT.c ****             readStatus = UART2_RXSTATUS_REG;
  45              		.loc 1 86 0
  46 000c 2E4A     		ldr	r2, .L7
  47 000e BB1D     		adds	r3, r7, #6
  48 0010 1278     		ldrb	r2, [r2]
  49 0012 1A70     		strb	r2, [r3]
  87:Generated_Source\PSoC4/UART2_INT.c ****             /* Copy the same status to readData variable for backward compatibility support 
  88:Generated_Source\PSoC4/UART2_INT.c ****             *  of the user code in UART2_RXISR_ERROR` section. 
  89:Generated_Source\PSoC4/UART2_INT.c ****             */
  90:Generated_Source\PSoC4/UART2_INT.c ****             readData = readStatus;
  50              		.loc 1 90 0
  51 0014 7B1D     		adds	r3, r7, #5
  52 0016 BA1D     		adds	r2, r7, #6
  53 0018 1278     		ldrb	r2, [r2]
  54 001a 1A70     		strb	r2, [r3]
  91:Generated_Source\PSoC4/UART2_INT.c **** 
  92:Generated_Source\PSoC4/UART2_INT.c ****             if((readStatus & (UART2_RX_STS_BREAK | 
  93:Generated_Source\PSoC4/UART2_INT.c ****                             UART2_RX_STS_PAR_ERROR |
  94:Generated_Source\PSoC4/UART2_INT.c ****                             UART2_RX_STS_STOP_ERROR | 
  95:Generated_Source\PSoC4/UART2_INT.c ****                             UART2_RX_STS_OVERRUN)) != 0u)
  55              		.loc 1 95 0
  56 001c BB1D     		adds	r3, r7, #6
  57 001e 1B78     		ldrb	r3, [r3]
  58 0020 1E22     		movs	r2, #30
  59 0022 1340     		ands	r3, r2
  92:Generated_Source\PSoC4/UART2_INT.c ****                             UART2_RX_STS_PAR_ERROR |
  60              		.loc 1 92 0
  61 0024 0DD0     		beq	.L2
  96:Generated_Source\PSoC4/UART2_INT.c ****             {
  97:Generated_Source\PSoC4/UART2_INT.c ****                 /* ERROR handling. */
  98:Generated_Source\PSoC4/UART2_INT.c ****                 UART2_errorStatus |= readStatus & ( UART2_RX_STS_BREAK | 
  62              		.loc 1 98 0
  63 0026 BB1D     		adds	r3, r7, #6
  64 0028 1B78     		ldrb	r3, [r3]
  65 002a 5BB2     		sxtb	r3, r3
  66 002c 1E22     		movs	r2, #30
  67 002e 1340     		ands	r3, r2
  68 0030 5AB2     		sxtb	r2, r3
  69 0032 264B     		ldr	r3, .L7+4
  70 0034 1B78     		ldrb	r3, [r3]
  71 0036 5BB2     		sxtb	r3, r3
  72 0038 1343     		orrs	r3, r2
ARM GAS  C:\Users\alexport\AppData\Local\Temp\ccqwHV3G.s 			page 4


  73 003a 5BB2     		sxtb	r3, r3
  74 003c DAB2     		uxtb	r2, r3
  75 003e 234B     		ldr	r3, .L7+4
  76 0040 1A70     		strb	r2, [r3]
  77              	.L2:
  99:Generated_Source\PSoC4/UART2_INT.c ****                                                             UART2_RX_STS_PAR_ERROR | 
 100:Generated_Source\PSoC4/UART2_INT.c ****                                                             UART2_RX_STS_STOP_ERROR | 
 101:Generated_Source\PSoC4/UART2_INT.c ****                                                             UART2_RX_STS_OVERRUN);
 102:Generated_Source\PSoC4/UART2_INT.c ****                 /* `#START UART2_RXISR_ERROR` */
 103:Generated_Source\PSoC4/UART2_INT.c **** 
 104:Generated_Source\PSoC4/UART2_INT.c ****                 /* `#END` */
 105:Generated_Source\PSoC4/UART2_INT.c ****                 
 106:Generated_Source\PSoC4/UART2_INT.c ****             #ifdef UART2_RXISR_ERROR_CALLBACK
 107:Generated_Source\PSoC4/UART2_INT.c ****                 UART2_RXISR_ERROR_Callback();
 108:Generated_Source\PSoC4/UART2_INT.c ****             #endif /* UART2_RXISR_ERROR_CALLBACK */
 109:Generated_Source\PSoC4/UART2_INT.c ****             }
 110:Generated_Source\PSoC4/UART2_INT.c ****             
 111:Generated_Source\PSoC4/UART2_INT.c ****             if((readStatus & UART2_RX_STS_FIFO_NOTEMPTY) != 0u)
  78              		.loc 1 111 0
  79 0042 BB1D     		adds	r3, r7, #6
  80 0044 1B78     		ldrb	r3, [r3]
  81 0046 2022     		movs	r2, #32
  82 0048 1340     		ands	r3, r2
  83 004a 34D0     		beq	.L3
 112:Generated_Source\PSoC4/UART2_INT.c ****             {
 113:Generated_Source\PSoC4/UART2_INT.c ****                 /* Read data from the RX data register */
 114:Generated_Source\PSoC4/UART2_INT.c ****                 readData = UART2_RXDATA_REG;
  84              		.loc 1 114 0
  85 004c 204A     		ldr	r2, .L7+8
  86 004e 7B1D     		adds	r3, r7, #5
  87 0050 1278     		ldrb	r2, [r2]
  88 0052 1A70     		strb	r2, [r3]
 115:Generated_Source\PSoC4/UART2_INT.c ****             #if (UART2_RXHW_ADDRESS_ENABLED)
 116:Generated_Source\PSoC4/UART2_INT.c ****                 if(UART2_rxAddressMode == (uint8)UART2__B_UART__AM_SW_DETECT_TO_BUFFER)
 117:Generated_Source\PSoC4/UART2_INT.c ****                 {
 118:Generated_Source\PSoC4/UART2_INT.c ****                     if((readStatus & UART2_RX_STS_MRKSPC) != 0u)
 119:Generated_Source\PSoC4/UART2_INT.c ****                     {
 120:Generated_Source\PSoC4/UART2_INT.c ****                         if ((readStatus & UART2_RX_STS_ADDR_MATCH) != 0u)
 121:Generated_Source\PSoC4/UART2_INT.c ****                         {
 122:Generated_Source\PSoC4/UART2_INT.c ****                             UART2_rxAddressDetected = 1u;
 123:Generated_Source\PSoC4/UART2_INT.c ****                         }
 124:Generated_Source\PSoC4/UART2_INT.c ****                         else
 125:Generated_Source\PSoC4/UART2_INT.c ****                         {
 126:Generated_Source\PSoC4/UART2_INT.c ****                             UART2_rxAddressDetected = 0u;
 127:Generated_Source\PSoC4/UART2_INT.c ****                         }
 128:Generated_Source\PSoC4/UART2_INT.c ****                     }
 129:Generated_Source\PSoC4/UART2_INT.c ****                     if(UART2_rxAddressDetected != 0u)
 130:Generated_Source\PSoC4/UART2_INT.c ****                     {   /* Store only addressed data */
 131:Generated_Source\PSoC4/UART2_INT.c ****                         UART2_rxBuffer[UART2_rxBufferWrite] = readData;
 132:Generated_Source\PSoC4/UART2_INT.c ****                         increment_pointer = 1u;
 133:Generated_Source\PSoC4/UART2_INT.c ****                     }
 134:Generated_Source\PSoC4/UART2_INT.c ****                 }
 135:Generated_Source\PSoC4/UART2_INT.c ****                 else /* Without software addressing */
 136:Generated_Source\PSoC4/UART2_INT.c ****                 {
 137:Generated_Source\PSoC4/UART2_INT.c ****                     UART2_rxBuffer[UART2_rxBufferWrite] = readData;
 138:Generated_Source\PSoC4/UART2_INT.c ****                     increment_pointer = 1u;
 139:Generated_Source\PSoC4/UART2_INT.c ****                 }
ARM GAS  C:\Users\alexport\AppData\Local\Temp\ccqwHV3G.s 			page 5


 140:Generated_Source\PSoC4/UART2_INT.c ****             #else  /* Without addressing */
 141:Generated_Source\PSoC4/UART2_INT.c ****                 UART2_rxBuffer[UART2_rxBufferWrite] = readData;
  89              		.loc 1 141 0
  90 0054 1F4B     		ldr	r3, .L7+12
  91 0056 1B78     		ldrb	r3, [r3]
  92 0058 DBB2     		uxtb	r3, r3
  93 005a 1900     		movs	r1, r3
  94 005c 1E4B     		ldr	r3, .L7+16
  95 005e 7A1D     		adds	r2, r7, #5
  96 0060 1278     		ldrb	r2, [r2]
  97 0062 5A54     		strb	r2, [r3, r1]
 142:Generated_Source\PSoC4/UART2_INT.c ****                 increment_pointer = 1u;
  98              		.loc 1 142 0
  99 0064 FB1D     		adds	r3, r7, #7
 100 0066 0122     		movs	r2, #1
 101 0068 1A70     		strb	r2, [r3]
 143:Generated_Source\PSoC4/UART2_INT.c ****             #endif /* (UART2_RXHW_ADDRESS_ENABLED) */
 144:Generated_Source\PSoC4/UART2_INT.c **** 
 145:Generated_Source\PSoC4/UART2_INT.c ****                 /* Do not increment buffer pointer when skip not addressed data */
 146:Generated_Source\PSoC4/UART2_INT.c ****                 if(increment_pointer != 0u)
 102              		.loc 1 146 0
 103 006a FB1D     		adds	r3, r7, #7
 104 006c 1B78     		ldrb	r3, [r3]
 105 006e 002B     		cmp	r3, #0
 106 0070 21D0     		beq	.L3
 147:Generated_Source\PSoC4/UART2_INT.c ****                 {
 148:Generated_Source\PSoC4/UART2_INT.c ****                     if(UART2_rxBufferLoopDetect != 0u)
 107              		.loc 1 148 0
 108 0072 1A4B     		ldr	r3, .L7+20
 109 0074 1B78     		ldrb	r3, [r3]
 110 0076 DBB2     		uxtb	r3, r3
 111 0078 002B     		cmp	r3, #0
 112 007a 02D0     		beq	.L4
 149:Generated_Source\PSoC4/UART2_INT.c ****                     {   /* Set Software Buffer status Overflow */
 150:Generated_Source\PSoC4/UART2_INT.c ****                         UART2_rxBufferOverflow = 1u;
 113              		.loc 1 150 0
 114 007c 184B     		ldr	r3, .L7+24
 115 007e 0122     		movs	r2, #1
 116 0080 1A70     		strb	r2, [r3]
 117              	.L4:
 151:Generated_Source\PSoC4/UART2_INT.c ****                     }
 152:Generated_Source\PSoC4/UART2_INT.c ****                     /* Set next pointer. */
 153:Generated_Source\PSoC4/UART2_INT.c ****                     UART2_rxBufferWrite++;
 118              		.loc 1 153 0
 119 0082 144B     		ldr	r3, .L7+12
 120 0084 1B78     		ldrb	r3, [r3]
 121 0086 DBB2     		uxtb	r3, r3
 122 0088 0133     		adds	r3, r3, #1
 123 008a DAB2     		uxtb	r2, r3
 124 008c 114B     		ldr	r3, .L7+12
 125 008e 1A70     		strb	r2, [r3]
 154:Generated_Source\PSoC4/UART2_INT.c **** 
 155:Generated_Source\PSoC4/UART2_INT.c ****                     /* Check pointer for a loop condition */
 156:Generated_Source\PSoC4/UART2_INT.c ****                     if(UART2_rxBufferWrite >= UART2_RX_BUFFER_SIZE)
 126              		.loc 1 156 0
 127 0090 104B     		ldr	r3, .L7+12
 128 0092 1B78     		ldrb	r3, [r3]
ARM GAS  C:\Users\alexport\AppData\Local\Temp\ccqwHV3G.s 			page 6


 129 0094 DBB2     		uxtb	r3, r3
 130 0096 072B     		cmp	r3, #7
 131 0098 02D9     		bls	.L5
 157:Generated_Source\PSoC4/UART2_INT.c ****                     {
 158:Generated_Source\PSoC4/UART2_INT.c ****                         UART2_rxBufferWrite = 0u;
 132              		.loc 1 158 0
 133 009a 0E4B     		ldr	r3, .L7+12
 134 009c 0022     		movs	r2, #0
 135 009e 1A70     		strb	r2, [r3]
 136              	.L5:
 159:Generated_Source\PSoC4/UART2_INT.c ****                     }
 160:Generated_Source\PSoC4/UART2_INT.c **** 
 161:Generated_Source\PSoC4/UART2_INT.c ****                     /* Detect pre-overload condition and set flag */
 162:Generated_Source\PSoC4/UART2_INT.c ****                     if(UART2_rxBufferWrite == UART2_rxBufferRead)
 137              		.loc 1 162 0
 138 00a0 0C4B     		ldr	r3, .L7+12
 139 00a2 1B78     		ldrb	r3, [r3]
 140 00a4 DAB2     		uxtb	r2, r3
 141 00a6 0F4B     		ldr	r3, .L7+28
 142 00a8 1B78     		ldrb	r3, [r3]
 143 00aa DBB2     		uxtb	r3, r3
 144 00ac 9A42     		cmp	r2, r3
 145 00ae 02D1     		bne	.L3
 163:Generated_Source\PSoC4/UART2_INT.c ****                     {
 164:Generated_Source\PSoC4/UART2_INT.c ****                         UART2_rxBufferLoopDetect = 1u;
 146              		.loc 1 164 0
 147 00b0 0A4B     		ldr	r3, .L7+20
 148 00b2 0122     		movs	r2, #1
 149 00b4 1A70     		strb	r2, [r3]
 150              	.L3:
 165:Generated_Source\PSoC4/UART2_INT.c ****                         /* When Hardware Flow Control selected */
 166:Generated_Source\PSoC4/UART2_INT.c ****                         #if (UART2_FLOW_CONTROL != 0u)
 167:Generated_Source\PSoC4/UART2_INT.c ****                             /* Disable RX interrupt mask, it is enabled when user read data from th
 168:Generated_Source\PSoC4/UART2_INT.c ****                             UART2_RXSTATUS_MASK_REG  &= (uint8)~UART2_RX_STS_FIFO_NOTEMPTY;
 169:Generated_Source\PSoC4/UART2_INT.c ****                             CyIntClearPending(UART2_RX_VECT_NUM);
 170:Generated_Source\PSoC4/UART2_INT.c ****                             break; /* Break the reading of the FIFO loop, leave the data there for 
 171:Generated_Source\PSoC4/UART2_INT.c ****                         #endif /* (UART2_FLOW_CONTROL != 0u) */
 172:Generated_Source\PSoC4/UART2_INT.c ****                     }
 173:Generated_Source\PSoC4/UART2_INT.c ****                 }
 174:Generated_Source\PSoC4/UART2_INT.c ****             }
 175:Generated_Source\PSoC4/UART2_INT.c ****         }while((readStatus & UART2_RX_STS_FIFO_NOTEMPTY) != 0u);
 151              		.loc 1 175 0
 152 00b6 BB1D     		adds	r3, r7, #6
 153 00b8 1B78     		ldrb	r3, [r3]
 154 00ba 2022     		movs	r2, #32
 155 00bc 1340     		ands	r3, r2
 156 00be A5D1     		bne	.L6
 176:Generated_Source\PSoC4/UART2_INT.c **** 
 177:Generated_Source\PSoC4/UART2_INT.c ****         /* User code required at end of ISR (Optional) */
 178:Generated_Source\PSoC4/UART2_INT.c ****         /* `#START UART2_RXISR_END` */
 179:Generated_Source\PSoC4/UART2_INT.c **** 
 180:Generated_Source\PSoC4/UART2_INT.c ****         /* `#END` */
 181:Generated_Source\PSoC4/UART2_INT.c **** 
 182:Generated_Source\PSoC4/UART2_INT.c ****     #ifdef UART2_RXISR_EXIT_CALLBACK
 183:Generated_Source\PSoC4/UART2_INT.c ****         UART2_RXISR_ExitCallback();
 184:Generated_Source\PSoC4/UART2_INT.c ****     #endif /* UART2_RXISR_EXIT_CALLBACK */
 185:Generated_Source\PSoC4/UART2_INT.c **** 
ARM GAS  C:\Users\alexport\AppData\Local\Temp\ccqwHV3G.s 			page 7


 186:Generated_Source\PSoC4/UART2_INT.c ****     #if(CY_PSOC3)
 187:Generated_Source\PSoC4/UART2_INT.c ****         EA = int_en;
 188:Generated_Source\PSoC4/UART2_INT.c ****     #endif /* (CY_PSOC3) */
 189:Generated_Source\PSoC4/UART2_INT.c ****     }
 157              		.loc 1 189 0
 158 00c0 C046     		nop
 159 00c2 BD46     		mov	sp, r7
 160 00c4 02B0     		add	sp, sp, #8
 161              		@ sp needed
 162 00c6 80BD     		pop	{r7, pc}
 163              	.L8:
 164              		.align	2
 165              	.L7:
 166 00c8 60000F40 		.word	1074724960
 167 00cc 00000000 		.word	UART2_errorStatus
 168 00d0 41000F40 		.word	1074724929
 169 00d4 00000000 		.word	UART2_rxBufferWrite
 170 00d8 00000000 		.word	UART2_rxBuffer
 171 00dc 00000000 		.word	UART2_rxBufferLoopDetect
 172 00e0 00000000 		.word	UART2_rxBufferOverflow
 173 00e4 00000000 		.word	UART2_rxBufferRead
 174              		.cfi_endproc
 175              	.LFE2:
 176              		.size	UART2_RXISR, .-UART2_RXISR
 177              		.text
 178              	.Letext0:
 179              		.file 2 "Generated_Source\\PSoC4\\cytypes.h"
 180              		.file 3 "Generated_Source\\PSoC4\\UART2.h"